ARM GAS  /tmp/ccF16Vwx.s 			page 1


   1              		.cpu cortex-m0
   2              		.fpu softvfp
   3              		.eabi_attribute 20, 1	@ Tag_ABI_FP_denormal
   4              		.eabi_attribute 21, 1	@ Tag_ABI_FP_exceptions
   5              		.eabi_attribute 23, 3	@ Tag_ABI_FP_number_model
   6              		.eabi_attribute 24, 1	@ Tag_ABI_align8_needed
   7              		.eabi_attribute 25, 1	@ Tag_ABI_align8_preserved
   8              		.eabi_attribute 26, 1	@ Tag_ABI_enum_size
   9              		.eabi_attribute 30, 4	@ Tag_ABI_optimization_goals
  10              		.eabi_attribute 34, 0	@ Tag_CPU_unaligned_access
  11              		.eabi_attribute 18, 4	@ Tag_ABI_PCS_wchar_t
  12              		.file	"brusa.c"
  13              	@ GNU C (GNU Tools for ARM Embedded Processors) version 4.9.3 20150529 (release) [ARM/embedded-4_9-
  14              	@	compiled by GNU C version 4.8.4, GMP version 5.1.3, MPFR version 3.1.2-p3, MPC version 1.0.1
  15              	@ GGC heuristics: --param ggc-min-expand=98 --param ggc-min-heapsize=128397
  16              	@ options passed:  -I . -I ../../lpc11cx4-library/lpc_chip_11cxx_lib/inc
  17              	@ -I ../../lpc11cx4-library/evt_lib/inc -I inc -imultilib armv6-m
  18              	@ -iprefix /usr/bin/../lib/gcc/arm-none-eabi/4.9.3/
  19              	@ -isysroot /usr/bin/../arm-none-eabi -MD bin/brusa.d -MF bin/brusa.d -MP
  20              	@ -MQ bin/brusa.o -D__USES_INITFINI__ -D CORE_M0
  21              	@ ../../lpc11cx4-library/evt_lib/src/brusa.c -mcpu=cortex-m0 -mthumb
  22              	@ -auxbase-strip bin/brusa.o -g -ggdb3 -Os -Wall -Wstrict-prototypes
  23              	@ -Wextra -std=gnu90 -ffunction-sections -fdata-sections -fverbose-asm
  24              	@ -fstack-usage
  25              	@ options enabled:  -faggressive-loop-optimizations -fauto-inc-dec
  26              	@ -fbranch-count-reg -fcaller-saves -fcombine-stack-adjustments -fcommon
  27              	@ -fcompare-elim -fcprop-registers -fcrossjumping -fcse-follow-jumps
  28              	@ -fdata-sections -fdefer-pop -fdelete-null-pointer-checks -fdevirtualize
  29              	@ -fdevirtualize-speculatively -fdwarf2-cfi-asm -fearly-inlining
  30              	@ -feliminate-unused-debug-types -fexpensive-optimizations
  31              	@ -fforward-propagate -ffunction-cse -ffunction-sections -fgcse -fgcse-lm
  32              	@ -fgnu-runtime -fgnu-unique -fguess-branch-probability
  33              	@ -fhoist-adjacent-loads -fident -fif-conversion -fif-conversion2
  34              	@ -findirect-inlining -finline -finline-atomics -finline-functions
  35              	@ -finline-functions-called-once -finline-small-functions -fipa-cp
  36              	@ -fipa-profile -fipa-pure-const -fipa-reference -fipa-sra
  37              	@ -fira-hoist-pressure -fira-share-save-slots -fira-share-spill-slots
  38              	@ -fisolate-erroneous-paths-dereference -fivopts -fkeep-static-consts
  39              	@ -fleading-underscore -flifetime-dse -fmath-errno -fmerge-constants
  40              	@ -fmerge-debug-strings -fomit-frame-pointer -foptimize-sibling-calls
  41              	@ -fpartial-inlining -fpeephole -fpeephole2 -fprefetch-loop-arrays
  42              	@ -freg-struct-return -freorder-blocks -freorder-functions
  43              	@ -frerun-cse-after-loop -fsched-critical-path-heuristic
  44              	@ -fsched-dep-count-heuristic -fsched-group-heuristic -fsched-interblock
  45              	@ -fsched-last-insn-heuristic -fsched-pressure -fsched-rank-heuristic
  46              	@ -fsched-spec -fsched-spec-insn-heuristic -fsched-stalled-insns-dep
  47              	@ -fschedule-insns2 -fsection-anchors -fshow-column -fshrink-wrap
  48              	@ -fsigned-zeros -fsplit-ivs-in-unroller -fsplit-wide-types
  49              	@ -fstrict-aliasing -fstrict-overflow -fstrict-volatile-bitfields
  50              	@ -fsync-libcalls -fthread-jumps -ftoplevel-reorder -ftrapping-math
  51              	@ -ftree-bit-ccp -ftree-builtin-call-dce -ftree-ccp -ftree-ch
  52              	@ -ftree-coalesce-vars -ftree-copy-prop -ftree-copyrename -ftree-cselim
  53              	@ -ftree-dce -ftree-dominator-opts -ftree-dse -ftree-forwprop -ftree-fre
  54              	@ -ftree-loop-if-convert -ftree-loop-im -ftree-loop-ivcanon
  55              	@ -ftree-loop-optimize -ftree-parallelize-loops= -ftree-phiprop -ftree-pre
  56              	@ -ftree-pta -ftree-reassoc -ftree-scev-cprop -ftree-sink -ftree-slsr
  57              	@ -ftree-sra -ftree-switch-conversion -ftree-tail-merge -ftree-ter
ARM GAS  /tmp/ccF16Vwx.s 			page 2


  58              	@ -ftree-vrp -funit-at-a-time -fvar-tracking -fvar-tracking-assignments
  59              	@ -fverbose-asm -fzero-initialized-in-bss -mlittle-endian -mlra
  60              	@ -mpic-data-is-text-relative -msched-prolog -mthumb
  61              	@ -mvectorize-with-neon-quad
  62              	
  63              		.text
  64              	.Ltext0:
  65              		.cfi_sections	.debug_frame
  66              		.global	__aeabi_uidiv
  67              		.section	.text.Brusa_MakeCTL,"ax",%progbits
  68              		.align	1
  69              		.global	Brusa_MakeCTL
  70              		.code	16
  71              		.thumb_func
  72              		.type	Brusa_MakeCTL, %function
  73              	Brusa_MakeCTL:
  74              	.LFB198:
  75              		.file 1 "../../lpc11cx4-library/evt_lib/src/brusa.c"
   1:../../lpc11cx4-library/evt_lib/src/brusa.c **** #include "brusa.h"
   2:../../lpc11cx4-library/evt_lib/src/brusa.c **** 
   3:../../lpc11cx4-library/evt_lib/src/brusa.c **** void Brusa_MakeCTL(NLG5_CTL_T *contents, CCAN_MSG_OBJ_T *msg_obj) {
  76              		.loc 1 3 0
  77              		.cfi_startproc
  78              	.LVL0:
  79 0000 38B5     		push	{r3, r4, r5, lr}	@
  80              		.cfi_def_cfa_offset 16
  81              		.cfi_offset 3, -16
  82              		.cfi_offset 4, -12
  83              		.cfi_offset 5, -8
  84              		.cfi_offset 14, -4
   4:../../lpc11cx4-library/evt_lib/src/brusa.c **** 	msg_obj->mode_id = NLG5_CTL;
  85              		.loc 1 4 0
  86 0002 C323     		mov	r3, #195	@ tmp145,
  87 0004 DB00     		lsl	r3, r3, #3	@ tmp145, tmp145,
  88 0006 0B60     		str	r3, [r1]	@ tmp145, msg_obj_2(D)->mode_id
   5:../../lpc11cx4-library/evt_lib/src/brusa.c **** 	msg_obj->dlc = NLG5_CTL_DLC;
  89              		.loc 1 5 0
  90 0008 0723     		mov	r3, #7	@ tmp146,
   3:../../lpc11cx4-library/evt_lib/src/brusa.c **** 	msg_obj->mode_id = NLG5_CTL;
  91              		.loc 1 3 0
  92 000a 0C1C     		mov	r4, r1	@ msg_obj, msg_obj
  93              		.loc 1 5 0
  94 000c 0B74     		strb	r3, [r1, #16]	@ tmp146, msg_obj_2(D)->dlc
   6:../../lpc11cx4-library/evt_lib/src/brusa.c **** 	msg_obj->data[0] = ((contents->enable & 1) << 7) | 
   7:../../lpc11cx4-library/evt_lib/src/brusa.c **** 				  ((contents->clear_error & 1) << 6) | 
   8:../../lpc11cx4-library/evt_lib/src/brusa.c **** 				  ((contents->ventilation_request & 1) << 5);
  95              		.loc 1 8 0
  96 000e 8178     		ldrb	r1, [r0, #2]	@ tmp155,
  97              	.LVL1:
   7:../../lpc11cx4-library/evt_lib/src/brusa.c **** 				  ((contents->ventilation_request & 1) << 5);
  98              		.loc 1 7 0
  99 0010 4278     		ldrb	r2, [r0, #1]	@ tmp149,
 100 0012 063B     		sub	r3, r3, #6	@ tmp151,
 101 0014 1A40     		and	r2, r3	@ D.6382, tmp151
 102              		.loc 1 8 0
 103 0016 0B40     		and	r3, r1	@ D.6382, tmp155
   7:../../lpc11cx4-library/evt_lib/src/brusa.c **** 				  ((contents->ventilation_request & 1) << 5);
ARM GAS  /tmp/ccF16Vwx.s 			page 3


 104              		.loc 1 7 0
 105 0018 9201     		lsl	r2, r2, #6	@ D.6382, D.6382,
 106              		.loc 1 8 0
 107 001a 5B01     		lsl	r3, r3, #5	@ D.6382, D.6382,
 108 001c 1343     		orr	r3, r2	@ tmp162, D.6382
   6:../../lpc11cx4-library/evt_lib/src/brusa.c **** 	msg_obj->data[0] = ((contents->enable & 1) << 7) | 
 109              		.loc 1 6 0
 110 001e 0278     		ldrb	r2, [r0]	@ D.6382, *contents_5(D)
   3:../../lpc11cx4-library/evt_lib/src/brusa.c **** 	msg_obj->mode_id = NLG5_CTL;
 111              		.loc 1 3 0
 112 0020 051C     		mov	r5, r0	@ contents, contents
   6:../../lpc11cx4-library/evt_lib/src/brusa.c **** 	msg_obj->data[0] = ((contents->enable & 1) << 7) | 
 113              		.loc 1 6 0
 114 0022 D201     		lsl	r2, r2, #7	@ D.6382, D.6382,
 115 0024 1343     		orr	r3, r2	@ tmp167, D.6382
 116 0026 2372     		strb	r3, [r4, #8]	@ tmp167, msg_obj_2(D)->D.5973.data
   9:../../lpc11cx4-library/evt_lib/src/brusa.c **** 	uint16_t mains_dAmps = contents->max_mains_cAmps / 10;
 117              		.loc 1 9 0
 118 0028 8088     		ldrh	r0, [r0, #4]	@ tmp170,
 119              	.LVL2:
 120 002a 0A21     		mov	r1, #10	@,
 121 002c FFF7FEFF 		bl	__aeabi_uidiv	@
 122              	.LVL3:
 123 0030 80B2     		uxth	r0, r0	@ mains_dAmps, tmp173
 124              	.LVL4:
  10:../../lpc11cx4-library/evt_lib/src/brusa.c **** 	msg_obj->data[1] = mains_dAmps >> 8;
 125              		.loc 1 10 0
 126 0032 030A     		lsr	r3, r0, #8	@ tmp174, mains_dAmps,
 127 0034 6372     		strb	r3, [r4, #9]	@ tmp174, msg_obj_2(D)->D.5973.data
  11:../../lpc11cx4-library/evt_lib/src/brusa.c **** 	msg_obj->data[2] = mains_dAmps & 0xFF;
 128              		.loc 1 11 0
 129 0036 A072     		strb	r0, [r4, #10]	@ mains_dAmps, msg_obj_2(D)->D.5973.data
  12:../../lpc11cx4-library/evt_lib/src/brusa.c **** 	uint16_t out_dVolts = contents->output_mVolts / 100;
 130              		.loc 1 12 0
 131 0038 A868     		ldr	r0, [r5, #8]	@, contents_5(D)->output_mVolts
 132              	.LVL5:
 133 003a 6421     		mov	r1, #100	@,
 134 003c FFF7FEFF 		bl	__aeabi_uidiv	@
 135              	.LVL6:
  13:../../lpc11cx4-library/evt_lib/src/brusa.c **** 	msg_obj->data[3] = out_dVolts >> 8;
 136              		.loc 1 13 0
 137 0040 030A     		lsr	r3, r0, #8	@ tmp182, tmp180,
 138 0042 E372     		strb	r3, [r4, #11]	@ tmp182, msg_obj_2(D)->D.5973.data
  14:../../lpc11cx4-library/evt_lib/src/brusa.c **** 	msg_obj->data[4] = out_dVolts & 0xFF;
 139              		.loc 1 14 0
 140 0044 2073     		strb	r0, [r4, #12]	@ tmp180, msg_obj_2(D)->D.5973.data
  15:../../lpc11cx4-library/evt_lib/src/brusa.c **** 	uint16_t out_dAmps = contents->output_cAmps / 10;
 141              		.loc 1 15 0
 142 0046 A889     		ldrh	r0, [r5, #12]	@ tmp186,
 143              	.LVL7:
 144 0048 0A21     		mov	r1, #10	@,
 145 004a FFF7FEFF 		bl	__aeabi_uidiv	@
 146              	.LVL8:
 147 004e 80B2     		uxth	r0, r0	@ out_dAmps, tmp189
 148              	.LVL9:
  16:../../lpc11cx4-library/evt_lib/src/brusa.c **** 	msg_obj->data[5] = out_dAmps >> 8;
 149              		.loc 1 16 0
ARM GAS  /tmp/ccF16Vwx.s 			page 4


 150 0050 030A     		lsr	r3, r0, #8	@ tmp190, out_dAmps,
 151 0052 6373     		strb	r3, [r4, #13]	@ tmp190, msg_obj_2(D)->D.5973.data
  17:../../lpc11cx4-library/evt_lib/src/brusa.c **** 	msg_obj->data[6] = out_dAmps & 0xFF;
 152              		.loc 1 17 0
 153 0054 A073     		strb	r0, [r4, #14]	@ out_dAmps, msg_obj_2(D)->D.5973.data
  18:../../lpc11cx4-library/evt_lib/src/brusa.c **** }
 154              		.loc 1 18 0
 155              		@ sp needed	@
 156              	.LVL10:
 157              	.LVL11:
 158 0056 38BD     		pop	{r3, r4, r5, pc}
 159              		.cfi_endproc
 160              	.LFE198:
 161              		.size	Brusa_MakeCTL, .-Brusa_MakeCTL
 162              		.section	.text.Brusa_DecodeStatus,"ax",%progbits
 163              		.align	1
 164              		.global	Brusa_DecodeStatus
 165              		.code	16
 166              		.thumb_func
 167              		.type	Brusa_DecodeStatus, %function
 168              	Brusa_DecodeStatus:
 169              	.LFB199:
  19:../../lpc11cx4-library/evt_lib/src/brusa.c **** 
  20:../../lpc11cx4-library/evt_lib/src/brusa.c **** int Brusa_DecodeStatus(NLG5_STATUS_T *contents, CCAN_MSG_OBJ_T *msg_obj) {
 170              		.loc 1 20 0
 171              		.cfi_startproc
 172              	.LVL12:
  21:../../lpc11cx4-library/evt_lib/src/brusa.c **** 	if (msg_obj->dlc != NLG5_STATUS_DLC) {
 173              		.loc 1 21 0
 174 0000 0B7C     		ldrb	r3, [r1, #16]	@ tmp142,
 175 0002 042B     		cmp	r3, #4	@ tmp142,
 176 0004 22D1     		bne	.L4	@,
  22:../../lpc11cx4-library/evt_lib/src/brusa.c **** 		return -1;
  23:../../lpc11cx4-library/evt_lib/src/brusa.c **** 	}
  24:../../lpc11cx4-library/evt_lib/src/brusa.c **** 
  25:../../lpc11cx4-library/evt_lib/src/brusa.c **** 	contents->power_enabled = msg_obj->data[0] >> 7;
 177              		.loc 1 25 0
 178 0006 0B7A     		ldrb	r3, [r1, #8]	@ tmp143,
 179 0008 DB09     		lsr	r3, r3, #7	@ tmp144, tmp143,
 180 000a 0370     		strb	r3, [r0]	@ tmp144, contents_8(D)->power_enabled
  26:../../lpc11cx4-library/evt_lib/src/brusa.c **** 	contents->general_error_latch = (msg_obj->data[0] >> 6) & 1;
 181              		.loc 1 26 0
 182 000c 0123     		mov	r3, #1	@ tmp150,
 183 000e 0A7A     		ldrb	r2, [r1, #8]	@ tmp146,
 184 0010 9209     		lsr	r2, r2, #6	@ tmp147, tmp146,
 185 0012 1A40     		and	r2, r3	@ tmp149, tmp150
 186 0014 4270     		strb	r2, [r0, #1]	@ tmp149, contents_8(D)->general_error_latch
  27:../../lpc11cx4-library/evt_lib/src/brusa.c **** 	contents->general_limit_warning = (msg_obj->data[0] >> 5) & 1;
 187              		.loc 1 27 0
 188 0016 0A7A     		ldrb	r2, [r1, #8]	@ tmp152,
 189 0018 5209     		lsr	r2, r2, #5	@ tmp153, tmp152,
 190 001a 1A40     		and	r2, r3	@ tmp155, tmp150
 191 001c 8270     		strb	r2, [r0, #2]	@ tmp155, contents_8(D)->general_limit_warning
  28:../../lpc11cx4-library/evt_lib/src/brusa.c **** 	contents->fan_active = (msg_obj->data[0] >> 4) & 1;
 192              		.loc 1 28 0
 193 001e 0A7A     		ldrb	r2, [r1, #8]	@ tmp158,
 194 0020 1209     		lsr	r2, r2, #4	@ tmp159, tmp158,
ARM GAS  /tmp/ccF16Vwx.s 			page 5


 195 0022 1A40     		and	r2, r3	@ tmp161, tmp150
 196 0024 C270     		strb	r2, [r0, #3]	@ tmp161, contents_8(D)->fan_active
  29:../../lpc11cx4-library/evt_lib/src/brusa.c **** 	contents->mains_type = (msg_obj->data[0] >> 1) & 0x7;
 197              		.loc 1 29 0
 198 0026 0A7A     		ldrb	r2, [r1, #8]	@ tmp164,
 199 0028 1207     		lsl	r2, r2, #28	@ tmp168, tmp164,
 200 002a 520F     		lsr	r2, r2, #29	@ tmp167, tmp168,
 201 002c 0271     		strb	r2, [r0, #4]	@ tmp167, contents_8(D)->mains_type
  30:../../lpc11cx4-library/evt_lib/src/brusa.c **** 	contents->control_pilot_detected = msg_obj->data[0] & 1;
 202              		.loc 1 30 0
 203 002e 0A7A     		ldrb	r2, [r1, #8]	@ tmp171,
 204 0030 1340     		and	r3, r2	@ tmp172, tmp171
 205 0032 4371     		strb	r3, [r0, #5]	@ tmp172, contents_8(D)->control_pilot_detected
  31:../../lpc11cx4-library/evt_lib/src/brusa.c **** 
  32:../../lpc11cx4-library/evt_lib/src/brusa.c **** 	contents->bypass_detection = (msg_obj->data[1] >> 6) & 0x3;
 206              		.loc 1 32 0
 207 0034 4B7A     		ldrb	r3, [r1, #9]	@ tmp175,
 208 0036 9B09     		lsr	r3, r3, #6	@ tmp176, tmp175,
 209 0038 8371     		strb	r3, [r0, #6]	@ tmp176, contents_8(D)->bypass_detection
  33:../../lpc11cx4-library/evt_lib/src/brusa.c **** 	contents->limitation = ((msg_obj->data[1] & 0x1F) << 8) | msg_obj->data[2];
 210              		.loc 1 33 0
 211 003a 1F23     		mov	r3, #31	@ tmp181,
 212 003c 4A7A     		ldrb	r2, [r1, #9]	@ tmp179,
 213 003e 1340     		and	r3, r2	@ D.6388, tmp179
 214 0040 8A7A     		ldrb	r2, [r1, #10]	@ tmp185,
 215 0042 1B02     		lsl	r3, r3, #8	@ D.6388, D.6388,
 216 0044 1343     		orr	r3, r2	@ tmp187, tmp185
 217 0046 0381     		strh	r3, [r0, #8]	@ tmp187, contents_8(D)->limitation
  34:../../lpc11cx4-library/evt_lib/src/brusa.c **** 
  35:../../lpc11cx4-library/evt_lib/src/brusa.c **** 	return 0;
 218              		.loc 1 35 0
 219 0048 0020     		mov	r0, #0	@ D.6388,
 220              	.LVL13:
 221 004a 01E0     		b	.L3	@
 222              	.LVL14:
 223              	.L4:
  22:../../lpc11cx4-library/evt_lib/src/brusa.c **** 	}
 224              		.loc 1 22 0
 225 004c 0120     		mov	r0, #1	@ D.6388,
 226              	.LVL15:
 227 004e 4042     		neg	r0, r0	@ D.6388, D.6388
 228              	.L3:
  36:../../lpc11cx4-library/evt_lib/src/brusa.c **** }
 229              		.loc 1 36 0
 230              		@ sp needed	@
 231 0050 7047     		bx	lr
 232              		.cfi_endproc
 233              	.LFE199:
 234              		.size	Brusa_DecodeStatus, .-Brusa_DecodeStatus
 235              		.section	.text.Brusa_DecodeActI,"ax",%progbits
 236              		.align	1
 237              		.global	Brusa_DecodeActI
 238              		.code	16
 239              		.thumb_func
 240              		.type	Brusa_DecodeActI, %function
 241              	Brusa_DecodeActI:
 242              	.LFB200:
ARM GAS  /tmp/ccF16Vwx.s 			page 6


  37:../../lpc11cx4-library/evt_lib/src/brusa.c **** 
  38:../../lpc11cx4-library/evt_lib/src/brusa.c **** int Brusa_DecodeActI(NLG5_ACT_I_T *contents, CCAN_MSG_OBJ_T *msg_obj) {
 243              		.loc 1 38 0
 244              		.cfi_startproc
 245              	.LVL16:
  39:../../lpc11cx4-library/evt_lib/src/brusa.c **** 	if (msg_obj->dlc != NLG5_ACT_I_DLC) {
 246              		.loc 1 39 0
 247 0000 0B7C     		ldrb	r3, [r1, #16]	@ tmp147,
  38:../../lpc11cx4-library/evt_lib/src/brusa.c **** 	if (msg_obj->dlc != NLG5_ACT_I_DLC) {
 248              		.loc 1 38 0
 249 0002 10B5     		push	{r4, lr}	@
 250              		.cfi_def_cfa_offset 8
 251              		.cfi_offset 4, -8
 252              		.cfi_offset 14, -4
 253              		.loc 1 39 0
 254 0004 082B     		cmp	r3, #8	@ tmp147,
 255 0006 18D1     		bne	.L8	@,
  40:../../lpc11cx4-library/evt_lib/src/brusa.c **** 		return -1;
  41:../../lpc11cx4-library/evt_lib/src/brusa.c **** 	}
  42:../../lpc11cx4-library/evt_lib/src/brusa.c **** 
  43:../../lpc11cx4-library/evt_lib/src/brusa.c **** 	contents->mains_cAmps = (msg_obj->data[0] << 8) | msg_obj->data[1];
 256              		.loc 1 43 0
 257 0008 0B7A     		ldrb	r3, [r1, #8]	@ D.6394,
 258 000a 4A7A     		ldrb	r2, [r1, #9]	@ tmp151,
 259 000c 1B02     		lsl	r3, r3, #8	@ D.6394, D.6394,
 260 000e 1343     		orr	r3, r2	@ tmp153, tmp151
 261 0010 0380     		strh	r3, [r0]	@ tmp153, contents_14(D)->mains_cAmps
  44:../../lpc11cx4-library/evt_lib/src/brusa.c **** 	// Value originally in deciVolts
  45:../../lpc11cx4-library/evt_lib/src/brusa.c **** 	contents->mains_mVolts = ((msg_obj->data[2] << 8) | msg_obj->data[3]) * 100; 
 262              		.loc 1 45 0
 263 0012 8B7A     		ldrb	r3, [r1, #10]	@ D.6394,
 264 0014 CA7A     		ldrb	r2, [r1, #11]	@ D.6394,
 265 0016 1B02     		lsl	r3, r3, #8	@ D.6394, D.6394,
 266 0018 1343     		orr	r3, r2	@ D.6394, D.6394
 267 001a 6422     		mov	r2, #100	@ tmp159,
 268 001c 5343     		mul	r3, r2	@ D.6394, tmp159
 269 001e 4360     		str	r3, [r0, #4]	@ D.6394, contents_14(D)->mains_mVolts
  46:../../lpc11cx4-library/evt_lib/src/brusa.c **** 	// Value originally in deciVolts
  47:../../lpc11cx4-library/evt_lib/src/brusa.c **** 	contents->output_mVolts = ((msg_obj->data[4] << 8) | msg_obj->data[5]) * 100; 
 270              		.loc 1 47 0
 271 0020 0B7B     		ldrb	r3, [r1, #12]	@ D.6394,
 272 0022 4C7B     		ldrb	r4, [r1, #13]	@ D.6394,
 273 0024 1B02     		lsl	r3, r3, #8	@ D.6394, D.6394,
 274 0026 2343     		orr	r3, r4	@ D.6394, D.6394
 275 0028 5A43     		mul	r2, r3	@ D.6394, D.6394
 276 002a 8260     		str	r2, [r0, #8]	@ D.6394, contents_14(D)->output_mVolts
  48:../../lpc11cx4-library/evt_lib/src/brusa.c **** 	contents->output_cAmps = (msg_obj->data[6] << 8) | msg_obj->data[7];
 277              		.loc 1 48 0
 278 002c 8B7B     		ldrb	r3, [r1, #14]	@ D.6394,
 279 002e CA7B     		ldrb	r2, [r1, #15]	@ tmp170,
 280 0030 1B02     		lsl	r3, r3, #8	@ D.6394, D.6394,
 281 0032 1343     		orr	r3, r2	@ tmp172, tmp170
 282 0034 8381     		strh	r3, [r0, #12]	@ tmp172, contents_14(D)->output_cAmps
  49:../../lpc11cx4-library/evt_lib/src/brusa.c **** 
  50:../../lpc11cx4-library/evt_lib/src/brusa.c **** 	return 0;
 283              		.loc 1 50 0
 284 0036 0020     		mov	r0, #0	@ D.6394,
ARM GAS  /tmp/ccF16Vwx.s 			page 7


 285              	.LVL17:
 286 0038 01E0     		b	.L7	@
 287              	.LVL18:
 288              	.L8:
  40:../../lpc11cx4-library/evt_lib/src/brusa.c **** 	}
 289              		.loc 1 40 0
 290 003a 0120     		mov	r0, #1	@ D.6394,
 291              	.LVL19:
 292 003c 4042     		neg	r0, r0	@ D.6394, D.6394
 293              	.L7:
  51:../../lpc11cx4-library/evt_lib/src/brusa.c **** }
 294              		.loc 1 51 0
 295              		@ sp needed	@
 296 003e 10BD     		pop	{r4, pc}
 297              		.cfi_endproc
 298              	.LFE200:
 299              		.size	Brusa_DecodeActI, .-Brusa_DecodeActI
 300              		.section	.text.Brusa_DecodeActII,"ax",%progbits
 301              		.align	1
 302              		.global	Brusa_DecodeActII
 303              		.code	16
 304              		.thumb_func
 305              		.type	Brusa_DecodeActII, %function
 306              	Brusa_DecodeActII:
 307              	.LFB201:
  52:../../lpc11cx4-library/evt_lib/src/brusa.c **** 
  53:../../lpc11cx4-library/evt_lib/src/brusa.c **** int Brusa_DecodeActII(NLG5_ACT_II_T *contents, CCAN_MSG_OBJ_T *msg_obj) {
 308              		.loc 1 53 0
 309              		.cfi_startproc
 310              	.LVL20:
  54:../../lpc11cx4-library/evt_lib/src/brusa.c **** 	if (msg_obj->dlc != NLG5_ACT_II_DLC) {
 311              		.loc 1 54 0
 312 0000 0B7C     		ldrb	r3, [r1, #16]	@ tmp141,
 313 0002 082B     		cmp	r3, #8	@ tmp141,
 314 0004 14D1     		bne	.L11	@,
  55:../../lpc11cx4-library/evt_lib/src/brusa.c **** 		return -1;
  56:../../lpc11cx4-library/evt_lib/src/brusa.c **** 	}
  57:../../lpc11cx4-library/evt_lib/src/brusa.c **** 
  58:../../lpc11cx4-library/evt_lib/src/brusa.c **** 	contents->mains_current_max_pilot = (msg_obj->data[0] << 8) | msg_obj->data[1];
 315              		.loc 1 58 0
 316 0006 0B7A     		ldrb	r3, [r1, #8]	@ D.6401,
 317 0008 4A7A     		ldrb	r2, [r1, #9]	@ tmp145,
 318 000a 1B02     		lsl	r3, r3, #8	@ D.6401, D.6401,
 319 000c 1343     		orr	r3, r2	@ tmp147, tmp145
 320 000e 0380     		strh	r3, [r0]	@ tmp147, contents_14(D)->mains_current_max_pilot
  59:../../lpc11cx4-library/evt_lib/src/brusa.c **** 	contents->mains_current_max_power_ind = msg_obj->data[2];
 321              		.loc 1 59 0
 322 0010 8B7A     		ldrb	r3, [r1, #10]	@ D.6402,
 323 0012 8370     		strb	r3, [r0, #2]	@ D.6402, contents_14(D)->mains_current_max_power_ind
  60:../../lpc11cx4-library/evt_lib/src/brusa.c **** 	contents->aux_battery_voltage = msg_obj->data[3];
 324              		.loc 1 60 0
 325 0014 CB7A     		ldrb	r3, [r1, #11]	@ D.6402,
 326 0016 C370     		strb	r3, [r0, #3]	@ D.6402, contents_14(D)->aux_battery_voltage
  61:../../lpc11cx4-library/evt_lib/src/brusa.c **** 	contents->amp_hours_ext_shunt = (msg_obj->data[4] << 8) | msg_obj->data[5];
 327              		.loc 1 61 0
 328 0018 0B7B     		ldrb	r3, [r1, #12]	@ D.6401,
 329 001a 4A7B     		ldrb	r2, [r1, #13]	@ tmp154,
ARM GAS  /tmp/ccF16Vwx.s 			page 8


 330 001c 1B02     		lsl	r3, r3, #8	@ D.6401, D.6401,
 331 001e 1343     		orr	r3, r2	@ tmp156, tmp154
 332 0020 8380     		strh	r3, [r0, #4]	@ tmp156, contents_14(D)->amp_hours_ext_shunt
  62:../../lpc11cx4-library/evt_lib/src/brusa.c **** 	contents->booster_output_current = (msg_obj->data[6] << 8) | msg_obj->data[7];
 333              		.loc 1 62 0
 334 0022 8B7B     		ldrb	r3, [r1, #14]	@ D.6401,
 335 0024 CA7B     		ldrb	r2, [r1, #15]	@ tmp161,
 336 0026 1B02     		lsl	r3, r3, #8	@ D.6401, D.6401,
 337 0028 1343     		orr	r3, r2	@ tmp163, tmp161
 338 002a C380     		strh	r3, [r0, #6]	@ tmp163, contents_14(D)->booster_output_current
  63:../../lpc11cx4-library/evt_lib/src/brusa.c **** 
  64:../../lpc11cx4-library/evt_lib/src/brusa.c **** 	return 0;
 339              		.loc 1 64 0
 340 002c 0020     		mov	r0, #0	@ D.6401,
 341              	.LVL21:
 342 002e 01E0     		b	.L10	@
 343              	.LVL22:
 344              	.L11:
  55:../../lpc11cx4-library/evt_lib/src/brusa.c **** 	}
 345              		.loc 1 55 0
 346 0030 0120     		mov	r0, #1	@ D.6401,
 347              	.LVL23:
 348 0032 4042     		neg	r0, r0	@ D.6401, D.6401
 349              	.L10:
  65:../../lpc11cx4-library/evt_lib/src/brusa.c **** }
 350              		.loc 1 65 0
 351              		@ sp needed	@
 352 0034 7047     		bx	lr
 353              		.cfi_endproc
 354              	.LFE201:
 355              		.size	Brusa_DecodeActII, .-Brusa_DecodeActII
 356              		.section	.text.Brusa_DecodeTemp,"ax",%progbits
 357              		.align	1
 358              		.global	Brusa_DecodeTemp
 359              		.code	16
 360              		.thumb_func
 361              		.type	Brusa_DecodeTemp, %function
 362              	Brusa_DecodeTemp:
 363              	.LFB202:
  66:../../lpc11cx4-library/evt_lib/src/brusa.c **** 
  67:../../lpc11cx4-library/evt_lib/src/brusa.c **** int Brusa_DecodeTemp(NLG5_TEMP_T *contents, CCAN_MSG_OBJ_T *msg_obj)  {
 364              		.loc 1 67 0
 365              		.cfi_startproc
 366              	.LVL24:
  68:../../lpc11cx4-library/evt_lib/src/brusa.c **** 	if (msg_obj->dlc != NLG5_TEMP_DLC) {
 367              		.loc 1 68 0
 368 0000 0B7C     		ldrb	r3, [r1, #16]	@ tmp147,
 369 0002 082B     		cmp	r3, #8	@ tmp147,
 370 0004 15D1     		bne	.L14	@,
  69:../../lpc11cx4-library/evt_lib/src/brusa.c **** 		return -1;
  70:../../lpc11cx4-library/evt_lib/src/brusa.c **** 	}
  71:../../lpc11cx4-library/evt_lib/src/brusa.c **** 
  72:../../lpc11cx4-library/evt_lib/src/brusa.c **** 	contents->power_temp = (msg_obj->data[0] << 8) | msg_obj->data[1];
 371              		.loc 1 72 0
 372 0006 0B7A     		ldrb	r3, [r1, #8]	@ D.6407,
 373 0008 4A7A     		ldrb	r2, [r1, #9]	@ tmp151,
 374 000a 1B02     		lsl	r3, r3, #8	@ D.6407, D.6407,
ARM GAS  /tmp/ccF16Vwx.s 			page 9


 375 000c 1343     		orr	r3, r2	@ tmp153, tmp151
 376 000e 0380     		strh	r3, [r0]	@ tmp153, contents_14(D)->power_temp
  73:../../lpc11cx4-library/evt_lib/src/brusa.c **** 	contents->temp_1 = (msg_obj->data[2] << 8) | msg_obj->data[3];
 377              		.loc 1 73 0
 378 0010 8B7A     		ldrb	r3, [r1, #10]	@ D.6407,
 379 0012 CA7A     		ldrb	r2, [r1, #11]	@ tmp158,
 380 0014 1B02     		lsl	r3, r3, #8	@ D.6407, D.6407,
 381 0016 1343     		orr	r3, r2	@ tmp160, tmp158
 382 0018 4380     		strh	r3, [r0, #2]	@ tmp160, contents_14(D)->temp_1
  74:../../lpc11cx4-library/evt_lib/src/brusa.c **** 	contents->temp_2 = (msg_obj->data[4] << 8) | msg_obj->data[5];
 383              		.loc 1 74 0
 384 001a 0B7B     		ldrb	r3, [r1, #12]	@ D.6407,
 385 001c 4A7B     		ldrb	r2, [r1, #13]	@ tmp165,
 386 001e 1B02     		lsl	r3, r3, #8	@ D.6407, D.6407,
 387 0020 1343     		orr	r3, r2	@ tmp167, tmp165
 388 0022 8380     		strh	r3, [r0, #4]	@ tmp167, contents_14(D)->temp_2
  75:../../lpc11cx4-library/evt_lib/src/brusa.c **** 	contents->temp_3 = (msg_obj->data[6] << 8) | msg_obj->data[7];
 389              		.loc 1 75 0
 390 0024 8B7B     		ldrb	r3, [r1, #14]	@ D.6407,
 391 0026 CA7B     		ldrb	r2, [r1, #15]	@ tmp172,
 392 0028 1B02     		lsl	r3, r3, #8	@ D.6407, D.6407,
 393 002a 1343     		orr	r3, r2	@ tmp174, tmp172
 394 002c C380     		strh	r3, [r0, #6]	@ tmp174, contents_14(D)->temp_3
  76:../../lpc11cx4-library/evt_lib/src/brusa.c **** 
  77:../../lpc11cx4-library/evt_lib/src/brusa.c **** 	return 0;
 395              		.loc 1 77 0
 396 002e 0020     		mov	r0, #0	@ D.6407,
 397              	.LVL25:
 398 0030 01E0     		b	.L13	@
 399              	.LVL26:
 400              	.L14:
  69:../../lpc11cx4-library/evt_lib/src/brusa.c **** 	}
 401              		.loc 1 69 0
 402 0032 0120     		mov	r0, #1	@ D.6407,
 403              	.LVL27:
 404 0034 4042     		neg	r0, r0	@ D.6407, D.6407
 405              	.L13:
  78:../../lpc11cx4-library/evt_lib/src/brusa.c **** }
 406              		.loc 1 78 0
 407              		@ sp needed	@
 408 0036 7047     		bx	lr
 409              		.cfi_endproc
 410              	.LFE202:
 411              		.size	Brusa_DecodeTemp, .-Brusa_DecodeTemp
 412              		.section	.text.Brusa_DecodeErr,"ax",%progbits
 413              		.align	1
 414              		.global	Brusa_DecodeErr
 415              		.code	16
 416              		.thumb_func
 417              		.type	Brusa_DecodeErr, %function
 418              	Brusa_DecodeErr:
 419              	.LFB203:
  79:../../lpc11cx4-library/evt_lib/src/brusa.c **** 
  80:../../lpc11cx4-library/evt_lib/src/brusa.c **** int Brusa_DecodeErr(NLG5_ERR_T *contents, CCAN_MSG_OBJ_T *msg_obj) {
 420              		.loc 1 80 0
 421              		.cfi_startproc
 422              	.LVL28:
ARM GAS  /tmp/ccF16Vwx.s 			page 10


  81:../../lpc11cx4-library/evt_lib/src/brusa.c **** 	if (msg_obj->dlc != NLG5_ERR_DLC) {
 423              		.loc 1 81 0
 424 0000 0B7C     		ldrb	r3, [r1, #16]	@ tmp164,
  80:../../lpc11cx4-library/evt_lib/src/brusa.c **** 	if (msg_obj->dlc != NLG5_ERR_DLC) {
 425              		.loc 1 80 0
 426 0002 10B5     		push	{r4, lr}	@
 427              		.cfi_def_cfa_offset 8
 428              		.cfi_offset 4, -8
 429              		.cfi_offset 14, -4
 430              		.loc 1 81 0
 431 0004 052B     		cmp	r3, #5	@ tmp164,
 432 0006 0DD1     		bne	.L18	@,
  82:../../lpc11cx4-library/evt_lib/src/brusa.c **** 		return -1;
  83:../../lpc11cx4-library/evt_lib/src/brusa.c **** 	}
  84:../../lpc11cx4-library/evt_lib/src/brusa.c **** 
  85:../../lpc11cx4-library/evt_lib/src/brusa.c **** 	// msg_obj->data[4] &= 0xF0;
  86:../../lpc11cx4-library/evt_lib/src/brusa.c **** 	*(contents) = 0;
 433              		.loc 1 86 0
 434 0008 0023     		mov	r3, #0	@ tmp165,
 435 000a 0360     		str	r3, [r0]	@ tmp165, *contents_8(D)
 436              	.LVL29:
 437              	.L17:
 438 000c CA18     		add	r2, r1, r3	@ D.6433, msg_obj, ivtmp.20
 439              	.LBB4:
 440              	.LBB5:
  87:../../lpc11cx4-library/evt_lib/src/brusa.c **** 	uint8_t i;
  88:../../lpc11cx4-library/evt_lib/src/brusa.c **** 	for (i = 0; i < NLG5_ERR_DLC - 1; i++) {
  89:../../lpc11cx4-library/evt_lib/src/brusa.c **** 		*(contents) |= (msg_obj->data[i] << (8 * i));
 441              		.loc 1 89 0
 442 000e 127A     		ldrb	r2, [r2, #8]	@ D.6429, MEM[base: _24, offset: 8B]
 443 0010 DC00     		lsl	r4, r3, #3	@ D.6432, ivtmp.20,
 444 0012 A240     		lsl	r2, r2, r4	@ D.6429, D.6429, D.6432
 445 0014 0468     		ldr	r4, [r0]	@ tmp174, *contents_8(D)
 446 0016 0133     		add	r3, r3, #1	@ ivtmp.20,
 447              	.LVL30:
 448 0018 2243     		orr	r2, r4	@ D.6431, tmp174
 449 001a 0260     		str	r2, [r0]	@ D.6431, *contents_8(D)
  88:../../lpc11cx4-library/evt_lib/src/brusa.c **** 		*(contents) |= (msg_obj->data[i] << (8 * i));
 450              		.loc 1 88 0
 451 001c 042B     		cmp	r3, #4	@ ivtmp.20,
 452 001e F5D1     		bne	.L17	@,
 453 0020 0020     		mov	r0, #0	@ D.6429,
 454              	.LVL31:
 455 0022 01E0     		b	.L16	@
 456              	.LVL32:
 457              	.L18:
 458              	.LBE5:
 459              	.LBE4:
  82:../../lpc11cx4-library/evt_lib/src/brusa.c **** 		return -1;
 460              		.loc 1 82 0
 461 0024 0120     		mov	r0, #1	@ D.6429,
 462              	.LVL33:
 463 0026 4042     		neg	r0, r0	@ D.6429, D.6429
 464              	.L16:
  90:../../lpc11cx4-library/evt_lib/src/brusa.c **** 	}
  91:../../lpc11cx4-library/evt_lib/src/brusa.c **** 
  92:../../lpc11cx4-library/evt_lib/src/brusa.c **** 	return 0;
ARM GAS  /tmp/ccF16Vwx.s 			page 11


  93:../../lpc11cx4-library/evt_lib/src/brusa.c **** }
 465              		.loc 1 93 0
 466              		@ sp needed	@
 467 0028 10BD     		pop	{r4, pc}
 468              		.cfi_endproc
 469              	.LFE203:
 470              		.size	Brusa_DecodeErr, .-Brusa_DecodeErr
 471              		.section	.text.Brusa_Decode,"ax",%progbits
 472              		.align	1
 473              		.global	Brusa_Decode
 474              		.code	16
 475              		.thumb_func
 476              		.type	Brusa_Decode, %function
 477              	Brusa_Decode:
 478              	.LFB204:
  94:../../lpc11cx4-library/evt_lib/src/brusa.c **** 
  95:../../lpc11cx4-library/evt_lib/src/brusa.c **** /**
  96:../../lpc11cx4-library/evt_lib/src/brusa.c ****  * @details Takes a CAN messege object and determines if it is a valid Brusa message.
  97:../../lpc11cx4-library/evt_lib/src/brusa.c ****  * If so, it stuffs it into the appropriate static struct
  98:../../lpc11cx4-library/evt_lib/src/brusa.c ****  * 
  99:../../lpc11cx4-library/evt_lib/src/brusa.c ****  * @param msg CAN message object to decode
 100:../../lpc11cx4-library/evt_lib/src/brusa.c ****  * @return 0 if properly decodes, -1 otherwise
 101:../../lpc11cx4-library/evt_lib/src/brusa.c ****  */
 102:../../lpc11cx4-library/evt_lib/src/brusa.c **** int8_t Brusa_Decode(NLG5_MESSAGES_T *state, CCAN_MSG_OBJ_T *msg) {
 479              		.loc 1 102 0
 480              		.cfi_startproc
 481              	.LVL34:
 103:../../lpc11cx4-library/evt_lib/src/brusa.c **** 	if (msg->mode_id == NLG5_STATUS) {
 482              		.loc 1 103 0
 483 0000 C223     		mov	r3, #194	@ tmp125,
 484 0002 0A68     		ldr	r2, [r1]	@ D.6437, msg_4(D)->mode_id
 102:../../lpc11cx4-library/evt_lib/src/brusa.c **** 	if (msg->mode_id == NLG5_STATUS) {
 485              		.loc 1 102 0
 486 0004 10B5     		push	{r4, lr}	@
 487              		.cfi_def_cfa_offset 8
 488              		.cfi_offset 4, -8
 489              		.cfi_offset 14, -4
 490              		.loc 1 103 0
 491 0006 DB00     		lsl	r3, r3, #3	@ tmp125, tmp125,
 492 0008 9A42     		cmp	r2, r3	@ D.6437, tmp125
 493 000a 03D1     		bne	.L20	@,
 104:../../lpc11cx4-library/evt_lib/src/brusa.c **** 		return Brusa_DecodeStatus(state->stat, msg);
 494              		.loc 1 104 0
 495 000c 0068     		ldr	r0, [r0]	@, state_6(D)->stat
 496              	.LVL35:
 497 000e FFF7FEFF 		bl	Brusa_DecodeStatus	@
 498              	.LVL36:
 499 0012 1BE0     		b	.L26	@
 500              	.LVL37:
 501              	.L20:
 105:../../lpc11cx4-library/evt_lib/src/brusa.c **** 	} else if (msg->mode_id == NLG5_TEMP) {
 502              		.loc 1 105 0
 503 0014 0F4B     		ldr	r3, .L27	@ tmp126,
 504 0016 9A42     		cmp	r2, r3	@ D.6437, tmp126
 505 0018 03D1     		bne	.L22	@,
 106:../../lpc11cx4-library/evt_lib/src/brusa.c **** 		return Brusa_DecodeTemp(state->temp, msg);
 506              		.loc 1 106 0
ARM GAS  /tmp/ccF16Vwx.s 			page 12


 507 001a C068     		ldr	r0, [r0, #12]	@, state_6(D)->temp
 508              	.LVL38:
 509 001c FFF7FEFF 		bl	Brusa_DecodeTemp	@
 510              	.LVL39:
 511 0020 14E0     		b	.L26	@
 512              	.LVL40:
 513              	.L22:
 107:../../lpc11cx4-library/evt_lib/src/brusa.c **** 	} else if (msg->mode_id == NLG5_ACT_I) {
 514              		.loc 1 107 0
 515 0022 0D4B     		ldr	r3, .L27+4	@ tmp127,
 516 0024 9A42     		cmp	r2, r3	@ D.6437, tmp127
 517 0026 03D1     		bne	.L23	@,
 108:../../lpc11cx4-library/evt_lib/src/brusa.c **** 		return Brusa_DecodeActI(state->act_i, msg);
 518              		.loc 1 108 0
 519 0028 4068     		ldr	r0, [r0, #4]	@, state_6(D)->act_i
 520              	.LVL41:
 521 002a FFF7FEFF 		bl	Brusa_DecodeActI	@
 522              	.LVL42:
 523 002e 0DE0     		b	.L26	@
 524              	.LVL43:
 525              	.L23:
 109:../../lpc11cx4-library/evt_lib/src/brusa.c **** 	} else if (msg->mode_id == NLG5_ACT_II) {
 526              		.loc 1 109 0
 527 0030 0A4B     		ldr	r3, .L27+8	@ tmp128,
 528 0032 9A42     		cmp	r2, r3	@ D.6437, tmp128
 529 0034 03D1     		bne	.L24	@,
 110:../../lpc11cx4-library/evt_lib/src/brusa.c **** 		return Brusa_DecodeActII(state->act_ii, msg);
 530              		.loc 1 110 0
 531 0036 8068     		ldr	r0, [r0, #8]	@, state_6(D)->act_ii
 532              	.LVL44:
 533 0038 FFF7FEFF 		bl	Brusa_DecodeActII	@
 534              	.LVL45:
 535 003c 06E0     		b	.L26	@
 536              	.LVL46:
 537              	.L24:
 111:../../lpc11cx4-library/evt_lib/src/brusa.c **** 	} else if (msg->mode_id == NLG5_ERR) {
 538              		.loc 1 111 0
 539 003e 084C     		ldr	r4, .L27+12	@ tmp129,
 112:../../lpc11cx4-library/evt_lib/src/brusa.c **** 		return Brusa_DecodeErr(state->err, msg);
 113:../../lpc11cx4-library/evt_lib/src/brusa.c **** 	} else {
 114:../../lpc11cx4-library/evt_lib/src/brusa.c **** 		return -1;
 540              		.loc 1 114 0
 541 0040 FF23     		mov	r3, #255	@ D.6436,
 111:../../lpc11cx4-library/evt_lib/src/brusa.c **** 	} else if (msg->mode_id == NLG5_ERR) {
 542              		.loc 1 111 0
 543 0042 A242     		cmp	r2, r4	@ D.6437, tmp129
 544 0044 03D1     		bne	.L21	@,
 112:../../lpc11cx4-library/evt_lib/src/brusa.c **** 		return Brusa_DecodeErr(state->err, msg);
 545              		.loc 1 112 0
 546 0046 0069     		ldr	r0, [r0, #16]	@, state_6(D)->err
 547              	.LVL47:
 548 0048 FFF7FEFF 		bl	Brusa_DecodeErr	@
 549              	.LVL48:
 550              	.L26:
 551 004c C3B2     		uxtb	r3, r0	@ D.6436, D.6439
 552              	.L21:
 553 004e 58B2     		sxtb	r0, r3	@ D.6436, D.6436
ARM GAS  /tmp/ccF16Vwx.s 			page 13


 115:../../lpc11cx4-library/evt_lib/src/brusa.c **** 	}
 116:../../lpc11cx4-library/evt_lib/src/brusa.c **** 
 117:../../lpc11cx4-library/evt_lib/src/brusa.c **** 	return 0;
 118:../../lpc11cx4-library/evt_lib/src/brusa.c **** }
 554              		.loc 1 118 0
 555              		@ sp needed	@
 556 0050 10BD     		pop	{r4, pc}
 557              	.L28:
 558 0052 C046     		.align	2
 559              	.L27:
 560 0054 13060000 		.word	1555
 561 0058 11060000 		.word	1553
 562 005c 12060000 		.word	1554
 563 0060 14060000 		.word	1556
 564              		.cfi_endproc
 565              	.LFE204:
 566              		.size	Brusa_Decode, .-Brusa_Decode
 567              		.text
 568              	.Letext0:
 569              		.file 2 "/usr/arm-none-eabi/include/machine/_default_types.h"
 570              		.file 3 "/usr/arm-none-eabi/include/sys/_stdint.h"
 571              		.file 4 "../../lpc11cx4-library/lpc_chip_11cxx_lib/inc/ccand_11xx.h"
 572              		.file 5 "../../lpc11cx4-library/evt_lib/inc/brusa.h"
 573              		.file 6 "../../lpc11cx4-library/lpc_chip_11cxx_lib/inc/chip.h"