ARM GAS  /tmp/ccAFBUIw.s 			page 1


   1              		.cpu cortex-m0
   2              		.fpu softvfp
   3              		.eabi_attribute 20, 1	@ Tag_ABI_FP_denormal
   4              		.eabi_attribute 21, 1	@ Tag_ABI_FP_exceptions
   5              		.eabi_attribute 23, 3	@ Tag_ABI_FP_number_model
   6              		.eabi_attribute 24, 1	@ Tag_ABI_align8_needed
   7              		.eabi_attribute 25, 1	@ Tag_ABI_align8_preserved
   8              		.eabi_attribute 26, 1	@ Tag_ABI_enum_size
   9              		.eabi_attribute 30, 4	@ Tag_ABI_optimization_goals
  10              		.eabi_attribute 34, 0	@ Tag_CPU_unaligned_access
  11              		.eabi_attribute 18, 4	@ Tag_ABI_PCS_wchar_t
  12              		.file	"i2c_11xx.c"
  13              	@ GNU C (GNU Tools for ARM Embedded Processors) version 4.9.3 20150529 (release) [ARM/embedded-4_9-
  14              	@	compiled by GNU C version 4.8.4, GMP version 5.1.3, MPFR version 3.1.2-p3, MPC version 1.0.1
  15              	@ GGC heuristics: --param ggc-min-expand=98 --param ggc-min-heapsize=128397
  16              	@ options passed:  -I . -I ../../lpc11cx4-library/lpc_chip_11cxx_lib/inc
  17              	@ -I ../../lpc11cx4-library/evt_lib/inc -I inc -imultilib armv6-m
  18              	@ -iprefix /usr/bin/../lib/gcc/arm-none-eabi/4.9.3/
  19              	@ -isysroot /usr/bin/../arm-none-eabi -MD bin/i2c_11xx.d -MF bin/i2c_11xx.d
  20              	@ -MP -MQ bin/i2c_11xx.o -D__USES_INITFINI__ -D CORE_M0
  21              	@ ../../lpc11cx4-library/lpc_chip_11cxx_lib/src/i2c_11xx.c -mcpu=cortex-m0
  22              	@ -mthumb -auxbase-strip bin/i2c_11xx.o -g -ggdb3 -Os -Wall
  23              	@ -Wstrict-prototypes -Wextra -std=gnu90 -ffunction-sections
  24              	@ -fdata-sections -fverbose-asm -fstack-usage
  25              	@ options enabled:  -faggressive-loop-optimizations -fauto-inc-dec
  26              	@ -fbranch-count-reg -fcaller-saves -fcombine-stack-adjustments -fcommon
  27              	@ -fcompare-elim -fcprop-registers -fcrossjumping -fcse-follow-jumps
  28              	@ -fdata-sections -fdefer-pop -fdelete-null-pointer-checks -fdevirtualize
  29              	@ -fdevirtualize-speculatively -fdwarf2-cfi-asm -fearly-inlining
  30              	@ -feliminate-unused-debug-types -fexpensive-optimizations
  31              	@ -fforward-propagate -ffunction-cse -ffunction-sections -fgcse -fgcse-lm
  32              	@ -fgnu-runtime -fgnu-unique -fguess-branch-probability
  33              	@ -fhoist-adjacent-loads -fident -fif-conversion -fif-conversion2
  34              	@ -findirect-inlining -finline -finline-atomics -finline-functions
  35              	@ -finline-functions-called-once -finline-small-functions -fipa-cp
  36              	@ -fipa-profile -fipa-pure-const -fipa-reference -fipa-sra
  37              	@ -fira-hoist-pressure -fira-share-save-slots -fira-share-spill-slots
  38              	@ -fisolate-erroneous-paths-dereference -fivopts -fkeep-static-consts
  39              	@ -fleading-underscore -flifetime-dse -fmath-errno -fmerge-constants
  40              	@ -fmerge-debug-strings -fomit-frame-pointer -foptimize-sibling-calls
  41              	@ -fpartial-inlining -fpeephole -fpeephole2 -fprefetch-loop-arrays
  42              	@ -freg-struct-return -freorder-blocks -freorder-functions
  43              	@ -frerun-cse-after-loop -fsched-critical-path-heuristic
  44              	@ -fsched-dep-count-heuristic -fsched-group-heuristic -fsched-interblock
  45              	@ -fsched-last-insn-heuristic -fsched-pressure -fsched-rank-heuristic
  46              	@ -fsched-spec -fsched-spec-insn-heuristic -fsched-stalled-insns-dep
  47              	@ -fschedule-insns2 -fsection-anchors -fshow-column -fshrink-wrap
  48              	@ -fsigned-zeros -fsplit-ivs-in-unroller -fsplit-wide-types
  49              	@ -fstrict-aliasing -fstrict-overflow -fstrict-volatile-bitfields
  50              	@ -fsync-libcalls -fthread-jumps -ftoplevel-reorder -ftrapping-math
  51              	@ -ftree-bit-ccp -ftree-builtin-call-dce -ftree-ccp -ftree-ch
  52              	@ -ftree-coalesce-vars -ftree-copy-prop -ftree-copyrename -ftree-cselim
  53              	@ -ftree-dce -ftree-dominator-opts -ftree-dse -ftree-forwprop -ftree-fre
  54              	@ -ftree-loop-if-convert -ftree-loop-im -ftree-loop-ivcanon
  55              	@ -ftree-loop-optimize -ftree-parallelize-loops= -ftree-phiprop -ftree-pre
  56              	@ -ftree-pta -ftree-reassoc -ftree-scev-cprop -ftree-sink -ftree-slsr
  57              	@ -ftree-sra -ftree-switch-conversion -ftree-tail-merge -ftree-ter
ARM GAS  /tmp/ccAFBUIw.s 			page 2


  58              	@ -ftree-vrp -funit-at-a-time -fvar-tracking -fvar-tracking-assignments
  59              	@ -fverbose-asm -fzero-initialized-in-bss -mlittle-endian -mlra
  60              	@ -mpic-data-is-text-relative -msched-prolog -mthumb
  61              	@ -mvectorize-with-neon-quad
  62              	
  63              		.text
  64              	.Ltext0:
  65              		.cfi_sections	.debug_frame
  66              		.section	.text.Chip_I2C_EventHandler,"ax",%progbits
  67              		.align	1
  68              		.global	Chip_I2C_EventHandler
  69              		.code	16
  70              		.thumb_func
  71              		.type	Chip_I2C_EventHandler, %function
  72              	Chip_I2C_EventHandler:
  73              	.LFB212:
  74              		.file 1 "../../lpc11cx4-library/lpc_chip_11cxx_lib/src/i2c_11xx.c"
   1:../../lpc11cx4-library/lpc_chip_11cxx_lib/src/i2c_11xx.c **** /*
   2:../../lpc11cx4-library/lpc_chip_11cxx_lib/src/i2c_11xx.c ****  * @brief LPC11xx I2C driver
   3:../../lpc11cx4-library/lpc_chip_11cxx_lib/src/i2c_11xx.c ****  *
   4:../../lpc11cx4-library/lpc_chip_11cxx_lib/src/i2c_11xx.c ****  * @note
   5:../../lpc11cx4-library/lpc_chip_11cxx_lib/src/i2c_11xx.c ****  * Copyright(C) NXP Semiconductors, 2012
   6:../../lpc11cx4-library/lpc_chip_11cxx_lib/src/i2c_11xx.c ****  * All rights reserved.
   7:../../lpc11cx4-library/lpc_chip_11cxx_lib/src/i2c_11xx.c ****  *
   8:../../lpc11cx4-library/lpc_chip_11cxx_lib/src/i2c_11xx.c ****  * @par
   9:../../lpc11cx4-library/lpc_chip_11cxx_lib/src/i2c_11xx.c ****  * Software that is described herein is for illustrative purposes only
  10:../../lpc11cx4-library/lpc_chip_11cxx_lib/src/i2c_11xx.c ****  * which provides customers with programming information regarding the
  11:../../lpc11cx4-library/lpc_chip_11cxx_lib/src/i2c_11xx.c ****  * LPC products.  This software is supplied "AS IS" without any warranties of
  12:../../lpc11cx4-library/lpc_chip_11cxx_lib/src/i2c_11xx.c ****  * any kind, and NXP Semiconductors and its licensor disclaim any and
  13:../../lpc11cx4-library/lpc_chip_11cxx_lib/src/i2c_11xx.c ****  * all warranties, express or implied, including all implied warranties of
  14:../../lpc11cx4-library/lpc_chip_11cxx_lib/src/i2c_11xx.c ****  * merchantability, fitness for a particular purpose and non-infringement of
  15:../../lpc11cx4-library/lpc_chip_11cxx_lib/src/i2c_11xx.c ****  * intellectual property rights.  NXP Semiconductors assumes no responsibility
  16:../../lpc11cx4-library/lpc_chip_11cxx_lib/src/i2c_11xx.c ****  * or liability for the use of the software, conveys no license or rights under any
  17:../../lpc11cx4-library/lpc_chip_11cxx_lib/src/i2c_11xx.c ****  * patent, copyright, mask work right, or any other intellectual property rights in
  18:../../lpc11cx4-library/lpc_chip_11cxx_lib/src/i2c_11xx.c ****  * or to any products. NXP Semiconductors reserves the right to make changes
  19:../../lpc11cx4-library/lpc_chip_11cxx_lib/src/i2c_11xx.c ****  * in the software without notification. NXP Semiconductors also makes no
  20:../../lpc11cx4-library/lpc_chip_11cxx_lib/src/i2c_11xx.c ****  * representation or warranty that such application will be suitable for the
  21:../../lpc11cx4-library/lpc_chip_11cxx_lib/src/i2c_11xx.c ****  * specified use without further testing or modification.
  22:../../lpc11cx4-library/lpc_chip_11cxx_lib/src/i2c_11xx.c ****  *
  23:../../lpc11cx4-library/lpc_chip_11cxx_lib/src/i2c_11xx.c ****  * @par
  24:../../lpc11cx4-library/lpc_chip_11cxx_lib/src/i2c_11xx.c ****  * Permission to use, copy, modify, and distribute this software and its
  25:../../lpc11cx4-library/lpc_chip_11cxx_lib/src/i2c_11xx.c ****  * documentation is hereby granted, under NXP Semiconductors' and its
  26:../../lpc11cx4-library/lpc_chip_11cxx_lib/src/i2c_11xx.c ****  * licensor's relevant copyrights in the software, without fee, provided that it
  27:../../lpc11cx4-library/lpc_chip_11cxx_lib/src/i2c_11xx.c ****  * is used in conjunction with NXP Semiconductors microcontrollers.  This
  28:../../lpc11cx4-library/lpc_chip_11cxx_lib/src/i2c_11xx.c ****  * copyright, permission, and disclaimer notice must appear in all copies of
  29:../../lpc11cx4-library/lpc_chip_11cxx_lib/src/i2c_11xx.c ****  * this code.
  30:../../lpc11cx4-library/lpc_chip_11cxx_lib/src/i2c_11xx.c ****  */
  31:../../lpc11cx4-library/lpc_chip_11cxx_lib/src/i2c_11xx.c **** 
  32:../../lpc11cx4-library/lpc_chip_11cxx_lib/src/i2c_11xx.c **** #include "chip.h"
  33:../../lpc11cx4-library/lpc_chip_11cxx_lib/src/i2c_11xx.c **** 
  34:../../lpc11cx4-library/lpc_chip_11cxx_lib/src/i2c_11xx.c **** #if !defined(CHIP_LPC110X)
  35:../../lpc11cx4-library/lpc_chip_11cxx_lib/src/i2c_11xx.c **** 
  36:../../lpc11cx4-library/lpc_chip_11cxx_lib/src/i2c_11xx.c **** /*****************************************************************************
  37:../../lpc11cx4-library/lpc_chip_11cxx_lib/src/i2c_11xx.c ****  * Private types/enumerations/variables
  38:../../lpc11cx4-library/lpc_chip_11cxx_lib/src/i2c_11xx.c ****  ****************************************************************************/
  39:../../lpc11cx4-library/lpc_chip_11cxx_lib/src/i2c_11xx.c **** 
  40:../../lpc11cx4-library/lpc_chip_11cxx_lib/src/i2c_11xx.c **** /* Control flags */
ARM GAS  /tmp/ccAFBUIw.s 			page 3


  41:../../lpc11cx4-library/lpc_chip_11cxx_lib/src/i2c_11xx.c **** #define I2C_CON_FLAGS (I2C_CON_AA | I2C_CON_SI | I2C_CON_STO | I2C_CON_STA)
  42:../../lpc11cx4-library/lpc_chip_11cxx_lib/src/i2c_11xx.c **** #define LPC_I2Cx(id)      ((i2c[id].ip))
  43:../../lpc11cx4-library/lpc_chip_11cxx_lib/src/i2c_11xx.c **** #define SLAVE_ACTIVE(iic) (((iic)->flags & 0xFF00) != 0)
  44:../../lpc11cx4-library/lpc_chip_11cxx_lib/src/i2c_11xx.c **** 
  45:../../lpc11cx4-library/lpc_chip_11cxx_lib/src/i2c_11xx.c **** /* I2C common interface structure */
  46:../../lpc11cx4-library/lpc_chip_11cxx_lib/src/i2c_11xx.c **** struct i2c_interface {
  47:../../lpc11cx4-library/lpc_chip_11cxx_lib/src/i2c_11xx.c **** 	LPC_I2C_T *ip;		/* IP base address of the I2C device */
  48:../../lpc11cx4-library/lpc_chip_11cxx_lib/src/i2c_11xx.c **** 	CHIP_SYSCTL_CLOCK_T clk;	/* Clock used by I2C */
  49:../../lpc11cx4-library/lpc_chip_11cxx_lib/src/i2c_11xx.c **** 	I2C_EVENTHANDLER_T mEvent;	/* Current active Master event handler */
  50:../../lpc11cx4-library/lpc_chip_11cxx_lib/src/i2c_11xx.c **** 	I2C_EVENTHANDLER_T sEvent;	/* Slave transfer events */
  51:../../lpc11cx4-library/lpc_chip_11cxx_lib/src/i2c_11xx.c **** 	I2C_XFER_T *mXfer;	/* Current active xfer pointer */
  52:../../lpc11cx4-library/lpc_chip_11cxx_lib/src/i2c_11xx.c **** 	I2C_XFER_T *sXfer;	/* Pointer to store xfer when bus is busy */
  53:../../lpc11cx4-library/lpc_chip_11cxx_lib/src/i2c_11xx.c **** 	uint32_t flags;		/* Flags used by I2C master and slave */
  54:../../lpc11cx4-library/lpc_chip_11cxx_lib/src/i2c_11xx.c **** };
  55:../../lpc11cx4-library/lpc_chip_11cxx_lib/src/i2c_11xx.c **** 
  56:../../lpc11cx4-library/lpc_chip_11cxx_lib/src/i2c_11xx.c **** /* Slave interface structure */
  57:../../lpc11cx4-library/lpc_chip_11cxx_lib/src/i2c_11xx.c **** struct i2c_slave_interface {
  58:../../lpc11cx4-library/lpc_chip_11cxx_lib/src/i2c_11xx.c **** 	I2C_XFER_T *xfer;
  59:../../lpc11cx4-library/lpc_chip_11cxx_lib/src/i2c_11xx.c **** 	I2C_EVENTHANDLER_T event;
  60:../../lpc11cx4-library/lpc_chip_11cxx_lib/src/i2c_11xx.c **** };
  61:../../lpc11cx4-library/lpc_chip_11cxx_lib/src/i2c_11xx.c **** 
  62:../../lpc11cx4-library/lpc_chip_11cxx_lib/src/i2c_11xx.c **** /* I2C interfaces */
  63:../../lpc11cx4-library/lpc_chip_11cxx_lib/src/i2c_11xx.c **** static struct i2c_interface i2c[I2C_NUM_INTERFACE] = {
  64:../../lpc11cx4-library/lpc_chip_11cxx_lib/src/i2c_11xx.c **** 	{LPC_I2C, SYSCTL_CLOCK_I2C, Chip_I2C_EventHandler, NULL, NULL, NULL, 0}
  65:../../lpc11cx4-library/lpc_chip_11cxx_lib/src/i2c_11xx.c **** };
  66:../../lpc11cx4-library/lpc_chip_11cxx_lib/src/i2c_11xx.c **** 
  67:../../lpc11cx4-library/lpc_chip_11cxx_lib/src/i2c_11xx.c **** static struct i2c_slave_interface i2c_slave[I2C_NUM_INTERFACE][I2C_SLAVE_NUM_INTERFACE];
  68:../../lpc11cx4-library/lpc_chip_11cxx_lib/src/i2c_11xx.c **** 
  69:../../lpc11cx4-library/lpc_chip_11cxx_lib/src/i2c_11xx.c **** /*****************************************************************************
  70:../../lpc11cx4-library/lpc_chip_11cxx_lib/src/i2c_11xx.c ****  * Public types/enumerations/variables
  71:../../lpc11cx4-library/lpc_chip_11cxx_lib/src/i2c_11xx.c ****  ****************************************************************************/
  72:../../lpc11cx4-library/lpc_chip_11cxx_lib/src/i2c_11xx.c **** 
  73:../../lpc11cx4-library/lpc_chip_11cxx_lib/src/i2c_11xx.c **** /*****************************************************************************
  74:../../lpc11cx4-library/lpc_chip_11cxx_lib/src/i2c_11xx.c ****  * Private functions
  75:../../lpc11cx4-library/lpc_chip_11cxx_lib/src/i2c_11xx.c ****  ****************************************************************************/
  76:../../lpc11cx4-library/lpc_chip_11cxx_lib/src/i2c_11xx.c ****  
  77:../../lpc11cx4-library/lpc_chip_11cxx_lib/src/i2c_11xx.c **** STATIC INLINE void enableClk(I2C_ID_T id)
  78:../../lpc11cx4-library/lpc_chip_11cxx_lib/src/i2c_11xx.c **** {
  79:../../lpc11cx4-library/lpc_chip_11cxx_lib/src/i2c_11xx.c **** 	Chip_Clock_EnablePeriphClock(i2c[id].clk);
  80:../../lpc11cx4-library/lpc_chip_11cxx_lib/src/i2c_11xx.c **** }
  81:../../lpc11cx4-library/lpc_chip_11cxx_lib/src/i2c_11xx.c **** 
  82:../../lpc11cx4-library/lpc_chip_11cxx_lib/src/i2c_11xx.c **** STATIC INLINE void disableClk(I2C_ID_T id)
  83:../../lpc11cx4-library/lpc_chip_11cxx_lib/src/i2c_11xx.c **** {
  84:../../lpc11cx4-library/lpc_chip_11cxx_lib/src/i2c_11xx.c **** 	Chip_Clock_DisablePeriphClock(i2c[id].clk);
  85:../../lpc11cx4-library/lpc_chip_11cxx_lib/src/i2c_11xx.c **** }
  86:../../lpc11cx4-library/lpc_chip_11cxx_lib/src/i2c_11xx.c **** 
  87:../../lpc11cx4-library/lpc_chip_11cxx_lib/src/i2c_11xx.c **** /* Get the ADC Clock Rate */
  88:../../lpc11cx4-library/lpc_chip_11cxx_lib/src/i2c_11xx.c **** STATIC INLINE uint32_t getClkRate(void)
  89:../../lpc11cx4-library/lpc_chip_11cxx_lib/src/i2c_11xx.c **** {
  90:../../lpc11cx4-library/lpc_chip_11cxx_lib/src/i2c_11xx.c **** 	return Chip_Clock_GetMainClockRate();
  91:../../lpc11cx4-library/lpc_chip_11cxx_lib/src/i2c_11xx.c **** }
  92:../../lpc11cx4-library/lpc_chip_11cxx_lib/src/i2c_11xx.c **** 
  93:../../lpc11cx4-library/lpc_chip_11cxx_lib/src/i2c_11xx.c **** /* Enable I2C and start master transfer */
  94:../../lpc11cx4-library/lpc_chip_11cxx_lib/src/i2c_11xx.c **** STATIC INLINE void startMasterXfer(LPC_I2C_T *pI2C)
  95:../../lpc11cx4-library/lpc_chip_11cxx_lib/src/i2c_11xx.c **** {
  96:../../lpc11cx4-library/lpc_chip_11cxx_lib/src/i2c_11xx.c **** 	/* Reset STA, STO, SI */
  97:../../lpc11cx4-library/lpc_chip_11cxx_lib/src/i2c_11xx.c **** 	pI2C->CONCLR = I2C_CON_SI | I2C_CON_STO | I2C_CON_STA | I2C_CON_AA;
ARM GAS  /tmp/ccAFBUIw.s 			page 4


  98:../../lpc11cx4-library/lpc_chip_11cxx_lib/src/i2c_11xx.c **** 
  99:../../lpc11cx4-library/lpc_chip_11cxx_lib/src/i2c_11xx.c **** 	/* Enter to Master Transmitter mode */
 100:../../lpc11cx4-library/lpc_chip_11cxx_lib/src/i2c_11xx.c **** 	pI2C->CONSET = I2C_CON_I2EN | I2C_CON_STA;
 101:../../lpc11cx4-library/lpc_chip_11cxx_lib/src/i2c_11xx.c **** }
 102:../../lpc11cx4-library/lpc_chip_11cxx_lib/src/i2c_11xx.c **** 
 103:../../lpc11cx4-library/lpc_chip_11cxx_lib/src/i2c_11xx.c **** /* Enable I2C and enable slave transfers */
 104:../../lpc11cx4-library/lpc_chip_11cxx_lib/src/i2c_11xx.c **** STATIC INLINE void startSlaverXfer(LPC_I2C_T *pI2C)
 105:../../lpc11cx4-library/lpc_chip_11cxx_lib/src/i2c_11xx.c **** {
 106:../../lpc11cx4-library/lpc_chip_11cxx_lib/src/i2c_11xx.c **** 	/* Reset STA, STO, SI */
 107:../../lpc11cx4-library/lpc_chip_11cxx_lib/src/i2c_11xx.c **** 	pI2C->CONCLR = I2C_CON_SI | I2C_CON_STO | I2C_CON_STA;
 108:../../lpc11cx4-library/lpc_chip_11cxx_lib/src/i2c_11xx.c **** 
 109:../../lpc11cx4-library/lpc_chip_11cxx_lib/src/i2c_11xx.c **** 	/* Enter to Master Transmitter mode */
 110:../../lpc11cx4-library/lpc_chip_11cxx_lib/src/i2c_11xx.c **** 	pI2C->CONSET = I2C_CON_I2EN | I2C_CON_AA;
 111:../../lpc11cx4-library/lpc_chip_11cxx_lib/src/i2c_11xx.c **** }
 112:../../lpc11cx4-library/lpc_chip_11cxx_lib/src/i2c_11xx.c **** 
 113:../../lpc11cx4-library/lpc_chip_11cxx_lib/src/i2c_11xx.c **** /* Check if I2C bus is free */
 114:../../lpc11cx4-library/lpc_chip_11cxx_lib/src/i2c_11xx.c **** STATIC INLINE int isI2CBusFree(LPC_I2C_T *pI2C)
 115:../../lpc11cx4-library/lpc_chip_11cxx_lib/src/i2c_11xx.c **** {
 116:../../lpc11cx4-library/lpc_chip_11cxx_lib/src/i2c_11xx.c **** 	return !(pI2C->CONSET & I2C_CON_STO);
 117:../../lpc11cx4-library/lpc_chip_11cxx_lib/src/i2c_11xx.c **** }
 118:../../lpc11cx4-library/lpc_chip_11cxx_lib/src/i2c_11xx.c **** 
 119:../../lpc11cx4-library/lpc_chip_11cxx_lib/src/i2c_11xx.c **** /* Get current state of the I2C peripheral */
 120:../../lpc11cx4-library/lpc_chip_11cxx_lib/src/i2c_11xx.c **** STATIC INLINE int getCurState(LPC_I2C_T *pI2C)
 121:../../lpc11cx4-library/lpc_chip_11cxx_lib/src/i2c_11xx.c **** {
 122:../../lpc11cx4-library/lpc_chip_11cxx_lib/src/i2c_11xx.c **** 	return (int) (pI2C->STAT & I2C_STAT_CODE_BITMASK);
 123:../../lpc11cx4-library/lpc_chip_11cxx_lib/src/i2c_11xx.c **** }
 124:../../lpc11cx4-library/lpc_chip_11cxx_lib/src/i2c_11xx.c **** 
 125:../../lpc11cx4-library/lpc_chip_11cxx_lib/src/i2c_11xx.c **** /* Check if the active state belongs to master mode*/
 126:../../lpc11cx4-library/lpc_chip_11cxx_lib/src/i2c_11xx.c **** STATIC INLINE int isMasterState(LPC_I2C_T *pI2C)
 127:../../lpc11cx4-library/lpc_chip_11cxx_lib/src/i2c_11xx.c **** {
 128:../../lpc11cx4-library/lpc_chip_11cxx_lib/src/i2c_11xx.c **** 	return getCurState(pI2C) < 0x60;
 129:../../lpc11cx4-library/lpc_chip_11cxx_lib/src/i2c_11xx.c **** }
 130:../../lpc11cx4-library/lpc_chip_11cxx_lib/src/i2c_11xx.c **** 
 131:../../lpc11cx4-library/lpc_chip_11cxx_lib/src/i2c_11xx.c **** /* Set OWN slave address for specific slave ID */
 132:../../lpc11cx4-library/lpc_chip_11cxx_lib/src/i2c_11xx.c **** STATIC void setSlaveAddr(LPC_I2C_T *pI2C, I2C_SLAVE_ID sid, uint8_t addr, uint8_t mask)
 133:../../lpc11cx4-library/lpc_chip_11cxx_lib/src/i2c_11xx.c **** {
 134:../../lpc11cx4-library/lpc_chip_11cxx_lib/src/i2c_11xx.c **** 	uint32_t index = (uint32_t) sid - 1;
 135:../../lpc11cx4-library/lpc_chip_11cxx_lib/src/i2c_11xx.c **** 	pI2C->MASK[index] = mask;
 136:../../lpc11cx4-library/lpc_chip_11cxx_lib/src/i2c_11xx.c **** 	if (sid == I2C_SLAVE_0) {
 137:../../lpc11cx4-library/lpc_chip_11cxx_lib/src/i2c_11xx.c **** 		pI2C->ADR0 = addr;
 138:../../lpc11cx4-library/lpc_chip_11cxx_lib/src/i2c_11xx.c **** 	}
 139:../../lpc11cx4-library/lpc_chip_11cxx_lib/src/i2c_11xx.c **** 	else {
 140:../../lpc11cx4-library/lpc_chip_11cxx_lib/src/i2c_11xx.c **** 		volatile uint32_t *abase = &pI2C->ADR1;
 141:../../lpc11cx4-library/lpc_chip_11cxx_lib/src/i2c_11xx.c **** 		abase[index - 1] = addr;
 142:../../lpc11cx4-library/lpc_chip_11cxx_lib/src/i2c_11xx.c **** 	}
 143:../../lpc11cx4-library/lpc_chip_11cxx_lib/src/i2c_11xx.c **** }
 144:../../lpc11cx4-library/lpc_chip_11cxx_lib/src/i2c_11xx.c **** 
 145:../../lpc11cx4-library/lpc_chip_11cxx_lib/src/i2c_11xx.c **** /* Match the slave address */
 146:../../lpc11cx4-library/lpc_chip_11cxx_lib/src/i2c_11xx.c **** STATIC int isSlaveAddrMatching(uint8_t addr1, uint8_t addr2, uint8_t mask)
 147:../../lpc11cx4-library/lpc_chip_11cxx_lib/src/i2c_11xx.c **** {
 148:../../lpc11cx4-library/lpc_chip_11cxx_lib/src/i2c_11xx.c **** 	mask |= 1;
 149:../../lpc11cx4-library/lpc_chip_11cxx_lib/src/i2c_11xx.c **** 	return (addr1 & ~mask) == (addr2 & ~mask);
 150:../../lpc11cx4-library/lpc_chip_11cxx_lib/src/i2c_11xx.c **** }
 151:../../lpc11cx4-library/lpc_chip_11cxx_lib/src/i2c_11xx.c **** 
 152:../../lpc11cx4-library/lpc_chip_11cxx_lib/src/i2c_11xx.c **** /* Get the index of the active slave */
 153:../../lpc11cx4-library/lpc_chip_11cxx_lib/src/i2c_11xx.c **** STATIC I2C_SLAVE_ID lookupSlaveIndex(LPC_I2C_T *pI2C, uint8_t slaveAddr)
 154:../../lpc11cx4-library/lpc_chip_11cxx_lib/src/i2c_11xx.c **** {
ARM GAS  /tmp/ccAFBUIw.s 			page 5


 155:../../lpc11cx4-library/lpc_chip_11cxx_lib/src/i2c_11xx.c **** 	if (!(slaveAddr >> 1)) {
 156:../../lpc11cx4-library/lpc_chip_11cxx_lib/src/i2c_11xx.c **** 		return I2C_SLAVE_GENERAL;					/* General call address */
 157:../../lpc11cx4-library/lpc_chip_11cxx_lib/src/i2c_11xx.c **** 	}
 158:../../lpc11cx4-library/lpc_chip_11cxx_lib/src/i2c_11xx.c **** 	if (isSlaveAddrMatching(pI2C->ADR0, slaveAddr, pI2C->MASK[0])) {
 159:../../lpc11cx4-library/lpc_chip_11cxx_lib/src/i2c_11xx.c **** 		return I2C_SLAVE_0;
 160:../../lpc11cx4-library/lpc_chip_11cxx_lib/src/i2c_11xx.c **** 	}
 161:../../lpc11cx4-library/lpc_chip_11cxx_lib/src/i2c_11xx.c **** 	if (isSlaveAddrMatching(pI2C->ADR1, slaveAddr, pI2C->MASK[1])) {
 162:../../lpc11cx4-library/lpc_chip_11cxx_lib/src/i2c_11xx.c **** 		return I2C_SLAVE_1;
 163:../../lpc11cx4-library/lpc_chip_11cxx_lib/src/i2c_11xx.c **** 	}
 164:../../lpc11cx4-library/lpc_chip_11cxx_lib/src/i2c_11xx.c **** 	if (isSlaveAddrMatching(pI2C->ADR2, slaveAddr, pI2C->MASK[2])) {
 165:../../lpc11cx4-library/lpc_chip_11cxx_lib/src/i2c_11xx.c **** 		return I2C_SLAVE_2;
 166:../../lpc11cx4-library/lpc_chip_11cxx_lib/src/i2c_11xx.c **** 	}
 167:../../lpc11cx4-library/lpc_chip_11cxx_lib/src/i2c_11xx.c **** 	if (isSlaveAddrMatching(pI2C->ADR3, slaveAddr, pI2C->MASK[3])) {
 168:../../lpc11cx4-library/lpc_chip_11cxx_lib/src/i2c_11xx.c **** 		return I2C_SLAVE_3;
 169:../../lpc11cx4-library/lpc_chip_11cxx_lib/src/i2c_11xx.c **** 	}
 170:../../lpc11cx4-library/lpc_chip_11cxx_lib/src/i2c_11xx.c **** 
 171:../../lpc11cx4-library/lpc_chip_11cxx_lib/src/i2c_11xx.c **** 	/* If everything is fine the code should never come here */
 172:../../lpc11cx4-library/lpc_chip_11cxx_lib/src/i2c_11xx.c **** 	return I2C_SLAVE_GENERAL;
 173:../../lpc11cx4-library/lpc_chip_11cxx_lib/src/i2c_11xx.c **** }
 174:../../lpc11cx4-library/lpc_chip_11cxx_lib/src/i2c_11xx.c **** 
 175:../../lpc11cx4-library/lpc_chip_11cxx_lib/src/i2c_11xx.c **** /* Master transfer state change handler handler */
 176:../../lpc11cx4-library/lpc_chip_11cxx_lib/src/i2c_11xx.c **** int handleMasterXferState(LPC_I2C_T *pI2C, I2C_XFER_T  *xfer)
 177:../../lpc11cx4-library/lpc_chip_11cxx_lib/src/i2c_11xx.c **** {
 178:../../lpc11cx4-library/lpc_chip_11cxx_lib/src/i2c_11xx.c **** 	uint32_t cclr = I2C_CON_FLAGS;
 179:../../lpc11cx4-library/lpc_chip_11cxx_lib/src/i2c_11xx.c **** 
 180:../../lpc11cx4-library/lpc_chip_11cxx_lib/src/i2c_11xx.c **** 	switch (getCurState(pI2C)) {
 181:../../lpc11cx4-library/lpc_chip_11cxx_lib/src/i2c_11xx.c **** 	case 0x08:		/* Start condition on bus */
 182:../../lpc11cx4-library/lpc_chip_11cxx_lib/src/i2c_11xx.c **** 	case 0x10:		/* Repeated start condition */
 183:../../lpc11cx4-library/lpc_chip_11cxx_lib/src/i2c_11xx.c **** 		pI2C->DAT = (xfer->slaveAddr << 1) | (xfer->txSz == 0);
 184:../../lpc11cx4-library/lpc_chip_11cxx_lib/src/i2c_11xx.c **** 		break;
 185:../../lpc11cx4-library/lpc_chip_11cxx_lib/src/i2c_11xx.c **** 
 186:../../lpc11cx4-library/lpc_chip_11cxx_lib/src/i2c_11xx.c **** 	/* Tx handling */
 187:../../lpc11cx4-library/lpc_chip_11cxx_lib/src/i2c_11xx.c **** 	case 0x18:		/* SLA+W sent and ACK received */
 188:../../lpc11cx4-library/lpc_chip_11cxx_lib/src/i2c_11xx.c **** 	case 0x28:		/* DATA sent and ACK received */
 189:../../lpc11cx4-library/lpc_chip_11cxx_lib/src/i2c_11xx.c **** 		if (!xfer->txSz) {
 190:../../lpc11cx4-library/lpc_chip_11cxx_lib/src/i2c_11xx.c **** 			cclr &= ~(xfer->rxSz ? I2C_CON_STA : I2C_CON_STO);
 191:../../lpc11cx4-library/lpc_chip_11cxx_lib/src/i2c_11xx.c **** 		}
 192:../../lpc11cx4-library/lpc_chip_11cxx_lib/src/i2c_11xx.c **** 		else {
 193:../../lpc11cx4-library/lpc_chip_11cxx_lib/src/i2c_11xx.c **** 			pI2C->DAT = *xfer->txBuff++;
 194:../../lpc11cx4-library/lpc_chip_11cxx_lib/src/i2c_11xx.c **** 			xfer->txSz--;
 195:../../lpc11cx4-library/lpc_chip_11cxx_lib/src/i2c_11xx.c **** 		}
 196:../../lpc11cx4-library/lpc_chip_11cxx_lib/src/i2c_11xx.c **** 		break;
 197:../../lpc11cx4-library/lpc_chip_11cxx_lib/src/i2c_11xx.c **** 
 198:../../lpc11cx4-library/lpc_chip_11cxx_lib/src/i2c_11xx.c **** 	/* Rx handling */
 199:../../lpc11cx4-library/lpc_chip_11cxx_lib/src/i2c_11xx.c **** 	case 0x58:		/* Data Received and NACK sent */
 200:../../lpc11cx4-library/lpc_chip_11cxx_lib/src/i2c_11xx.c **** 		cclr &= ~I2C_CON_STO;
 201:../../lpc11cx4-library/lpc_chip_11cxx_lib/src/i2c_11xx.c **** 
 202:../../lpc11cx4-library/lpc_chip_11cxx_lib/src/i2c_11xx.c **** 	case 0x50:		/* Data Received and ACK sent */
 203:../../lpc11cx4-library/lpc_chip_11cxx_lib/src/i2c_11xx.c **** 		*xfer->rxBuff++ = pI2C->DAT;
 204:../../lpc11cx4-library/lpc_chip_11cxx_lib/src/i2c_11xx.c **** 		xfer->rxSz--;
 205:../../lpc11cx4-library/lpc_chip_11cxx_lib/src/i2c_11xx.c **** 
 206:../../lpc11cx4-library/lpc_chip_11cxx_lib/src/i2c_11xx.c **** 	case 0x40:		/* SLA+R sent and ACK received */
 207:../../lpc11cx4-library/lpc_chip_11cxx_lib/src/i2c_11xx.c **** 		if (xfer->rxSz > 1) {
 208:../../lpc11cx4-library/lpc_chip_11cxx_lib/src/i2c_11xx.c **** 			cclr &= ~I2C_CON_AA;
 209:../../lpc11cx4-library/lpc_chip_11cxx_lib/src/i2c_11xx.c **** 		}
 210:../../lpc11cx4-library/lpc_chip_11cxx_lib/src/i2c_11xx.c **** 		break;
 211:../../lpc11cx4-library/lpc_chip_11cxx_lib/src/i2c_11xx.c **** 
ARM GAS  /tmp/ccAFBUIw.s 			page 6


 212:../../lpc11cx4-library/lpc_chip_11cxx_lib/src/i2c_11xx.c **** 	/* NAK Handling */
 213:../../lpc11cx4-library/lpc_chip_11cxx_lib/src/i2c_11xx.c **** 	case 0x20:		/* SLA+W sent NAK received */
 214:../../lpc11cx4-library/lpc_chip_11cxx_lib/src/i2c_11xx.c **** 	case 0x30:		/* DATA sent NAK received */
 215:../../lpc11cx4-library/lpc_chip_11cxx_lib/src/i2c_11xx.c **** 	case 0x48:		/* SLA+R sent NAK received */
 216:../../lpc11cx4-library/lpc_chip_11cxx_lib/src/i2c_11xx.c **** 		xfer->status = I2C_STATUS_NAK;
 217:../../lpc11cx4-library/lpc_chip_11cxx_lib/src/i2c_11xx.c **** 		cclr &= ~I2C_CON_STO;
 218:../../lpc11cx4-library/lpc_chip_11cxx_lib/src/i2c_11xx.c **** 		break;
 219:../../lpc11cx4-library/lpc_chip_11cxx_lib/src/i2c_11xx.c **** 
 220:../../lpc11cx4-library/lpc_chip_11cxx_lib/src/i2c_11xx.c **** 	case 0x38:		/* Arbitration lost */
 221:../../lpc11cx4-library/lpc_chip_11cxx_lib/src/i2c_11xx.c **** 		xfer->status = I2C_STATUS_ARBLOST;
 222:../../lpc11cx4-library/lpc_chip_11cxx_lib/src/i2c_11xx.c **** 		break;
 223:../../lpc11cx4-library/lpc_chip_11cxx_lib/src/i2c_11xx.c **** 
 224:../../lpc11cx4-library/lpc_chip_11cxx_lib/src/i2c_11xx.c **** 	/* Bus Error */
 225:../../lpc11cx4-library/lpc_chip_11cxx_lib/src/i2c_11xx.c **** 	case 0x00:
 226:../../lpc11cx4-library/lpc_chip_11cxx_lib/src/i2c_11xx.c **** 		xfer->status = I2C_STATUS_BUSERR;
 227:../../lpc11cx4-library/lpc_chip_11cxx_lib/src/i2c_11xx.c **** 		cclr &= ~I2C_CON_STO;
 228:../../lpc11cx4-library/lpc_chip_11cxx_lib/src/i2c_11xx.c **** 	}
 229:../../lpc11cx4-library/lpc_chip_11cxx_lib/src/i2c_11xx.c **** 
 230:../../lpc11cx4-library/lpc_chip_11cxx_lib/src/i2c_11xx.c **** 	/* Set clear control flags */
 231:../../lpc11cx4-library/lpc_chip_11cxx_lib/src/i2c_11xx.c **** 	pI2C->CONSET = cclr ^ I2C_CON_FLAGS;
 232:../../lpc11cx4-library/lpc_chip_11cxx_lib/src/i2c_11xx.c **** 	pI2C->CONCLR = cclr;
 233:../../lpc11cx4-library/lpc_chip_11cxx_lib/src/i2c_11xx.c **** 
 234:../../lpc11cx4-library/lpc_chip_11cxx_lib/src/i2c_11xx.c **** 	/* If stopped return 0 */
 235:../../lpc11cx4-library/lpc_chip_11cxx_lib/src/i2c_11xx.c **** 	if (!(cclr & I2C_CON_STO) || (xfer->status == I2C_STATUS_ARBLOST)) {
 236:../../lpc11cx4-library/lpc_chip_11cxx_lib/src/i2c_11xx.c **** 		if (xfer->status == I2C_STATUS_BUSY) {
 237:../../lpc11cx4-library/lpc_chip_11cxx_lib/src/i2c_11xx.c **** 			xfer->status = I2C_STATUS_DONE;
 238:../../lpc11cx4-library/lpc_chip_11cxx_lib/src/i2c_11xx.c **** 		}
 239:../../lpc11cx4-library/lpc_chip_11cxx_lib/src/i2c_11xx.c **** 		return 0;
 240:../../lpc11cx4-library/lpc_chip_11cxx_lib/src/i2c_11xx.c **** 	}
 241:../../lpc11cx4-library/lpc_chip_11cxx_lib/src/i2c_11xx.c **** 	return 1;
 242:../../lpc11cx4-library/lpc_chip_11cxx_lib/src/i2c_11xx.c **** }
 243:../../lpc11cx4-library/lpc_chip_11cxx_lib/src/i2c_11xx.c **** 
 244:../../lpc11cx4-library/lpc_chip_11cxx_lib/src/i2c_11xx.c **** /* Find the slave address of SLA+W or SLA+R */
 245:../../lpc11cx4-library/lpc_chip_11cxx_lib/src/i2c_11xx.c **** I2C_SLAVE_ID getSlaveIndex(LPC_I2C_T *pI2C)
 246:../../lpc11cx4-library/lpc_chip_11cxx_lib/src/i2c_11xx.c **** {
 247:../../lpc11cx4-library/lpc_chip_11cxx_lib/src/i2c_11xx.c **** 	switch (getCurState(pI2C)) {
 248:../../lpc11cx4-library/lpc_chip_11cxx_lib/src/i2c_11xx.c **** 	case 0x60:
 249:../../lpc11cx4-library/lpc_chip_11cxx_lib/src/i2c_11xx.c **** 	case 0x68:
 250:../../lpc11cx4-library/lpc_chip_11cxx_lib/src/i2c_11xx.c **** 	case 0x70:
 251:../../lpc11cx4-library/lpc_chip_11cxx_lib/src/i2c_11xx.c **** 	case 0x78:
 252:../../lpc11cx4-library/lpc_chip_11cxx_lib/src/i2c_11xx.c **** 	case 0xA8:
 253:../../lpc11cx4-library/lpc_chip_11cxx_lib/src/i2c_11xx.c **** 	case 0xB0:
 254:../../lpc11cx4-library/lpc_chip_11cxx_lib/src/i2c_11xx.c **** 		return lookupSlaveIndex(pI2C, pI2C->DAT);
 255:../../lpc11cx4-library/lpc_chip_11cxx_lib/src/i2c_11xx.c **** 	}
 256:../../lpc11cx4-library/lpc_chip_11cxx_lib/src/i2c_11xx.c **** 
 257:../../lpc11cx4-library/lpc_chip_11cxx_lib/src/i2c_11xx.c **** 	/* If everything is fine code should never come here */
 258:../../lpc11cx4-library/lpc_chip_11cxx_lib/src/i2c_11xx.c **** 	return I2C_SLAVE_GENERAL;
 259:../../lpc11cx4-library/lpc_chip_11cxx_lib/src/i2c_11xx.c **** }
 260:../../lpc11cx4-library/lpc_chip_11cxx_lib/src/i2c_11xx.c **** 
 261:../../lpc11cx4-library/lpc_chip_11cxx_lib/src/i2c_11xx.c **** /* Slave state machine handler */
 262:../../lpc11cx4-library/lpc_chip_11cxx_lib/src/i2c_11xx.c **** int handleSlaveXferState(LPC_I2C_T *pI2C, I2C_XFER_T *xfer)
 263:../../lpc11cx4-library/lpc_chip_11cxx_lib/src/i2c_11xx.c **** {
 264:../../lpc11cx4-library/lpc_chip_11cxx_lib/src/i2c_11xx.c **** 	uint32_t cclr = I2C_CON_FLAGS;
 265:../../lpc11cx4-library/lpc_chip_11cxx_lib/src/i2c_11xx.c **** 	int ret = RET_SLAVE_BUSY;
 266:../../lpc11cx4-library/lpc_chip_11cxx_lib/src/i2c_11xx.c **** 
 267:../../lpc11cx4-library/lpc_chip_11cxx_lib/src/i2c_11xx.c **** 	xfer->status = I2C_STATUS_BUSY;
 268:../../lpc11cx4-library/lpc_chip_11cxx_lib/src/i2c_11xx.c **** 	switch (getCurState(pI2C)) {
ARM GAS  /tmp/ccAFBUIw.s 			page 7


 269:../../lpc11cx4-library/lpc_chip_11cxx_lib/src/i2c_11xx.c **** 	case 0x80:		/* SLA: Data received + ACK sent */
 270:../../lpc11cx4-library/lpc_chip_11cxx_lib/src/i2c_11xx.c **** 	case 0x90:		/* GC: Data received + ACK sent */
 271:../../lpc11cx4-library/lpc_chip_11cxx_lib/src/i2c_11xx.c **** 		*xfer->rxBuff++ = pI2C->DAT;
 272:../../lpc11cx4-library/lpc_chip_11cxx_lib/src/i2c_11xx.c **** 		xfer->rxSz--;
 273:../../lpc11cx4-library/lpc_chip_11cxx_lib/src/i2c_11xx.c **** 		ret = RET_SLAVE_RX;
 274:../../lpc11cx4-library/lpc_chip_11cxx_lib/src/i2c_11xx.c **** 		if (xfer->rxSz > 1) {
 275:../../lpc11cx4-library/lpc_chip_11cxx_lib/src/i2c_11xx.c **** 			cclr &= ~I2C_CON_AA;
 276:../../lpc11cx4-library/lpc_chip_11cxx_lib/src/i2c_11xx.c **** 		}
 277:../../lpc11cx4-library/lpc_chip_11cxx_lib/src/i2c_11xx.c **** 		break;
 278:../../lpc11cx4-library/lpc_chip_11cxx_lib/src/i2c_11xx.c **** 
 279:../../lpc11cx4-library/lpc_chip_11cxx_lib/src/i2c_11xx.c **** 	case 0x60:		/* Own SLA+W received */
 280:../../lpc11cx4-library/lpc_chip_11cxx_lib/src/i2c_11xx.c **** 	case 0x68:		/* Own SLA+W received after losing arbitration */
 281:../../lpc11cx4-library/lpc_chip_11cxx_lib/src/i2c_11xx.c **** 	case 0x70:		/* GC+W received */
 282:../../lpc11cx4-library/lpc_chip_11cxx_lib/src/i2c_11xx.c **** 	case 0x78:		/* GC+W received after losing arbitration */
 283:../../lpc11cx4-library/lpc_chip_11cxx_lib/src/i2c_11xx.c **** 		xfer->slaveAddr = pI2C->DAT & ~1;
 284:../../lpc11cx4-library/lpc_chip_11cxx_lib/src/i2c_11xx.c **** 		if (xfer->rxSz > 1) {
 285:../../lpc11cx4-library/lpc_chip_11cxx_lib/src/i2c_11xx.c **** 			cclr &= ~I2C_CON_AA;
 286:../../lpc11cx4-library/lpc_chip_11cxx_lib/src/i2c_11xx.c **** 		}
 287:../../lpc11cx4-library/lpc_chip_11cxx_lib/src/i2c_11xx.c **** 		break;
 288:../../lpc11cx4-library/lpc_chip_11cxx_lib/src/i2c_11xx.c **** 
 289:../../lpc11cx4-library/lpc_chip_11cxx_lib/src/i2c_11xx.c **** 	case 0xA8:		/* SLA+R received */
 290:../../lpc11cx4-library/lpc_chip_11cxx_lib/src/i2c_11xx.c **** 	case 0xB0:		/* SLA+R received after losing arbitration */
 291:../../lpc11cx4-library/lpc_chip_11cxx_lib/src/i2c_11xx.c **** 		xfer->slaveAddr = pI2C->DAT & ~1;
 292:../../lpc11cx4-library/lpc_chip_11cxx_lib/src/i2c_11xx.c **** 
 293:../../lpc11cx4-library/lpc_chip_11cxx_lib/src/i2c_11xx.c **** 	case 0xB8:		/* DATA sent and ACK received */
 294:../../lpc11cx4-library/lpc_chip_11cxx_lib/src/i2c_11xx.c **** 		pI2C->DAT = *xfer->txBuff++;
 295:../../lpc11cx4-library/lpc_chip_11cxx_lib/src/i2c_11xx.c **** 		xfer->txSz--;
 296:../../lpc11cx4-library/lpc_chip_11cxx_lib/src/i2c_11xx.c **** 		if (xfer->txSz > 0) {
 297:../../lpc11cx4-library/lpc_chip_11cxx_lib/src/i2c_11xx.c **** 			cclr &= ~I2C_CON_AA;
 298:../../lpc11cx4-library/lpc_chip_11cxx_lib/src/i2c_11xx.c **** 		}
 299:../../lpc11cx4-library/lpc_chip_11cxx_lib/src/i2c_11xx.c **** 		ret = RET_SLAVE_TX;
 300:../../lpc11cx4-library/lpc_chip_11cxx_lib/src/i2c_11xx.c **** 		break;
 301:../../lpc11cx4-library/lpc_chip_11cxx_lib/src/i2c_11xx.c **** 
 302:../../lpc11cx4-library/lpc_chip_11cxx_lib/src/i2c_11xx.c **** 	case 0xC0:		/* Data transmitted and NAK received */
 303:../../lpc11cx4-library/lpc_chip_11cxx_lib/src/i2c_11xx.c **** 	case 0xC8:		/* Last data transmitted and ACK received */
 304:../../lpc11cx4-library/lpc_chip_11cxx_lib/src/i2c_11xx.c **** 	case 0x88:		/* SLA: Data received + NAK sent */
 305:../../lpc11cx4-library/lpc_chip_11cxx_lib/src/i2c_11xx.c **** 	case 0x98:		/* GC: Data received + NAK sent */
 306:../../lpc11cx4-library/lpc_chip_11cxx_lib/src/i2c_11xx.c **** 	case 0xA0:		/* STOP/Repeated START condition received */
 307:../../lpc11cx4-library/lpc_chip_11cxx_lib/src/i2c_11xx.c **** 		ret = RET_SLAVE_IDLE;
 308:../../lpc11cx4-library/lpc_chip_11cxx_lib/src/i2c_11xx.c **** 		cclr &= ~I2C_CON_AA;
 309:../../lpc11cx4-library/lpc_chip_11cxx_lib/src/i2c_11xx.c **** 		xfer->status = I2C_STATUS_DONE;
 310:../../lpc11cx4-library/lpc_chip_11cxx_lib/src/i2c_11xx.c **** 		if (xfer->slaveAddr & 1) {
 311:../../lpc11cx4-library/lpc_chip_11cxx_lib/src/i2c_11xx.c **** 			cclr &= ~I2C_CON_STA;
 312:../../lpc11cx4-library/lpc_chip_11cxx_lib/src/i2c_11xx.c **** 		}
 313:../../lpc11cx4-library/lpc_chip_11cxx_lib/src/i2c_11xx.c **** 		break;
 314:../../lpc11cx4-library/lpc_chip_11cxx_lib/src/i2c_11xx.c **** 	}
 315:../../lpc11cx4-library/lpc_chip_11cxx_lib/src/i2c_11xx.c **** 
 316:../../lpc11cx4-library/lpc_chip_11cxx_lib/src/i2c_11xx.c **** 	/* Set clear control flags */
 317:../../lpc11cx4-library/lpc_chip_11cxx_lib/src/i2c_11xx.c **** 	pI2C->CONSET = cclr ^ I2C_CON_FLAGS;
 318:../../lpc11cx4-library/lpc_chip_11cxx_lib/src/i2c_11xx.c **** 	pI2C->CONCLR = cclr;
 319:../../lpc11cx4-library/lpc_chip_11cxx_lib/src/i2c_11xx.c **** 
 320:../../lpc11cx4-library/lpc_chip_11cxx_lib/src/i2c_11xx.c **** 	return ret;
 321:../../lpc11cx4-library/lpc_chip_11cxx_lib/src/i2c_11xx.c **** }
 322:../../lpc11cx4-library/lpc_chip_11cxx_lib/src/i2c_11xx.c **** 
 323:../../lpc11cx4-library/lpc_chip_11cxx_lib/src/i2c_11xx.c **** /*****************************************************************************
 324:../../lpc11cx4-library/lpc_chip_11cxx_lib/src/i2c_11xx.c ****  * Public functions
 325:../../lpc11cx4-library/lpc_chip_11cxx_lib/src/i2c_11xx.c ****  ****************************************************************************/
ARM GAS  /tmp/ccAFBUIw.s 			page 8


 326:../../lpc11cx4-library/lpc_chip_11cxx_lib/src/i2c_11xx.c **** 
 327:../../lpc11cx4-library/lpc_chip_11cxx_lib/src/i2c_11xx.c **** /* Chip event handler interrupt based */
 328:../../lpc11cx4-library/lpc_chip_11cxx_lib/src/i2c_11xx.c **** void Chip_I2C_EventHandler(I2C_ID_T id, I2C_EVENT_T event)
 329:../../lpc11cx4-library/lpc_chip_11cxx_lib/src/i2c_11xx.c **** {
  75              		.loc 1 329 0
  76              		.cfi_startproc
  77              	.LVL0:
 330:../../lpc11cx4-library/lpc_chip_11cxx_lib/src/i2c_11xx.c **** 	struct i2c_interface *iic = &i2c[id];
 331:../../lpc11cx4-library/lpc_chip_11cxx_lib/src/i2c_11xx.c **** 	volatile I2C_STATUS_T *stat;
 332:../../lpc11cx4-library/lpc_chip_11cxx_lib/src/i2c_11xx.c **** 
 333:../../lpc11cx4-library/lpc_chip_11cxx_lib/src/i2c_11xx.c **** 	/* Only WAIT event needs to be handled */
 334:../../lpc11cx4-library/lpc_chip_11cxx_lib/src/i2c_11xx.c **** 	if (event != I2C_EVENT_WAIT) {
  78              		.loc 1 334 0
  79 0000 0129     		cmp	r1, #1	@ event,
  80 0002 07D1     		bne	.L1	@,
 335:../../lpc11cx4-library/lpc_chip_11cxx_lib/src/i2c_11xx.c **** 		return;
 336:../../lpc11cx4-library/lpc_chip_11cxx_lib/src/i2c_11xx.c **** 	}
 337:../../lpc11cx4-library/lpc_chip_11cxx_lib/src/i2c_11xx.c **** 
 338:../../lpc11cx4-library/lpc_chip_11cxx_lib/src/i2c_11xx.c **** 	stat = &iic->mXfer->status;
  81              		.loc 1 338 0
  82 0004 1C23     		mov	r3, #28	@ tmp116,
  83 0006 5843     		mul	r0, r3	@ tmp117, tmp116
  84              	.LVL1:
  85 0008 034B     		ldr	r3, .L6	@ tmp115,
  86 000a 1818     		add	r0, r3, r0	@ tmp118, tmp115, tmp117
  87 000c 0269     		ldr	r2, [r0, #16]	@ D.6683, MEM[(struct i2c_interface *)&i2c][_2].mXfer
  88              	.LVL2:
  89              	.L3:
 339:../../lpc11cx4-library/lpc_chip_11cxx_lib/src/i2c_11xx.c **** 	/* Wait for the status to change */
 340:../../lpc11cx4-library/lpc_chip_11cxx_lib/src/i2c_11xx.c **** 	while (*stat == I2C_STATUS_BUSY) {}
  90              		.loc 1 340 0 discriminator 1
  91 000e 137D     		ldrb	r3, [r2, #20]	@ MEM[(volatile I2C_STATUS_T *)_5 + 20B], MEM[(volatile I2C_STATUS_T *)_5 + 20B
  92 0010 042B     		cmp	r3, #4	@ MEM[(volatile I2C_STATUS_T *)_5 + 20B],
  93 0012 FCD0     		beq	.L3	@,
  94              	.LVL3:
  95              	.L1:
 341:../../lpc11cx4-library/lpc_chip_11cxx_lib/src/i2c_11xx.c **** }
  96              		.loc 1 341 0
  97              		@ sp needed	@
  98 0014 7047     		bx	lr
  99              	.L7:
 100 0016 C046     		.align	2
 101              	.L6:
 102 0018 00000000 		.word	.LANCHOR0
 103              		.cfi_endproc
 104              	.LFE212:
 105              		.size	Chip_I2C_EventHandler, .-Chip_I2C_EventHandler
 106              		.section	.text.handleMasterXferState,"ax",%progbits
 107              		.align	1
 108              		.global	handleMasterXferState
 109              		.code	16
 110              		.thumb_func
 111              		.type	handleMasterXferState, %function
 112              	handleMasterXferState:
 113              	.LFB209:
 177:../../lpc11cx4-library/lpc_chip_11cxx_lib/src/i2c_11xx.c **** 	uint32_t cclr = I2C_CON_FLAGS;
 114              		.loc 1 177 0
ARM GAS  /tmp/ccAFBUIw.s 			page 9


 115              		.cfi_startproc
 116              	.LVL4:
 117              	.LBB36:
 118              	.LBB37:
 122:../../lpc11cx4-library/lpc_chip_11cxx_lib/src/i2c_11xx.c **** }
 119              		.loc 1 122 0
 120 0000 F823     		mov	r3, #248	@ tmp146,
 121 0002 4268     		ldr	r2, [r0, #4]	@ D.6694, pI2C_10(D)->STAT
 122              	.LBE37:
 123              	.LBE36:
 177:../../lpc11cx4-library/lpc_chip_11cxx_lib/src/i2c_11xx.c **** 	uint32_t cclr = I2C_CON_FLAGS;
 124              		.loc 1 177 0
 125 0004 10B5     		push	{r4, lr}	@
 126              		.cfi_def_cfa_offset 8
 127              		.cfi_offset 4, -8
 128              		.cfi_offset 14, -4
 129              	.LBB39:
 130              	.LBB38:
 122:../../lpc11cx4-library/lpc_chip_11cxx_lib/src/i2c_11xx.c **** }
 131              		.loc 1 122 0
 132 0006 1340     		and	r3, r2	@ D.6695, D.6694
 133              	.LBE38:
 134              	.LBE39:
 180:../../lpc11cx4-library/lpc_chip_11cxx_lib/src/i2c_11xx.c **** 	case 0x08:		/* Start condition on bus */
 135              		.loc 1 180 0
 136 0008 282B     		cmp	r3, #40	@ D.6695,
 137 000a 27D0     		beq	.L10	@,
 138 000c 0CDC     		bgt	.L11	@,
 139 000e 102B     		cmp	r3, #16	@ D.6695,
 140 0010 1CD0     		beq	.L12	@,
 141 0012 04DC     		bgt	.L13	@,
 142 0014 002B     		cmp	r3, #0	@ D.6695,
 143 0016 49D0     		beq	.L14	@,
 144 0018 082B     		cmp	r3, #8	@ D.6695,
 145 001a 17D0     		beq	.L12	@,
 146 001c 4AE0     		b	.L25	@
 147              	.L13:
 148 001e 182B     		cmp	r3, #24	@ D.6695,
 149 0020 1CD0     		beq	.L10	@,
 150 0022 202B     		cmp	r3, #32	@ D.6695,
 151 0024 40D0     		beq	.L15	@,
 152 0026 45E0     		b	.L25	@
 153              	.L11:
 154 0028 402B     		cmp	r3, #64	@ D.6695,
 155 002a 36D0     		beq	.L26	@,
 156 002c 06DC     		bgt	.L17	@,
 157 002e 302B     		cmp	r3, #48	@ D.6695,
 158 0030 3AD0     		beq	.L15	@,
 159 0032 382B     		cmp	r3, #56	@ D.6695,
 160 0034 3ED1     		bne	.L25	@,
 221:../../lpc11cx4-library/lpc_chip_11cxx_lib/src/i2c_11xx.c **** 		break;
 161              		.loc 1 221 0
 162 0036 0223     		mov	r3, #2	@ tmp167,
 163 0038 0B75     		strb	r3, [r1, #20]	@ tmp167, xfer_11(D)->status
 164 003a 3BE0     		b	.L25	@
 165              	.L17:
 180:../../lpc11cx4-library/lpc_chip_11cxx_lib/src/i2c_11xx.c **** 	case 0x08:		/* Start condition on bus */
ARM GAS  /tmp/ccAFBUIw.s 			page 10


 166              		.loc 1 180 0
 167 003c 502B     		cmp	r3, #80	@ D.6695,
 168 003e 22D0     		beq	.L27	@,
 200:../../lpc11cx4-library/lpc_chip_11cxx_lib/src/i2c_11xx.c **** 
 169              		.loc 1 200 0
 170 0040 2C22     		mov	r2, #44	@ cclr,
 180:../../lpc11cx4-library/lpc_chip_11cxx_lib/src/i2c_11xx.c **** 	case 0x08:		/* Start condition on bus */
 171              		.loc 1 180 0
 172 0042 582B     		cmp	r3, #88	@ D.6695,
 173 0044 20D0     		beq	.L19	@,
 174 0046 482B     		cmp	r3, #72	@ D.6695,
 175 0048 34D1     		bne	.L25	@,
 176 004a 2DE0     		b	.L15	@
 177              	.L12:
 183:../../lpc11cx4-library/lpc_chip_11cxx_lib/src/i2c_11xx.c **** 		break;
 178              		.loc 1 183 0
 179 004c 8A68     		ldr	r2, [r1, #8]	@ D.6697, xfer_11(D)->txSz
 180 004e 5342     		neg	r3, r2	@ tmp150, D.6697
 181 0050 5A41     		adc	r2, r2, r3	@ D.6697, D.6697, tmp150
 182 0052 0B78     		ldrb	r3, [r1]	@ D.6695, *xfer_11(D)
 183 0054 5B00     		lsl	r3, r3, #1	@ D.6695, D.6695,
 184 0056 1343     		orr	r3, r2	@ D.6694, D.6697
 185 0058 8360     		str	r3, [r0, #8]	@ D.6694, pI2C_10(D)->DAT
 186 005a 2BE0     		b	.L25	@
 187              	.L10:
 189:../../lpc11cx4-library/lpc_chip_11cxx_lib/src/i2c_11xx.c **** 			cclr &= ~(xfer->rxSz ? I2C_CON_STA : I2C_CON_STO);
 188              		.loc 1 189 0
 189 005c 8B68     		ldr	r3, [r1, #8]	@ D.6695, xfer_11(D)->txSz
 190 005e 002B     		cmp	r3, #0	@ D.6695,
 191 0060 09D1     		bne	.L21	@,
 190:../../lpc11cx4-library/lpc_chip_11cxx_lib/src/i2c_11xx.c **** 		}
 192              		.loc 1 190 0
 193 0062 0B69     		ldr	r3, [r1, #16]	@ tmp187, xfer_11(D)->rxSz
 194 0064 002B     		cmp	r3, #0	@ tmp187,
 195 0066 01D1     		bne	.L28	@,
 196 0068 113B     		sub	r3, r3, #17	@ D.6694,
 197 006a 01E0     		b	.L22	@
 198              	.L28:
 199 006c 2123     		mov	r3, #33	@ D.6694,
 200 006e 5B42     		neg	r3, r3	@ D.6694, D.6694
 201              	.L22:
 190:../../lpc11cx4-library/lpc_chip_11cxx_lib/src/i2c_11xx.c **** 		}
 202              		.loc 1 190 0 is_stmt 0 discriminator 4
 203 0070 3C22     		mov	r2, #60	@ tmp154,
 204 0072 1A40     		and	r2, r3	@ cclr, D.6694
 205              	.LVL5:
 206 0074 1FE0     		b	.L9	@
 207              	.LVL6:
 208              	.L21:
 193:../../lpc11cx4-library/lpc_chip_11cxx_lib/src/i2c_11xx.c **** 			xfer->txSz--;
 209              		.loc 1 193 0 is_stmt 1
 210 0076 4A68     		ldr	r2, [r1, #4]	@ D.6698, xfer_11(D)->txBuff
 194:../../lpc11cx4-library/lpc_chip_11cxx_lib/src/i2c_11xx.c **** 		}
 211              		.loc 1 194 0
 212 0078 013B     		sub	r3, r3, #1	@ D.6695,
 193:../../lpc11cx4-library/lpc_chip_11cxx_lib/src/i2c_11xx.c **** 			xfer->txSz--;
 213              		.loc 1 193 0
ARM GAS  /tmp/ccAFBUIw.s 			page 11


 214 007a 541C     		add	r4, r2, #1	@ D.6698, D.6698,
 215 007c 4C60     		str	r4, [r1, #4]	@ D.6698, xfer_11(D)->txBuff
 216 007e 1278     		ldrb	r2, [r2]	@ D.6694, *_22
 217 0080 8260     		str	r2, [r0, #8]	@ D.6694, pI2C_10(D)->DAT
 194:../../lpc11cx4-library/lpc_chip_11cxx_lib/src/i2c_11xx.c **** 		}
 218              		.loc 1 194 0
 219 0082 8B60     		str	r3, [r1, #8]	@ D.6695, xfer_11(D)->txSz
 220 0084 16E0     		b	.L25	@
 221              	.L27:
 178:../../lpc11cx4-library/lpc_chip_11cxx_lib/src/i2c_11xx.c **** 
 222              		.loc 1 178 0
 223 0086 3C22     		mov	r2, #60	@ cclr,
 224              	.L19:
 225              	.LVL7:
 203:../../lpc11cx4-library/lpc_chip_11cxx_lib/src/i2c_11xx.c **** 		xfer->rxSz--;
 226              		.loc 1 203 0
 227 0088 CB68     		ldr	r3, [r1, #12]	@ D.6699, xfer_11(D)->rxBuff
 228 008a 5C1C     		add	r4, r3, #1	@ D.6699, D.6699,
 229 008c CC60     		str	r4, [r1, #12]	@ D.6699, xfer_11(D)->rxBuff
 230 008e 8468     		ldr	r4, [r0, #8]	@ D.6694, pI2C_10(D)->DAT
 231 0090 1C70     		strb	r4, [r3]	@ D.6694, *_32
 204:../../lpc11cx4-library/lpc_chip_11cxx_lib/src/i2c_11xx.c **** 
 232              		.loc 1 204 0
 233 0092 0B69     		ldr	r3, [r1, #16]	@ tmp188, xfer_11(D)->rxSz
 234 0094 013B     		sub	r3, r3, #1	@ D.6695,
 235 0096 0B61     		str	r3, [r1, #16]	@ D.6695, xfer_11(D)->rxSz
 236 0098 00E0     		b	.L16	@
 237              	.LVL8:
 238              	.L26:
 178:../../lpc11cx4-library/lpc_chip_11cxx_lib/src/i2c_11xx.c **** 
 239              		.loc 1 178 0
 240 009a 3C22     		mov	r2, #60	@ cclr,
 241              	.LVL9:
 242              	.L16:
 207:../../lpc11cx4-library/lpc_chip_11cxx_lib/src/i2c_11xx.c **** 			cclr &= ~I2C_CON_AA;
 243              		.loc 1 207 0
 244 009c 0B69     		ldr	r3, [r1, #16]	@ tmp189, xfer_11(D)->rxSz
 245 009e 012B     		cmp	r3, #1	@ tmp189,
 246 00a0 09DD     		ble	.L9	@,
 208:../../lpc11cx4-library/lpc_chip_11cxx_lib/src/i2c_11xx.c **** 		}
 247              		.loc 1 208 0
 248 00a2 0423     		mov	r3, #4	@ tmp164,
 249 00a4 9A43     		bic	r2, r3	@ cclr, tmp164
 250 00a6 06E0     		b	.L9	@
 251              	.LVL10:
 252              	.L15:
 216:../../lpc11cx4-library/lpc_chip_11cxx_lib/src/i2c_11xx.c **** 		cclr &= ~I2C_CON_STO;
 253              		.loc 1 216 0
 254 00a8 0123     		mov	r3, #1	@ tmp165,
 255 00aa 00E0     		b	.L56	@
 256              	.L14:
 226:../../lpc11cx4-library/lpc_chip_11cxx_lib/src/i2c_11xx.c **** 		cclr &= ~I2C_CON_STO;
 257              		.loc 1 226 0
 258 00ac 0323     		mov	r3, #3	@ tmp169,
 259              	.L56:
 260 00ae 0B75     		strb	r3, [r1, #20]	@ tmp169, xfer_11(D)->status
 261              	.LVL11:
ARM GAS  /tmp/ccAFBUIw.s 			page 12


 227:../../lpc11cx4-library/lpc_chip_11cxx_lib/src/i2c_11xx.c **** 	}
 262              		.loc 1 227 0
 263 00b0 2C22     		mov	r2, #44	@ cclr,
 264 00b2 00E0     		b	.L9	@
 265              	.LVL12:
 266              	.L25:
 178:../../lpc11cx4-library/lpc_chip_11cxx_lib/src/i2c_11xx.c **** 
 267              		.loc 1 178 0
 268 00b4 3C22     		mov	r2, #60	@ cclr,
 269              	.LVL13:
 270              	.L9:
 231:../../lpc11cx4-library/lpc_chip_11cxx_lib/src/i2c_11xx.c **** 	pI2C->CONCLR = cclr;
 271              		.loc 1 231 0
 272 00b6 3C23     		mov	r3, #60	@ tmp171,
 273 00b8 5340     		eor	r3, r2	@ D.6694, cclr
 274 00ba 0360     		str	r3, [r0]	@ D.6694, pI2C_10(D)->CONSET
 232:../../lpc11cx4-library/lpc_chip_11cxx_lib/src/i2c_11xx.c **** 
 275              		.loc 1 232 0
 276 00bc 8261     		str	r2, [r0, #24]	@ cclr, pI2C_10(D)->CONCLR
 277 00be 0B7D     		ldrb	r3, [r1, #20]	@ tmp179,
 235:../../lpc11cx4-library/lpc_chip_11cxx_lib/src/i2c_11xx.c **** 		if (xfer->status == I2C_STATUS_BUSY) {
 278              		.loc 1 235 0
 279 00c0 D206     		lsl	r2, r2, #27	@ tmp185, cclr,
 280 00c2 02D5     		bpl	.L23	@,
 241:../../lpc11cx4-library/lpc_chip_11cxx_lib/src/i2c_11xx.c **** }
 281              		.loc 1 241 0 discriminator 1
 282 00c4 0120     		mov	r0, #1	@ D.6695,
 283              	.LVL14:
 235:../../lpc11cx4-library/lpc_chip_11cxx_lib/src/i2c_11xx.c **** 		if (xfer->status == I2C_STATUS_BUSY) {
 284              		.loc 1 235 0 discriminator 1
 285 00c6 022B     		cmp	r3, #2	@ tmp179,
 286 00c8 03D1     		bne	.L24	@,
 287              	.L23:
 288 00ca 0020     		mov	r0, #0	@ D.6695,
 236:../../lpc11cx4-library/lpc_chip_11cxx_lib/src/i2c_11xx.c **** 			xfer->status = I2C_STATUS_DONE;
 289              		.loc 1 236 0
 290 00cc 042B     		cmp	r3, #4	@ tmp179,
 291 00ce 00D1     		bne	.L24	@,
 237:../../lpc11cx4-library/lpc_chip_11cxx_lib/src/i2c_11xx.c **** 		}
 292              		.loc 1 237 0
 293 00d0 0875     		strb	r0, [r1, #20]	@ D.6695, xfer_11(D)->status
 294              	.L24:
 242:../../lpc11cx4-library/lpc_chip_11cxx_lib/src/i2c_11xx.c **** 
 295              		.loc 1 242 0
 296              		@ sp needed	@
 297 00d2 10BD     		pop	{r4, pc}
 298              		.cfi_endproc
 299              	.LFE209:
 300              		.size	handleMasterXferState, .-handleMasterXferState
 301              		.section	.text.getSlaveIndex,"ax",%progbits
 302              		.align	1
 303              		.global	getSlaveIndex
 304              		.code	16
 305              		.thumb_func
 306              		.type	getSlaveIndex, %function
 307              	getSlaveIndex:
 308              	.LFB210:
ARM GAS  /tmp/ccAFBUIw.s 			page 13


 246:../../lpc11cx4-library/lpc_chip_11cxx_lib/src/i2c_11xx.c **** 	switch (getCurState(pI2C)) {
 309              		.loc 1 246 0
 310              		.cfi_startproc
 311              	.LVL15:
 312              	.LBB56:
 313              	.LBB57:
 122:../../lpc11cx4-library/lpc_chip_11cxx_lib/src/i2c_11xx.c **** }
 314              		.loc 1 122 0
 315 0000 F823     		mov	r3, #248	@ tmp160,
 316 0002 4268     		ldr	r2, [r0, #4]	@ D.6732, pI2C_4(D)->STAT
 317              	.LBE57:
 318              	.LBE56:
 246:../../lpc11cx4-library/lpc_chip_11cxx_lib/src/i2c_11xx.c **** 	switch (getCurState(pI2C)) {
 319              		.loc 1 246 0
 320 0004 30B5     		push	{r4, r5, lr}	@
 321              		.cfi_def_cfa_offset 12
 322              		.cfi_offset 4, -12
 323              		.cfi_offset 5, -8
 324              		.cfi_offset 14, -4
 325              	.LBB59:
 326              	.LBB58:
 122:../../lpc11cx4-library/lpc_chip_11cxx_lib/src/i2c_11xx.c **** }
 327              		.loc 1 122 0
 328 0006 1340     		and	r3, r2	@ D.6733, D.6732
 329              	.LBE58:
 330              	.LBE59:
 247:../../lpc11cx4-library/lpc_chip_11cxx_lib/src/i2c_11xx.c **** 	case 0x60:
 331              		.loc 1 247 0
 332 0008 702B     		cmp	r3, #112	@ D.6733,
 333 000a 0BD0     		beq	.L59	@,
 334 000c 04DC     		bgt	.L60	@,
 335 000e 602B     		cmp	r3, #96	@ D.6733,
 336 0010 08D0     		beq	.L59	@,
 337 0012 682B     		cmp	r3, #104	@ D.6733,
 338 0014 37D1     		bne	.L61	@,
 339 0016 05E0     		b	.L59	@
 340              	.L60:
 341 0018 A82B     		cmp	r3, #168	@ D.6733,
 342 001a 03D0     		beq	.L59	@,
 343 001c B02B     		cmp	r3, #176	@ D.6733,
 344 001e 01D0     		beq	.L59	@,
 345 0020 782B     		cmp	r3, #120	@ D.6733,
 346 0022 30D1     		bne	.L61	@,
 347              	.L59:
 348              	.LVL16:
 349              	.LBB60:
 350              	.LBB61:
 254:../../lpc11cx4-library/lpc_chip_11cxx_lib/src/i2c_11xx.c **** 	}
 351              		.loc 1 254 0
 352 0024 8368     		ldr	r3, [r0, #8]	@ D.6732, pI2C_4(D)->DAT
 353 0026 D9B2     		uxtb	r1, r3	@ D.6731, D.6732
 354              	.LVL17:
 355              	.LBB62:
 356              	.LBB63:
 156:../../lpc11cx4-library/lpc_chip_11cxx_lib/src/i2c_11xx.c **** 	}
 357              		.loc 1 156 0
 358 0028 0023     		mov	r3, #0	@ D.6730,
ARM GAS  /tmp/ccAFBUIw.s 			page 14


 155:../../lpc11cx4-library/lpc_chip_11cxx_lib/src/i2c_11xx.c **** 		return I2C_SLAVE_GENERAL;					/* General call address */
 359              		.loc 1 155 0
 360 002a 4A08     		lsr	r2, r1, #1	@ tmp163, D.6731,
 361 002c 9A42     		cmp	r2, r3	@ tmp163,
 362 002e 2BD0     		beq	.L58	@,
 363              	.LBB64:
 364              	.LBB65:
 148:../../lpc11cx4-library/lpc_chip_11cxx_lib/src/i2c_11xx.c **** 	return (addr1 & ~mask) == (addr2 & ~mask);
 365              		.loc 1 148 0
 366 0030 0124     		mov	r4, #1	@ tmp166,
 367              	.LBE65:
 368              	.LBE64:
 158:../../lpc11cx4-library/lpc_chip_11cxx_lib/src/i2c_11xx.c **** 		return I2C_SLAVE_0;
 369              		.loc 1 158 0
 370 0032 C268     		ldr	r2, [r0, #12]	@ D.6732, pI2C_4(D)->ADR0
 371 0034 036B     		ldr	r3, [r0, #48]	@ D.6732, pI2C_4(D)->MASK
 372              	.LVL18:
 373              	.LBB67:
 374              	.LBB66:
 149:../../lpc11cx4-library/lpc_chip_11cxx_lib/src/i2c_11xx.c **** }
 375              		.loc 1 149 0
 376 0036 4A40     		eor	r2, r1	@ tmp170, D.6731
 377              	.LVL19:
 148:../../lpc11cx4-library/lpc_chip_11cxx_lib/src/i2c_11xx.c **** 	return (addr1 & ~mask) == (addr2 & ~mask);
 378              		.loc 1 148 0
 379 0038 2343     		orr	r3, r4	@ tmp165, tmp166
 380              	.LVL20:
 149:../../lpc11cx4-library/lpc_chip_11cxx_lib/src/i2c_11xx.c **** }
 381              		.loc 1 149 0
 382 003a DBB2     		uxtb	r3, r3	@ D.6733, tmp165
 383 003c D2B2     		uxtb	r2, r2	@ D.6733, tmp170
 384 003e 9A43     		bic	r2, r3	@ D.6733, D.6733
 385              	.LBE66:
 386              	.LBE67:
 159:../../lpc11cx4-library/lpc_chip_11cxx_lib/src/i2c_11xx.c **** 	}
 387              		.loc 1 159 0
 388 0040 231C     		mov	r3, r4	@ D.6730, tmp166
 158:../../lpc11cx4-library/lpc_chip_11cxx_lib/src/i2c_11xx.c **** 		return I2C_SLAVE_0;
 389              		.loc 1 158 0
 390 0042 002A     		cmp	r2, #0	@ D.6733,
 391 0044 20D0     		beq	.L58	@,
 161:../../lpc11cx4-library/lpc_chip_11cxx_lib/src/i2c_11xx.c **** 		return I2C_SLAVE_1;
 392              		.loc 1 161 0
 393 0046 026A     		ldr	r2, [r0, #32]	@ D.6732, pI2C_4(D)->ADR1
 394 0048 456B     		ldr	r5, [r0, #52]	@ D.6732, pI2C_4(D)->MASK
 395              	.LVL21:
 396              	.LBB68:
 397              	.LBB69:
 149:../../lpc11cx4-library/lpc_chip_11cxx_lib/src/i2c_11xx.c **** }
 398              		.loc 1 149 0
 399 004a 4A40     		eor	r2, r1	@ tmp179, D.6731
 400              	.LVL22:
 148:../../lpc11cx4-library/lpc_chip_11cxx_lib/src/i2c_11xx.c **** 	return (addr1 & ~mask) == (addr2 & ~mask);
 401              		.loc 1 148 0
 402 004c 2B43     		orr	r3, r5	@ tmp174, D.6732
 149:../../lpc11cx4-library/lpc_chip_11cxx_lib/src/i2c_11xx.c **** }
 403              		.loc 1 149 0
ARM GAS  /tmp/ccAFBUIw.s 			page 15


 404 004e DBB2     		uxtb	r3, r3	@ D.6733, tmp174
 405 0050 D2B2     		uxtb	r2, r2	@ D.6733, tmp179
 406 0052 9A43     		bic	r2, r3	@ D.6733, D.6733
 407              	.LBE69:
 408              	.LBE68:
 162:../../lpc11cx4-library/lpc_chip_11cxx_lib/src/i2c_11xx.c **** 	}
 409              		.loc 1 162 0
 410 0054 0223     		mov	r3, #2	@ D.6730,
 161:../../lpc11cx4-library/lpc_chip_11cxx_lib/src/i2c_11xx.c **** 		return I2C_SLAVE_1;
 411              		.loc 1 161 0
 412 0056 002A     		cmp	r2, #0	@ D.6733,
 413 0058 16D0     		beq	.L58	@,
 164:../../lpc11cx4-library/lpc_chip_11cxx_lib/src/i2c_11xx.c **** 		return I2C_SLAVE_2;
 414              		.loc 1 164 0
 415 005a 426A     		ldr	r2, [r0, #36]	@ D.6732, pI2C_4(D)->ADR2
 416 005c 836B     		ldr	r3, [r0, #56]	@ D.6732, pI2C_4(D)->MASK
 417              	.LVL23:
 418              	.LBB70:
 419              	.LBB71:
 149:../../lpc11cx4-library/lpc_chip_11cxx_lib/src/i2c_11xx.c **** }
 420              		.loc 1 149 0
 421 005e 4A40     		eor	r2, r1	@ tmp188, D.6731
 422              	.LVL24:
 148:../../lpc11cx4-library/lpc_chip_11cxx_lib/src/i2c_11xx.c **** 	return (addr1 & ~mask) == (addr2 & ~mask);
 423              		.loc 1 148 0
 424 0060 2343     		orr	r3, r4	@ tmp183, tmp166
 425              	.LVL25:
 149:../../lpc11cx4-library/lpc_chip_11cxx_lib/src/i2c_11xx.c **** }
 426              		.loc 1 149 0
 427 0062 DBB2     		uxtb	r3, r3	@ D.6733, tmp183
 428 0064 D2B2     		uxtb	r2, r2	@ D.6733, tmp188
 429 0066 9A43     		bic	r2, r3	@ D.6733, D.6733
 430              	.LBE71:
 431              	.LBE70:
 165:../../lpc11cx4-library/lpc_chip_11cxx_lib/src/i2c_11xx.c **** 	}
 432              		.loc 1 165 0
 433 0068 0323     		mov	r3, #3	@ D.6730,
 164:../../lpc11cx4-library/lpc_chip_11cxx_lib/src/i2c_11xx.c **** 		return I2C_SLAVE_2;
 434              		.loc 1 164 0
 435 006a 002A     		cmp	r2, #0	@ D.6733,
 436 006c 0CD0     		beq	.L58	@,
 167:../../lpc11cx4-library/lpc_chip_11cxx_lib/src/i2c_11xx.c **** 		return I2C_SLAVE_3;
 437              		.loc 1 167 0
 438 006e 826A     		ldr	r2, [r0, #40]	@ D.6732, pI2C_4(D)->ADR3
 439 0070 C36B     		ldr	r3, [r0, #60]	@ D.6732, pI2C_4(D)->MASK
 440              	.LVL26:
 441              	.LBB72:
 442              	.LBB73:
 148:../../lpc11cx4-library/lpc_chip_11cxx_lib/src/i2c_11xx.c **** 	return (addr1 & ~mask) == (addr2 & ~mask);
 443              		.loc 1 148 0
 444 0072 1C43     		orr	r4, r3	@ tmp192, D.6732
 149:../../lpc11cx4-library/lpc_chip_11cxx_lib/src/i2c_11xx.c **** }
 445              		.loc 1 149 0
 446 0074 0B1C     		mov	r3, r1	@ tmp197, D.6731
 447              	.LVL27:
 448 0076 5340     		eor	r3, r2	@ tmp197, D.6732
 449 0078 E4B2     		uxtb	r4, r4	@ D.6733, tmp192
ARM GAS  /tmp/ccAFBUIw.s 			page 16


 450 007a DBB2     		uxtb	r3, r3	@ D.6733, tmp197
 451 007c A343     		bic	r3, r4	@ D.6733, D.6733
 452              	.LBE73:
 453              	.LBE72:
 172:../../lpc11cx4-library/lpc_chip_11cxx_lib/src/i2c_11xx.c **** }
 454              		.loc 1 172 0
 455 007e 5842     		neg	r0, r3	@ tmp203, D.6733
 456 0080 4341     		adc	r3, r3, r0	@ tmp202, D.6733, tmp203
 457              	.LVL28:
 458 0082 9B00     		lsl	r3, r3, #2	@ D.6730, tmp202,
 459 0084 00E0     		b	.L58	@
 460              	.LVL29:
 461              	.L61:
 462              	.LBE63:
 463              	.LBE62:
 464              	.LBE61:
 465              	.LBE60:
 258:../../lpc11cx4-library/lpc_chip_11cxx_lib/src/i2c_11xx.c **** }
 466              		.loc 1 258 0
 467 0086 0023     		mov	r3, #0	@ D.6730,
 468              	.LVL30:
 469              	.L58:
 259:../../lpc11cx4-library/lpc_chip_11cxx_lib/src/i2c_11xx.c **** 
 470              		.loc 1 259 0
 471 0088 181C     		mov	r0, r3	@, D.6730
 472              		@ sp needed	@
 473 008a 30BD     		pop	{r4, r5, pc}
 474              		.cfi_endproc
 475              	.LFE210:
 476              		.size	getSlaveIndex, .-getSlaveIndex
 477              		.section	.text.handleSlaveXferState,"ax",%progbits
 478              		.align	1
 479              		.global	handleSlaveXferState
 480              		.code	16
 481              		.thumb_func
 482              		.type	handleSlaveXferState, %function
 483              	handleSlaveXferState:
 484              	.LFB211:
 263:../../lpc11cx4-library/lpc_chip_11cxx_lib/src/i2c_11xx.c **** 	uint32_t cclr = I2C_CON_FLAGS;
 485              		.loc 1 263 0
 486              		.cfi_startproc
 487              	.LVL31:
 267:../../lpc11cx4-library/lpc_chip_11cxx_lib/src/i2c_11xx.c **** 	switch (getCurState(pI2C)) {
 488              		.loc 1 267 0
 489 0000 0423     		mov	r3, #4	@ tmp140,
 490              	.LBB74:
 491              	.LBB75:
 122:../../lpc11cx4-library/lpc_chip_11cxx_lib/src/i2c_11xx.c **** }
 492              		.loc 1 122 0
 493 0002 4268     		ldr	r2, [r0, #4]	@ D.6743, pI2C_8(D)->STAT
 494              	.LBE75:
 495              	.LBE74:
 267:../../lpc11cx4-library/lpc_chip_11cxx_lib/src/i2c_11xx.c **** 	switch (getCurState(pI2C)) {
 496              		.loc 1 267 0
 497 0004 0B75     		strb	r3, [r1, #20]	@ tmp140, xfer_6(D)->status
 498              	.LVL32:
 499              	.LBB77:
ARM GAS  /tmp/ccAFBUIw.s 			page 17


 500              	.LBB76:
 122:../../lpc11cx4-library/lpc_chip_11cxx_lib/src/i2c_11xx.c **** }
 501              		.loc 1 122 0
 502 0006 F433     		add	r3, r3, #244	@ tmp143,
 503 0008 1340     		and	r3, r2	@ D.6745, D.6743
 504              	.LBE76:
 505              	.LBE77:
 268:../../lpc11cx4-library/lpc_chip_11cxx_lib/src/i2c_11xx.c **** 	case 0x80:		/* SLA: Data received + ACK sent */
 506              		.loc 1 268 0
 507 000a 902B     		cmp	r3, #144	@ D.6745,
 508 000c 20D0     		beq	.L91	@,
 509 000e 0EDC     		bgt	.L92	@,
 510 0010 702B     		cmp	r3, #112	@ D.6745,
 511 0012 29D0     		beq	.L93	@,
 512 0014 04DC     		bgt	.L94	@,
 513 0016 602B     		cmp	r3, #96	@ D.6745,
 514 0018 26D0     		beq	.L93	@,
 515 001a 682B     		cmp	r3, #104	@ D.6745,
 516 001c 24D0     		beq	.L93	@,
 517 001e 44E0     		b	.L101	@
 518              	.L94:
 519 0020 802B     		cmp	r3, #128	@ D.6745,
 520 0022 15D0     		beq	.L91	@,
 521 0024 882B     		cmp	r3, #136	@ D.6745,
 522 0026 38D0     		beq	.L95	@,
 523 0028 782B     		cmp	r3, #120	@ D.6745,
 524 002a 3ED1     		bne	.L101	@,
 525 002c 1CE0     		b	.L93	@
 526              	.L92:
 527 002e B02B     		cmp	r3, #176	@ D.6745,
 528 0030 23D0     		beq	.L96	@,
 529 0032 06DC     		bgt	.L97	@,
 530 0034 A02B     		cmp	r3, #160	@ D.6745,
 531 0036 30D0     		beq	.L95	@,
 532 0038 A82B     		cmp	r3, #168	@ D.6745,
 533 003a 1ED0     		beq	.L96	@,
 534 003c 982B     		cmp	r3, #152	@ D.6745,
 535 003e 34D1     		bne	.L101	@,
 536 0040 2BE0     		b	.L95	@
 537              	.L97:
 538 0042 C02B     		cmp	r3, #192	@ D.6745,
 539 0044 29D0     		beq	.L95	@,
 540 0046 C82B     		cmp	r3, #200	@ D.6745,
 541 0048 27D0     		beq	.L95	@,
 542 004a B82B     		cmp	r3, #184	@ D.6745,
 543 004c 19D0     		beq	.L98	@,
 544 004e 2CE0     		b	.L101	@
 545              	.L91:
 271:../../lpc11cx4-library/lpc_chip_11cxx_lib/src/i2c_11xx.c **** 		xfer->rxSz--;
 546              		.loc 1 271 0
 547 0050 CB68     		ldr	r3, [r1, #12]	@ D.6742, xfer_6(D)->rxBuff
 548 0052 5A1C     		add	r2, r3, #1	@ D.6742, D.6742,
 549 0054 CA60     		str	r2, [r1, #12]	@ D.6742, xfer_6(D)->rxBuff
 550 0056 8268     		ldr	r2, [r0, #8]	@ D.6743, pI2C_8(D)->DAT
 551 0058 1A70     		strb	r2, [r3]	@ D.6743, *_9
 272:../../lpc11cx4-library/lpc_chip_11cxx_lib/src/i2c_11xx.c **** 		ret = RET_SLAVE_RX;
 552              		.loc 1 272 0
ARM GAS  /tmp/ccAFBUIw.s 			page 18


 553 005a 0B69     		ldr	r3, [r1, #16]	@ tmp173, xfer_6(D)->rxSz
 273:../../lpc11cx4-library/lpc_chip_11cxx_lib/src/i2c_11xx.c **** 		if (xfer->rxSz > 1) {
 554              		.loc 1 273 0
 555 005c 0522     		mov	r2, #5	@ ret,
 272:../../lpc11cx4-library/lpc_chip_11cxx_lib/src/i2c_11xx.c **** 		ret = RET_SLAVE_RX;
 556              		.loc 1 272 0
 557 005e 013B     		sub	r3, r3, #1	@ D.6745,
 558 0060 0B61     		str	r3, [r1, #16]	@ D.6745, xfer_6(D)->rxSz
 559              	.LVL33:
 274:../../lpc11cx4-library/lpc_chip_11cxx_lib/src/i2c_11xx.c **** 			cclr &= ~I2C_CON_AA;
 560              		.loc 1 274 0
 561 0062 012B     		cmp	r3, #1	@ D.6745,
 562 0064 24DC     		bgt	.L103	@,
 563 0066 21E0     		b	.L102	@
 564              	.LVL34:
 565              	.L93:
 283:../../lpc11cx4-library/lpc_chip_11cxx_lib/src/i2c_11xx.c **** 		if (xfer->rxSz > 1) {
 566              		.loc 1 283 0
 567 0068 0122     		mov	r2, #1	@ tmp149,
 568 006a 8368     		ldr	r3, [r0, #8]	@ D.6743, pI2C_8(D)->DAT
 569 006c 9343     		bic	r3, r2	@ tmp148, tmp149
 570 006e 0B70     		strb	r3, [r1]	@ tmp148, xfer_6(D)->slaveAddr
 284:../../lpc11cx4-library/lpc_chip_11cxx_lib/src/i2c_11xx.c **** 			cclr &= ~I2C_CON_AA;
 571              		.loc 1 284 0
 572 0070 0B69     		ldr	r3, [r1, #16]	@ xfer_6(D)->rxSz, xfer_6(D)->rxSz
 573 0072 9342     		cmp	r3, r2	@ xfer_6(D)->rxSz,
 574 0074 19DD     		ble	.L101	@,
 265:../../lpc11cx4-library/lpc_chip_11cxx_lib/src/i2c_11xx.c **** 
 575              		.loc 1 265 0
 576 0076 0022     		mov	r2, #0	@ ret,
 577 0078 1AE0     		b	.L103	@
 578              	.L96:
 291:../../lpc11cx4-library/lpc_chip_11cxx_lib/src/i2c_11xx.c **** 
 579              		.loc 1 291 0
 580 007a 0122     		mov	r2, #1	@ tmp154,
 581 007c 8368     		ldr	r3, [r0, #8]	@ D.6743, pI2C_8(D)->DAT
 582 007e 9343     		bic	r3, r2	@ tmp153, tmp154
 583 0080 0B70     		strb	r3, [r1]	@ tmp153, xfer_6(D)->slaveAddr
 584              	.L98:
 294:../../lpc11cx4-library/lpc_chip_11cxx_lib/src/i2c_11xx.c **** 		xfer->txSz--;
 585              		.loc 1 294 0
 586 0082 4B68     		ldr	r3, [r1, #4]	@ D.6746, xfer_6(D)->txBuff
 587 0084 5A1C     		add	r2, r3, #1	@ D.6746, D.6746,
 588 0086 4A60     		str	r2, [r1, #4]	@ D.6746, xfer_6(D)->txBuff
 589 0088 1B78     		ldrb	r3, [r3]	@ D.6743, *_27
 299:../../lpc11cx4-library/lpc_chip_11cxx_lib/src/i2c_11xx.c **** 		break;
 590              		.loc 1 299 0
 591 008a 0622     		mov	r2, #6	@ ret,
 294:../../lpc11cx4-library/lpc_chip_11cxx_lib/src/i2c_11xx.c **** 		xfer->txSz--;
 592              		.loc 1 294 0
 593 008c 8360     		str	r3, [r0, #8]	@ D.6743, pI2C_8(D)->DAT
 295:../../lpc11cx4-library/lpc_chip_11cxx_lib/src/i2c_11xx.c **** 		if (xfer->txSz > 0) {
 594              		.loc 1 295 0
 595 008e 8B68     		ldr	r3, [r1, #8]	@ tmp174, xfer_6(D)->txSz
 596 0090 013B     		sub	r3, r3, #1	@ D.6745,
 597 0092 8B60     		str	r3, [r1, #8]	@ D.6745, xfer_6(D)->txSz
 296:../../lpc11cx4-library/lpc_chip_11cxx_lib/src/i2c_11xx.c **** 			cclr &= ~I2C_CON_AA;
ARM GAS  /tmp/ccAFBUIw.s 			page 19


 598              		.loc 1 296 0
 599 0094 002B     		cmp	r3, #0	@ D.6745,
 600 0096 0BDC     		bgt	.L103	@,
 601 0098 08E0     		b	.L102	@
 602              	.L95:
 603              	.LVL35:
 309:../../lpc11cx4-library/lpc_chip_11cxx_lib/src/i2c_11xx.c **** 		if (xfer->slaveAddr & 1) {
 604              		.loc 1 309 0
 605 009a 0023     		mov	r3, #0	@ tmp158,
 606 009c 0B75     		strb	r3, [r1, #20]	@ tmp158, xfer_6(D)->status
 310:../../lpc11cx4-library/lpc_chip_11cxx_lib/src/i2c_11xx.c **** 			cclr &= ~I2C_CON_STA;
 607              		.loc 1 310 0
 608 009e 0B78     		ldrb	r3, [r1]	@ *xfer_6(D), *xfer_6(D)
 307:../../lpc11cx4-library/lpc_chip_11cxx_lib/src/i2c_11xx.c **** 		cclr &= ~I2C_CON_AA;
 609              		.loc 1 307 0
 610 00a0 0222     		mov	r2, #2	@ ret,
 310:../../lpc11cx4-library/lpc_chip_11cxx_lib/src/i2c_11xx.c **** 			cclr &= ~I2C_CON_STA;
 611              		.loc 1 310 0
 612 00a2 DB07     		lsl	r3, r3, #31	@ tmp172, *xfer_6(D),
 613 00a4 04D5     		bpl	.L103	@,
 311:../../lpc11cx4-library/lpc_chip_11cxx_lib/src/i2c_11xx.c **** 		}
 614              		.loc 1 311 0
 615 00a6 1823     		mov	r3, #24	@ cclr,
 616 00a8 03E0     		b	.L90	@
 617              	.LVL36:
 618              	.L101:
 265:../../lpc11cx4-library/lpc_chip_11cxx_lib/src/i2c_11xx.c **** 
 619              		.loc 1 265 0
 620 00aa 0022     		mov	r2, #0	@ ret,
 621              	.LVL37:
 622              	.L102:
 264:../../lpc11cx4-library/lpc_chip_11cxx_lib/src/i2c_11xx.c **** 	int ret = RET_SLAVE_BUSY;
 623              		.loc 1 264 0
 624 00ac 3C23     		mov	r3, #60	@ cclr,
 625 00ae 00E0     		b	.L90	@
 626              	.LVL38:
 627              	.L103:
 308:../../lpc11cx4-library/lpc_chip_11cxx_lib/src/i2c_11xx.c **** 		xfer->status = I2C_STATUS_DONE;
 628              		.loc 1 308 0
 629 00b0 3823     		mov	r3, #56	@ cclr,
 630              	.L90:
 631              	.LVL39:
 317:../../lpc11cx4-library/lpc_chip_11cxx_lib/src/i2c_11xx.c **** 	pI2C->CONCLR = cclr;
 632              		.loc 1 317 0
 633 00b2 3C21     		mov	r1, #60	@ tmp166,
 634              	.LVL40:
 635 00b4 5940     		eor	r1, r3	@ D.6743, cclr
 636 00b6 0160     		str	r1, [r0]	@ D.6743, pI2C_8(D)->CONSET
 321:../../lpc11cx4-library/lpc_chip_11cxx_lib/src/i2c_11xx.c **** 
 637              		.loc 1 321 0
 638              		@ sp needed	@
 318:../../lpc11cx4-library/lpc_chip_11cxx_lib/src/i2c_11xx.c **** 
 639              		.loc 1 318 0
 640 00b8 8361     		str	r3, [r0, #24]	@ cclr, pI2C_8(D)->CONCLR
 321:../../lpc11cx4-library/lpc_chip_11cxx_lib/src/i2c_11xx.c **** 
 641              		.loc 1 321 0
 642 00ba 101C     		mov	r0, r2	@, ret
ARM GAS  /tmp/ccAFBUIw.s 			page 20


 643              	.LVL41:
 644 00bc 7047     		bx	lr
 645              		.cfi_endproc
 646              	.LFE211:
 647              		.size	handleSlaveXferState, .-handleSlaveXferState
 648              		.section	.text.Chip_I2C_Init,"ax",%progbits
 649              		.align	1
 650              		.global	Chip_I2C_Init
 651              		.code	16
 652              		.thumb_func
 653              		.type	Chip_I2C_Init, %function
 654              	Chip_I2C_Init:
 655              	.LFB214:
 342:../../lpc11cx4-library/lpc_chip_11cxx_lib/src/i2c_11xx.c **** 
 343:../../lpc11cx4-library/lpc_chip_11cxx_lib/src/i2c_11xx.c **** /* Chip polling event handler */
 344:../../lpc11cx4-library/lpc_chip_11cxx_lib/src/i2c_11xx.c **** void Chip_I2C_EventHandlerPolling(I2C_ID_T id, I2C_EVENT_T event)
 345:../../lpc11cx4-library/lpc_chip_11cxx_lib/src/i2c_11xx.c **** {
 346:../../lpc11cx4-library/lpc_chip_11cxx_lib/src/i2c_11xx.c **** 	struct i2c_interface *iic = &i2c[id];
 347:../../lpc11cx4-library/lpc_chip_11cxx_lib/src/i2c_11xx.c **** 	volatile I2C_STATUS_T *stat;
 348:../../lpc11cx4-library/lpc_chip_11cxx_lib/src/i2c_11xx.c **** 
 349:../../lpc11cx4-library/lpc_chip_11cxx_lib/src/i2c_11xx.c **** 	/* Only WAIT event needs to be handled */
 350:../../lpc11cx4-library/lpc_chip_11cxx_lib/src/i2c_11xx.c **** 	if (event != I2C_EVENT_WAIT) {
 351:../../lpc11cx4-library/lpc_chip_11cxx_lib/src/i2c_11xx.c **** 		return;
 352:../../lpc11cx4-library/lpc_chip_11cxx_lib/src/i2c_11xx.c **** 	}
 353:../../lpc11cx4-library/lpc_chip_11cxx_lib/src/i2c_11xx.c **** 
 354:../../lpc11cx4-library/lpc_chip_11cxx_lib/src/i2c_11xx.c **** 	stat = &iic->mXfer->status;
 355:../../lpc11cx4-library/lpc_chip_11cxx_lib/src/i2c_11xx.c **** 	/* Call the state change handler till xfer is done */
 356:../../lpc11cx4-library/lpc_chip_11cxx_lib/src/i2c_11xx.c **** 	while (*stat == I2C_STATUS_BUSY) {
 357:../../lpc11cx4-library/lpc_chip_11cxx_lib/src/i2c_11xx.c **** 		if (Chip_I2C_IsStateChanged(id)) {
 358:../../lpc11cx4-library/lpc_chip_11cxx_lib/src/i2c_11xx.c **** 			Chip_I2C_MasterStateHandler(id);
 359:../../lpc11cx4-library/lpc_chip_11cxx_lib/src/i2c_11xx.c **** 		}
 360:../../lpc11cx4-library/lpc_chip_11cxx_lib/src/i2c_11xx.c **** 	}
 361:../../lpc11cx4-library/lpc_chip_11cxx_lib/src/i2c_11xx.c **** }
 362:../../lpc11cx4-library/lpc_chip_11cxx_lib/src/i2c_11xx.c **** 
 363:../../lpc11cx4-library/lpc_chip_11cxx_lib/src/i2c_11xx.c **** /* Initializes the LPC_I2C peripheral with specified parameter */
 364:../../lpc11cx4-library/lpc_chip_11cxx_lib/src/i2c_11xx.c **** void Chip_I2C_Init(I2C_ID_T id)
 365:../../lpc11cx4-library/lpc_chip_11cxx_lib/src/i2c_11xx.c **** {
 656              		.loc 1 365 0
 657              		.cfi_startproc
 658              	.LVL42:
 659              	.LBB82:
 660              	.LBB83:
  79:../../lpc11cx4-library/lpc_chip_11cxx_lib/src/i2c_11xx.c **** }
 661              		.loc 1 79 0
 662 0000 1C23     		mov	r3, #28	@ tmp122,
 663              	.LBE83:
 664              	.LBE82:
 665              		.loc 1 365 0
 666 0002 30B5     		push	{r4, r5, lr}	@
 667              		.cfi_def_cfa_offset 12
 668              		.cfi_offset 4, -12
 669              		.cfi_offset 5, -8
 670              		.cfi_offset 14, -4
 671              	.LBB95:
 672              	.LBB92:
  79:../../lpc11cx4-library/lpc_chip_11cxx_lib/src/i2c_11xx.c **** }
 673              		.loc 1 79 0
ARM GAS  /tmp/ccAFBUIw.s 			page 21


 674 0004 5843     		mul	r0, r3	@ tmp123, tmp122
 675              	.LVL43:
 676 0006 0649     		ldr	r1, .L147	@ tmp121,
 677              	.LBB84:
 678              	.LBB85:
 679              		.file 2 "../../lpc11cx4-library/lpc_chip_11cxx_lib/inc/clock_11xx.h"
   1:../../lpc11cx4-library/lpc_chip_11cxx_lib/inc/clock_11xx.h **** /*
   2:../../lpc11cx4-library/lpc_chip_11cxx_lib/inc/clock_11xx.h ****  * @brief LPC11XX Clock control functions
   3:../../lpc11cx4-library/lpc_chip_11cxx_lib/inc/clock_11xx.h ****  *
   4:../../lpc11cx4-library/lpc_chip_11cxx_lib/inc/clock_11xx.h ****  * @note
   5:../../lpc11cx4-library/lpc_chip_11cxx_lib/inc/clock_11xx.h ****  * Copyright(C) NXP Semiconductors, 2012
   6:../../lpc11cx4-library/lpc_chip_11cxx_lib/inc/clock_11xx.h ****  * All rights reserved.
   7:../../lpc11cx4-library/lpc_chip_11cxx_lib/inc/clock_11xx.h ****  *
   8:../../lpc11cx4-library/lpc_chip_11cxx_lib/inc/clock_11xx.h ****  * @par
   9:../../lpc11cx4-library/lpc_chip_11cxx_lib/inc/clock_11xx.h ****  * Software that is described herein is for illustrative purposes only
  10:../../lpc11cx4-library/lpc_chip_11cxx_lib/inc/clock_11xx.h ****  * which provides customers with programming information regarding the
  11:../../lpc11cx4-library/lpc_chip_11cxx_lib/inc/clock_11xx.h ****  * LPC products.  This software is supplied "AS IS" without any warranties of
  12:../../lpc11cx4-library/lpc_chip_11cxx_lib/inc/clock_11xx.h ****  * any kind, and NXP Semiconductors and its licensor disclaim any and
  13:../../lpc11cx4-library/lpc_chip_11cxx_lib/inc/clock_11xx.h ****  * all warranties, express or implied, including all implied warranties of
  14:../../lpc11cx4-library/lpc_chip_11cxx_lib/inc/clock_11xx.h ****  * merchantability, fitness for a particular purpose and non-infringement of
  15:../../lpc11cx4-library/lpc_chip_11cxx_lib/inc/clock_11xx.h ****  * intellectual property rights.  NXP Semiconductors assumes no responsibility
  16:../../lpc11cx4-library/lpc_chip_11cxx_lib/inc/clock_11xx.h ****  * or liability for the use of the software, conveys no license or rights under any
  17:../../lpc11cx4-library/lpc_chip_11cxx_lib/inc/clock_11xx.h ****  * patent, copyright, mask work right, or any other intellectual property rights in
  18:../../lpc11cx4-library/lpc_chip_11cxx_lib/inc/clock_11xx.h ****  * or to any products. NXP Semiconductors reserves the right to make changes
  19:../../lpc11cx4-library/lpc_chip_11cxx_lib/inc/clock_11xx.h ****  * in the software without notification. NXP Semiconductors also makes no
  20:../../lpc11cx4-library/lpc_chip_11cxx_lib/inc/clock_11xx.h ****  * representation or warranty that such application will be suitable for the
  21:../../lpc11cx4-library/lpc_chip_11cxx_lib/inc/clock_11xx.h ****  * specified use without further testing or modification.
  22:../../lpc11cx4-library/lpc_chip_11cxx_lib/inc/clock_11xx.h ****  *
  23:../../lpc11cx4-library/lpc_chip_11cxx_lib/inc/clock_11xx.h ****  * @par
  24:../../lpc11cx4-library/lpc_chip_11cxx_lib/inc/clock_11xx.h ****  * Permission to use, copy, modify, and distribute this software and its
  25:../../lpc11cx4-library/lpc_chip_11cxx_lib/inc/clock_11xx.h ****  * documentation is hereby granted, under NXP Semiconductors' and its
  26:../../lpc11cx4-library/lpc_chip_11cxx_lib/inc/clock_11xx.h ****  * licensor's relevant copyrights in the software, without fee, provided that it
  27:../../lpc11cx4-library/lpc_chip_11cxx_lib/inc/clock_11xx.h ****  * is used in conjunction with NXP Semiconductors microcontrollers.  This
  28:../../lpc11cx4-library/lpc_chip_11cxx_lib/inc/clock_11xx.h ****  * copyright, permission, and disclaimer notice must appear in all copies of
  29:../../lpc11cx4-library/lpc_chip_11cxx_lib/inc/clock_11xx.h ****  * this code.
  30:../../lpc11cx4-library/lpc_chip_11cxx_lib/inc/clock_11xx.h ****  */
  31:../../lpc11cx4-library/lpc_chip_11cxx_lib/inc/clock_11xx.h **** 
  32:../../lpc11cx4-library/lpc_chip_11cxx_lib/inc/clock_11xx.h **** #ifndef __CLOCK_11XX_H_
  33:../../lpc11cx4-library/lpc_chip_11cxx_lib/inc/clock_11xx.h **** #define __CLOCK_11XX_H_
  34:../../lpc11cx4-library/lpc_chip_11cxx_lib/inc/clock_11xx.h **** 
  35:../../lpc11cx4-library/lpc_chip_11cxx_lib/inc/clock_11xx.h **** #ifdef __cplusplus
  36:../../lpc11cx4-library/lpc_chip_11cxx_lib/inc/clock_11xx.h **** extern "C" {
  37:../../lpc11cx4-library/lpc_chip_11cxx_lib/inc/clock_11xx.h **** #endif
  38:../../lpc11cx4-library/lpc_chip_11cxx_lib/inc/clock_11xx.h **** 
  39:../../lpc11cx4-library/lpc_chip_11cxx_lib/inc/clock_11xx.h **** /** @defgroup CLOCK_11XX CHIP: LPC11xx Clock Control block driver
  40:../../lpc11cx4-library/lpc_chip_11cxx_lib/inc/clock_11xx.h ****  * @ingroup CHIP_11XX_Drivers
  41:../../lpc11cx4-library/lpc_chip_11cxx_lib/inc/clock_11xx.h ****  * @{
  42:../../lpc11cx4-library/lpc_chip_11cxx_lib/inc/clock_11xx.h ****  */
  43:../../lpc11cx4-library/lpc_chip_11cxx_lib/inc/clock_11xx.h **** 
  44:../../lpc11cx4-library/lpc_chip_11cxx_lib/inc/clock_11xx.h **** /** Internal oscillator frequency */
  45:../../lpc11cx4-library/lpc_chip_11cxx_lib/inc/clock_11xx.h **** #define SYSCTL_IRC_FREQ (12000000)
  46:../../lpc11cx4-library/lpc_chip_11cxx_lib/inc/clock_11xx.h **** 
  47:../../lpc11cx4-library/lpc_chip_11cxx_lib/inc/clock_11xx.h **** /**
  48:../../lpc11cx4-library/lpc_chip_11cxx_lib/inc/clock_11xx.h ****  * @brief	Set System PLL divider values
  49:../../lpc11cx4-library/lpc_chip_11cxx_lib/inc/clock_11xx.h ****  * @param	msel    : PLL feedback divider value. M = msel + 1.
  50:../../lpc11cx4-library/lpc_chip_11cxx_lib/inc/clock_11xx.h ****  * @param	psel    : PLL post divider value. P =  (1<<psel).
  51:../../lpc11cx4-library/lpc_chip_11cxx_lib/inc/clock_11xx.h ****  * @return	Nothing
ARM GAS  /tmp/ccAFBUIw.s 			page 22


  52:../../lpc11cx4-library/lpc_chip_11cxx_lib/inc/clock_11xx.h ****  * @note	See the user manual for how to setup the PLL.
  53:../../lpc11cx4-library/lpc_chip_11cxx_lib/inc/clock_11xx.h ****  */
  54:../../lpc11cx4-library/lpc_chip_11cxx_lib/inc/clock_11xx.h **** STATIC INLINE void Chip_Clock_SetupSystemPLL(uint8_t msel, uint8_t psel)
  55:../../lpc11cx4-library/lpc_chip_11cxx_lib/inc/clock_11xx.h **** {
  56:../../lpc11cx4-library/lpc_chip_11cxx_lib/inc/clock_11xx.h **** 	LPC_SYSCTL->SYSPLLCTRL = (msel & 0x1F) | ((psel & 0x3) << 5);
  57:../../lpc11cx4-library/lpc_chip_11cxx_lib/inc/clock_11xx.h **** }
  58:../../lpc11cx4-library/lpc_chip_11cxx_lib/inc/clock_11xx.h **** 
  59:../../lpc11cx4-library/lpc_chip_11cxx_lib/inc/clock_11xx.h **** /**
  60:../../lpc11cx4-library/lpc_chip_11cxx_lib/inc/clock_11xx.h ****  * @brief	Read System PLL lock status
  61:../../lpc11cx4-library/lpc_chip_11cxx_lib/inc/clock_11xx.h ****  * @return	true of the PLL is locked. false if not locked
  62:../../lpc11cx4-library/lpc_chip_11cxx_lib/inc/clock_11xx.h ****  */
  63:../../lpc11cx4-library/lpc_chip_11cxx_lib/inc/clock_11xx.h **** STATIC INLINE bool Chip_Clock_IsSystemPLLLocked(void)
  64:../../lpc11cx4-library/lpc_chip_11cxx_lib/inc/clock_11xx.h **** {
  65:../../lpc11cx4-library/lpc_chip_11cxx_lib/inc/clock_11xx.h **** 	return (bool) ((LPC_SYSCTL->SYSPLLSTAT & 1) != 0);
  66:../../lpc11cx4-library/lpc_chip_11cxx_lib/inc/clock_11xx.h **** }
  67:../../lpc11cx4-library/lpc_chip_11cxx_lib/inc/clock_11xx.h **** 
  68:../../lpc11cx4-library/lpc_chip_11cxx_lib/inc/clock_11xx.h **** /**
  69:../../lpc11cx4-library/lpc_chip_11cxx_lib/inc/clock_11xx.h ****  * Clock sources for system and USB PLLs
  70:../../lpc11cx4-library/lpc_chip_11cxx_lib/inc/clock_11xx.h ****  */
  71:../../lpc11cx4-library/lpc_chip_11cxx_lib/inc/clock_11xx.h **** typedef enum CHIP_SYSCTL_PLLCLKSRC {
  72:../../lpc11cx4-library/lpc_chip_11cxx_lib/inc/clock_11xx.h **** 	SYSCTL_PLLCLKSRC_IRC = 0,		/*!< Internal oscillator in */
  73:../../lpc11cx4-library/lpc_chip_11cxx_lib/inc/clock_11xx.h **** 	SYSCTL_PLLCLKSRC_MAINOSC,		/*!< Crystal (main) oscillator in */
  74:../../lpc11cx4-library/lpc_chip_11cxx_lib/inc/clock_11xx.h **** #if defined(CHIP_LPC11AXX)
  75:../../lpc11cx4-library/lpc_chip_11cxx_lib/inc/clock_11xx.h **** 	SYSCTL_PLLCLKSRC_EXT_CLKIN,	/*!< External clock in (11Axx only) */
  76:../../lpc11cx4-library/lpc_chip_11cxx_lib/inc/clock_11xx.h **** #else
  77:../../lpc11cx4-library/lpc_chip_11cxx_lib/inc/clock_11xx.h **** 	SYSCTL_PLLCLKSRC_RESERVED1,	/*!< Reserved */
  78:../../lpc11cx4-library/lpc_chip_11cxx_lib/inc/clock_11xx.h **** #endif
  79:../../lpc11cx4-library/lpc_chip_11cxx_lib/inc/clock_11xx.h **** 	SYSCTL_PLLCLKSRC_RESERVED2,	/*!< Reserved */
  80:../../lpc11cx4-library/lpc_chip_11cxx_lib/inc/clock_11xx.h **** } CHIP_SYSCTL_PLLCLKSRC_T;
  81:../../lpc11cx4-library/lpc_chip_11cxx_lib/inc/clock_11xx.h **** 
  82:../../lpc11cx4-library/lpc_chip_11cxx_lib/inc/clock_11xx.h **** /**
  83:../../lpc11cx4-library/lpc_chip_11cxx_lib/inc/clock_11xx.h ****  * @brief	Set System PLL clock source
  84:../../lpc11cx4-library/lpc_chip_11cxx_lib/inc/clock_11xx.h ****  * @param	src	: Clock source for system PLL
  85:../../lpc11cx4-library/lpc_chip_11cxx_lib/inc/clock_11xx.h ****  * @return	Nothing
  86:../../lpc11cx4-library/lpc_chip_11cxx_lib/inc/clock_11xx.h ****  * @note	This function will also toggle the clock source update register
  87:../../lpc11cx4-library/lpc_chip_11cxx_lib/inc/clock_11xx.h ****  * to update the clock source.
  88:../../lpc11cx4-library/lpc_chip_11cxx_lib/inc/clock_11xx.h ****  */
  89:../../lpc11cx4-library/lpc_chip_11cxx_lib/inc/clock_11xx.h **** void Chip_Clock_SetSystemPLLSource(CHIP_SYSCTL_PLLCLKSRC_T src);
  90:../../lpc11cx4-library/lpc_chip_11cxx_lib/inc/clock_11xx.h **** 
  91:../../lpc11cx4-library/lpc_chip_11cxx_lib/inc/clock_11xx.h **** #if defined(CHIP_LPC11UXX)
  92:../../lpc11cx4-library/lpc_chip_11cxx_lib/inc/clock_11xx.h **** /**
  93:../../lpc11cx4-library/lpc_chip_11cxx_lib/inc/clock_11xx.h ****  * @brief	Set USB PLL divider values
  94:../../lpc11cx4-library/lpc_chip_11cxx_lib/inc/clock_11xx.h ****  * @param	msel    : PLL feedback divider value. M = msel + 1.
  95:../../lpc11cx4-library/lpc_chip_11cxx_lib/inc/clock_11xx.h ****  * @param	psel    : PLL post divider value. P = (1<<psel).
  96:../../lpc11cx4-library/lpc_chip_11cxx_lib/inc/clock_11xx.h ****  * @return	Nothing
  97:../../lpc11cx4-library/lpc_chip_11cxx_lib/inc/clock_11xx.h ****  * @note	See the user manual for how to setup the PLL.
  98:../../lpc11cx4-library/lpc_chip_11cxx_lib/inc/clock_11xx.h ****  */
  99:../../lpc11cx4-library/lpc_chip_11cxx_lib/inc/clock_11xx.h **** STATIC INLINE void Chip_Clock_SetupUSBPLL(uint8_t msel, uint8_t psel)
 100:../../lpc11cx4-library/lpc_chip_11cxx_lib/inc/clock_11xx.h **** {
 101:../../lpc11cx4-library/lpc_chip_11cxx_lib/inc/clock_11xx.h **** 	LPC_SYSCTL->USBPLLCTRL = (msel & 0x1F) | ((psel & 0x3) << 5);
 102:../../lpc11cx4-library/lpc_chip_11cxx_lib/inc/clock_11xx.h **** }
 103:../../lpc11cx4-library/lpc_chip_11cxx_lib/inc/clock_11xx.h **** 
 104:../../lpc11cx4-library/lpc_chip_11cxx_lib/inc/clock_11xx.h **** /**
 105:../../lpc11cx4-library/lpc_chip_11cxx_lib/inc/clock_11xx.h ****  * @brief	Read USB PLL lock status
 106:../../lpc11cx4-library/lpc_chip_11cxx_lib/inc/clock_11xx.h ****  * @return	true of the PLL is locked. false if not locked
 107:../../lpc11cx4-library/lpc_chip_11cxx_lib/inc/clock_11xx.h ****  */
 108:../../lpc11cx4-library/lpc_chip_11cxx_lib/inc/clock_11xx.h **** STATIC INLINE bool Chip_Clock_IsUSBPLLLocked(void)
ARM GAS  /tmp/ccAFBUIw.s 			page 23


 109:../../lpc11cx4-library/lpc_chip_11cxx_lib/inc/clock_11xx.h **** {
 110:../../lpc11cx4-library/lpc_chip_11cxx_lib/inc/clock_11xx.h **** 	return (bool) ((LPC_SYSCTL->USBPLLSTAT & 1) != 0);
 111:../../lpc11cx4-library/lpc_chip_11cxx_lib/inc/clock_11xx.h **** }
 112:../../lpc11cx4-library/lpc_chip_11cxx_lib/inc/clock_11xx.h **** 
 113:../../lpc11cx4-library/lpc_chip_11cxx_lib/inc/clock_11xx.h **** /**
 114:../../lpc11cx4-library/lpc_chip_11cxx_lib/inc/clock_11xx.h ****  * @brief	Set USB PLL clock source
 115:../../lpc11cx4-library/lpc_chip_11cxx_lib/inc/clock_11xx.h ****  * @param	src	: Clock source for USB PLL
 116:../../lpc11cx4-library/lpc_chip_11cxx_lib/inc/clock_11xx.h ****  * @return	Nothing
 117:../../lpc11cx4-library/lpc_chip_11cxx_lib/inc/clock_11xx.h ****  * @note	This function will also toggle the clock source update register
 118:../../lpc11cx4-library/lpc_chip_11cxx_lib/inc/clock_11xx.h ****  * to update the clock source.
 119:../../lpc11cx4-library/lpc_chip_11cxx_lib/inc/clock_11xx.h ****  */
 120:../../lpc11cx4-library/lpc_chip_11cxx_lib/inc/clock_11xx.h **** void Chip_Clock_SetUSBPLLSource(CHIP_SYSCTL_PLLCLKSRC_T src);
 121:../../lpc11cx4-library/lpc_chip_11cxx_lib/inc/clock_11xx.h **** 
 122:../../lpc11cx4-library/lpc_chip_11cxx_lib/inc/clock_11xx.h **** #endif /*defined(CHIP_LPC11UXX)*/
 123:../../lpc11cx4-library/lpc_chip_11cxx_lib/inc/clock_11xx.h **** 
 124:../../lpc11cx4-library/lpc_chip_11cxx_lib/inc/clock_11xx.h **** /**
 125:../../lpc11cx4-library/lpc_chip_11cxx_lib/inc/clock_11xx.h ****  * @brief	Bypass System Oscillator and set oscillator frequency range
 126:../../lpc11cx4-library/lpc_chip_11cxx_lib/inc/clock_11xx.h ****  * @param	bypass	: Flag to bypass oscillator
 127:../../lpc11cx4-library/lpc_chip_11cxx_lib/inc/clock_11xx.h ****  * @param	highfr	: Flag to set oscillator range from 15-25 MHz
 128:../../lpc11cx4-library/lpc_chip_11cxx_lib/inc/clock_11xx.h ****  * @return	Nothing
 129:../../lpc11cx4-library/lpc_chip_11cxx_lib/inc/clock_11xx.h ****  * @note	Sets the PLL input to bypass the oscillator. This would be
 130:../../lpc11cx4-library/lpc_chip_11cxx_lib/inc/clock_11xx.h ****  * used if an external clock that is not an oscillator is attached
 131:../../lpc11cx4-library/lpc_chip_11cxx_lib/inc/clock_11xx.h ****  * to the XTALIN pin.
 132:../../lpc11cx4-library/lpc_chip_11cxx_lib/inc/clock_11xx.h ****  */
 133:../../lpc11cx4-library/lpc_chip_11cxx_lib/inc/clock_11xx.h **** void Chip_Clock_SetPLLBypass(bool bypass, bool highfr);
 134:../../lpc11cx4-library/lpc_chip_11cxx_lib/inc/clock_11xx.h **** 
 135:../../lpc11cx4-library/lpc_chip_11cxx_lib/inc/clock_11xx.h **** /**
 136:../../lpc11cx4-library/lpc_chip_11cxx_lib/inc/clock_11xx.h ****  * Watchdog and low frequency oscillator frequencies plus or minus 40%
 137:../../lpc11cx4-library/lpc_chip_11cxx_lib/inc/clock_11xx.h ****  */
 138:../../lpc11cx4-library/lpc_chip_11cxx_lib/inc/clock_11xx.h **** typedef enum CHIP_WDTLFO_OSC {
 139:../../lpc11cx4-library/lpc_chip_11cxx_lib/inc/clock_11xx.h **** 	WDTLFO_OSC_ILLEGAL,
 140:../../lpc11cx4-library/lpc_chip_11cxx_lib/inc/clock_11xx.h **** 	WDTLFO_OSC_0_60,	/*!< 0.6 MHz watchdog/LFO rate */
 141:../../lpc11cx4-library/lpc_chip_11cxx_lib/inc/clock_11xx.h **** 	WDTLFO_OSC_1_05,	/*!< 1.05 MHz watchdog/LFO rate */
 142:../../lpc11cx4-library/lpc_chip_11cxx_lib/inc/clock_11xx.h **** 	WDTLFO_OSC_1_40,	/*!< 1.4 MHz watchdog/LFO rate */
 143:../../lpc11cx4-library/lpc_chip_11cxx_lib/inc/clock_11xx.h **** 	WDTLFO_OSC_1_75,	/*!< 1.75 MHz watchdog/LFO rate */
 144:../../lpc11cx4-library/lpc_chip_11cxx_lib/inc/clock_11xx.h **** 	WDTLFO_OSC_2_10,	/*!< 2.1 MHz watchdog/LFO rate */
 145:../../lpc11cx4-library/lpc_chip_11cxx_lib/inc/clock_11xx.h **** 	WDTLFO_OSC_2_40,	/*!< 2.4 MHz watchdog/LFO rate */
 146:../../lpc11cx4-library/lpc_chip_11cxx_lib/inc/clock_11xx.h **** 	WDTLFO_OSC_2_70,	/*!< 2.7 MHz watchdog/LFO rate */
 147:../../lpc11cx4-library/lpc_chip_11cxx_lib/inc/clock_11xx.h **** 	WDTLFO_OSC_3_00,	/*!< 3.0 MHz watchdog/LFO rate */
 148:../../lpc11cx4-library/lpc_chip_11cxx_lib/inc/clock_11xx.h **** 	WDTLFO_OSC_3_25,	/*!< 3.25 MHz watchdog/LFO rate */
 149:../../lpc11cx4-library/lpc_chip_11cxx_lib/inc/clock_11xx.h **** 	WDTLFO_OSC_3_50,	/*!< 3.5 MHz watchdog/LFO rate */
 150:../../lpc11cx4-library/lpc_chip_11cxx_lib/inc/clock_11xx.h **** 	WDTLFO_OSC_3_75,	/*!< 3.75 MHz watchdog/LFO rate */
 151:../../lpc11cx4-library/lpc_chip_11cxx_lib/inc/clock_11xx.h **** 	WDTLFO_OSC_4_00,	/*!< 4.0 MHz watchdog/LFO rate */
 152:../../lpc11cx4-library/lpc_chip_11cxx_lib/inc/clock_11xx.h **** 	WDTLFO_OSC_4_20,	/*!< 4.2 MHz watchdog/LFO rate */
 153:../../lpc11cx4-library/lpc_chip_11cxx_lib/inc/clock_11xx.h **** 	WDTLFO_OSC_4_40,	/*!< 4.4 MHz watchdog/LFO rate */
 154:../../lpc11cx4-library/lpc_chip_11cxx_lib/inc/clock_11xx.h **** 	WDTLFO_OSC_4_60		/*!< 4.6 MHz watchdog/LFO rate */
 155:../../lpc11cx4-library/lpc_chip_11cxx_lib/inc/clock_11xx.h **** } CHIP_WDTLFO_OSC_T;
 156:../../lpc11cx4-library/lpc_chip_11cxx_lib/inc/clock_11xx.h **** 
 157:../../lpc11cx4-library/lpc_chip_11cxx_lib/inc/clock_11xx.h **** /**
 158:../../lpc11cx4-library/lpc_chip_11cxx_lib/inc/clock_11xx.h ****  * @brief	Setup Watchdog oscillator rate and divider
 159:../../lpc11cx4-library/lpc_chip_11cxx_lib/inc/clock_11xx.h ****  * @param	wdtclk	: Selected watchdog clock rate
 160:../../lpc11cx4-library/lpc_chip_11cxx_lib/inc/clock_11xx.h ****  * @param	div		: Watchdog divider value, even value between 2 and 64
 161:../../lpc11cx4-library/lpc_chip_11cxx_lib/inc/clock_11xx.h ****  * @return	Nothing
 162:../../lpc11cx4-library/lpc_chip_11cxx_lib/inc/clock_11xx.h ****  * @note	Watchdog rate = selected rate divided by divider rate
 163:../../lpc11cx4-library/lpc_chip_11cxx_lib/inc/clock_11xx.h ****  */
 164:../../lpc11cx4-library/lpc_chip_11cxx_lib/inc/clock_11xx.h **** STATIC INLINE void Chip_Clock_SetWDTOSC(CHIP_WDTLFO_OSC_T wdtclk, uint8_t div)
 165:../../lpc11cx4-library/lpc_chip_11cxx_lib/inc/clock_11xx.h **** {
ARM GAS  /tmp/ccAFBUIw.s 			page 24


 166:../../lpc11cx4-library/lpc_chip_11cxx_lib/inc/clock_11xx.h **** 	LPC_SYSCTL->WDTOSCCTRL  = (((uint32_t) wdtclk) << 5) | ((div >> 1) - 1);
 167:../../lpc11cx4-library/lpc_chip_11cxx_lib/inc/clock_11xx.h **** }
 168:../../lpc11cx4-library/lpc_chip_11cxx_lib/inc/clock_11xx.h **** 
 169:../../lpc11cx4-library/lpc_chip_11cxx_lib/inc/clock_11xx.h **** #if defined(CHIP_LPC11AXX)
 170:../../lpc11cx4-library/lpc_chip_11cxx_lib/inc/clock_11xx.h **** /**
 171:../../lpc11cx4-library/lpc_chip_11cxx_lib/inc/clock_11xx.h ****  * @brief	Setup low frequency oscillator rate and divider
 172:../../lpc11cx4-library/lpc_chip_11cxx_lib/inc/clock_11xx.h ****  * @param	lfoclk	: Selected low frequency clock rate
 173:../../lpc11cx4-library/lpc_chip_11cxx_lib/inc/clock_11xx.h ****  * @param	div		: Low frequency divider value, even value between 2 and 64
 174:../../lpc11cx4-library/lpc_chip_11cxx_lib/inc/clock_11xx.h ****  * @return	Nothing
 175:../../lpc11cx4-library/lpc_chip_11cxx_lib/inc/clock_11xx.h ****  * @note	Low frequency oscillator rate = selected rate divided by divider rate
 176:../../lpc11cx4-library/lpc_chip_11cxx_lib/inc/clock_11xx.h ****  */
 177:../../lpc11cx4-library/lpc_chip_11cxx_lib/inc/clock_11xx.h **** STATIC INLINE void Chip_Clock_SetLFOSC(CHIP_WDTLFO_OSC_T lfoclk, uint8_t div)
 178:../../lpc11cx4-library/lpc_chip_11cxx_lib/inc/clock_11xx.h **** {
 179:../../lpc11cx4-library/lpc_chip_11cxx_lib/inc/clock_11xx.h **** 	LPC_SYSCTL->LFOSCCTRL  = (((uint32_t) lfoclk) << 5) | ((div >> 1) - 1);
 180:../../lpc11cx4-library/lpc_chip_11cxx_lib/inc/clock_11xx.h **** }
 181:../../lpc11cx4-library/lpc_chip_11cxx_lib/inc/clock_11xx.h **** 
 182:../../lpc11cx4-library/lpc_chip_11cxx_lib/inc/clock_11xx.h **** #endif /*CHIP_LPC11AXX*/
 183:../../lpc11cx4-library/lpc_chip_11cxx_lib/inc/clock_11xx.h **** 
 184:../../lpc11cx4-library/lpc_chip_11cxx_lib/inc/clock_11xx.h **** /**
 185:../../lpc11cx4-library/lpc_chip_11cxx_lib/inc/clock_11xx.h ****  * Clock sources for main system clock
 186:../../lpc11cx4-library/lpc_chip_11cxx_lib/inc/clock_11xx.h ****  */
 187:../../lpc11cx4-library/lpc_chip_11cxx_lib/inc/clock_11xx.h **** typedef enum CHIP_SYSCTL_MAINCLKSRC {
 188:../../lpc11cx4-library/lpc_chip_11cxx_lib/inc/clock_11xx.h **** 	SYSCTL_MAINCLKSRC_IRC = 0,		/*!< Internal oscillator */
 189:../../lpc11cx4-library/lpc_chip_11cxx_lib/inc/clock_11xx.h **** 	SYSCTL_MAINCLKSRC_PLLIN,		/*!< System PLL input */
 190:../../lpc11cx4-library/lpc_chip_11cxx_lib/inc/clock_11xx.h **** 	SYSCTL_MAINCLKSRC_LFOSC,		/*!< LF oscillator rate (11Axx only) */
 191:../../lpc11cx4-library/lpc_chip_11cxx_lib/inc/clock_11xx.h **** 	SYSCTL_MAINCLKSRC_WDTOSC = SYSCTL_MAINCLKSRC_LFOSC,	/*!< Watchdog oscillator rate */
 192:../../lpc11cx4-library/lpc_chip_11cxx_lib/inc/clock_11xx.h **** 	SYSCTL_MAINCLKSRC_PLLOUT,		/*!< System PLL output */
 193:../../lpc11cx4-library/lpc_chip_11cxx_lib/inc/clock_11xx.h **** } CHIP_SYSCTL_MAINCLKSRC_T;
 194:../../lpc11cx4-library/lpc_chip_11cxx_lib/inc/clock_11xx.h **** 
 195:../../lpc11cx4-library/lpc_chip_11cxx_lib/inc/clock_11xx.h **** /**
 196:../../lpc11cx4-library/lpc_chip_11cxx_lib/inc/clock_11xx.h ****  * @brief	Set main system clock source
 197:../../lpc11cx4-library/lpc_chip_11cxx_lib/inc/clock_11xx.h ****  * @param	src	: Clock source for main system
 198:../../lpc11cx4-library/lpc_chip_11cxx_lib/inc/clock_11xx.h ****  * @return	Nothing
 199:../../lpc11cx4-library/lpc_chip_11cxx_lib/inc/clock_11xx.h ****  * @note	This function will also toggle the clock source update register
 200:../../lpc11cx4-library/lpc_chip_11cxx_lib/inc/clock_11xx.h ****  * to update the clock source.
 201:../../lpc11cx4-library/lpc_chip_11cxx_lib/inc/clock_11xx.h ****  */
 202:../../lpc11cx4-library/lpc_chip_11cxx_lib/inc/clock_11xx.h **** void Chip_Clock_SetMainClockSource(CHIP_SYSCTL_MAINCLKSRC_T src);
 203:../../lpc11cx4-library/lpc_chip_11cxx_lib/inc/clock_11xx.h **** 
 204:../../lpc11cx4-library/lpc_chip_11cxx_lib/inc/clock_11xx.h **** /**
 205:../../lpc11cx4-library/lpc_chip_11cxx_lib/inc/clock_11xx.h ****  * @brief   Returns the main clock source
 206:../../lpc11cx4-library/lpc_chip_11cxx_lib/inc/clock_11xx.h ****  * @return	Which clock is used for the core clock source?
 207:../../lpc11cx4-library/lpc_chip_11cxx_lib/inc/clock_11xx.h ****  */
 208:../../lpc11cx4-library/lpc_chip_11cxx_lib/inc/clock_11xx.h **** STATIC INLINE CHIP_SYSCTL_MAINCLKSRC_T Chip_Clock_GetMainClockSource(void)
 209:../../lpc11cx4-library/lpc_chip_11cxx_lib/inc/clock_11xx.h **** {
 210:../../lpc11cx4-library/lpc_chip_11cxx_lib/inc/clock_11xx.h **** 	return (CHIP_SYSCTL_MAINCLKSRC_T) (LPC_SYSCTL->MAINCLKSEL);
 211:../../lpc11cx4-library/lpc_chip_11cxx_lib/inc/clock_11xx.h **** }
 212:../../lpc11cx4-library/lpc_chip_11cxx_lib/inc/clock_11xx.h **** 
 213:../../lpc11cx4-library/lpc_chip_11cxx_lib/inc/clock_11xx.h **** /**
 214:../../lpc11cx4-library/lpc_chip_11cxx_lib/inc/clock_11xx.h ****  * @brief	Set system clock divider
 215:../../lpc11cx4-library/lpc_chip_11cxx_lib/inc/clock_11xx.h ****  * @param	div	: divider for system clock
 216:../../lpc11cx4-library/lpc_chip_11cxx_lib/inc/clock_11xx.h ****  * @return	Nothing
 217:../../lpc11cx4-library/lpc_chip_11cxx_lib/inc/clock_11xx.h ****  * @note	Use 0 to disable, or a divider value of 1 to 255. The system clock
 218:../../lpc11cx4-library/lpc_chip_11cxx_lib/inc/clock_11xx.h ****  * rate is the main system clock divided by this value.
 219:../../lpc11cx4-library/lpc_chip_11cxx_lib/inc/clock_11xx.h ****  */
 220:../../lpc11cx4-library/lpc_chip_11cxx_lib/inc/clock_11xx.h **** STATIC INLINE void Chip_Clock_SetSysClockDiv(uint32_t div)
 221:../../lpc11cx4-library/lpc_chip_11cxx_lib/inc/clock_11xx.h **** {
 222:../../lpc11cx4-library/lpc_chip_11cxx_lib/inc/clock_11xx.h **** 	LPC_SYSCTL->SYSAHBCLKDIV  = div;
ARM GAS  /tmp/ccAFBUIw.s 			page 25


 223:../../lpc11cx4-library/lpc_chip_11cxx_lib/inc/clock_11xx.h **** }
 224:../../lpc11cx4-library/lpc_chip_11cxx_lib/inc/clock_11xx.h **** 
 225:../../lpc11cx4-library/lpc_chip_11cxx_lib/inc/clock_11xx.h **** /**
 226:../../lpc11cx4-library/lpc_chip_11cxx_lib/inc/clock_11xx.h ****  * System and peripheral clocks
 227:../../lpc11cx4-library/lpc_chip_11cxx_lib/inc/clock_11xx.h ****  */
 228:../../lpc11cx4-library/lpc_chip_11cxx_lib/inc/clock_11xx.h **** typedef enum CHIP_SYSCTL_CLOCK {
 229:../../lpc11cx4-library/lpc_chip_11cxx_lib/inc/clock_11xx.h **** 	SYSCTL_CLOCK_SYS = 0,				/*!< 0: System clock */
 230:../../lpc11cx4-library/lpc_chip_11cxx_lib/inc/clock_11xx.h **** 	SYSCTL_CLOCK_ROM,					/*!<1:  ROM clock */
 231:../../lpc11cx4-library/lpc_chip_11cxx_lib/inc/clock_11xx.h **** 	SYSCTL_CLOCK_RAM,					/*!< 2: RAM clock */
 232:../../lpc11cx4-library/lpc_chip_11cxx_lib/inc/clock_11xx.h **** 	SYSCTL_CLOCK_FLASHREG,				/*!< 3: FLASH register interface clock */
 233:../../lpc11cx4-library/lpc_chip_11cxx_lib/inc/clock_11xx.h **** 	SYSCTL_CLOCK_FLASHARRAY,			/*!< 4: FLASH array access clock */
 234:../../lpc11cx4-library/lpc_chip_11cxx_lib/inc/clock_11xx.h **** #if defined(CHIP_LPC110X)
 235:../../lpc11cx4-library/lpc_chip_11cxx_lib/inc/clock_11xx.h **** 	SYSCTL_CLOCK_RESERVED5,				/*!< 5: Reserved */
 236:../../lpc11cx4-library/lpc_chip_11cxx_lib/inc/clock_11xx.h **** #else
 237:../../lpc11cx4-library/lpc_chip_11cxx_lib/inc/clock_11xx.h **** 	SYSCTL_CLOCK_I2C,					/*!< 5: I2C clock, not on LPC110x */
 238:../../lpc11cx4-library/lpc_chip_11cxx_lib/inc/clock_11xx.h **** #endif
 239:../../lpc11cx4-library/lpc_chip_11cxx_lib/inc/clock_11xx.h **** 	SYSCTL_CLOCK_GPIO,					/*!< 6: GPIO clock */
 240:../../lpc11cx4-library/lpc_chip_11cxx_lib/inc/clock_11xx.h **** 	SYSCTL_CLOCK_CT16B0,				/*!< 7: 16-bit Counter/timer 0 clock */
 241:../../lpc11cx4-library/lpc_chip_11cxx_lib/inc/clock_11xx.h **** 	SYSCTL_CLOCK_CT16B1,				/*!< 8: 16-bit Counter/timer 1 clock */
 242:../../lpc11cx4-library/lpc_chip_11cxx_lib/inc/clock_11xx.h **** 	SYSCTL_CLOCK_CT32B0,				/*!< 9: 32-bit Counter/timer 0 clock */
 243:../../lpc11cx4-library/lpc_chip_11cxx_lib/inc/clock_11xx.h **** 	SYSCTL_CLOCK_CT32B1,				/*!< 10: 32-bit Counter/timer 1 clock */
 244:../../lpc11cx4-library/lpc_chip_11cxx_lib/inc/clock_11xx.h **** 	SYSCTL_CLOCK_SSP0,					/*!< 11: SSP0 clock */
 245:../../lpc11cx4-library/lpc_chip_11cxx_lib/inc/clock_11xx.h **** 	SYSCTL_CLOCK_UART0,					/*!< 12: UART0 clock */
 246:../../lpc11cx4-library/lpc_chip_11cxx_lib/inc/clock_11xx.h **** 	SYSCTL_CLOCK_ADC,					/*!< 13: ADC clock */
 247:../../lpc11cx4-library/lpc_chip_11cxx_lib/inc/clock_11xx.h **** #if defined(CHIP_LPC11UXX)
 248:../../lpc11cx4-library/lpc_chip_11cxx_lib/inc/clock_11xx.h **** 	SYSCTL_CLOCK_USB,					/*!< 14: USB clock, LPC11Uxx only */
 249:../../lpc11cx4-library/lpc_chip_11cxx_lib/inc/clock_11xx.h **** #else
 250:../../lpc11cx4-library/lpc_chip_11cxx_lib/inc/clock_11xx.h **** 	SYSCTL_CLOCK_RESERVED14,			/*!< 14: Reserved */
 251:../../lpc11cx4-library/lpc_chip_11cxx_lib/inc/clock_11xx.h **** #endif
 252:../../lpc11cx4-library/lpc_chip_11cxx_lib/inc/clock_11xx.h **** 	SYSCTL_CLOCK_WDT,					/*!< 15: Watchdog timer clock */
 253:../../lpc11cx4-library/lpc_chip_11cxx_lib/inc/clock_11xx.h **** 	SYSCTL_CLOCK_IOCON,					/*!< 16: IOCON block clock */
 254:../../lpc11cx4-library/lpc_chip_11cxx_lib/inc/clock_11xx.h **** #if defined(CHIP_LPC11CXX)
 255:../../lpc11cx4-library/lpc_chip_11cxx_lib/inc/clock_11xx.h **** 	SYSCTL_CLOCK_CAN,					/*!< 17: CAN clock, LPC11Cxx only */
 256:../../lpc11cx4-library/lpc_chip_11cxx_lib/inc/clock_11xx.h **** #else
 257:../../lpc11cx4-library/lpc_chip_11cxx_lib/inc/clock_11xx.h **** 	SYSCTL_CLOCK_RESERVED17,			/*!< 17: Reserved */
 258:../../lpc11cx4-library/lpc_chip_11cxx_lib/inc/clock_11xx.h **** #endif
 259:../../lpc11cx4-library/lpc_chip_11cxx_lib/inc/clock_11xx.h **** #if !(defined(CHIP_LPC110X) || defined(CHIP_LPC11XXLV))  
 260:../../lpc11cx4-library/lpc_chip_11cxx_lib/inc/clock_11xx.h **** 	SYSCTL_CLOCK_SSP1,					/*!< 18: SSP1 clock, LPC11A/C/E/Uxx//1125 only */
 261:../../lpc11cx4-library/lpc_chip_11cxx_lib/inc/clock_11xx.h **** #if !defined(CHIP_LPC11CXX)
 262:../../lpc11cx4-library/lpc_chip_11cxx_lib/inc/clock_11xx.h **** 	SYSCTL_CLOCK_PINT,					/*!< 19: GPIO Pin int register interface clock, LPC11A/E/Uxx only */
 263:../../lpc11cx4-library/lpc_chip_11cxx_lib/inc/clock_11xx.h **** #if defined(CHIP_LPC11AXX)
 264:../../lpc11cx4-library/lpc_chip_11cxx_lib/inc/clock_11xx.h **** 	SYSCTL_CLOCK_ACOMP,					/*!< 20: Analog comparator clock, LPC11Axx only */
 265:../../lpc11cx4-library/lpc_chip_11cxx_lib/inc/clock_11xx.h **** 	SYSCTL_CLOCK_DAC,					/*!< 21: DAC clock, LPC11Axx only */
 266:../../lpc11cx4-library/lpc_chip_11cxx_lib/inc/clock_11xx.h **** #else
 267:../../lpc11cx4-library/lpc_chip_11cxx_lib/inc/clock_11xx.h **** 	SYSCTL_CLOCK_RESERVED20,			/*!< 20: Reserved */
 268:../../lpc11cx4-library/lpc_chip_11cxx_lib/inc/clock_11xx.h **** 	SYSCTL_CLOCK_RESERVED21,			/*!< 21: Reserved */
 269:../../lpc11cx4-library/lpc_chip_11cxx_lib/inc/clock_11xx.h **** #endif
 270:../../lpc11cx4-library/lpc_chip_11cxx_lib/inc/clock_11xx.h **** 	SYSCTL_CLOCK_RESERVED22,			/*!< 22: Reserved */
 271:../../lpc11cx4-library/lpc_chip_11cxx_lib/inc/clock_11xx.h **** 	SYSCTL_CLOCK_P0INT,					/*!< 23: GPIO GROUP1 interrupt register clock, LPC11Axx only */
 272:../../lpc11cx4-library/lpc_chip_11cxx_lib/inc/clock_11xx.h **** 	SYSCTL_CLOCK_GROUP0INT = SYSCTL_CLOCK_P0INT,/*!< 23: GPIO GROUP0 interrupt register interface cloc
 273:../../lpc11cx4-library/lpc_chip_11cxx_lib/inc/clock_11xx.h **** 	SYSCTL_CLOCK_P1INT,					/*!< 24: GPIO GROUP1 interrupt register clock, LPC11Axx only */
 274:../../lpc11cx4-library/lpc_chip_11cxx_lib/inc/clock_11xx.h **** 	SYSCTL_CLOCK_GROUP1INT = SYSCTL_CLOCK_P1INT,/*!< 24: GPIO GROUP1 interrupt register interface cloc
 275:../../lpc11cx4-library/lpc_chip_11cxx_lib/inc/clock_11xx.h **** 	SYSCTL_CLOCK_RESERVED25,			/*!< 25: Reserved */
 276:../../lpc11cx4-library/lpc_chip_11cxx_lib/inc/clock_11xx.h **** #if defined(CHIP_LPC11EXX)  || defined(CHIP_LPC11UXX)
 277:../../lpc11cx4-library/lpc_chip_11cxx_lib/inc/clock_11xx.h **** 	SYSCTL_CLOCK_RAM1,					/*!< 26: SRAM block (0x20000000) clock, LPC11E/Uxx only */
 278:../../lpc11cx4-library/lpc_chip_11cxx_lib/inc/clock_11xx.h **** #else
 279:../../lpc11cx4-library/lpc_chip_11cxx_lib/inc/clock_11xx.h **** 	SYSCTL_CLOCK_RESERVED26,			/*!< 26: Reserved */
ARM GAS  /tmp/ccAFBUIw.s 			page 26


 280:../../lpc11cx4-library/lpc_chip_11cxx_lib/inc/clock_11xx.h **** #endif
 281:../../lpc11cx4-library/lpc_chip_11cxx_lib/inc/clock_11xx.h **** #if defined(CHIP_LPC11UXX)
 282:../../lpc11cx4-library/lpc_chip_11cxx_lib/inc/clock_11xx.h **** 	SYSCTL_CLOCK_USBRAM,				/*!< 27: USB SRAM block clock, LPC11Uxx only */
 283:../../lpc11cx4-library/lpc_chip_11cxx_lib/inc/clock_11xx.h **** #else
 284:../../lpc11cx4-library/lpc_chip_11cxx_lib/inc/clock_11xx.h **** 	SYSCTL_CLOCK_RESERVED27,			/*!< 27: Reserved */
 285:../../lpc11cx4-library/lpc_chip_11cxx_lib/inc/clock_11xx.h **** #endif
 286:../../lpc11cx4-library/lpc_chip_11cxx_lib/inc/clock_11xx.h **** #endif /* !defined(CHIP_LPC11CXX) */
 287:../../lpc11cx4-library/lpc_chip_11cxx_lib/inc/clock_11xx.h **** #endif /* !(defined(CHIP_LPC110X) || defined(CHIP_LPC11XXLV)) */
 288:../../lpc11cx4-library/lpc_chip_11cxx_lib/inc/clock_11xx.h **** } CHIP_SYSCTL_CLOCK_T;
 289:../../lpc11cx4-library/lpc_chip_11cxx_lib/inc/clock_11xx.h **** 
 290:../../lpc11cx4-library/lpc_chip_11cxx_lib/inc/clock_11xx.h **** /**
 291:../../lpc11cx4-library/lpc_chip_11cxx_lib/inc/clock_11xx.h ****  * @brief	Enable a system or peripheral clock
 292:../../lpc11cx4-library/lpc_chip_11cxx_lib/inc/clock_11xx.h ****  * @param	clk	: Clock to enable
 293:../../lpc11cx4-library/lpc_chip_11cxx_lib/inc/clock_11xx.h ****  * @return	Nothing
 294:../../lpc11cx4-library/lpc_chip_11cxx_lib/inc/clock_11xx.h ****  */
 295:../../lpc11cx4-library/lpc_chip_11cxx_lib/inc/clock_11xx.h **** STATIC INLINE void Chip_Clock_EnablePeriphClock(CHIP_SYSCTL_CLOCK_T clk)
 296:../../lpc11cx4-library/lpc_chip_11cxx_lib/inc/clock_11xx.h **** {
 297:../../lpc11cx4-library/lpc_chip_11cxx_lib/inc/clock_11xx.h **** 	LPC_SYSCTL->SYSAHBCLKCTRL |= (1 << clk);
 680              		.loc 2 297 0
 681 0008 064C     		ldr	r4, .L147+4	@ tmp120,
 682              	.LBE85:
 683              	.LBE84:
  79:../../lpc11cx4-library/lpc_chip_11cxx_lib/src/i2c_11xx.c **** }
 684              		.loc 1 79 0
 685 000a 0B18     		add	r3, r1, r0	@ tmp124, tmp121, tmp123
 686              	.LBB89:
 687              	.LBB86:
 688              		.loc 2 297 0
 689 000c 1D79     		ldrb	r5, [r3, #4]	@ D.6756,
 690 000e 0123     		mov	r3, #1	@ tmp127,
 691 0010 AB40     		lsl	r3, r3, r5	@ D.6756, tmp127, D.6756
 692 0012 E26F     		ldr	r2, [r4, #124]	@ D.6754, MEM[(struct LPC_SYSCTL_T *)1074036736B].SYSAHBCLKCTRL
 693              	.LBE86:
 694              	.LBE89:
 695              	.LBE92:
 696              	.LBE95:
 366:../../lpc11cx4-library/lpc_chip_11cxx_lib/src/i2c_11xx.c **** 	enableClk(id);
 367:../../lpc11cx4-library/lpc_chip_11cxx_lib/src/i2c_11xx.c **** 
 368:../../lpc11cx4-library/lpc_chip_11cxx_lib/src/i2c_11xx.c **** 	/* Set I2C operation to default */
 369:../../lpc11cx4-library/lpc_chip_11cxx_lib/src/i2c_11xx.c **** 	LPC_I2Cx(id)->CONCLR = (I2C_CON_AA | I2C_CON_SI | I2C_CON_STA | I2C_CON_I2EN);
 370:../../lpc11cx4-library/lpc_chip_11cxx_lib/src/i2c_11xx.c **** }
 697              		.loc 1 370 0
 698              		@ sp needed	@
 699              	.LBB96:
 700              	.LBB93:
 701              	.LBB90:
 702              	.LBB87:
 703              		.loc 2 297 0
 704 0014 1343     		orr	r3, r2	@ D.6754, D.6754
 705              	.LBE87:
 706              	.LBE90:
 707              	.LBE93:
 708              	.LBE96:
 369:../../lpc11cx4-library/lpc_chip_11cxx_lib/src/i2c_11xx.c **** }
 709              		.loc 1 369 0
 710 0016 6C22     		mov	r2, #108	@ tmp133,
 711              	.LBB97:
ARM GAS  /tmp/ccAFBUIw.s 			page 27


 712              	.LBB94:
 713              	.LBB91:
 714              	.LBB88:
 715              		.loc 2 297 0
 716 0018 E367     		str	r3, [r4, #124]	@ D.6754, MEM[(struct LPC_SYSCTL_T *)1074036736B].SYSAHBCLKCTRL
 717              	.LBE88:
 718              	.LBE91:
 719              	.LBE94:
 720              	.LBE97:
 369:../../lpc11cx4-library/lpc_chip_11cxx_lib/src/i2c_11xx.c **** }
 721              		.loc 1 369 0
 722 001a 4358     		ldr	r3, [r0, r1]	@ D.6755, i2c[_7].ip
 723 001c 9A61     		str	r2, [r3, #24]	@ tmp133, _5->CONCLR
 724              		.loc 1 370 0
 725 001e 30BD     		pop	{r4, r5, pc}
 726              	.L148:
 727              		.align	2
 728              	.L147:
 729 0020 00000000 		.word	.LANCHOR0
 730 0024 04800440 		.word	1074036740
 731              		.cfi_endproc
 732              	.LFE214:
 733              		.size	Chip_I2C_Init, .-Chip_I2C_Init
 734              		.section	.text.Chip_I2C_DeInit,"ax",%progbits
 735              		.align	1
 736              		.global	Chip_I2C_DeInit
 737              		.code	16
 738              		.thumb_func
 739              		.type	Chip_I2C_DeInit, %function
 740              	Chip_I2C_DeInit:
 741              	.LFB215:
 371:../../lpc11cx4-library/lpc_chip_11cxx_lib/src/i2c_11xx.c **** 
 372:../../lpc11cx4-library/lpc_chip_11cxx_lib/src/i2c_11xx.c **** /* De-initializes the I2C peripheral registers to their default reset values */
 373:../../lpc11cx4-library/lpc_chip_11cxx_lib/src/i2c_11xx.c **** void Chip_I2C_DeInit(I2C_ID_T id)
 374:../../lpc11cx4-library/lpc_chip_11cxx_lib/src/i2c_11xx.c **** {
 742              		.loc 1 374 0
 743              		.cfi_startproc
 744              	.LVL44:
 375:../../lpc11cx4-library/lpc_chip_11cxx_lib/src/i2c_11xx.c **** 	/* Disable I2C control */
 376:../../lpc11cx4-library/lpc_chip_11cxx_lib/src/i2c_11xx.c **** 	LPC_I2Cx(id)->CONCLR = I2C_CON_I2EN | I2C_CON_SI | I2C_CON_STO | I2C_CON_STA | I2C_CON_AA;
 745              		.loc 1 376 0
 746 0000 1C23     		mov	r3, #28	@ tmp121,
 747 0002 5843     		mul	r0, r3	@ tmp122, tmp121
 748              	.LVL45:
 749 0004 7C21     		mov	r1, #124	@ tmp123,
 750 0006 064A     		ldr	r2, .L150	@ tmp120,
 377:../../lpc11cx4-library/lpc_chip_11cxx_lib/src/i2c_11xx.c **** 
 378:../../lpc11cx4-library/lpc_chip_11cxx_lib/src/i2c_11xx.c **** 	disableClk(id);
 379:../../lpc11cx4-library/lpc_chip_11cxx_lib/src/i2c_11xx.c **** }
 751              		.loc 1 379 0
 752              		@ sp needed	@
 376:../../lpc11cx4-library/lpc_chip_11cxx_lib/src/i2c_11xx.c **** 
 753              		.loc 1 376 0
 754 0008 8358     		ldr	r3, [r0, r2]	@ D.6764, i2c[_2].ip
 755              	.LBB102:
 756              	.LBB103:
  84:../../lpc11cx4-library/lpc_chip_11cxx_lib/src/i2c_11xx.c **** }
ARM GAS  /tmp/ccAFBUIw.s 			page 28


 757              		.loc 1 84 0
 758 000a 1018     		add	r0, r2, r0	@ tmp129, tmp120, tmp122
 759              	.LBB104:
 760              	.LBB105:
 298:../../lpc11cx4-library/lpc_chip_11cxx_lib/inc/clock_11xx.h **** }
 299:../../lpc11cx4-library/lpc_chip_11cxx_lib/inc/clock_11xx.h **** 
 300:../../lpc11cx4-library/lpc_chip_11cxx_lib/inc/clock_11xx.h **** /**
 301:../../lpc11cx4-library/lpc_chip_11cxx_lib/inc/clock_11xx.h ****  * @brief	Disable a system or peripheral clock
 302:../../lpc11cx4-library/lpc_chip_11cxx_lib/inc/clock_11xx.h ****  * @param	clk	: Clock to disable
 303:../../lpc11cx4-library/lpc_chip_11cxx_lib/inc/clock_11xx.h ****  * @return	Nothing
 304:../../lpc11cx4-library/lpc_chip_11cxx_lib/inc/clock_11xx.h ****  */
 305:../../lpc11cx4-library/lpc_chip_11cxx_lib/inc/clock_11xx.h **** STATIC INLINE void Chip_Clock_DisablePeriphClock(CHIP_SYSCTL_CLOCK_T clk)
 306:../../lpc11cx4-library/lpc_chip_11cxx_lib/inc/clock_11xx.h **** {
 307:../../lpc11cx4-library/lpc_chip_11cxx_lib/inc/clock_11xx.h **** 	LPC_SYSCTL->SYSAHBCLKCTRL &= ~(1 << clk);
 761              		.loc 2 307 0
 762 000c 0122     		mov	r2, #1	@ tmp132,
 763              	.LBE105:
 764              	.LBE104:
 765              	.LBE103:
 766              	.LBE102:
 376:../../lpc11cx4-library/lpc_chip_11cxx_lib/src/i2c_11xx.c **** 
 767              		.loc 1 376 0
 768 000e 9961     		str	r1, [r3, #24]	@ tmp123, _4->CONCLR
 769              	.LVL46:
 770              	.LBB109:
 771              	.LBB108:
 772              	.LBB107:
 773              	.LBB106:
 774              		.loc 2 307 0
 775 0010 0079     		ldrb	r0, [r0, #4]	@ D.6763,
 776 0012 0449     		ldr	r1, .L150+4	@ tmp125,
 777 0014 8240     		lsl	r2, r2, r0	@ D.6763, tmp132, D.6763
 778 0016 CB6F     		ldr	r3, [r1, #124]	@ D.6765, MEM[(struct LPC_SYSCTL_T *)1074036736B].SYSAHBCLKCTRL
 779 0018 9343     		bic	r3, r2	@ D.6765, D.6763
 780 001a CB67     		str	r3, [r1, #124]	@ D.6765, MEM[(struct LPC_SYSCTL_T *)1074036736B].SYSAHBCLKCTRL
 781              	.LBE106:
 782              	.LBE107:
 783              	.LBE108:
 784              	.LBE109:
 785              		.loc 1 379 0
 786 001c 7047     		bx	lr
 787              	.L151:
 788 001e C046     		.align	2
 789              	.L150:
 790 0020 00000000 		.word	.LANCHOR0
 791 0024 04800440 		.word	1074036740
 792              		.cfi_endproc
 793              	.LFE215:
 794              		.size	Chip_I2C_DeInit, .-Chip_I2C_DeInit
 795              		.global	__aeabi_uidiv
 796              		.section	.text.Chip_I2C_SetClockRate,"ax",%progbits
 797              		.align	1
 798              		.global	Chip_I2C_SetClockRate
 799              		.code	16
 800              		.thumb_func
 801              		.type	Chip_I2C_SetClockRate, %function
 802              	Chip_I2C_SetClockRate:
ARM GAS  /tmp/ccAFBUIw.s 			page 29


 803              	.LFB216:
 380:../../lpc11cx4-library/lpc_chip_11cxx_lib/src/i2c_11xx.c **** 
 381:../../lpc11cx4-library/lpc_chip_11cxx_lib/src/i2c_11xx.c **** /* Set up clock rate for LPC_I2C peripheral */
 382:../../lpc11cx4-library/lpc_chip_11cxx_lib/src/i2c_11xx.c **** void Chip_I2C_SetClockRate(I2C_ID_T id, uint32_t clockrate)
 383:../../lpc11cx4-library/lpc_chip_11cxx_lib/src/i2c_11xx.c **** {
 804              		.loc 1 383 0
 805              		.cfi_startproc
 806              	.LVL47:
 807 0000 38B5     		push	{r3, r4, r5, lr}	@
 808              		.cfi_def_cfa_offset 16
 809              		.cfi_offset 3, -16
 810              		.cfi_offset 4, -12
 811              		.cfi_offset 5, -8
 812              		.cfi_offset 14, -4
 813              		.loc 1 383 0
 814 0002 0D1C     		mov	r5, r1	@ clockrate, clockrate
 815 0004 041C     		mov	r4, r0	@ id, id
 816              	.LBB110:
 817              	.LBB111:
  90:../../lpc11cx4-library/lpc_chip_11cxx_lib/src/i2c_11xx.c **** }
 818              		.loc 1 90 0
 819 0006 FFF7FEFF 		bl	Chip_Clock_GetMainClockRate	@
 820              	.LVL48:
 821              	.LBE111:
 822              	.LBE110:
 384:../../lpc11cx4-library/lpc_chip_11cxx_lib/src/i2c_11xx.c **** 	uint32_t SCLValue;
 385:../../lpc11cx4-library/lpc_chip_11cxx_lib/src/i2c_11xx.c **** 
 386:../../lpc11cx4-library/lpc_chip_11cxx_lib/src/i2c_11xx.c **** 	SCLValue = (getClkRate() / clockrate);
 823              		.loc 1 386 0
 824 000a 291C     		mov	r1, r5	@, clockrate
 825 000c FFF7FEFF 		bl	__aeabi_uidiv	@
 826              	.LVL49:
 387:../../lpc11cx4-library/lpc_chip_11cxx_lib/src/i2c_11xx.c **** 	LPC_I2Cx(id)->SCLH = (uint32_t) (SCLValue >> 1);
 827              		.loc 1 387 0
 828 0010 1C23     		mov	r3, #28	@ tmp123,
 829 0012 6343     		mul	r3, r4	@ tmp124, id
 830 0014 034A     		ldr	r2, .L153	@ tmp122,
 388:../../lpc11cx4-library/lpc_chip_11cxx_lib/src/i2c_11xx.c **** 	LPC_I2Cx(id)->SCLL = (uint32_t) (SCLValue - LPC_I2Cx(id)->SCLH);
 389:../../lpc11cx4-library/lpc_chip_11cxx_lib/src/i2c_11xx.c **** }
 831              		.loc 1 389 0
 832              		@ sp needed	@
 387:../../lpc11cx4-library/lpc_chip_11cxx_lib/src/i2c_11xx.c **** 	LPC_I2Cx(id)->SCLH = (uint32_t) (SCLValue >> 1);
 833              		.loc 1 387 0
 834 0016 9B58     		ldr	r3, [r3, r2]	@ D.6771, i2c[_6].ip
 835 0018 4208     		lsr	r2, r0, #1	@ D.6772, tmp121,
 836 001a 1A61     		str	r2, [r3, #16]	@ D.6772, _7->SCLH
 388:../../lpc11cx4-library/lpc_chip_11cxx_lib/src/i2c_11xx.c **** 	LPC_I2Cx(id)->SCLL = (uint32_t) (SCLValue - LPC_I2Cx(id)->SCLH);
 837              		.loc 1 388 0
 838 001c 1A69     		ldr	r2, [r3, #16]	@ D.6772, _7->SCLH
 839 001e 801A     		sub	r0, r0, r2	@ D.6772, tmp121, D.6772
 840              	.LVL50:
 841 0020 5861     		str	r0, [r3, #20]	@ D.6772, _7->SCLL
 842              	.LVL51:
 843              		.loc 1 389 0
 844 0022 38BD     		pop	{r3, r4, r5, pc}
 845              	.L154:
 846              		.align	2
ARM GAS  /tmp/ccAFBUIw.s 			page 30


 847              	.L153:
 848 0024 00000000 		.word	.LANCHOR0
 849              		.cfi_endproc
 850              	.LFE216:
 851              		.size	Chip_I2C_SetClockRate, .-Chip_I2C_SetClockRate
 852              		.section	.text.Chip_I2C_GetClockRate,"ax",%progbits
 853              		.align	1
 854              		.global	Chip_I2C_GetClockRate
 855              		.code	16
 856              		.thumb_func
 857              		.type	Chip_I2C_GetClockRate, %function
 858              	Chip_I2C_GetClockRate:
 859              	.LFB217:
 390:../../lpc11cx4-library/lpc_chip_11cxx_lib/src/i2c_11xx.c **** 
 391:../../lpc11cx4-library/lpc_chip_11cxx_lib/src/i2c_11xx.c **** /* Get current clock rate for LPC_I2C peripheral */
 392:../../lpc11cx4-library/lpc_chip_11cxx_lib/src/i2c_11xx.c **** uint32_t Chip_I2C_GetClockRate(I2C_ID_T id)
 393:../../lpc11cx4-library/lpc_chip_11cxx_lib/src/i2c_11xx.c **** {
 860              		.loc 1 393 0
 861              		.cfi_startproc
 862              	.LVL52:
 863 0000 10B5     		push	{r4, lr}	@
 864              		.cfi_def_cfa_offset 8
 865              		.cfi_offset 4, -8
 866              		.cfi_offset 14, -4
 867              		.loc 1 393 0
 868 0002 041C     		mov	r4, r0	@ id, id
 869              	.LBB112:
 870              	.LBB113:
  90:../../lpc11cx4-library/lpc_chip_11cxx_lib/src/i2c_11xx.c **** }
 871              		.loc 1 90 0
 872 0004 FFF7FEFF 		bl	Chip_Clock_GetMainClockRate	@
 873              	.LVL53:
 874              	.LBE113:
 875              	.LBE112:
 394:../../lpc11cx4-library/lpc_chip_11cxx_lib/src/i2c_11xx.c **** 	return getClkRate() / (LPC_I2Cx(id)->SCLH + LPC_I2Cx(id)->SCLL);
 876              		.loc 1 394 0
 877 0008 1C23     		mov	r3, #28	@ tmp120,
 878 000a 6343     		mul	r3, r4	@ tmp121, id
 879 000c 034A     		ldr	r2, .L156	@ tmp119,
 395:../../lpc11cx4-library/lpc_chip_11cxx_lib/src/i2c_11xx.c **** }
 880              		.loc 1 395 0
 881              		@ sp needed	@
 394:../../lpc11cx4-library/lpc_chip_11cxx_lib/src/i2c_11xx.c **** 	return getClkRate() / (LPC_I2Cx(id)->SCLH + LPC_I2Cx(id)->SCLL);
 882              		.loc 1 394 0
 883 000e 9A58     		ldr	r2, [r3, r2]	@ D.6778, i2c[_4].ip
 884 0010 1369     		ldr	r3, [r2, #16]	@ D.6779, _5->SCLH
 885 0012 5169     		ldr	r1, [r2, #20]	@ D.6779, _5->SCLL
 886 0014 C918     		add	r1, r1, r3	@ D.6779, D.6779, D.6779
 887 0016 FFF7FEFF 		bl	__aeabi_uidiv	@
 888              	.LVL54:
 889              		.loc 1 395 0
 890 001a 10BD     		pop	{r4, pc}
 891              	.L157:
 892              		.align	2
 893              	.L156:
 894 001c 00000000 		.word	.LANCHOR0
 895              		.cfi_endproc
ARM GAS  /tmp/ccAFBUIw.s 			page 31


 896              	.LFE217:
 897              		.size	Chip_I2C_GetClockRate, .-Chip_I2C_GetClockRate
 898              		.section	.text.Chip_I2C_SetMasterEventHandler,"ax",%progbits
 899              		.align	1
 900              		.global	Chip_I2C_SetMasterEventHandler
 901              		.code	16
 902              		.thumb_func
 903              		.type	Chip_I2C_SetMasterEventHandler, %function
 904              	Chip_I2C_SetMasterEventHandler:
 905              	.LFB218:
 396:../../lpc11cx4-library/lpc_chip_11cxx_lib/src/i2c_11xx.c **** 
 397:../../lpc11cx4-library/lpc_chip_11cxx_lib/src/i2c_11xx.c **** /* Set the master event handler */
 398:../../lpc11cx4-library/lpc_chip_11cxx_lib/src/i2c_11xx.c **** int Chip_I2C_SetMasterEventHandler(I2C_ID_T id, I2C_EVENTHANDLER_T event)
 399:../../lpc11cx4-library/lpc_chip_11cxx_lib/src/i2c_11xx.c **** {
 906              		.loc 1 399 0
 907              		.cfi_startproc
 908              	.LVL55:
 400:../../lpc11cx4-library/lpc_chip_11cxx_lib/src/i2c_11xx.c **** 	struct i2c_interface *iic = &i2c[id];
 401:../../lpc11cx4-library/lpc_chip_11cxx_lib/src/i2c_11xx.c **** 	if (!iic->mXfer) {
 909              		.loc 1 401 0
 910 0000 1C23     		mov	r3, #28	@ tmp119,
 399:../../lpc11cx4-library/lpc_chip_11cxx_lib/src/i2c_11xx.c **** 	struct i2c_interface *iic = &i2c[id];
 911              		.loc 1 399 0
 912 0002 30B5     		push	{r4, r5, lr}	@
 913              		.cfi_def_cfa_offset 12
 914              		.cfi_offset 4, -12
 915              		.cfi_offset 5, -8
 916              		.cfi_offset 14, -4
 917              		.loc 1 401 0
 918 0004 1C1C     		mov	r4, r3	@ tmp120, tmp119
 919 0006 4443     		mul	r4, r0	@ tmp120, id
 920 0008 064A     		ldr	r2, .L160	@ tmp118,
 921 000a 1419     		add	r4, r2, r4	@ tmp121, tmp118, tmp120
 922 000c 2569     		ldr	r5, [r4, #16]	@ tmp145, MEM[(struct i2c_interface *)&i2c][_3].mXfer
 923 000e 002D     		cmp	r5, #0	@ tmp145,
 924 0010 00D1     		bne	.L159	@,
 402:../../lpc11cx4-library/lpc_chip_11cxx_lib/src/i2c_11xx.c **** 		iic->mEvent = event;
 925              		.loc 1 402 0
 926 0012 A160     		str	r1, [r4, #8]	@ event, MEM[(struct i2c_interface *)&i2c][_3].mEvent
 927              	.L159:
 403:../../lpc11cx4-library/lpc_chip_11cxx_lib/src/i2c_11xx.c **** 	}
 404:../../lpc11cx4-library/lpc_chip_11cxx_lib/src/i2c_11xx.c **** 	return iic->mEvent == event;
 928              		.loc 1 404 0
 929 0014 5843     		mul	r0, r3	@ tmp132, tmp141
 930              	.LVL56:
 931 0016 1318     		add	r3, r2, r0	@ tmp133, tmp140, tmp132
 932 0018 9B68     		ldr	r3, [r3, #8]	@ MEM[(struct i2c_interface *)&i2c][_3].mEvent, MEM[(struct i2c_interface *)&i2c]
 405:../../lpc11cx4-library/lpc_chip_11cxx_lib/src/i2c_11xx.c **** }
 933              		.loc 1 405 0
 934              		@ sp needed	@
 404:../../lpc11cx4-library/lpc_chip_11cxx_lib/src/i2c_11xx.c **** }
 935              		.loc 1 404 0
 936 001a 581A     		sub	r0, r3, r1	@ tmp138, MEM[(struct i2c_interface *)&i2c][_3].mEvent, event
 937 001c 4342     		neg	r3, r0	@ D.6787, tmp138
 938 001e 4341     		adc	r3, r3, r0	@ D.6787, tmp138
 939              	.LVL57:
 940              		.loc 1 405 0
ARM GAS  /tmp/ccAFBUIw.s 			page 32


 941 0020 181C     		mov	r0, r3	@, D.6787
 942 0022 30BD     		pop	{r4, r5, pc}
 943              	.L161:
 944              		.align	2
 945              	.L160:
 946 0024 00000000 		.word	.LANCHOR0
 947              		.cfi_endproc
 948              	.LFE218:
 949              		.size	Chip_I2C_SetMasterEventHandler, .-Chip_I2C_SetMasterEventHandler
 950              		.section	.text.Chip_I2C_GetMasterEventHandler,"ax",%progbits
 951              		.align	1
 952              		.global	Chip_I2C_GetMasterEventHandler
 953              		.code	16
 954              		.thumb_func
 955              		.type	Chip_I2C_GetMasterEventHandler, %function
 956              	Chip_I2C_GetMasterEventHandler:
 957              	.LFB219:
 406:../../lpc11cx4-library/lpc_chip_11cxx_lib/src/i2c_11xx.c **** 
 407:../../lpc11cx4-library/lpc_chip_11cxx_lib/src/i2c_11xx.c **** /* Get the master event handler */
 408:../../lpc11cx4-library/lpc_chip_11cxx_lib/src/i2c_11xx.c **** I2C_EVENTHANDLER_T Chip_I2C_GetMasterEventHandler(I2C_ID_T id)
 409:../../lpc11cx4-library/lpc_chip_11cxx_lib/src/i2c_11xx.c **** {
 958              		.loc 1 409 0
 959              		.cfi_startproc
 960              	.LVL58:
 410:../../lpc11cx4-library/lpc_chip_11cxx_lib/src/i2c_11xx.c **** 	return i2c[id].mEvent;
 961              		.loc 1 410 0
 962 0000 1C23     		mov	r3, #28	@ tmp116,
 963 0002 5843     		mul	r0, r3	@ tmp117, tmp116
 964              	.LVL59:
 965 0004 014B     		ldr	r3, .L163	@ tmp115,
 411:../../lpc11cx4-library/lpc_chip_11cxx_lib/src/i2c_11xx.c **** }
 966              		.loc 1 411 0
 967              		@ sp needed	@
 410:../../lpc11cx4-library/lpc_chip_11cxx_lib/src/i2c_11xx.c **** 	return i2c[id].mEvent;
 968              		.loc 1 410 0
 969 0006 1818     		add	r0, r3, r0	@ tmp118, tmp115, tmp117
 970 0008 8068     		ldr	r0, [r0, #8]	@ i2c[_2].mEvent, i2c[_2].mEvent
 971              		.loc 1 411 0
 972 000a 7047     		bx	lr
 973              	.L164:
 974              		.align	2
 975              	.L163:
 976 000c 00000000 		.word	.LANCHOR0
 977              		.cfi_endproc
 978              	.LFE219:
 979              		.size	Chip_I2C_GetMasterEventHandler, .-Chip_I2C_GetMasterEventHandler
 980              		.section	.text.Chip_I2C_MasterTransfer,"ax",%progbits
 981              		.align	1
 982              		.global	Chip_I2C_MasterTransfer
 983              		.code	16
 984              		.thumb_func
 985              		.type	Chip_I2C_MasterTransfer, %function
 986              	Chip_I2C_MasterTransfer:
 987              	.LFB220:
 412:../../lpc11cx4-library/lpc_chip_11cxx_lib/src/i2c_11xx.c **** 
 413:../../lpc11cx4-library/lpc_chip_11cxx_lib/src/i2c_11xx.c **** /* Transmit and Receive data in master mode */
 414:../../lpc11cx4-library/lpc_chip_11cxx_lib/src/i2c_11xx.c **** int Chip_I2C_MasterTransfer(I2C_ID_T id, I2C_XFER_T *xfer)
ARM GAS  /tmp/ccAFBUIw.s 			page 33


 415:../../lpc11cx4-library/lpc_chip_11cxx_lib/src/i2c_11xx.c **** {
 988              		.loc 1 415 0
 989              		.cfi_startproc
 990              	.LVL60:
 416:../../lpc11cx4-library/lpc_chip_11cxx_lib/src/i2c_11xx.c **** 	struct i2c_interface *iic = &i2c[id];
 417:../../lpc11cx4-library/lpc_chip_11cxx_lib/src/i2c_11xx.c **** 
 418:../../lpc11cx4-library/lpc_chip_11cxx_lib/src/i2c_11xx.c **** 	iic->mEvent(id, I2C_EVENT_LOCK);
 991              		.loc 1 418 0
 992 0000 1C23     		mov	r3, #28	@ tmp127,
 415:../../lpc11cx4-library/lpc_chip_11cxx_lib/src/i2c_11xx.c **** 	struct i2c_interface *iic = &i2c[id];
 993              		.loc 1 415 0
 994 0002 F7B5     		push	{r0, r1, r2, r4, r5, r6, r7, lr}	@
 995              		.cfi_def_cfa_offset 32
 996              		.cfi_offset 0, -32
 997              		.cfi_offset 1, -28
 998              		.cfi_offset 2, -24
 999              		.cfi_offset 4, -20
 1000              		.cfi_offset 5, -16
 1001              		.cfi_offset 6, -12
 1002              		.cfi_offset 7, -8
 1003              		.cfi_offset 14, -4
 1004              		.loc 1 418 0
 1005 0004 4343     		mul	r3, r0	@ tmp128, id
 1006 0006 1C4C     		ldr	r4, .L172	@ tmp126,
 415:../../lpc11cx4-library/lpc_chip_11cxx_lib/src/i2c_11xx.c **** 	struct i2c_interface *iic = &i2c[id];
 1007              		.loc 1 415 0
 1008 0008 0E1C     		mov	r6, r1	@ xfer, xfer
 1009              		.loc 1 418 0
 1010 000a E718     		add	r7, r4, r3	@ tmp129, tmp126, tmp128
 1011 000c 0193     		str	r3, [sp, #4]	@ tmp128, %sfp
 1012 000e 0321     		mov	r1, #3	@,
 1013              	.LVL61:
 1014 0010 BB68     		ldr	r3, [r7, #8]	@ tmp189, MEM[(struct i2c_interface *)&i2c][_5].mEvent
 415:../../lpc11cx4-library/lpc_chip_11cxx_lib/src/i2c_11xx.c **** 	struct i2c_interface *iic = &i2c[id];
 1015              		.loc 1 415 0
 1016 0012 051C     		mov	r5, r0	@ id, id
 1017              		.loc 1 418 0
 1018 0014 9847     		blx	r3	@ tmp189
 1019              	.LVL62:
 419:../../lpc11cx4-library/lpc_chip_11cxx_lib/src/i2c_11xx.c **** 	xfer->status = I2C_STATUS_BUSY;
 1020              		.loc 1 419 0
 1021 0016 0423     		mov	r3, #4	@ tmp132,
 1022 0018 3375     		strb	r3, [r6, #20]	@ tmp132, xfer_9(D)->status
 420:../../lpc11cx4-library/lpc_chip_11cxx_lib/src/i2c_11xx.c **** 	iic->mXfer = xfer;
 421:../../lpc11cx4-library/lpc_chip_11cxx_lib/src/i2c_11xx.c **** 
 422:../../lpc11cx4-library/lpc_chip_11cxx_lib/src/i2c_11xx.c **** 	/* If slave xfer not in progress */
 423:../../lpc11cx4-library/lpc_chip_11cxx_lib/src/i2c_11xx.c **** 	if (!iic->sXfer) {
 1023              		.loc 1 423 0
 1024 001a 7B69     		ldr	r3, [r7, #20]	@ MEM[(struct i2c_interface *)&i2c][_5].sXfer, MEM[(struct i2c_interface *)&i2c]
 420:../../lpc11cx4-library/lpc_chip_11cxx_lib/src/i2c_11xx.c **** 	iic->mXfer = xfer;
 1025              		.loc 1 420 0
 1026 001c 3E61     		str	r6, [r7, #16]	@ xfer, MEM[(struct i2c_interface *)&i2c][_5].mXfer
 1027              		.loc 1 423 0
 1028 001e 002B     		cmp	r3, #0	@ MEM[(struct i2c_interface *)&i2c][_5].sXfer,
 1029 0020 05D1     		bne	.L166	@,
 1030              	.LBB114:
 1031              	.LBB115:
ARM GAS  /tmp/ccAFBUIw.s 			page 34


  97:../../lpc11cx4-library/lpc_chip_11cxx_lib/src/i2c_11xx.c **** 
 1032              		.loc 1 97 0
 1033 0022 3C22     		mov	r2, #60	@ tmp148,
 1034              	.LBE115:
 1035              	.LBE114:
 424:../../lpc11cx4-library/lpc_chip_11cxx_lib/src/i2c_11xx.c **** 		startMasterXfer(iic->ip);
 1036              		.loc 1 424 0
 1037 0024 019B     		ldr	r3, [sp, #4]	@ tmp128, %sfp
 1038 0026 1B59     		ldr	r3, [r3, r4]	@ D.6799, MEM[(struct i2c_interface *)&i2c][_5].ip
 1039              	.LVL63:
 1040              	.LBB117:
 1041              	.LBB116:
  97:../../lpc11cx4-library/lpc_chip_11cxx_lib/src/i2c_11xx.c **** 
 1042              		.loc 1 97 0
 1043 0028 9A61     		str	r2, [r3, #24]	@ tmp148, _13->CONCLR
 100:../../lpc11cx4-library/lpc_chip_11cxx_lib/src/i2c_11xx.c **** }
 1044              		.loc 1 100 0
 1045 002a 2432     		add	r2, r2, #36	@ tmp149,
 1046 002c 1A60     		str	r2, [r3]	@ tmp149, _13->CONSET
 1047              	.LVL64:
 1048              	.L166:
 1049              	.LBE116:
 1050              	.LBE117:
 425:../../lpc11cx4-library/lpc_chip_11cxx_lib/src/i2c_11xx.c **** 	}
 426:../../lpc11cx4-library/lpc_chip_11cxx_lib/src/i2c_11xx.c **** 	iic->mEvent(id, I2C_EVENT_WAIT);
 1051              		.loc 1 426 0
 1052 002e 1C23     		mov	r3, #28	@ tmp151,
 1053 0030 6B43     		mul	r3, r5	@ tmp152, id
 1054 0032 E718     		add	r7, r4, r3	@ tmp153, tmp184, tmp152
 1055 0034 0193     		str	r3, [sp, #4]	@ tmp152, %sfp
 1056 0036 281C     		mov	r0, r5	@, id
 1057 0038 BB68     		ldr	r3, [r7, #8]	@ tmp194, MEM[(struct i2c_interface *)&i2c][_5].mEvent
 1058 003a 0121     		mov	r1, #1	@,
 1059 003c 9847     		blx	r3	@ tmp194
 1060              	.LVL65:
 427:../../lpc11cx4-library/lpc_chip_11cxx_lib/src/i2c_11xx.c **** 	iic->mXfer = 0;
 1061              		.loc 1 427 0
 1062 003e 0023     		mov	r3, #0	@ tmp161,
 1063 0040 3B61     		str	r3, [r7, #16]	@ tmp161, MEM[(struct i2c_interface *)&i2c][_5].mXfer
 428:../../lpc11cx4-library/lpc_chip_11cxx_lib/src/i2c_11xx.c **** 
 429:../../lpc11cx4-library/lpc_chip_11cxx_lib/src/i2c_11xx.c **** 	/* Wait for stop condition to appear on bus */
 430:../../lpc11cx4-library/lpc_chip_11cxx_lib/src/i2c_11xx.c **** 	while (!isI2CBusFree(iic->ip)) {}
 1064              		.loc 1 430 0
 1065 0042 019B     		ldr	r3, [sp, #4]	@ tmp152, %sfp
 1066 0044 E258     		ldr	r2, [r4, r3]	@ D.6799, MEM[(struct i2c_interface *)&i2c][_5].ip
 1067              	.L167:
 1068              	.LVL66:
 1069              	.LBB118:
 1070              	.LBB119:
 116:../../lpc11cx4-library/lpc_chip_11cxx_lib/src/i2c_11xx.c **** }
 1071              		.loc 1 116 0 discriminator 1
 1072 0046 1368     		ldr	r3, [r2]	@ D.6800, _18->CONSET
 1073              	.LBE119:
 1074              	.LBE118:
 1075              		.loc 1 430 0 discriminator 1
 1076 0048 DB06     		lsl	r3, r3, #27	@ tmp186, D.6800,
 1077 004a FCD4     		bmi	.L167	@,
ARM GAS  /tmp/ccAFBUIw.s 			page 35


 431:../../lpc11cx4-library/lpc_chip_11cxx_lib/src/i2c_11xx.c **** 
 432:../../lpc11cx4-library/lpc_chip_11cxx_lib/src/i2c_11xx.c **** 	/* Start slave if one is active */
 433:../../lpc11cx4-library/lpc_chip_11cxx_lib/src/i2c_11xx.c **** 	if (SLAVE_ACTIVE(iic)) {
 1078              		.loc 1 433 0
 1079 004c 1C23     		mov	r3, #28	@ tmp168,
 1080 004e 6B43     		mul	r3, r5	@ tmp169, id
 1081 0050 E318     		add	r3, r4, r3	@ tmp170, tmp184, tmp169
 1082 0052 9969     		ldr	r1, [r3, #24]	@ MEM[(struct i2c_interface *)&i2c][_5].flags, MEM[(struct i2c_interface *)&i2c]
 1083 0054 FF23     		mov	r3, #255	@ tmp174,
 1084 0056 1B02     		lsl	r3, r3, #8	@ tmp174, tmp174,
 1085 0058 1942     		tst	r1, r3	@ MEM[(struct i2c_interface *)&i2c][_5].flags, tmp174
 1086 005a 03D0     		beq	.L168	@,
 1087              	.LVL67:
 1088              	.LBB120:
 1089              	.LBB121:
 107:../../lpc11cx4-library/lpc_chip_11cxx_lib/src/i2c_11xx.c **** 
 1090              		.loc 1 107 0
 1091 005c 3823     		mov	r3, #56	@ tmp175,
 1092 005e 9361     		str	r3, [r2, #24]	@ tmp175, _18->CONCLR
 110:../../lpc11cx4-library/lpc_chip_11cxx_lib/src/i2c_11xx.c **** }
 1093              		.loc 1 110 0
 1094 0060 0C33     		add	r3, r3, #12	@ tmp176,
 1095 0062 1360     		str	r3, [r2]	@ tmp176, _18->CONSET
 1096              	.LVL68:
 1097              	.L168:
 1098              	.LBE121:
 1099              	.LBE120:
 434:../../lpc11cx4-library/lpc_chip_11cxx_lib/src/i2c_11xx.c **** 		startSlaverXfer(iic->ip);
 435:../../lpc11cx4-library/lpc_chip_11cxx_lib/src/i2c_11xx.c **** 	}
 436:../../lpc11cx4-library/lpc_chip_11cxx_lib/src/i2c_11xx.c **** 
 437:../../lpc11cx4-library/lpc_chip_11cxx_lib/src/i2c_11xx.c **** 	iic->mEvent(id, I2C_EVENT_UNLOCK);
 1100              		.loc 1 437 0
 1101 0064 1C23     		mov	r3, #28	@ tmp178,
 1102 0066 6B43     		mul	r3, r5	@ tmp179, id
 1103 0068 E418     		add	r4, r4, r3	@ tmp180, tmp184, tmp179
 1104 006a 281C     		mov	r0, r5	@, id
 1105 006c A368     		ldr	r3, [r4, #8]	@ MEM[(struct i2c_interface *)&i2c][_5].mEvent, MEM[(struct i2c_interface *)&i2c]
 1106 006e 0421     		mov	r1, #4	@,
 1107 0070 9847     		blx	r3	@ MEM[(struct i2c_interface *)&i2c][_5].mEvent
 1108              	.LVL69:
 438:../../lpc11cx4-library/lpc_chip_11cxx_lib/src/i2c_11xx.c **** 	return (int) xfer->status;
 439:../../lpc11cx4-library/lpc_chip_11cxx_lib/src/i2c_11xx.c **** }
 1109              		.loc 1 439 0
 1110              		@ sp needed	@
 438:../../lpc11cx4-library/lpc_chip_11cxx_lib/src/i2c_11xx.c **** 	return (int) xfer->status;
 1111              		.loc 1 438 0
 1112 0072 307D     		ldrb	r0, [r6, #20]	@ D.6796,
 1113              	.LVL70:
 1114              	.LVL71:
 1115              		.loc 1 439 0
 1116 0074 FEBD     		pop	{r1, r2, r3, r4, r5, r6, r7, pc}
 1117              	.L173:
 1118 0076 C046     		.align	2
 1119              	.L172:
 1120 0078 00000000 		.word	.LANCHOR0
 1121              		.cfi_endproc
 1122              	.LFE220:
ARM GAS  /tmp/ccAFBUIw.s 			page 36


 1123              		.size	Chip_I2C_MasterTransfer, .-Chip_I2C_MasterTransfer
 1124              		.section	.text.Chip_I2C_MasterSend,"ax",%progbits
 1125              		.align	1
 1126              		.global	Chip_I2C_MasterSend
 1127              		.code	16
 1128              		.thumb_func
 1129              		.type	Chip_I2C_MasterSend, %function
 1130              	Chip_I2C_MasterSend:
 1131              	.LFB221:
 440:../../lpc11cx4-library/lpc_chip_11cxx_lib/src/i2c_11xx.c **** 
 441:../../lpc11cx4-library/lpc_chip_11cxx_lib/src/i2c_11xx.c **** /* Master tx only */
 442:../../lpc11cx4-library/lpc_chip_11cxx_lib/src/i2c_11xx.c **** int Chip_I2C_MasterSend(I2C_ID_T id, uint8_t slaveAddr, const uint8_t *buff, uint8_t len)
 443:../../lpc11cx4-library/lpc_chip_11cxx_lib/src/i2c_11xx.c **** {
 1132              		.loc 1 443 0
 1133              		.cfi_startproc
 1134              	.LVL72:
 1135 0000 30B5     		push	{r4, r5, lr}	@
 1136              		.cfi_def_cfa_offset 12
 1137              		.cfi_offset 4, -12
 1138              		.cfi_offset 5, -8
 1139              		.cfi_offset 14, -4
 1140 0002 87B0     		sub	sp, sp, #28	@,,
 1141              		.cfi_def_cfa_offset 40
 1142              		.loc 1 443 0
 1143 0004 1C1C     		mov	r4, r3	@ len, len
 444:../../lpc11cx4-library/lpc_chip_11cxx_lib/src/i2c_11xx.c **** 	I2C_XFER_T xfer;
 445:../../lpc11cx4-library/lpc_chip_11cxx_lib/src/i2c_11xx.c **** 	xfer.slaveAddr = slaveAddr;
 1144              		.loc 1 445 0
 1145 0006 6B46     		mov	r3, sp	@ tmp128,
 1146              	.LVL73:
 443:../../lpc11cx4-library/lpc_chip_11cxx_lib/src/i2c_11xx.c **** 	I2C_XFER_T xfer;
 1147              		.loc 1 443 0
 1148 0008 051C     		mov	r5, r0	@ id, id
 1149              		.loc 1 445 0
 1150 000a 1970     		strb	r1, [r3]	@ slaveAddr, xfer.slaveAddr
 446:../../lpc11cx4-library/lpc_chip_11cxx_lib/src/i2c_11xx.c **** 	xfer.txBuff = buff;
 1151              		.loc 1 446 0
 1152 000c 0192     		str	r2, [sp, #4]	@ buff, xfer.txBuff
 447:../../lpc11cx4-library/lpc_chip_11cxx_lib/src/i2c_11xx.c **** 	xfer.txSz = len;
 1153              		.loc 1 447 0
 1154 000e 0294     		str	r4, [sp, #8]	@ len, xfer.txSz
 1155              	.LVL74:
 1156              	.L175:
 448:../../lpc11cx4-library/lpc_chip_11cxx_lib/src/i2c_11xx.c **** 	while (Chip_I2C_MasterTransfer(id, &xfer) == I2C_STATUS_ARBLOST) {}
 1157              		.loc 1 448 0 discriminator 1
 1158 0010 281C     		mov	r0, r5	@, id
 1159 0012 6946     		mov	r1, sp	@,
 1160 0014 FFF7FEFF 		bl	Chip_I2C_MasterTransfer	@
 1161              	.LVL75:
 1162 0018 0228     		cmp	r0, #2	@ D.6806,
 1163 001a F9D0     		beq	.L175	@,
 449:../../lpc11cx4-library/lpc_chip_11cxx_lib/src/i2c_11xx.c **** 	return len - xfer.txSz;
 1164              		.loc 1 449 0
 1165 001c 0298     		ldr	r0, [sp, #8]	@ xfer.txSz, xfer.txSz
 1166 001e 201A     		sub	r0, r4, r0	@ D.6806, len, xfer.txSz
 450:../../lpc11cx4-library/lpc_chip_11cxx_lib/src/i2c_11xx.c **** }
 1167              		.loc 1 450 0
ARM GAS  /tmp/ccAFBUIw.s 			page 37


 1168 0020 07B0     		add	sp, sp, #28	@,,
 1169              		@ sp needed	@
 1170 0022 30BD     		pop	{r4, r5, pc}
 1171              		.cfi_endproc
 1172              	.LFE221:
 1173              		.size	Chip_I2C_MasterSend, .-Chip_I2C_MasterSend
 1174              		.section	.text.Chip_I2C_MasterCmdRead,"ax",%progbits
 1175              		.align	1
 1176              		.global	Chip_I2C_MasterCmdRead
 1177              		.code	16
 1178              		.thumb_func
 1179              		.type	Chip_I2C_MasterCmdRead, %function
 1180              	Chip_I2C_MasterCmdRead:
 1181              	.LFB222:
 451:../../lpc11cx4-library/lpc_chip_11cxx_lib/src/i2c_11xx.c **** 
 452:../../lpc11cx4-library/lpc_chip_11cxx_lib/src/i2c_11xx.c **** /* Transmit one byte and receive an array of bytes after a repeated start condition is generated in
 453:../../lpc11cx4-library/lpc_chip_11cxx_lib/src/i2c_11xx.c ****  * This function is useful for communicating with the I2C slave registers
 454:../../lpc11cx4-library/lpc_chip_11cxx_lib/src/i2c_11xx.c ****  */
 455:../../lpc11cx4-library/lpc_chip_11cxx_lib/src/i2c_11xx.c **** int Chip_I2C_MasterCmdRead(I2C_ID_T id, uint8_t slaveAddr, uint8_t cmd, uint8_t *buff, int len)
 456:../../lpc11cx4-library/lpc_chip_11cxx_lib/src/i2c_11xx.c **** {
 1182              		.loc 1 456 0
 1183              		.cfi_startproc
 1184              	.LVL76:
 1185 0000 70B5     		push	{r4, r5, r6, lr}	@
 1186              		.cfi_def_cfa_offset 16
 1187              		.cfi_offset 4, -16
 1188              		.cfi_offset 5, -12
 1189              		.cfi_offset 6, -8
 1190              		.cfi_offset 14, -4
 1191 0002 88B0     		sub	sp, sp, #32	@,,
 1192              		.cfi_def_cfa_offset 48
 1193              		.loc 1 456 0
 1194 0004 061C     		mov	r6, r0	@ id, id
 1195 0006 6846     		mov	r0, sp	@ tmp134,
 1196              	.LVL77:
 1197 0008 C271     		strb	r2, [r0, #7]	@ cmd, cmd
 457:../../lpc11cx4-library/lpc_chip_11cxx_lib/src/i2c_11xx.c **** 	I2C_XFER_T xfer;
 458:../../lpc11cx4-library/lpc_chip_11cxx_lib/src/i2c_11xx.c **** 	xfer.slaveAddr = slaveAddr;
 459:../../lpc11cx4-library/lpc_chip_11cxx_lib/src/i2c_11xx.c **** 	xfer.txBuff = &cmd;
 460:../../lpc11cx4-library/lpc_chip_11cxx_lib/src/i2c_11xx.c **** 	xfer.txSz = 1;
 1198              		.loc 1 460 0
 1199 000a 0122     		mov	r2, #1	@ tmp126,
 1200              	.LVL78:
 456:../../lpc11cx4-library/lpc_chip_11cxx_lib/src/i2c_11xx.c **** 	I2C_XFER_T xfer;
 1201              		.loc 1 456 0
 1202 000c 0C9D     		ldr	r5, [sp, #48]	@ len, len
 458:../../lpc11cx4-library/lpc_chip_11cxx_lib/src/i2c_11xx.c **** 	xfer.txBuff = &cmd;
 1203              		.loc 1 458 0
 1204 000e 02AC     		add	r4, sp, #8	@ tmp121,,
 456:../../lpc11cx4-library/lpc_chip_11cxx_lib/src/i2c_11xx.c **** 	I2C_XFER_T xfer;
 1205              		.loc 1 456 0
 1206 0010 0730     		add	r0, r0, #7	@ tmp117,
 1207              	.LVL79:
 458:../../lpc11cx4-library/lpc_chip_11cxx_lib/src/i2c_11xx.c **** 	xfer.txBuff = &cmd;
 1208              		.loc 1 458 0
 1209 0012 2170     		strb	r1, [r4]	@ slaveAddr, xfer.slaveAddr
 459:../../lpc11cx4-library/lpc_chip_11cxx_lib/src/i2c_11xx.c **** 	xfer.txSz = 1;
ARM GAS  /tmp/ccAFBUIw.s 			page 38


 1210              		.loc 1 459 0
 1211 0014 6060     		str	r0, [r4, #4]	@ tmp117, xfer.txBuff
 1212              		.loc 1 460 0
 1213 0016 A260     		str	r2, [r4, #8]	@ tmp126, xfer.txSz
 461:../../lpc11cx4-library/lpc_chip_11cxx_lib/src/i2c_11xx.c **** 	xfer.rxBuff = buff;
 1214              		.loc 1 461 0
 1215 0018 E360     		str	r3, [r4, #12]	@ buff, xfer.rxBuff
 462:../../lpc11cx4-library/lpc_chip_11cxx_lib/src/i2c_11xx.c **** 	xfer.rxSz = len;
 1216              		.loc 1 462 0
 1217 001a 2561     		str	r5, [r4, #16]	@ len, xfer.rxSz
 1218              	.LVL80:
 1219              	.L178:
 463:../../lpc11cx4-library/lpc_chip_11cxx_lib/src/i2c_11xx.c **** 	while (Chip_I2C_MasterTransfer(id, &xfer) == I2C_STATUS_ARBLOST) {}
 1220              		.loc 1 463 0 discriminator 1
 1221 001c 301C     		mov	r0, r6	@, id
 1222 001e 211C     		mov	r1, r4	@, tmp121
 1223 0020 FFF7FEFF 		bl	Chip_I2C_MasterTransfer	@
 1224              	.LVL81:
 1225 0024 0228     		cmp	r0, #2	@ D.6809,
 1226 0026 F9D0     		beq	.L178	@,
 464:../../lpc11cx4-library/lpc_chip_11cxx_lib/src/i2c_11xx.c **** 	return len - xfer.rxSz;
 1227              		.loc 1 464 0
 1228 0028 2069     		ldr	r0, [r4, #16]	@ xfer.rxSz, xfer.rxSz
 1229 002a 281A     		sub	r0, r5, r0	@ D.6809, len, xfer.rxSz
 465:../../lpc11cx4-library/lpc_chip_11cxx_lib/src/i2c_11xx.c **** }
 1230              		.loc 1 465 0
 1231 002c 08B0     		add	sp, sp, #32	@,,
 1232              	.LVL82:
 1233              		@ sp needed	@
 1234 002e 70BD     		pop	{r4, r5, r6, pc}
 1235              		.cfi_endproc
 1236              	.LFE222:
 1237              		.size	Chip_I2C_MasterCmdRead, .-Chip_I2C_MasterCmdRead
 1238              		.section	.text.Chip_I2C_MasterRead,"ax",%progbits
 1239              		.align	1
 1240              		.global	Chip_I2C_MasterRead
 1241              		.code	16
 1242              		.thumb_func
 1243              		.type	Chip_I2C_MasterRead, %function
 1244              	Chip_I2C_MasterRead:
 1245              	.LFB223:
 466:../../lpc11cx4-library/lpc_chip_11cxx_lib/src/i2c_11xx.c **** 
 467:../../lpc11cx4-library/lpc_chip_11cxx_lib/src/i2c_11xx.c **** /* Sequential master read */
 468:../../lpc11cx4-library/lpc_chip_11cxx_lib/src/i2c_11xx.c **** int Chip_I2C_MasterRead(I2C_ID_T id, uint8_t slaveAddr, uint8_t *buff, int len)
 469:../../lpc11cx4-library/lpc_chip_11cxx_lib/src/i2c_11xx.c **** {
 1246              		.loc 1 469 0
 1247              		.cfi_startproc
 1248              	.LVL83:
 1249 0000 30B5     		push	{r4, r5, lr}	@
 1250              		.cfi_def_cfa_offset 12
 1251              		.cfi_offset 4, -12
 1252              		.cfi_offset 5, -8
 1253              		.cfi_offset 14, -4
 1254 0002 87B0     		sub	sp, sp, #28	@,,
 1255              		.cfi_def_cfa_offset 40
 1256              		.loc 1 469 0
 1257 0004 1C1C     		mov	r4, r3	@ len, len
ARM GAS  /tmp/ccAFBUIw.s 			page 39


 470:../../lpc11cx4-library/lpc_chip_11cxx_lib/src/i2c_11xx.c **** 	I2C_XFER_T xfer;
 471:../../lpc11cx4-library/lpc_chip_11cxx_lib/src/i2c_11xx.c **** 	xfer.slaveAddr = slaveAddr;
 1258              		.loc 1 471 0
 1259 0006 6B46     		mov	r3, sp	@ tmp127,
 1260              	.LVL84:
 469:../../lpc11cx4-library/lpc_chip_11cxx_lib/src/i2c_11xx.c **** 	I2C_XFER_T xfer;
 1261              		.loc 1 469 0
 1262 0008 051C     		mov	r5, r0	@ id, id
 1263              		.loc 1 471 0
 1264 000a 1970     		strb	r1, [r3]	@ slaveAddr, xfer.slaveAddr
 472:../../lpc11cx4-library/lpc_chip_11cxx_lib/src/i2c_11xx.c **** 	xfer.rxBuff = buff;
 1265              		.loc 1 472 0
 1266 000c 0392     		str	r2, [sp, #12]	@ buff, xfer.rxBuff
 473:../../lpc11cx4-library/lpc_chip_11cxx_lib/src/i2c_11xx.c **** 	xfer.rxSz = len;
 1267              		.loc 1 473 0
 1268 000e 0494     		str	r4, [sp, #16]	@ len, xfer.rxSz
 1269              	.LVL85:
 1270              	.L181:
 474:../../lpc11cx4-library/lpc_chip_11cxx_lib/src/i2c_11xx.c **** 	while (Chip_I2C_MasterTransfer(id, &xfer) == I2C_STATUS_ARBLOST) {}
 1271              		.loc 1 474 0 discriminator 1
 1272 0010 281C     		mov	r0, r5	@, id
 1273 0012 6946     		mov	r1, sp	@,
 1274 0014 FFF7FEFF 		bl	Chip_I2C_MasterTransfer	@
 1275              	.LVL86:
 1276 0018 0228     		cmp	r0, #2	@ D.6812,
 1277 001a F9D0     		beq	.L181	@,
 475:../../lpc11cx4-library/lpc_chip_11cxx_lib/src/i2c_11xx.c **** 	return len - xfer.rxSz;
 1278              		.loc 1 475 0
 1279 001c 0498     		ldr	r0, [sp, #16]	@ xfer.rxSz, xfer.rxSz
 1280 001e 201A     		sub	r0, r4, r0	@ D.6812, len, xfer.rxSz
 476:../../lpc11cx4-library/lpc_chip_11cxx_lib/src/i2c_11xx.c **** }
 1281              		.loc 1 476 0
 1282 0020 07B0     		add	sp, sp, #28	@,,
 1283              		@ sp needed	@
 1284              	.LVL87:
 1285 0022 30BD     		pop	{r4, r5, pc}
 1286              		.cfi_endproc
 1287              	.LFE223:
 1288              		.size	Chip_I2C_MasterRead, .-Chip_I2C_MasterRead
 1289              		.section	.text.Chip_I2C_IsMasterActive,"ax",%progbits
 1290              		.align	1
 1291              		.global	Chip_I2C_IsMasterActive
 1292              		.code	16
 1293              		.thumb_func
 1294              		.type	Chip_I2C_IsMasterActive, %function
 1295              	Chip_I2C_IsMasterActive:
 1296              	.LFB224:
 477:../../lpc11cx4-library/lpc_chip_11cxx_lib/src/i2c_11xx.c **** 
 478:../../lpc11cx4-library/lpc_chip_11cxx_lib/src/i2c_11xx.c **** /* Check if master state is active */
 479:../../lpc11cx4-library/lpc_chip_11cxx_lib/src/i2c_11xx.c **** int Chip_I2C_IsMasterActive(I2C_ID_T id)
 480:../../lpc11cx4-library/lpc_chip_11cxx_lib/src/i2c_11xx.c **** {
 1297              		.loc 1 480 0
 1298              		.cfi_startproc
 1299              	.LVL88:
 481:../../lpc11cx4-library/lpc_chip_11cxx_lib/src/i2c_11xx.c **** 	return isMasterState(i2c[id].ip);
 1300              		.loc 1 481 0
 1301 0000 1C23     		mov	r3, #28	@ tmp120,
ARM GAS  /tmp/ccAFBUIw.s 			page 40


 1302 0002 5843     		mul	r0, r3	@ tmp121, tmp120
 1303              	.LVL89:
 1304 0004 054B     		ldr	r3, .L184	@ tmp119,
 1305              	.LBB122:
 1306              	.LBB123:
 128:../../lpc11cx4-library/lpc_chip_11cxx_lib/src/i2c_11xx.c **** }
 1307              		.loc 1 128 0
 1308 0006 5F21     		mov	r1, #95	@ tmp127,
 1309              	.LBE123:
 1310              	.LBE122:
 1311              		.loc 1 481 0
 1312 0008 C358     		ldr	r3, [r0, r3]	@ D.6816, i2c[_2].ip
 1313              	.LVL90:
 482:../../lpc11cx4-library/lpc_chip_11cxx_lib/src/i2c_11xx.c **** }
 1314              		.loc 1 482 0
 1315              		@ sp needed	@
 1316              	.LBB127:
 1317              	.LBB126:
 1318              	.LBB124:
 1319              	.LBB125:
 122:../../lpc11cx4-library/lpc_chip_11cxx_lib/src/i2c_11xx.c **** }
 1320              		.loc 1 122 0
 1321 000a 5A68     		ldr	r2, [r3, #4]	@ D.6817, _4->STAT
 1322 000c F823     		mov	r3, #248	@ tmp124,
 1323              	.LVL91:
 1324 000e 1340     		and	r3, r2	@ D.6815, D.6817
 1325              	.LBE125:
 1326              	.LBE124:
 128:../../lpc11cx4-library/lpc_chip_11cxx_lib/src/i2c_11xx.c **** }
 1327              		.loc 1 128 0
 1328 0010 0022     		mov	r2, #0	@ tmp129,
 1329 0012 D80F     		lsr	r0, r3, #31	@ tmp128, D.6815,
 1330              	.LVL92:
 1331 0014 9942     		cmp	r1, r3	@ tmp127, D.6815
 1332 0016 5041     		adc	r0, r0, r2	@ D.6818, tmp128, tmp129
 1333              	.LBE126:
 1334              	.LBE127:
 1335              		.loc 1 482 0
 1336 0018 7047     		bx	lr
 1337              	.L185:
 1338 001a C046     		.align	2
 1339              	.L184:
 1340 001c 00000000 		.word	.LANCHOR0
 1341              		.cfi_endproc
 1342              	.LFE224:
 1343              		.size	Chip_I2C_IsMasterActive, .-Chip_I2C_IsMasterActive
 1344              		.section	.text.Chip_I2C_MasterStateHandler,"ax",%progbits
 1345              		.align	1
 1346              		.global	Chip_I2C_MasterStateHandler
 1347              		.code	16
 1348              		.thumb_func
 1349              		.type	Chip_I2C_MasterStateHandler, %function
 1350              	Chip_I2C_MasterStateHandler:
 1351              	.LFB225:
 483:../../lpc11cx4-library/lpc_chip_11cxx_lib/src/i2c_11xx.c **** 
 484:../../lpc11cx4-library/lpc_chip_11cxx_lib/src/i2c_11xx.c **** /* State change handler for master transfer */
 485:../../lpc11cx4-library/lpc_chip_11cxx_lib/src/i2c_11xx.c **** void Chip_I2C_MasterStateHandler(I2C_ID_T id)
ARM GAS  /tmp/ccAFBUIw.s 			page 41


 486:../../lpc11cx4-library/lpc_chip_11cxx_lib/src/i2c_11xx.c **** {
 1352              		.loc 1 486 0
 1353              		.cfi_startproc
 1354              	.LVL93:
 1355 0000 38B5     		push	{r3, r4, r5, lr}	@
 1356              		.cfi_def_cfa_offset 16
 1357              		.cfi_offset 3, -16
 1358              		.cfi_offset 4, -12
 1359              		.cfi_offset 5, -8
 1360              		.cfi_offset 14, -4
 487:../../lpc11cx4-library/lpc_chip_11cxx_lib/src/i2c_11xx.c **** 	if (!handleMasterXferState(i2c[id].ip, i2c[id].mXfer)) {
 1361              		.loc 1 487 0
 1362 0002 1C23     		mov	r3, #28	@ tmp117,
 1363 0004 4343     		mul	r3, r0	@ tmp118, id
 1364 0006 074A     		ldr	r2, .L188	@ tmp116,
 486:../../lpc11cx4-library/lpc_chip_11cxx_lib/src/i2c_11xx.c **** 	if (!handleMasterXferState(i2c[id].ip, i2c[id].mXfer)) {
 1365              		.loc 1 486 0
 1366 0008 041C     		mov	r4, r0	@ id, id
 1367              		.loc 1 487 0
 1368 000a D518     		add	r5, r2, r3	@ tmp122, tmp116, tmp118
 1369 000c 9858     		ldr	r0, [r3, r2]	@, i2c[_3].ip
 1370              	.LVL94:
 1371 000e 2969     		ldr	r1, [r5, #16]	@, i2c[_3].mXfer
 1372 0010 FFF7FEFF 		bl	handleMasterXferState	@
 1373              	.LVL95:
 1374 0014 0028     		cmp	r0, #0	@ D.6822,
 1375 0016 03D1     		bne	.L186	@,
 488:../../lpc11cx4-library/lpc_chip_11cxx_lib/src/i2c_11xx.c **** 		i2c[id].mEvent(id, I2C_EVENT_DONE);
 1376              		.loc 1 488 0
 1377 0018 AB68     		ldr	r3, [r5, #8]	@ i2c[_3].mEvent, i2c[_3].mEvent
 1378 001a 201C     		mov	r0, r4	@, id
 1379 001c 0221     		mov	r1, #2	@,
 1380 001e 9847     		blx	r3	@ i2c[_3].mEvent
 1381              	.LVL96:
 1382              	.L186:
 489:../../lpc11cx4-library/lpc_chip_11cxx_lib/src/i2c_11xx.c **** 	}
 490:../../lpc11cx4-library/lpc_chip_11cxx_lib/src/i2c_11xx.c **** }
 1383              		.loc 1 490 0
 1384              		@ sp needed	@
 1385 0020 38BD     		pop	{r3, r4, r5, pc}
 1386              	.L189:
 1387 0022 C046     		.align	2
 1388              	.L188:
 1389 0024 00000000 		.word	.LANCHOR0
 1390              		.cfi_endproc
 1391              	.LFE225:
 1392              		.size	Chip_I2C_MasterStateHandler, .-Chip_I2C_MasterStateHandler
 1393              		.section	.text.Chip_I2C_SlaveSetup,"ax",%progbits
 1394              		.align	1
 1395              		.global	Chip_I2C_SlaveSetup
 1396              		.code	16
 1397              		.thumb_func
 1398              		.type	Chip_I2C_SlaveSetup, %function
 1399              	Chip_I2C_SlaveSetup:
 1400              	.LFB226:
 491:../../lpc11cx4-library/lpc_chip_11cxx_lib/src/i2c_11xx.c **** 
 492:../../lpc11cx4-library/lpc_chip_11cxx_lib/src/i2c_11xx.c **** /* Setup slave function */
ARM GAS  /tmp/ccAFBUIw.s 			page 42


 493:../../lpc11cx4-library/lpc_chip_11cxx_lib/src/i2c_11xx.c **** void Chip_I2C_SlaveSetup(I2C_ID_T id,
 494:../../lpc11cx4-library/lpc_chip_11cxx_lib/src/i2c_11xx.c **** 						 I2C_SLAVE_ID sid,
 495:../../lpc11cx4-library/lpc_chip_11cxx_lib/src/i2c_11xx.c **** 						 I2C_XFER_T *xfer,
 496:../../lpc11cx4-library/lpc_chip_11cxx_lib/src/i2c_11xx.c **** 						 I2C_EVENTHANDLER_T event,
 497:../../lpc11cx4-library/lpc_chip_11cxx_lib/src/i2c_11xx.c **** 						 uint8_t addrMask)
 498:../../lpc11cx4-library/lpc_chip_11cxx_lib/src/i2c_11xx.c **** {
 1401              		.loc 1 498 0
 1402              		.cfi_startproc
 1403              	.LVL97:
 1404 0000 70B5     		push	{r4, r5, r6, lr}	@
 1405              		.cfi_def_cfa_offset 16
 1406              		.cfi_offset 4, -16
 1407              		.cfi_offset 5, -12
 1408              		.cfi_offset 6, -8
 1409              		.cfi_offset 14, -4
 1410              		.loc 1 498 0
 1411 0002 04AC     		add	r4, sp, #16	@ tmp136,,
 1412              	.LVL98:
 1413 0004 2578     		ldrb	r5, [r4]	@ addrMask, addrMask
 499:../../lpc11cx4-library/lpc_chip_11cxx_lib/src/i2c_11xx.c **** 	struct i2c_interface *iic = &i2c[id];
 500:../../lpc11cx4-library/lpc_chip_11cxx_lib/src/i2c_11xx.c **** 	struct i2c_slave_interface *si2c = &i2c_slave[id][sid];
 501:../../lpc11cx4-library/lpc_chip_11cxx_lib/src/i2c_11xx.c **** 	si2c->xfer = xfer;
 1414              		.loc 1 501 0
 1415 0006 0524     		mov	r4, #5	@ tmp138,
 1416              	.LVL99:
 1417 0008 4443     		mul	r4, r0	@ tmp139, id
 1418 000a 1A4E     		ldr	r6, .L197	@ tmp137,
 1419 000c 6418     		add	r4, r4, r1	@ tmp140, tmp139, sid
 1420 000e E400     		lsl	r4, r4, #3	@ tmp141, tmp140,
 1421 0010 A251     		str	r2, [r4, r6]	@ xfer, MEM[(struct i2c_slave_interface *)&i2c_slave][_4][_6].xfer
 502:../../lpc11cx4-library/lpc_chip_11cxx_lib/src/i2c_11xx.c **** 	si2c->event = event;
 1422              		.loc 1 502 0
 1423 0012 3419     		add	r4, r6, r4	@ tmp147, tmp137, tmp141
 1424 0014 6360     		str	r3, [r4, #4]	@ event, MEM[(struct i2c_slave_interface *)&i2c_slave][_4][_6].event
 1425 0016 184C     		ldr	r4, .L197+4	@ tmp183,
 503:../../lpc11cx4-library/lpc_chip_11cxx_lib/src/i2c_11xx.c **** 
 504:../../lpc11cx4-library/lpc_chip_11cxx_lib/src/i2c_11xx.c **** 	/* Set up the slave address */
 505:../../lpc11cx4-library/lpc_chip_11cxx_lib/src/i2c_11xx.c **** 	if (sid != I2C_SLAVE_GENERAL) {
 1426              		.loc 1 505 0
 1427 0018 0029     		cmp	r1, #0	@ sid,
 1428 001a 12D0     		beq	.L191	@,
 506:../../lpc11cx4-library/lpc_chip_11cxx_lib/src/i2c_11xx.c **** 		setSlaveAddr(iic->ip, sid, xfer->slaveAddr, addrMask);
 1429              		.loc 1 506 0
 1430 001c 1C23     		mov	r3, #28	@ tmp149,
 1431              	.LVL100:
 1432              	.LBB133:
 1433              	.LBB134:
 135:../../lpc11cx4-library/lpc_chip_11cxx_lib/src/i2c_11xx.c **** 	if (sid == I2C_SLAVE_0) {
 1434              		.loc 1 135 0
 1435 001e 0E1C     		mov	r6, r1	@ tmp151, sid
 1436              	.LVL101:
 1437              	.LBE134:
 1438              	.LBE133:
 1439              		.loc 1 506 0
 1440 0020 4343     		mul	r3, r0	@ tmp150, id
 1441              	.LBB139:
 1442              	.LBB136:
ARM GAS  /tmp/ccAFBUIw.s 			page 43


 135:../../lpc11cx4-library/lpc_chip_11cxx_lib/src/i2c_11xx.c **** 	if (sid == I2C_SLAVE_0) {
 1443              		.loc 1 135 0
 1444 0022 0B36     		add	r6, r6, #11	@ tmp151,
 1445              	.LBE136:
 1446              	.LBE139:
 1447              		.loc 1 506 0
 1448 0024 E358     		ldr	r3, [r4, r3]	@ D.6836, MEM[(struct i2c_interface *)&i2c][_4].ip
 1449              	.LBB140:
 1450              	.LBB137:
 135:../../lpc11cx4-library/lpc_chip_11cxx_lib/src/i2c_11xx.c **** 	if (sid == I2C_SLAVE_0) {
 1451              		.loc 1 135 0
 1452 0026 B600     		lsl	r6, r6, #2	@ tmp152, tmp151,
 1453              	.LBE137:
 1454              	.LBE140:
 1455              		.loc 1 506 0
 1456 0028 1278     		ldrb	r2, [r2]	@ D.6837, *xfer_8(D)
 1457              	.LVL102:
 1458              	.LBB141:
 1459              	.LBB138:
 135:../../lpc11cx4-library/lpc_chip_11cxx_lib/src/i2c_11xx.c **** 	if (sid == I2C_SLAVE_0) {
 1460              		.loc 1 135 0
 1461 002a F550     		str	r5, [r6, r3]	@ addrMask, _12->MASK
 136:../../lpc11cx4-library/lpc_chip_11cxx_lib/src/i2c_11xx.c **** 		pI2C->ADR0 = addr;
 1462              		.loc 1 136 0
 1463 002c 0129     		cmp	r1, #1	@ sid,
 1464 002e 01D1     		bne	.L192	@,
 137:../../lpc11cx4-library/lpc_chip_11cxx_lib/src/i2c_11xx.c **** 	}
 1465              		.loc 1 137 0
 1466 0030 DA60     		str	r2, [r3, #12]	@ D.6837, _12->ADR0
 1467 0032 06E0     		b	.L191	@
 1468              	.L192:
 1469              	.LVL103:
 1470              	.LBB135:
 140:../../lpc11cx4-library/lpc_chip_11cxx_lib/src/i2c_11xx.c **** 		abase[index - 1] = addr;
 1471              		.loc 1 140 0
 1472 0034 2033     		add	r3, r3, #32	@ abase,
 1473              	.LVL104:
 1474 0036 1D1C     		mov	r5, r3	@ abase, abase
 1475              	.LVL105:
 141:../../lpc11cx4-library/lpc_chip_11cxx_lib/src/i2c_11xx.c **** 	}
 1476              		.loc 1 141 0
 1477 0038 104B     		ldr	r3, .L197+8	@ tmp187,
 1478              	.LVL106:
 1479 003a CB18     		add	r3, r1, r3	@ D.6840, sid, tmp187
 1480 003c 9B00     		lsl	r3, r3, #2	@ D.6840, D.6840,
 1481 003e EB18     		add	r3, r5, r3	@ D.6841, abase, D.6840
 1482 0040 1A60     		str	r2, [r3]	@ D.6837, *_34
 1483              	.LVL107:
 1484              	.L191:
 1485              	.LBE135:
 1486              	.LBE138:
 1487              	.LBE141:
 507:../../lpc11cx4-library/lpc_chip_11cxx_lib/src/i2c_11xx.c **** 	}
 508:../../lpc11cx4-library/lpc_chip_11cxx_lib/src/i2c_11xx.c **** 
 509:../../lpc11cx4-library/lpc_chip_11cxx_lib/src/i2c_11xx.c **** 	if (!SLAVE_ACTIVE(iic) && !iic->mXfer) {
 1488              		.loc 1 509 0
 1489 0042 1C23     		mov	r3, #28	@ tmp157,
ARM GAS  /tmp/ccAFBUIw.s 			page 44


 1490 0044 FF26     		mov	r6, #255	@ tmp162,
 1491 0046 4343     		mul	r3, r0	@ tmp158, id
 1492 0048 E518     		add	r5, r4, r3	@ tmp159, tmp183, tmp158
 1493 004a AA69     		ldr	r2, [r5, #24]	@ D.6838, MEM[(struct i2c_interface *)&i2c][_4].flags
 1494 004c 3602     		lsl	r6, r6, #8	@ tmp162, tmp162,
 1495 004e 3242     		tst	r2, r6	@ D.6838, tmp162
 1496 0050 07D1     		bne	.L193	@,
 1497              		.loc 1 509 0 is_stmt 0 discriminator 1
 1498 0052 2D69     		ldr	r5, [r5, #16]	@ MEM[(struct i2c_interface *)&i2c][_4].mXfer, MEM[(struct i2c_interface *)&i2c]
 1499 0054 002D     		cmp	r5, #0	@ MEM[(struct i2c_interface *)&i2c][_4].mXfer,
 1500 0056 04D1     		bne	.L193	@,
 510:../../lpc11cx4-library/lpc_chip_11cxx_lib/src/i2c_11xx.c **** 		startSlaverXfer(iic->ip);
 1501              		.loc 1 510 0 is_stmt 1
 1502 0058 E358     		ldr	r3, [r4, r3]	@ D.6836, MEM[(struct i2c_interface *)&i2c][_4].ip
 1503              	.LVL108:
 1504              	.LBB142:
 1505              	.LBB143:
 107:../../lpc11cx4-library/lpc_chip_11cxx_lib/src/i2c_11xx.c **** 
 1506              		.loc 1 107 0
 1507 005a 3835     		add	r5, r5, #56	@ tmp172,
 1508 005c 9D61     		str	r5, [r3, #24]	@ tmp172, _19->CONCLR
 110:../../lpc11cx4-library/lpc_chip_11cxx_lib/src/i2c_11xx.c **** }
 1509              		.loc 1 110 0
 1510 005e 0C35     		add	r5, r5, #12	@ tmp173,
 1511 0060 1D60     		str	r5, [r3]	@ tmp173, _19->CONSET
 1512              	.LVL109:
 1513              	.L193:
 1514              	.LBE143:
 1515              	.LBE142:
 511:../../lpc11cx4-library/lpc_chip_11cxx_lib/src/i2c_11xx.c **** 	}
 512:../../lpc11cx4-library/lpc_chip_11cxx_lib/src/i2c_11xx.c **** 	iic->flags |= 1 << (sid + 8);
 1516              		.loc 1 512 0
 1517 0062 1C23     		mov	r3, #28	@ tmp175,
 1518 0064 0831     		add	r1, r1, #8	@ D.6835,
 1519              	.LVL110:
 1520 0066 5843     		mul	r0, r3	@ tmp176, tmp175
 1521              	.LVL111:
 1522 0068 1B3B     		sub	r3, r3, #27	@ tmp181,
 1523 006a 8B40     		lsl	r3, r3, r1	@ D.6835, D.6835, D.6835
 1524 006c 2018     		add	r0, r4, r0	@ tmp177, tmp183, tmp176
 1525 006e 1A43     		orr	r2, r3	@ D.6838, D.6835
 1526 0070 8261     		str	r2, [r0, #24]	@ D.6838, MEM[(struct i2c_interface *)&i2c][_4].flags
 513:../../lpc11cx4-library/lpc_chip_11cxx_lib/src/i2c_11xx.c **** }
 1527              		.loc 1 513 0
 1528              		@ sp needed	@
 1529 0072 70BD     		pop	{r4, r5, r6, pc}
 1530              	.L198:
 1531              		.align	2
 1532              	.L197:
 1533 0074 00000000 		.word	.LANCHOR1
 1534 0078 00000000 		.word	.LANCHOR0
 1535 007c FEFFFF3F 		.word	1073741822
 1536              		.cfi_endproc
 1537              	.LFE226:
 1538              		.size	Chip_I2C_SlaveSetup, .-Chip_I2C_SlaveSetup
 1539              		.section	.text.Chip_I2C_SlaveStateHandler,"ax",%progbits
 1540              		.align	1
ARM GAS  /tmp/ccAFBUIw.s 			page 45


 1541              		.global	Chip_I2C_SlaveStateHandler
 1542              		.code	16
 1543              		.thumb_func
 1544              		.type	Chip_I2C_SlaveStateHandler, %function
 1545              	Chip_I2C_SlaveStateHandler:
 1546              	.LFB227:
 514:../../lpc11cx4-library/lpc_chip_11cxx_lib/src/i2c_11xx.c **** 
 515:../../lpc11cx4-library/lpc_chip_11cxx_lib/src/i2c_11xx.c **** /* I2C Slave event handler */
 516:../../lpc11cx4-library/lpc_chip_11cxx_lib/src/i2c_11xx.c **** void Chip_I2C_SlaveStateHandler(I2C_ID_T id)
 517:../../lpc11cx4-library/lpc_chip_11cxx_lib/src/i2c_11xx.c **** {
 1547              		.loc 1 517 0
 1548              		.cfi_startproc
 1549              	.LVL112:
 1550 0000 F8B5     		push	{r3, r4, r5, r6, r7, lr}	@
 1551              		.cfi_def_cfa_offset 24
 1552              		.cfi_offset 3, -24
 1553              		.cfi_offset 4, -20
 1554              		.cfi_offset 5, -16
 1555              		.cfi_offset 6, -12
 1556              		.cfi_offset 7, -8
 1557              		.cfi_offset 14, -4
 518:../../lpc11cx4-library/lpc_chip_11cxx_lib/src/i2c_11xx.c **** 	int ret;
 519:../../lpc11cx4-library/lpc_chip_11cxx_lib/src/i2c_11xx.c **** 	struct i2c_interface *iic = &i2c[id];
 520:../../lpc11cx4-library/lpc_chip_11cxx_lib/src/i2c_11xx.c **** 
 521:../../lpc11cx4-library/lpc_chip_11cxx_lib/src/i2c_11xx.c **** 	/* Get the currently addressed slave */
 522:../../lpc11cx4-library/lpc_chip_11cxx_lib/src/i2c_11xx.c **** 	if (!iic->sXfer) {
 1558              		.loc 1 522 0
 1559 0002 1C23     		mov	r3, #28	@ tmp132,
 1560 0004 4343     		mul	r3, r0	@ tmp133, id
 1561 0006 194C     		ldr	r4, .L206	@ tmp131,
 517:../../lpc11cx4-library/lpc_chip_11cxx_lib/src/i2c_11xx.c **** 	int ret;
 1562              		.loc 1 517 0
 1563 0008 051C     		mov	r5, r0	@ id, id
 1564              		.loc 1 522 0
 1565 000a E618     		add	r6, r4, r3	@ tmp134, tmp131, tmp133
 1566 000c 371C     		mov	r7, r6	@ tmp135, tmp134
 1567 000e 7269     		ldr	r2, [r6, #20]	@ tmp205, MEM[(struct i2c_interface *)&i2c][_5].sXfer
 1568 0010 1037     		add	r7, r7, #16	@ tmp135,
 1569 0012 002A     		cmp	r2, #0	@ tmp205,
 1570 0014 0CD1     		bne	.L200	@,
 1571              	.LBB144:
 523:../../lpc11cx4-library/lpc_chip_11cxx_lib/src/i2c_11xx.c **** 		struct i2c_slave_interface *si2c;
 524:../../lpc11cx4-library/lpc_chip_11cxx_lib/src/i2c_11xx.c **** 
 525:../../lpc11cx4-library/lpc_chip_11cxx_lib/src/i2c_11xx.c **** 		I2C_SLAVE_ID sid = getSlaveIndex(iic->ip);
 1572              		.loc 1 525 0
 1573 0016 1859     		ldr	r0, [r3, r4]	@, MEM[(struct i2c_interface *)&i2c][_5].ip
 1574              	.LVL113:
 1575 0018 FFF7FEFF 		bl	getSlaveIndex	@
 1576              	.LVL114:
 526:../../lpc11cx4-library/lpc_chip_11cxx_lib/src/i2c_11xx.c **** 		si2c = &i2c_slave[id][sid];
 527:../../lpc11cx4-library/lpc_chip_11cxx_lib/src/i2c_11xx.c **** 		iic->sXfer = si2c->xfer;
 1577              		.loc 1 527 0
 1578 001c 0523     		mov	r3, #5	@ tmp148,
 1579 001e 6B43     		mul	r3, r5	@ tmp149, id
 1580 0020 134A     		ldr	r2, .L206+4	@ tmp147,
 1581 0022 1818     		add	r0, r3, r0	@ tmp150, tmp149, tmp140
 1582              	.LVL115:
ARM GAS  /tmp/ccAFBUIw.s 			page 46


 1583 0024 C000     		lsl	r0, r0, #3	@ tmp151, tmp150,
 1584 0026 8358     		ldr	r3, [r0, r2]	@ tmp206, MEM[(struct i2c_slave_interface *)&i2c_slave][_5][_11].xfer
 528:../../lpc11cx4-library/lpc_chip_11cxx_lib/src/i2c_11xx.c **** 		iic->sEvent = si2c->event;
 1585              		.loc 1 528 0
 1586 0028 1018     		add	r0, r2, r0	@ tmp163, tmp147, tmp151
 527:../../lpc11cx4-library/lpc_chip_11cxx_lib/src/i2c_11xx.c **** 		iic->sEvent = si2c->event;
 1587              		.loc 1 527 0
 1588 002a 7B60     		str	r3, [r7, #4]	@ tmp206, MEM[(struct i2c_interface *)&i2c][_5].sXfer
 1589              		.loc 1 528 0
 1590 002c 4368     		ldr	r3, [r0, #4]	@ tmp207, MEM[(struct i2c_slave_interface *)&i2c_slave][_5][_11].event
 1591 002e F360     		str	r3, [r6, #12]	@ tmp207, MEM[(struct i2c_interface *)&i2c][_5].sEvent
 1592              	.L200:
 1593              	.LBE144:
 529:../../lpc11cx4-library/lpc_chip_11cxx_lib/src/i2c_11xx.c **** 	}
 530:../../lpc11cx4-library/lpc_chip_11cxx_lib/src/i2c_11xx.c **** 
 531:../../lpc11cx4-library/lpc_chip_11cxx_lib/src/i2c_11xx.c **** 	iic->sXfer->slaveAddr |= iic->mXfer != 0;
 1594              		.loc 1 531 0
 1595 0030 1C21     		mov	r1, #28	@ tmp167,
 1596 0032 6943     		mul	r1, r5	@ tmp167, id
 1597 0034 6318     		add	r3, r4, r1	@ tmp168, tmp200, tmp167
 1598 0036 5E69     		ldr	r6, [r3, #20]	@ D.6847, MEM[(struct i2c_interface *)&i2c][_5].sXfer
 1599 0038 1F1C     		mov	r7, r3	@ tmp169, tmp168
 1600 003a 1B69     		ldr	r3, [r3, #16]	@ MEM[(struct i2c_interface *)&i2c][_5].mXfer, MEM[(struct i2c_interface *)&i2c]
 532:../../lpc11cx4-library/lpc_chip_11cxx_lib/src/i2c_11xx.c **** 	ret = handleSlaveXferState(iic->ip, iic->sXfer);
 1601              		.loc 1 532 0
 1602 003c 6058     		ldr	r0, [r4, r1]	@, MEM[(struct i2c_interface *)&i2c][_5].ip
 531:../../lpc11cx4-library/lpc_chip_11cxx_lib/src/i2c_11xx.c **** 	ret = handleSlaveXferState(iic->ip, iic->sXfer);
 1603              		.loc 1 531 0
 1604 003e 5A1E     		sub	r2, r3, #1	@ tmp178, MEM[(struct i2c_interface *)&i2c][_5].mXfer
 1605 0040 9341     		sbc	r3, r3, r2	@ tmp177, MEM[(struct i2c_interface *)&i2c][_5].mXfer, tmp178
 1606 0042 3278     		ldrb	r2, [r6]	@ *_16, *_16
 1607              		.loc 1 532 0
 1608 0044 311C     		mov	r1, r6	@, D.6847
 531:../../lpc11cx4-library/lpc_chip_11cxx_lib/src/i2c_11xx.c **** 	ret = handleSlaveXferState(iic->ip, iic->sXfer);
 1609              		.loc 1 531 0
 1610 0046 1343     		orr	r3, r2	@ tmp181, *_16
 1611 0048 3370     		strb	r3, [r6]	@ tmp181, _16->slaveAddr
 1612              		.loc 1 532 0
 1613 004a FFF7FEFF 		bl	handleSlaveXferState	@
 1614              	.LVL116:
 531:../../lpc11cx4-library/lpc_chip_11cxx_lib/src/i2c_11xx.c **** 	ret = handleSlaveXferState(iic->ip, iic->sXfer);
 1615              		.loc 1 531 0
 1616 004e 1037     		add	r7, r7, #16	@ tmp169,
 1617 0050 1C23     		mov	r3, #28	@ tmp201,
 533:../../lpc11cx4-library/lpc_chip_11cxx_lib/src/i2c_11xx.c **** 	if (ret) {
 1618              		.loc 1 533 0
 1619 0052 0028     		cmp	r0, #0	@ ret,
 1620 0054 09D0     		beq	.L199	@,
 534:../../lpc11cx4-library/lpc_chip_11cxx_lib/src/i2c_11xx.c **** 		if (iic->sXfer->status == I2C_STATUS_DONE) {
 1621              		.loc 1 534 0
 1622 0056 327D     		ldrb	r2, [r6, #20]	@ tmp186,
 1623 0058 002A     		cmp	r2, #0	@ tmp186,
 1624 005a 00D1     		bne	.L202	@,
 535:../../lpc11cx4-library/lpc_chip_11cxx_lib/src/i2c_11xx.c **** 			iic->sXfer = 0;
 1625              		.loc 1 535 0
 1626 005c 7A60     		str	r2, [r7, #4]	@ tmp186, MEM[(struct i2c_interface *)&i2c][_5].sXfer
 1627              	.L202:
ARM GAS  /tmp/ccAFBUIw.s 			page 47


 536:../../lpc11cx4-library/lpc_chip_11cxx_lib/src/i2c_11xx.c **** 		}
 537:../../lpc11cx4-library/lpc_chip_11cxx_lib/src/i2c_11xx.c **** 		iic->sEvent(id, (I2C_EVENT_T) ret);
 1628              		.loc 1 537 0
 1629 005e 6B43     		mul	r3, r5	@ tmp195, id
 1630 0060 E418     		add	r4, r4, r3	@ tmp196, tmp200, tmp195
 1631 0062 C1B2     		uxtb	r1, r0	@ ret, ret
 1632 0064 E368     		ldr	r3, [r4, #12]	@ MEM[(struct i2c_interface *)&i2c][_5].sEvent, MEM[(struct i2c_interface *)&i2c
 1633 0066 281C     		mov	r0, r5	@, id
 1634              	.LVL117:
 1635 0068 9847     		blx	r3	@ MEM[(struct i2c_interface *)&i2c][_5].sEvent
 1636              	.LVL118:
 1637              	.L199:
 538:../../lpc11cx4-library/lpc_chip_11cxx_lib/src/i2c_11xx.c **** 	}
 539:../../lpc11cx4-library/lpc_chip_11cxx_lib/src/i2c_11xx.c **** }
 1638              		.loc 1 539 0
 1639              		@ sp needed	@
 1640              	.LVL119:
 1641 006a F8BD     		pop	{r3, r4, r5, r6, r7, pc}
 1642              	.L207:
 1643              		.align	2
 1644              	.L206:
 1645 006c 00000000 		.word	.LANCHOR0
 1646 0070 00000000 		.word	.LANCHOR1
 1647              		.cfi_endproc
 1648              	.LFE227:
 1649              		.size	Chip_I2C_SlaveStateHandler, .-Chip_I2C_SlaveStateHandler
 1650              		.section	.text.Chip_I2C_Disable,"ax",%progbits
 1651              		.align	1
 1652              		.global	Chip_I2C_Disable
 1653              		.code	16
 1654              		.thumb_func
 1655              		.type	Chip_I2C_Disable, %function
 1656              	Chip_I2C_Disable:
 1657              	.LFB228:
 540:../../lpc11cx4-library/lpc_chip_11cxx_lib/src/i2c_11xx.c **** 
 541:../../lpc11cx4-library/lpc_chip_11cxx_lib/src/i2c_11xx.c **** /* Disable I2C device */
 542:../../lpc11cx4-library/lpc_chip_11cxx_lib/src/i2c_11xx.c **** void Chip_I2C_Disable(I2C_ID_T id)
 543:../../lpc11cx4-library/lpc_chip_11cxx_lib/src/i2c_11xx.c **** {
 1658              		.loc 1 543 0
 1659              		.cfi_startproc
 1660              	.LVL120:
 544:../../lpc11cx4-library/lpc_chip_11cxx_lib/src/i2c_11xx.c **** 	LPC_I2Cx(id)->CONCLR = I2C_I2CONCLR_I2ENC;
 1661              		.loc 1 544 0
 1662 0000 1C23     		mov	r3, #28	@ tmp114,
 1663 0002 4022     		mov	r2, #64	@ tmp116,
 1664 0004 5843     		mul	r0, r3	@ tmp115, tmp114
 1665              	.LVL121:
 1666 0006 024B     		ldr	r3, .L209	@ tmp113,
 545:../../lpc11cx4-library/lpc_chip_11cxx_lib/src/i2c_11xx.c **** }
 1667              		.loc 1 545 0
 1668              		@ sp needed	@
 544:../../lpc11cx4-library/lpc_chip_11cxx_lib/src/i2c_11xx.c **** 	LPC_I2Cx(id)->CONCLR = I2C_I2CONCLR_I2ENC;
 1669              		.loc 1 544 0
 1670 0008 C358     		ldr	r3, [r0, r3]	@ D.6860, i2c[_2].ip
 1671 000a 9A61     		str	r2, [r3, #24]	@ tmp116, _4->CONCLR
 1672              		.loc 1 545 0
 1673 000c 7047     		bx	lr
ARM GAS  /tmp/ccAFBUIw.s 			page 48


 1674              	.L210:
 1675 000e C046     		.align	2
 1676              	.L209:
 1677 0010 00000000 		.word	.LANCHOR0
 1678              		.cfi_endproc
 1679              	.LFE228:
 1680              		.size	Chip_I2C_Disable, .-Chip_I2C_Disable
 1681              		.section	.text.Chip_I2C_IsStateChanged,"ax",%progbits
 1682              		.align	1
 1683              		.global	Chip_I2C_IsStateChanged
 1684              		.code	16
 1685              		.thumb_func
 1686              		.type	Chip_I2C_IsStateChanged, %function
 1687              	Chip_I2C_IsStateChanged:
 1688              	.LFB229:
 546:../../lpc11cx4-library/lpc_chip_11cxx_lib/src/i2c_11xx.c **** 
 547:../../lpc11cx4-library/lpc_chip_11cxx_lib/src/i2c_11xx.c **** /* State change checking */
 548:../../lpc11cx4-library/lpc_chip_11cxx_lib/src/i2c_11xx.c **** int Chip_I2C_IsStateChanged(I2C_ID_T id)
 549:../../lpc11cx4-library/lpc_chip_11cxx_lib/src/i2c_11xx.c **** {
 1689              		.loc 1 549 0
 1690              		.cfi_startproc
 1691              	.LVL122:
 550:../../lpc11cx4-library/lpc_chip_11cxx_lib/src/i2c_11xx.c **** 	return (LPC_I2Cx(id)->CONSET & I2C_CON_SI) != 0;
 1692              		.loc 1 550 0
 1693 0000 1C23     		mov	r3, #28	@ tmp119,
 1694 0002 5843     		mul	r0, r3	@ tmp120, tmp119
 1695              	.LVL123:
 1696 0004 024B     		ldr	r3, .L212	@ tmp118,
 551:../../lpc11cx4-library/lpc_chip_11cxx_lib/src/i2c_11xx.c **** }
 1697              		.loc 1 551 0
 1698              		@ sp needed	@
 550:../../lpc11cx4-library/lpc_chip_11cxx_lib/src/i2c_11xx.c **** 	return (LPC_I2Cx(id)->CONSET & I2C_CON_SI) != 0;
 1699              		.loc 1 550 0
 1700 0006 C358     		ldr	r3, [r0, r3]	@ D.6865, i2c[_2].ip
 1701 0008 1868     		ldr	r0, [r3]	@ D.6866, _4->CONSET
 1702 000a 0007     		lsl	r0, r0, #28	@ tmp124, D.6866,
 1703 000c C00F     		lsr	r0, r0, #31	@ D.6867, tmp124,
 1704              		.loc 1 551 0
 1705 000e 7047     		bx	lr
 1706              	.L213:
 1707              		.align	2
 1708              	.L212:
 1709 0010 00000000 		.word	.LANCHOR0
 1710              		.cfi_endproc
 1711              	.LFE229:
 1712              		.size	Chip_I2C_IsStateChanged, .-Chip_I2C_IsStateChanged
 1713              		.section	.text.Chip_I2C_EventHandlerPolling,"ax",%progbits
 1714              		.align	1
 1715              		.global	Chip_I2C_EventHandlerPolling
 1716              		.code	16
 1717              		.thumb_func
 1718              		.type	Chip_I2C_EventHandlerPolling, %function
 1719              	Chip_I2C_EventHandlerPolling:
 1720              	.LFB213:
 345:../../lpc11cx4-library/lpc_chip_11cxx_lib/src/i2c_11xx.c **** 	struct i2c_interface *iic = &i2c[id];
 1721              		.loc 1 345 0
 1722              		.cfi_startproc
ARM GAS  /tmp/ccAFBUIw.s 			page 49


 1723              	.LVL124:
 1724 0000 38B5     		push	{r3, r4, r5, lr}	@
 1725              		.cfi_def_cfa_offset 16
 1726              		.cfi_offset 3, -16
 1727              		.cfi_offset 4, -12
 1728              		.cfi_offset 5, -8
 1729              		.cfi_offset 14, -4
 350:../../lpc11cx4-library/lpc_chip_11cxx_lib/src/i2c_11xx.c **** 		return;
 1730              		.loc 1 350 0
 1731 0002 0129     		cmp	r1, #1	@ event,
 1732 0004 11D1     		bne	.L214	@,
 354:../../lpc11cx4-library/lpc_chip_11cxx_lib/src/i2c_11xx.c **** 	/* Call the state change handler till xfer is done */
 1733              		.loc 1 354 0
 1734 0006 1C23     		mov	r3, #28	@ tmp117,
 1735 0008 041C     		mov	r4, r0	@ id, id
 1736 000a 4343     		mul	r3, r0	@ tmp118, id
 1737 000c 074A     		ldr	r2, .L221	@ tmp116,
 1738 000e D318     		add	r3, r2, r3	@ tmp119, tmp116, tmp118
 1739 0010 1D69     		ldr	r5, [r3, #16]	@ D.6872, MEM[(struct i2c_interface *)&i2c][_4].mXfer
 1740              	.LVL125:
 1741              	.L217:
 356:../../lpc11cx4-library/lpc_chip_11cxx_lib/src/i2c_11xx.c **** 		if (Chip_I2C_IsStateChanged(id)) {
 1742              		.loc 1 356 0
 1743 0012 2B7D     		ldrb	r3, [r5, #20]	@ MEM[(volatile I2C_STATUS_T *)_7 + 20B], MEM[(volatile I2C_STATUS_T *)_7 + 20B
 1744 0014 042B     		cmp	r3, #4	@ MEM[(volatile I2C_STATUS_T *)_7 + 20B],
 1745 0016 08D1     		bne	.L214	@,
 357:../../lpc11cx4-library/lpc_chip_11cxx_lib/src/i2c_11xx.c **** 			Chip_I2C_MasterStateHandler(id);
 1746              		.loc 1 357 0
 1747 0018 201C     		mov	r0, r4	@, id
 1748 001a FFF7FEFF 		bl	Chip_I2C_IsStateChanged	@
 1749              	.LVL126:
 1750 001e 0028     		cmp	r0, #0	@ D.6871,
 1751 0020 F7D0     		beq	.L217	@,
 358:../../lpc11cx4-library/lpc_chip_11cxx_lib/src/i2c_11xx.c **** 		}
 1752              		.loc 1 358 0
 1753 0022 201C     		mov	r0, r4	@, id
 1754 0024 FFF7FEFF 		bl	Chip_I2C_MasterStateHandler	@
 1755              	.LVL127:
 1756 0028 F3E7     		b	.L217	@
 1757              	.LVL128:
 1758              	.L214:
 361:../../lpc11cx4-library/lpc_chip_11cxx_lib/src/i2c_11xx.c **** 
 1759              		.loc 1 361 0
 1760              		@ sp needed	@
 1761 002a 38BD     		pop	{r3, r4, r5, pc}
 1762              	.L222:
 1763              		.align	2
 1764              	.L221:
 1765 002c 00000000 		.word	.LANCHOR0
 1766              		.cfi_endproc
 1767              	.LFE213:
 1768              		.size	Chip_I2C_EventHandlerPolling, .-Chip_I2C_EventHandlerPolling
 1769              		.section	.data.i2c,"aw",%progbits
 1770              		.align	2
 1771              		.set	.LANCHOR0,. + 0
 1772              		.type	i2c, %object
 1773              		.size	i2c, 28
ARM GAS  /tmp/ccAFBUIw.s 			page 50


 1774              	i2c:
 1775              	@ ip:
 1776 0000 00000040 		.word	1073741824
 1777              	@ clk:
 1778 0004 05       		.byte	5
 1779              	@ mEvent:
 1780 0005 000000   		.space	3
 1781 0008 00000000 		.word	Chip_I2C_EventHandler
 1782              	@ sEvent:
 1783 000c 00000000 		.word	0
 1784              	@ mXfer:
 1785 0010 00000000 		.word	0
 1786              	@ sXfer:
 1787 0014 00000000 		.word	0
 1788              	@ flags:
 1789 0018 00000000 		.word	0
 1790              		.section	.bss.i2c_slave,"aw",%nobits
 1791              		.align	2
 1792              		.set	.LANCHOR1,. + 0
 1793              		.type	i2c_slave, %object
 1794              		.size	i2c_slave, 40
 1795              	i2c_slave:
 1796 0000 00000000 		.space	40
 1796      00000000 
 1796      00000000 
 1796      00000000 
 1796      00000000 
 1797              		.text
 1798              	.Letext0:
 1799              		.file 3 "/usr/arm-none-eabi/include/machine/_default_types.h"
 1800              		.file 4 "/usr/arm-none-eabi/include/sys/_stdint.h"
 1801              		.file 5 "../../lpc11cx4-library/lpc_chip_11cxx_lib/inc/sysctl_11xx.h"
 1802              		.file 6 "../../lpc11cx4-library/lpc_chip_11cxx_lib/inc/i2c_11xx.h"
 1803              		.file 7 "../../lpc11cx4-library/lpc_chip_11cxx_lib/inc/chip.h"
 1804              		.section	.debug_info,"",%progbits
 1805              	.Ldebug_info0:
 1806 0000 CA130000 		.4byte	0x13ca
 1807 0004 0400     		.2byte	0x4
 1808 0006 00000000 		.4byte	.Ldebug_abbrev0
 1809 000a 04       		.byte	0x4
 1810 000b 01       		.uleb128 0x1
 1811 000c C81D0000 		.4byte	.LASF1225
 1812 0010 01       		.byte	0x1
 1813 0011 833B0000 		.4byte	.LASF1226
 1814 0015 0F410000 		.4byte	.LASF1227
 1815 0019 38010000 		.4byte	.Ldebug_ranges0+0x138
 1816 001d 00000000 		.4byte	0
 1817 0021 00000000 		.4byte	.Ldebug_line0
 1818 0025 00000000 		.4byte	.Ldebug_macro0
 1819 0029 02       		.uleb128 0x2
 1820 002a 01       		.byte	0x1
 1821 002b 06       		.byte	0x6
 1822 002c 3F1A0000 		.4byte	.LASF1024
 1823 0030 03       		.uleb128 0x3
 1824 0031 560F0000 		.4byte	.LASF1029
 1825 0035 03       		.byte	0x3
 1826 0036 1D       		.byte	0x1d
ARM GAS  /tmp/ccAFBUIw.s 			page 51


 1827 0037 3B000000 		.4byte	0x3b
 1828 003b 02       		.uleb128 0x2
 1829 003c 01       		.byte	0x1
 1830 003d 08       		.byte	0x8
 1831 003e 7E1D0000 		.4byte	.LASF1025
 1832 0042 02       		.uleb128 0x2
 1833 0043 02       		.byte	0x2
 1834 0044 05       		.byte	0x5
 1835 0045 A2660000 		.4byte	.LASF1026
 1836 0049 02       		.uleb128 0x2
 1837 004a 02       		.byte	0x2
 1838 004b 07       		.byte	0x7
 1839 004c B6740000 		.4byte	.LASF1027
 1840 0050 02       		.uleb128 0x2
 1841 0051 04       		.byte	0x4
 1842 0052 05       		.byte	0x5
 1843 0053 06130000 		.4byte	.LASF1028
 1844 0057 03       		.uleb128 0x3
 1845 0058 0F3F0000 		.4byte	.LASF1030
 1846 005c 03       		.byte	0x3
 1847 005d 41       		.byte	0x41
 1848 005e 62000000 		.4byte	0x62
 1849 0062 02       		.uleb128 0x2
 1850 0063 04       		.byte	0x4
 1851 0064 07       		.byte	0x7
 1852 0065 E3360000 		.4byte	.LASF1031
 1853 0069 02       		.uleb128 0x2
 1854 006a 08       		.byte	0x8
 1855 006b 05       		.byte	0x5
 1856 006c 713F0000 		.4byte	.LASF1032
 1857 0070 02       		.uleb128 0x2
 1858 0071 08       		.byte	0x8
 1859 0072 07       		.byte	0x7
 1860 0073 C4570000 		.4byte	.LASF1033
 1861 0077 04       		.uleb128 0x4
 1862 0078 04       		.byte	0x4
 1863 0079 05       		.byte	0x5
 1864 007a 696E7400 		.ascii	"int\000"
 1865 007e 02       		.uleb128 0x2
 1866 007f 04       		.byte	0x4
 1867 0080 07       		.byte	0x7
 1868 0081 67470000 		.4byte	.LASF1034
 1869 0085 03       		.uleb128 0x3
 1870 0086 881A0000 		.4byte	.LASF1035
 1871 008a 04       		.byte	0x4
 1872 008b 14       		.byte	0x14
 1873 008c 30000000 		.4byte	0x30
 1874 0090 03       		.uleb128 0x3
 1875 0091 C3700000 		.4byte	.LASF1036
 1876 0095 04       		.byte	0x4
 1877 0096 20       		.byte	0x20
 1878 0097 57000000 		.4byte	0x57
 1879 009b 02       		.uleb128 0x2
 1880 009c 01       		.byte	0x1
 1881 009d 08       		.byte	0x8
 1882 009e 78230000 		.4byte	.LASF371
 1883 00a2 02       		.uleb128 0x2
ARM GAS  /tmp/ccAFBUIw.s 			page 52


 1884 00a3 01       		.byte	0x1
 1885 00a4 02       		.byte	0x2
 1886 00a5 FA210000 		.4byte	.LASF1037
 1887 00a9 02       		.uleb128 0x2
 1888 00aa 04       		.byte	0x4
 1889 00ab 07       		.byte	0x7
 1890 00ac 90010000 		.4byte	.LASF1038
 1891 00b0 05       		.uleb128 0x5
 1892 00b1 90000000 		.4byte	0x90
 1893 00b5 C0000000 		.4byte	0xc0
 1894 00b9 06       		.uleb128 0x6
 1895 00ba A9000000 		.4byte	0xa9
 1896 00be 07       		.byte	0x7
 1897 00bf 00       		.byte	0
 1898 00c0 07       		.uleb128 0x7
 1899 00c1 C5000000 		.4byte	0xc5
 1900 00c5 08       		.uleb128 0x8
 1901 00c6 90000000 		.4byte	0x90
 1902 00ca 05       		.uleb128 0x5
 1903 00cb 90000000 		.4byte	0x90
 1904 00cf DA000000 		.4byte	0xda
 1905 00d3 06       		.uleb128 0x6
 1906 00d4 A9000000 		.4byte	0xa9
 1907 00d8 01       		.byte	0x1
 1908 00d9 00       		.byte	0
 1909 00da 05       		.uleb128 0x5
 1910 00db 90000000 		.4byte	0x90
 1911 00df EA000000 		.4byte	0xea
 1912 00e3 06       		.uleb128 0x6
 1913 00e4 A9000000 		.4byte	0xa9
 1914 00e8 03       		.byte	0x3
 1915 00e9 00       		.byte	0
 1916 00ea 05       		.uleb128 0x5
 1917 00eb 90000000 		.4byte	0x90
 1918 00ef FA000000 		.4byte	0xfa
 1919 00f3 06       		.uleb128 0x6
 1920 00f4 A9000000 		.4byte	0xa9
 1921 00f8 02       		.byte	0x2
 1922 00f9 00       		.byte	0
 1923 00fa 09       		.uleb128 0x9
 1924 00fb F803     		.2byte	0x3f8
 1925 00fd 05       		.byte	0x5
 1926 00fe 2F       		.byte	0x2f
 1927 00ff 0F040000 		.4byte	0x40f
 1928 0103 0A       		.uleb128 0xa
 1929 0104 DC2E0000 		.4byte	.LASF1039
 1930 0108 05       		.byte	0x5
 1931 0109 30       		.byte	0x30
 1932 010a C5000000 		.4byte	0xc5
 1933 010e 00       		.byte	0
 1934 010f 0A       		.uleb128 0xa
 1935 0110 675C0000 		.4byte	.LASF1040
 1936 0114 05       		.byte	0x5
 1937 0115 31       		.byte	0x31
 1938 0116 C5000000 		.4byte	0xc5
 1939 011a 04       		.byte	0x4
 1940 011b 0A       		.uleb128 0xa
ARM GAS  /tmp/ccAFBUIw.s 			page 53


 1941 011c 5B2E0000 		.4byte	.LASF1041
 1942 0120 05       		.byte	0x5
 1943 0121 32       		.byte	0x32
 1944 0122 C5000000 		.4byte	0xc5
 1945 0126 08       		.byte	0x8
 1946 0127 0A       		.uleb128 0xa
 1947 0128 AD6D0000 		.4byte	.LASF1042
 1948 012c 05       		.byte	0x5
 1949 012d 33       		.byte	0x33
 1950 012e C0000000 		.4byte	0xc0
 1951 0132 0C       		.byte	0xc
 1952 0133 0A       		.uleb128 0xa
 1953 0134 946D0000 		.4byte	.LASF1043
 1954 0138 05       		.byte	0x5
 1955 0139 34       		.byte	0x34
 1956 013a C5000000 		.4byte	0xc5
 1957 013e 10       		.byte	0x10
 1958 013f 0A       		.uleb128 0xa
 1959 0140 8C340000 		.4byte	.LASF1044
 1960 0144 05       		.byte	0x5
 1961 0145 35       		.byte	0x35
 1962 0146 C0000000 		.4byte	0xc0
 1963 014a 14       		.byte	0x14
 1964 014b 0A       		.uleb128 0xa
 1965 014c 741D0000 		.4byte	.LASF1045
 1966 0150 05       		.byte	0x5
 1967 0151 36       		.byte	0x36
 1968 0152 0F040000 		.4byte	0x40f
 1969 0156 18       		.byte	0x18
 1970 0157 0A       		.uleb128 0xa
 1971 0158 9F520000 		.4byte	.LASF1046
 1972 015c 05       		.byte	0x5
 1973 015d 37       		.byte	0x37
 1974 015e C5000000 		.4byte	0xc5
 1975 0162 20       		.byte	0x20
 1976 0163 0A       		.uleb128 0xa
 1977 0164 FE720000 		.4byte	.LASF1047
 1978 0168 05       		.byte	0x5
 1979 0169 38       		.byte	0x38
 1980 016a C5000000 		.4byte	0xc5
 1981 016e 24       		.byte	0x24
 1982 016f 0A       		.uleb128 0xa
 1983 0170 7A5B0000 		.4byte	.LASF1048
 1984 0174 05       		.byte	0x5
 1985 0175 39       		.byte	0x39
 1986 0176 C5000000 		.4byte	0xc5
 1987 017a 28       		.byte	0x28
 1988 017b 0A       		.uleb128 0xa
 1989 017c AB640000 		.4byte	.LASF1049
 1990 0180 05       		.byte	0x5
 1991 0181 3A       		.byte	0x3a
 1992 0182 C5000000 		.4byte	0xc5
 1993 0186 2C       		.byte	0x2c
 1994 0187 0A       		.uleb128 0xa
 1995 0188 2B420000 		.4byte	.LASF1050
 1996 018c 05       		.byte	0x5
 1997 018d 3B       		.byte	0x3b
ARM GAS  /tmp/ccAFBUIw.s 			page 54


 1998 018e C5000000 		.4byte	0xc5
 1999 0192 30       		.byte	0x30
 2000 0193 0A       		.uleb128 0xa
 2001 0194 AF220000 		.4byte	.LASF1051
 2002 0198 05       		.byte	0x5
 2003 0199 3C       		.byte	0x3c
 2004 019a 19040000 		.4byte	0x419
 2005 019e 34       		.byte	0x34
 2006 019f 0A       		.uleb128 0xa
 2007 01a0 92140000 		.4byte	.LASF1052
 2008 01a4 05       		.byte	0x5
 2009 01a5 3D       		.byte	0x3d
 2010 01a6 C5000000 		.4byte	0xc5
 2011 01aa 40       		.byte	0x40
 2012 01ab 0A       		.uleb128 0xa
 2013 01ac 8E470000 		.4byte	.LASF1053
 2014 01b0 05       		.byte	0x5
 2015 01b1 3E       		.byte	0x3e
 2016 01b2 C5000000 		.4byte	0xc5
 2017 01b6 44       		.byte	0x44
 2018 01b7 0A       		.uleb128 0xa
 2019 01b8 B31A0000 		.4byte	.LASF1054
 2020 01bc 05       		.byte	0x5
 2021 01bd 3F       		.byte	0x3f
 2022 01be C5000000 		.4byte	0xc5
 2023 01c2 48       		.byte	0x48
 2024 01c3 0A       		.uleb128 0xa
 2025 01c4 AF4D0000 		.4byte	.LASF1055
 2026 01c8 05       		.byte	0x5
 2027 01c9 40       		.byte	0x40
 2028 01ca C5000000 		.4byte	0xc5
 2029 01ce 4C       		.byte	0x4c
 2030 01cf 0A       		.uleb128 0xa
 2031 01d0 8C1D0000 		.4byte	.LASF1056
 2032 01d4 05       		.byte	0x5
 2033 01d5 41       		.byte	0x41
 2034 01d6 23040000 		.4byte	0x423
 2035 01da 50       		.byte	0x50
 2036 01db 0A       		.uleb128 0xa
 2037 01dc 9C1E0000 		.4byte	.LASF1057
 2038 01e0 05       		.byte	0x5
 2039 01e1 42       		.byte	0x42
 2040 01e2 C5000000 		.4byte	0xc5
 2041 01e6 70       		.byte	0x70
 2042 01e7 0A       		.uleb128 0xa
 2043 01e8 DF500000 		.4byte	.LASF1058
 2044 01ec 05       		.byte	0x5
 2045 01ed 43       		.byte	0x43
 2046 01ee C5000000 		.4byte	0xc5
 2047 01f2 74       		.byte	0x74
 2048 01f3 0A       		.uleb128 0xa
 2049 01f4 604A0000 		.4byte	.LASF1059
 2050 01f8 05       		.byte	0x5
 2051 01f9 44       		.byte	0x44
 2052 01fa C5000000 		.4byte	0xc5
 2053 01fe 78       		.byte	0x78
 2054 01ff 0A       		.uleb128 0xa
ARM GAS  /tmp/ccAFBUIw.s 			page 55


 2055 0200 961D0000 		.4byte	.LASF1060
 2056 0204 05       		.byte	0x5
 2057 0205 45       		.byte	0x45
 2058 0206 C0000000 		.4byte	0xc0
 2059 020a 7C       		.byte	0x7c
 2060 020b 0A       		.uleb128 0xa
 2061 020c 525B0000 		.4byte	.LASF1061
 2062 0210 05       		.byte	0x5
 2063 0211 46       		.byte	0x46
 2064 0212 C5000000 		.4byte	0xc5
 2065 0216 80       		.byte	0x80
 2066 0217 0A       		.uleb128 0xa
 2067 0218 A01D0000 		.4byte	.LASF1062
 2068 021c 05       		.byte	0x5
 2069 021d 47       		.byte	0x47
 2070 021e 2D040000 		.4byte	0x42d
 2071 0222 84       		.byte	0x84
 2072 0223 0A       		.uleb128 0xa
 2073 0224 586E0000 		.4byte	.LASF1063
 2074 0228 05       		.byte	0x5
 2075 0229 48       		.byte	0x48
 2076 022a C5000000 		.4byte	0xc5
 2077 022e 94       		.byte	0x94
 2078 022f 0A       		.uleb128 0xa
 2079 0230 0E240000 		.4byte	.LASF1064
 2080 0234 05       		.byte	0x5
 2081 0235 49       		.byte	0x49
 2082 0236 C5000000 		.4byte	0xc5
 2083 023a 98       		.byte	0x98
 2084 023b 0A       		.uleb128 0xa
 2085 023c 3C740000 		.4byte	.LASF1065
 2086 0240 05       		.byte	0x5
 2087 0241 4A       		.byte	0x4a
 2088 0242 C5000000 		.4byte	0xc5
 2089 0246 9C       		.byte	0x9c
 2090 0247 0A       		.uleb128 0xa
 2091 0248 AA1D0000 		.4byte	.LASF1066
 2092 024c 05       		.byte	0x5
 2093 024d 4B       		.byte	0x4b
 2094 024e 37040000 		.4byte	0x437
 2095 0252 A0       		.byte	0xa0
 2096 0253 0A       		.uleb128 0xa
 2097 0254 3E780000 		.4byte	.LASF1067
 2098 0258 05       		.byte	0x5
 2099 0259 4C       		.byte	0x4c
 2100 025a C5000000 		.4byte	0xc5
 2101 025e C0       		.byte	0xc0
 2102 025f 0A       		.uleb128 0xa
 2103 0260 EB300000 		.4byte	.LASF1068
 2104 0264 05       		.byte	0x5
 2105 0265 4D       		.byte	0x4d
 2106 0266 C5000000 		.4byte	0xc5
 2107 026a C4       		.byte	0xc4
 2108 026b 0A       		.uleb128 0xa
 2109 026c D3090000 		.4byte	.LASF1069
 2110 0270 05       		.byte	0x5
 2111 0271 4E       		.byte	0x4e
ARM GAS  /tmp/ccAFBUIw.s 			page 56


 2112 0272 C5000000 		.4byte	0xc5
 2113 0276 C8       		.byte	0xc8
 2114 0277 0A       		.uleb128 0xa
 2115 0278 B41D0000 		.4byte	.LASF1070
 2116 027c 05       		.byte	0x5
 2117 027d 4F       		.byte	0x4f
 2118 027e C0000000 		.4byte	0xc0
 2119 0282 CC       		.byte	0xcc
 2120 0283 0A       		.uleb128 0xa
 2121 0284 C55E0000 		.4byte	.LASF1071
 2122 0288 05       		.byte	0x5
 2123 0289 50       		.byte	0x50
 2124 028a C5000000 		.4byte	0xc5
 2125 028e D0       		.byte	0xd0
 2126 028f 0A       		.uleb128 0xa
 2127 0290 AF140000 		.4byte	.LASF1072
 2128 0294 05       		.byte	0x5
 2129 0295 51       		.byte	0x51
 2130 0296 C5000000 		.4byte	0xc5
 2131 029a D4       		.byte	0xd4
 2132 029b 0A       		.uleb128 0xa
 2133 029c DC6C0000 		.4byte	.LASF1073
 2134 02a0 05       		.byte	0x5
 2135 02a1 52       		.byte	0x52
 2136 02a2 C5000000 		.4byte	0xc5
 2137 02a6 D8       		.byte	0xd8
 2138 02a7 0A       		.uleb128 0xa
 2139 02a8 BE1D0000 		.4byte	.LASF1074
 2140 02ac 05       		.byte	0x5
 2141 02ad 53       		.byte	0x53
 2142 02ae C0000000 		.4byte	0xc0
 2143 02b2 DC       		.byte	0xdc
 2144 02b3 0A       		.uleb128 0xa
 2145 02b4 2C660000 		.4byte	.LASF1075
 2146 02b8 05       		.byte	0x5
 2147 02b9 54       		.byte	0x54
 2148 02ba C5000000 		.4byte	0xc5
 2149 02be E0       		.byte	0xe0
 2150 02bf 0A       		.uleb128 0xa
 2151 02c0 631B0000 		.4byte	.LASF1076
 2152 02c4 05       		.byte	0x5
 2153 02c5 55       		.byte	0x55
 2154 02c6 C5000000 		.4byte	0xc5
 2155 02ca E4       		.byte	0xe4
 2156 02cb 0A       		.uleb128 0xa
 2157 02cc 57730000 		.4byte	.LASF1077
 2158 02d0 05       		.byte	0x5
 2159 02d1 56       		.byte	0x56
 2160 02d2 C5000000 		.4byte	0xc5
 2161 02d6 E8       		.byte	0xe8
 2162 02d7 0A       		.uleb128 0xa
 2163 02d8 B6280000 		.4byte	.LASF1078
 2164 02dc 05       		.byte	0x5
 2165 02dd 57       		.byte	0x57
 2166 02de 51040000 		.4byte	0x451
 2167 02e2 EC       		.byte	0xec
 2168 02e3 0B       		.uleb128 0xb
ARM GAS  /tmp/ccAFBUIw.s 			page 57


 2169 02e4 02140000 		.4byte	.LASF1079
 2170 02e8 05       		.byte	0x5
 2171 02e9 58       		.byte	0x58
 2172 02ea 5B040000 		.4byte	0x45b
 2173 02ee 0001     		.2byte	0x100
 2174 02f0 0B       		.uleb128 0xb
 2175 02f1 FF590000 		.4byte	.LASF1080
 2176 02f5 05       		.byte	0x5
 2177 02f6 59       		.byte	0x59
 2178 02f7 75040000 		.4byte	0x475
 2179 02fb 0801     		.2byte	0x108
 2180 02fd 0B       		.uleb128 0xb
 2181 02fe 11060000 		.4byte	.LASF1081
 2182 0302 05       		.byte	0x5
 2183 0303 5A       		.byte	0x5a
 2184 0304 C5000000 		.4byte	0xc5
 2185 0308 5001     		.2byte	0x150
 2186 030a 0B       		.uleb128 0xb
 2187 030b CC770000 		.4byte	.LASF1082
 2188 030f 05       		.byte	0x5
 2189 0310 5B       		.byte	0x5b
 2190 0311 C5000000 		.4byte	0xc5
 2191 0315 5401     		.2byte	0x154
 2192 0317 0B       		.uleb128 0xb
 2193 0318 0A5A0000 		.4byte	.LASF1083
 2194 031c 05       		.byte	0x5
 2195 031d 5C       		.byte	0x5c
 2196 031e 8F040000 		.4byte	0x48f
 2197 0322 5801     		.2byte	0x158
 2198 0324 0B       		.uleb128 0xb
 2199 0325 0F3B0000 		.4byte	.LASF1084
 2200 0329 05       		.byte	0x5
 2201 032a 5D       		.byte	0x5d
 2202 032b C5000000 		.4byte	0xc5
 2203 032f 7001     		.2byte	0x170
 2204 0331 0B       		.uleb128 0xb
 2205 0332 3A6B0000 		.4byte	.LASF1085
 2206 0336 05       		.byte	0x5
 2207 0337 5E       		.byte	0x5e
 2208 0338 C5000000 		.4byte	0xc5
 2209 033c 7401     		.2byte	0x174
 2210 033e 0B       		.uleb128 0xb
 2211 033f DD100000 		.4byte	.LASF1086
 2212 0343 05       		.byte	0x5
 2213 0344 5F       		.byte	0x5f
 2214 0345 99040000 		.4byte	0x499
 2215 0349 7801     		.2byte	0x178
 2216 034b 0B       		.uleb128 0xb
 2217 034c B4310000 		.4byte	.LASF1087
 2218 0350 05       		.byte	0x5
 2219 0351 60       		.byte	0x60
 2220 0352 C5000000 		.4byte	0xc5
 2221 0356 9801     		.2byte	0x198
 2222 0358 0B       		.uleb128 0xb
 2223 0359 5E5C0000 		.4byte	.LASF1088
 2224 035d 05       		.byte	0x5
 2225 035e 61       		.byte	0x61
ARM GAS  /tmp/ccAFBUIw.s 			page 58


 2226 035f C0000000 		.4byte	0xc0
 2227 0363 9C01     		.2byte	0x19c
 2228 0365 0B       		.uleb128 0xb
 2229 0366 155A0000 		.4byte	.LASF1089
 2230 036a 05       		.byte	0x5
 2231 036b 62       		.byte	0x62
 2232 036c AE040000 		.4byte	0x4ae
 2233 0370 A001     		.2byte	0x1a0
 2234 0372 0B       		.uleb128 0xb
 2235 0373 664C0000 		.4byte	.LASF1090
 2236 0377 05       		.byte	0x5
 2237 0378 63       		.byte	0x63
 2238 0379 C5000000 		.4byte	0xc5
 2239 037d 0002     		.2byte	0x200
 2240 037f 0B       		.uleb128 0xb
 2241 0380 CE680000 		.4byte	.LASF1091
 2242 0384 05       		.byte	0x5
 2243 0385 64       		.byte	0x64
 2244 0386 C5000000 		.4byte	0xc5
 2245 038a 0402     		.2byte	0x204
 2246 038c 0B       		.uleb128 0xb
 2247 038d 9F6D0000 		.4byte	.LASF1092
 2248 0391 05       		.byte	0x5
 2249 0392 65       		.byte	0x65
 2250 0393 C5000000 		.4byte	0xc5
 2251 0397 0802     		.2byte	0x208
 2252 0399 0B       		.uleb128 0xb
 2253 039a 15710000 		.4byte	.LASF1093
 2254 039e 05       		.byte	0x5
 2255 039f 66       		.byte	0x66
 2256 03a0 C5000000 		.4byte	0xc5
 2257 03a4 0C02     		.2byte	0x20c
 2258 03a6 0B       		.uleb128 0xb
 2259 03a7 205A0000 		.4byte	.LASF1094
 2260 03ab 05       		.byte	0x5
 2261 03ac 67       		.byte	0x67
 2262 03ad C0000000 		.4byte	0xc0
 2263 03b1 1002     		.2byte	0x210
 2264 03b3 0B       		.uleb128 0xb
 2265 03b4 D8680000 		.4byte	.LASF1095
 2266 03b8 05       		.byte	0x5
 2267 03b9 68       		.byte	0x68
 2268 03ba C5000000 		.4byte	0xc5
 2269 03be 1402     		.2byte	0x214
 2270 03c0 0B       		.uleb128 0xb
 2271 03c1 2B5A0000 		.4byte	.LASF1096
 2272 03c5 05       		.byte	0x5
 2273 03c6 69       		.byte	0x69
 2274 03c7 B8040000 		.4byte	0x4b8
 2275 03cb 1802     		.2byte	0x218
 2276 03cd 0B       		.uleb128 0xb
 2277 03ce 0E4B0000 		.4byte	.LASF1097
 2278 03d2 05       		.byte	0x5
 2279 03d3 6A       		.byte	0x6a
 2280 03d4 C5000000 		.4byte	0xc5
 2281 03d8 3002     		.2byte	0x230
 2282 03da 0B       		.uleb128 0xb
ARM GAS  /tmp/ccAFBUIw.s 			page 59


 2283 03db 3C5C0000 		.4byte	.LASF1098
 2284 03df 05       		.byte	0x5
 2285 03e0 6B       		.byte	0x6b
 2286 03e1 C5000000 		.4byte	0xc5
 2287 03e5 3402     		.2byte	0x234
 2288 03e7 0B       		.uleb128 0xb
 2289 03e8 E2180000 		.4byte	.LASF1099
 2290 03ec 05       		.byte	0x5
 2291 03ed 6C       		.byte	0x6c
 2292 03ee C5000000 		.4byte	0xc5
 2293 03f2 3802     		.2byte	0x238
 2294 03f4 0B       		.uleb128 0xb
 2295 03f5 365A0000 		.4byte	.LASF1100
 2296 03f9 05       		.byte	0x5
 2297 03fa 6D       		.byte	0x6d
 2298 03fb D2040000 		.4byte	0x4d2
 2299 03ff 3C02     		.2byte	0x23c
 2300 0401 0B       		.uleb128 0xb
 2301 0402 B1650000 		.4byte	.LASF1101
 2302 0406 05       		.byte	0x5
 2303 0407 6E       		.byte	0x6e
 2304 0408 C0000000 		.4byte	0xc0
 2305 040c F403     		.2byte	0x3f4
 2306 040e 00       		.byte	0
 2307 040f 07       		.uleb128 0x7
 2308 0410 14040000 		.4byte	0x414
 2309 0414 08       		.uleb128 0x8
 2310 0415 CA000000 		.4byte	0xca
 2311 0419 07       		.uleb128 0x7
 2312 041a 1E040000 		.4byte	0x41e
 2313 041e 08       		.uleb128 0x8
 2314 041f EA000000 		.4byte	0xea
 2315 0423 07       		.uleb128 0x7
 2316 0424 28040000 		.4byte	0x428
 2317 0428 08       		.uleb128 0x8
 2318 0429 B0000000 		.4byte	0xb0
 2319 042d 07       		.uleb128 0x7
 2320 042e 32040000 		.4byte	0x432
 2321 0432 08       		.uleb128 0x8
 2322 0433 DA000000 		.4byte	0xda
 2323 0437 07       		.uleb128 0x7
 2324 0438 3C040000 		.4byte	0x43c
 2325 043c 08       		.uleb128 0x8
 2326 043d B0000000 		.4byte	0xb0
 2327 0441 05       		.uleb128 0x5
 2328 0442 90000000 		.4byte	0x90
 2329 0446 51040000 		.4byte	0x451
 2330 044a 06       		.uleb128 0x6
 2331 044b A9000000 		.4byte	0xa9
 2332 044f 04       		.byte	0x4
 2333 0450 00       		.byte	0
 2334 0451 07       		.uleb128 0x7
 2335 0452 56040000 		.4byte	0x456
 2336 0456 08       		.uleb128 0x8
 2337 0457 41040000 		.4byte	0x441
 2338 045b 07       		.uleb128 0x7
 2339 045c 60040000 		.4byte	0x460
ARM GAS  /tmp/ccAFBUIw.s 			page 60


 2340 0460 08       		.uleb128 0x8
 2341 0461 CA000000 		.4byte	0xca
 2342 0465 05       		.uleb128 0x5
 2343 0466 90000000 		.4byte	0x90
 2344 046a 75040000 		.4byte	0x475
 2345 046e 06       		.uleb128 0x6
 2346 046f A9000000 		.4byte	0xa9
 2347 0473 11       		.byte	0x11
 2348 0474 00       		.byte	0
 2349 0475 07       		.uleb128 0x7
 2350 0476 7A040000 		.4byte	0x47a
 2351 047a 08       		.uleb128 0x8
 2352 047b 65040000 		.4byte	0x465
 2353 047f 05       		.uleb128 0x5
 2354 0480 90000000 		.4byte	0x90
 2355 0484 8F040000 		.4byte	0x48f
 2356 0488 06       		.uleb128 0x6
 2357 0489 A9000000 		.4byte	0xa9
 2358 048d 05       		.byte	0x5
 2359 048e 00       		.byte	0
 2360 048f 07       		.uleb128 0x7
 2361 0490 94040000 		.4byte	0x494
 2362 0494 08       		.uleb128 0x8
 2363 0495 7F040000 		.4byte	0x47f
 2364 0499 08       		.uleb128 0x8
 2365 049a B0000000 		.4byte	0xb0
 2366 049e 05       		.uleb128 0x5
 2367 049f 90000000 		.4byte	0x90
 2368 04a3 AE040000 		.4byte	0x4ae
 2369 04a7 06       		.uleb128 0x6
 2370 04a8 A9000000 		.4byte	0xa9
 2371 04ac 17       		.byte	0x17
 2372 04ad 00       		.byte	0
 2373 04ae 07       		.uleb128 0x7
 2374 04af B3040000 		.4byte	0x4b3
 2375 04b3 08       		.uleb128 0x8
 2376 04b4 9E040000 		.4byte	0x49e
 2377 04b8 07       		.uleb128 0x7
 2378 04b9 BD040000 		.4byte	0x4bd
 2379 04bd 08       		.uleb128 0x8
 2380 04be 7F040000 		.4byte	0x47f
 2381 04c2 05       		.uleb128 0x5
 2382 04c3 90000000 		.4byte	0x90
 2383 04c7 D2040000 		.4byte	0x4d2
 2384 04cb 06       		.uleb128 0x6
 2385 04cc A9000000 		.4byte	0xa9
 2386 04d0 6D       		.byte	0x6d
 2387 04d1 00       		.byte	0
 2388 04d2 07       		.uleb128 0x7
 2389 04d3 D7040000 		.4byte	0x4d7
 2390 04d7 08       		.uleb128 0x8
 2391 04d8 C2040000 		.4byte	0x4c2
 2392 04dc 03       		.uleb128 0x3
 2393 04dd AB0F0000 		.4byte	.LASF1102
 2394 04e1 05       		.byte	0x5
 2395 04e2 6F       		.byte	0x6f
 2396 04e3 FA000000 		.4byte	0xfa
ARM GAS  /tmp/ccAFBUIw.s 			page 61


 2397 04e7 0C       		.uleb128 0xc
 2398 04e8 FD3A0000 		.4byte	.LASF1156
 2399 04ec 01       		.byte	0x1
 2400 04ed 02       		.byte	0x2
 2401 04ee E4       		.byte	0xe4
 2402 04ef 66050000 		.4byte	0x566
 2403 04f3 0D       		.uleb128 0xd
 2404 04f4 AB000000 		.4byte	.LASF1103
 2405 04f8 00       		.sleb128 0
 2406 04f9 0D       		.uleb128 0xd
 2407 04fa E83C0000 		.4byte	.LASF1104
 2408 04fe 01       		.sleb128 1
 2409 04ff 0D       		.uleb128 0xd
 2410 0500 6D010000 		.4byte	.LASF1105
 2411 0504 02       		.sleb128 2
 2412 0505 0D       		.uleb128 0xd
 2413 0506 50540000 		.4byte	.LASF1106
 2414 050a 03       		.sleb128 3
 2415 050b 0D       		.uleb128 0xd
 2416 050c 7F330000 		.4byte	.LASF1107
 2417 0510 04       		.sleb128 4
 2418 0511 0D       		.uleb128 0xd
 2419 0512 DF580000 		.4byte	.LASF1108
 2420 0516 05       		.sleb128 5
 2421 0517 0D       		.uleb128 0xd
 2422 0518 D2330000 		.4byte	.LASF1109
 2423 051c 06       		.sleb128 6
 2424 051d 0D       		.uleb128 0xd
 2425 051e AF700000 		.4byte	.LASF1110
 2426 0522 07       		.sleb128 7
 2427 0523 0D       		.uleb128 0xd
 2428 0524 E6060000 		.4byte	.LASF1111
 2429 0528 08       		.sleb128 8
 2430 0529 0D       		.uleb128 0xd
 2431 052a B00D0000 		.4byte	.LASF1112
 2432 052e 09       		.sleb128 9
 2433 052f 0D       		.uleb128 0xd
 2434 0530 C40D0000 		.4byte	.LASF1113
 2435 0534 0A       		.sleb128 10
 2436 0535 0D       		.uleb128 0xd
 2437 0536 5D240000 		.4byte	.LASF1114
 2438 053a 0B       		.sleb128 11
 2439 053b 0D       		.uleb128 0xd
 2440 053c CC580000 		.4byte	.LASF1115
 2441 0540 0C       		.sleb128 12
 2442 0541 0D       		.uleb128 0xd
 2443 0542 2A560000 		.4byte	.LASF1116
 2444 0546 0D       		.sleb128 13
 2445 0547 0D       		.uleb128 0xd
 2446 0548 3B580000 		.4byte	.LASF1117
 2447 054c 0E       		.sleb128 14
 2448 054d 0D       		.uleb128 0xd
 2449 054e 150F0000 		.4byte	.LASF1118
 2450 0552 0F       		.sleb128 15
 2451 0553 0D       		.uleb128 0xd
 2452 0554 323B0000 		.4byte	.LASF1119
 2453 0558 10       		.sleb128 16
ARM GAS  /tmp/ccAFBUIw.s 			page 62


 2454 0559 0D       		.uleb128 0xd
 2455 055a 3B7B0000 		.4byte	.LASF1120
 2456 055e 11       		.sleb128 17
 2457 055f 0D       		.uleb128 0xd
 2458 0560 6F240000 		.4byte	.LASF1121
 2459 0564 12       		.sleb128 18
 2460 0565 00       		.byte	0
 2461 0566 0E       		.uleb128 0xe
 2462 0567 E7050000 		.4byte	.LASF1122
 2463 056b 02       		.byte	0x2
 2464 056c 2001     		.2byte	0x120
 2465 056e E7040000 		.4byte	0x4e7
 2466 0572 07       		.uleb128 0x7
 2467 0573 90000000 		.4byte	0x90
 2468 0577 0F       		.uleb128 0xf
 2469 0578 40       		.byte	0x40
 2470 0579 06       		.byte	0x6
 2471 057a 31       		.byte	0x31
 2472 057b 1C060000 		.4byte	0x61c
 2473 057f 0A       		.uleb128 0xa
 2474 0580 FF280000 		.4byte	.LASF1123
 2475 0584 06       		.byte	0x6
 2476 0585 32       		.byte	0x32
 2477 0586 C5000000 		.4byte	0xc5
 2478 058a 00       		.byte	0
 2479 058b 0A       		.uleb128 0xa
 2480 058c AA0B0000 		.4byte	.LASF1124
 2481 0590 06       		.byte	0x6
 2482 0591 33       		.byte	0x33
 2483 0592 C0000000 		.4byte	0xc0
 2484 0596 04       		.byte	0x4
 2485 0597 10       		.uleb128 0x10
 2486 0598 44415400 		.ascii	"DAT\000"
 2487 059c 06       		.byte	0x6
 2488 059d 34       		.byte	0x34
 2489 059e C5000000 		.4byte	0xc5
 2490 05a2 08       		.byte	0x8
 2491 05a3 0A       		.uleb128 0xa
 2492 05a4 76290000 		.4byte	.LASF1125
 2493 05a8 06       		.byte	0x6
 2494 05a9 35       		.byte	0x35
 2495 05aa C5000000 		.4byte	0xc5
 2496 05ae 0C       		.byte	0xc
 2497 05af 0A       		.uleb128 0xa
 2498 05b0 DA010000 		.4byte	.LASF1126
 2499 05b4 06       		.byte	0x6
 2500 05b5 36       		.byte	0x36
 2501 05b6 C5000000 		.4byte	0xc5
 2502 05ba 10       		.byte	0x10
 2503 05bb 0A       		.uleb128 0xa
 2504 05bc DF010000 		.4byte	.LASF1127
 2505 05c0 06       		.byte	0x6
 2506 05c1 37       		.byte	0x37
 2507 05c2 C5000000 		.4byte	0xc5
 2508 05c6 14       		.byte	0x14
 2509 05c7 0A       		.uleb128 0xa
 2510 05c8 84710000 		.4byte	.LASF1128
ARM GAS  /tmp/ccAFBUIw.s 			page 63


 2511 05cc 06       		.byte	0x6
 2512 05cd 38       		.byte	0x38
 2513 05ce C5000000 		.4byte	0xc5
 2514 05d2 18       		.byte	0x18
 2515 05d3 0A       		.uleb128 0xa
 2516 05d4 65360000 		.4byte	.LASF1129
 2517 05d8 06       		.byte	0x6
 2518 05d9 39       		.byte	0x39
 2519 05da C5000000 		.4byte	0xc5
 2520 05de 1C       		.byte	0x1c
 2521 05df 0A       		.uleb128 0xa
 2522 05e0 7B290000 		.4byte	.LASF1130
 2523 05e4 06       		.byte	0x6
 2524 05e5 3A       		.byte	0x3a
 2525 05e6 C5000000 		.4byte	0xc5
 2526 05ea 20       		.byte	0x20
 2527 05eb 0A       		.uleb128 0xa
 2528 05ec 80290000 		.4byte	.LASF1131
 2529 05f0 06       		.byte	0x6
 2530 05f1 3B       		.byte	0x3b
 2531 05f2 C5000000 		.4byte	0xc5
 2532 05f6 24       		.byte	0x24
 2533 05f7 0A       		.uleb128 0xa
 2534 05f8 85290000 		.4byte	.LASF1132
 2535 05fc 06       		.byte	0x6
 2536 05fd 3C       		.byte	0x3c
 2537 05fe C5000000 		.4byte	0xc5
 2538 0602 28       		.byte	0x28
 2539 0603 0A       		.uleb128 0xa
 2540 0604 A3710000 		.4byte	.LASF1133
 2541 0608 06       		.byte	0x6
 2542 0609 3D       		.byte	0x3d
 2543 060a C0000000 		.4byte	0xc0
 2544 060e 2C       		.byte	0x2c
 2545 060f 0A       		.uleb128 0xa
 2546 0610 83660000 		.4byte	.LASF1134
 2547 0614 06       		.byte	0x6
 2548 0615 3E       		.byte	0x3e
 2549 0616 1C060000 		.4byte	0x61c
 2550 061a 30       		.byte	0x30
 2551 061b 00       		.byte	0
 2552 061c 08       		.uleb128 0x8
 2553 061d DA000000 		.4byte	0xda
 2554 0621 03       		.uleb128 0x3
 2555 0622 465C0000 		.4byte	.LASF1135
 2556 0626 06       		.byte	0x6
 2557 0627 3F       		.byte	0x3f
 2558 0628 77050000 		.4byte	0x577
 2559 062c 11       		.uleb128 0x11
 2560 062d 01       		.byte	0x1
 2561 062e 06       		.byte	0x6
 2562 062f F1       		.byte	0xf1
 2563 0630 59060000 		.4byte	0x659
 2564 0634 0D       		.uleb128 0xd
 2565 0635 4A090000 		.4byte	.LASF1136
 2566 0639 00       		.sleb128 0
 2567 063a 0D       		.uleb128 0xd
ARM GAS  /tmp/ccAFBUIw.s 			page 64


 2568 063b 74100000 		.4byte	.LASF1137
 2569 063f 01       		.sleb128 1
 2570 0640 0D       		.uleb128 0xd
 2571 0641 80100000 		.4byte	.LASF1138
 2572 0645 02       		.sleb128 2
 2573 0646 0D       		.uleb128 0xd
 2574 0647 8C100000 		.4byte	.LASF1139
 2575 064b 03       		.sleb128 3
 2576 064c 0D       		.uleb128 0xd
 2577 064d 98100000 		.4byte	.LASF1140
 2578 0651 04       		.sleb128 4
 2579 0652 0D       		.uleb128 0xd
 2580 0653 6E0D0000 		.4byte	.LASF1141
 2581 0657 05       		.sleb128 5
 2582 0658 00       		.byte	0
 2583 0659 03       		.uleb128 0x3
 2584 065a C2380000 		.4byte	.LASF1142
 2585 065e 06       		.byte	0x6
 2586 065f F8       		.byte	0xf8
 2587 0660 2C060000 		.4byte	0x62c
 2588 0664 11       		.uleb128 0x11
 2589 0665 01       		.byte	0x1
 2590 0666 06       		.byte	0x6
 2591 0667 FD       		.byte	0xfd
 2592 0668 8B060000 		.4byte	0x68b
 2593 066c 0D       		.uleb128 0xd
 2594 066d 55380000 		.4byte	.LASF1143
 2595 0671 00       		.sleb128 0
 2596 0672 0D       		.uleb128 0xd
 2597 0673 2A6C0000 		.4byte	.LASF1144
 2598 0677 01       		.sleb128 1
 2599 0678 0D       		.uleb128 0xd
 2600 0679 D2210000 		.4byte	.LASF1145
 2601 067d 02       		.sleb128 2
 2602 067e 0D       		.uleb128 0xd
 2603 067f 15370000 		.4byte	.LASF1146
 2604 0683 03       		.sleb128 3
 2605 0684 0D       		.uleb128 0xd
 2606 0685 14650000 		.4byte	.LASF1147
 2607 0689 04       		.sleb128 4
 2608 068a 00       		.byte	0
 2609 068b 0E       		.uleb128 0xe
 2610 068c 81440000 		.4byte	.LASF1148
 2611 0690 06       		.byte	0x6
 2612 0691 0301     		.2byte	0x103
 2613 0693 64060000 		.4byte	0x664
 2614 0697 12       		.uleb128 0x12
 2615 0698 18       		.byte	0x18
 2616 0699 06       		.byte	0x6
 2617 069a 0801     		.2byte	0x108
 2618 069c EF060000 		.4byte	0x6ef
 2619 06a0 13       		.uleb128 0x13
 2620 06a1 4C620000 		.4byte	.LASF1149
 2621 06a5 06       		.byte	0x6
 2622 06a6 0901     		.2byte	0x109
 2623 06a8 85000000 		.4byte	0x85
 2624 06ac 00       		.byte	0
ARM GAS  /tmp/ccAFBUIw.s 			page 65


 2625 06ad 13       		.uleb128 0x13
 2626 06ae CB3B0000 		.4byte	.LASF1150
 2627 06b2 06       		.byte	0x6
 2628 06b3 0A01     		.2byte	0x10a
 2629 06b5 EF060000 		.4byte	0x6ef
 2630 06b9 04       		.byte	0x4
 2631 06ba 13       		.uleb128 0x13
 2632 06bb B5760000 		.4byte	.LASF1151
 2633 06bf 06       		.byte	0x6
 2634 06c0 0B01     		.2byte	0x10b
 2635 06c2 77000000 		.4byte	0x77
 2636 06c6 08       		.byte	0x8
 2637 06c7 13       		.uleb128 0x13
 2638 06c8 87590000 		.4byte	.LASF1152
 2639 06cc 06       		.byte	0x6
 2640 06cd 0D01     		.2byte	0x10d
 2641 06cf FA060000 		.4byte	0x6fa
 2642 06d3 0C       		.byte	0xc
 2643 06d4 13       		.uleb128 0x13
 2644 06d5 61750000 		.4byte	.LASF1153
 2645 06d9 06       		.byte	0x6
 2646 06da 0E01     		.2byte	0x10e
 2647 06dc 77000000 		.4byte	0x77
 2648 06e0 10       		.byte	0x10
 2649 06e1 13       		.uleb128 0x13
 2650 06e2 BC370000 		.4byte	.LASF1154
 2651 06e6 06       		.byte	0x6
 2652 06e7 1001     		.2byte	0x110
 2653 06e9 8B060000 		.4byte	0x68b
 2654 06ed 14       		.byte	0x14
 2655 06ee 00       		.byte	0
 2656 06ef 14       		.uleb128 0x14
 2657 06f0 04       		.byte	0x4
 2658 06f1 F5060000 		.4byte	0x6f5
 2659 06f5 07       		.uleb128 0x7
 2660 06f6 85000000 		.4byte	0x85
 2661 06fa 14       		.uleb128 0x14
 2662 06fb 04       		.byte	0x4
 2663 06fc 85000000 		.4byte	0x85
 2664 0700 0E       		.uleb128 0xe
 2665 0701 27370000 		.4byte	.LASF1155
 2666 0705 06       		.byte	0x6
 2667 0706 1101     		.2byte	0x111
 2668 0708 97060000 		.4byte	0x697
 2669 070c 15       		.uleb128 0x15
 2670 070d 085C0000 		.4byte	.LASF1157
 2671 0711 01       		.byte	0x1
 2672 0712 06       		.byte	0x6
 2673 0713 1B01     		.2byte	0x11b
 2674 0715 26070000 		.4byte	0x726
 2675 0719 0D       		.uleb128 0xd
 2676 071a 25560000 		.4byte	.LASF1158
 2677 071e 00       		.sleb128 0
 2678 071f 0D       		.uleb128 0xd
 2679 0720 CE4A0000 		.4byte	.LASF1159
 2680 0724 01       		.sleb128 1
 2681 0725 00       		.byte	0
ARM GAS  /tmp/ccAFBUIw.s 			page 66


 2682 0726 0E       		.uleb128 0xe
 2683 0727 3D1D0000 		.4byte	.LASF1160
 2684 072b 06       		.byte	0x6
 2685 072c 1E01     		.2byte	0x11e
 2686 072e 0C070000 		.4byte	0x70c
 2687 0732 16       		.uleb128 0x16
 2688 0733 01       		.byte	0x1
 2689 0734 06       		.byte	0x6
 2690 0735 2301     		.2byte	0x123
 2691 0737 60070000 		.4byte	0x760
 2692 073b 0D       		.uleb128 0xd
 2693 073c 88430000 		.4byte	.LASF1161
 2694 0740 01       		.sleb128 1
 2695 0741 0D       		.uleb128 0xd
 2696 0742 BE430000 		.4byte	.LASF1162
 2697 0746 02       		.sleb128 2
 2698 0747 0D       		.uleb128 0xd
 2699 0748 334B0000 		.4byte	.LASF1163
 2700 074c 03       		.sleb128 3
 2701 074d 0D       		.uleb128 0xd
 2702 074e DC140000 		.4byte	.LASF1164
 2703 0752 04       		.sleb128 4
 2704 0753 0D       		.uleb128 0xd
 2705 0754 252F0000 		.4byte	.LASF1165
 2706 0758 05       		.sleb128 5
 2707 0759 0D       		.uleb128 0xd
 2708 075a 32370000 		.4byte	.LASF1166
 2709 075e 06       		.sleb128 6
 2710 075f 00       		.byte	0
 2711 0760 0E       		.uleb128 0xe
 2712 0761 5F4E0000 		.4byte	.LASF1167
 2713 0765 06       		.byte	0x6
 2714 0766 2A01     		.2byte	0x12a
 2715 0768 32070000 		.4byte	0x732
 2716 076c 0E       		.uleb128 0xe
 2717 076d E8620000 		.4byte	.LASF1168
 2718 0771 06       		.byte	0x6
 2719 0772 2F01     		.2byte	0x12f
 2720 0774 78070000 		.4byte	0x778
 2721 0778 14       		.uleb128 0x14
 2722 0779 04       		.byte	0x4
 2723 077a 7E070000 		.4byte	0x77e
 2724 077e 17       		.uleb128 0x17
 2725 077f 8E070000 		.4byte	0x78e
 2726 0783 18       		.uleb128 0x18
 2727 0784 26070000 		.4byte	0x726
 2728 0788 18       		.uleb128 0x18
 2729 0789 60070000 		.4byte	0x760
 2730 078d 00       		.byte	0
 2731 078e 19       		.uleb128 0x19
 2732 078f 514E0000 		.4byte	.LASF1174
 2733 0793 1C       		.byte	0x1c
 2734 0794 01       		.byte	0x1
 2735 0795 2E       		.byte	0x2e
 2736 0796 EE070000 		.4byte	0x7ee
 2737 079a 10       		.uleb128 0x10
 2738 079b 697000   		.ascii	"ip\000"
ARM GAS  /tmp/ccAFBUIw.s 			page 67


 2739 079e 01       		.byte	0x1
 2740 079f 2F       		.byte	0x2f
 2741 07a0 EE070000 		.4byte	0x7ee
 2742 07a4 00       		.byte	0
 2743 07a5 10       		.uleb128 0x10
 2744 07a6 636C6B00 		.ascii	"clk\000"
 2745 07aa 01       		.byte	0x1
 2746 07ab 30       		.byte	0x30
 2747 07ac 66050000 		.4byte	0x566
 2748 07b0 04       		.byte	0x4
 2749 07b1 0A       		.uleb128 0xa
 2750 07b2 605B0000 		.4byte	.LASF1169
 2751 07b6 01       		.byte	0x1
 2752 07b7 31       		.byte	0x31
 2753 07b8 6C070000 		.4byte	0x76c
 2754 07bc 08       		.byte	0x8
 2755 07bd 0A       		.uleb128 0xa
 2756 07be 94080000 		.4byte	.LASF1170
 2757 07c2 01       		.byte	0x1
 2758 07c3 32       		.byte	0x32
 2759 07c4 6C070000 		.4byte	0x76c
 2760 07c8 0C       		.byte	0xc
 2761 07c9 0A       		.uleb128 0xa
 2762 07ca D5070000 		.4byte	.LASF1171
 2763 07ce 01       		.byte	0x1
 2764 07cf 33       		.byte	0x33
 2765 07d0 F4070000 		.4byte	0x7f4
 2766 07d4 10       		.byte	0x10
 2767 07d5 0A       		.uleb128 0xa
 2768 07d6 B63A0000 		.4byte	.LASF1172
 2769 07da 01       		.byte	0x1
 2770 07db 34       		.byte	0x34
 2771 07dc F4070000 		.4byte	0x7f4
 2772 07e0 14       		.byte	0x14
 2773 07e1 0A       		.uleb128 0xa
 2774 07e2 CF280000 		.4byte	.LASF1173
 2775 07e6 01       		.byte	0x1
 2776 07e7 35       		.byte	0x35
 2777 07e8 90000000 		.4byte	0x90
 2778 07ec 18       		.byte	0x18
 2779 07ed 00       		.byte	0
 2780 07ee 14       		.uleb128 0x14
 2781 07ef 04       		.byte	0x4
 2782 07f0 21060000 		.4byte	0x621
 2783 07f4 14       		.uleb128 0x14
 2784 07f5 04       		.byte	0x4
 2785 07f6 00070000 		.4byte	0x700
 2786 07fa 19       		.uleb128 0x19
 2787 07fb 8E440000 		.4byte	.LASF1175
 2788 07ff 08       		.byte	0x8
 2789 0800 01       		.byte	0x1
 2790 0801 39       		.byte	0x39
 2791 0802 1F080000 		.4byte	0x81f
 2792 0806 0A       		.uleb128 0xa
 2793 0807 03740000 		.4byte	.LASF1176
 2794 080b 01       		.byte	0x1
 2795 080c 3A       		.byte	0x3a
ARM GAS  /tmp/ccAFBUIw.s 			page 68


 2796 080d F4070000 		.4byte	0x7f4
 2797 0811 00       		.byte	0
 2798 0812 0A       		.uleb128 0xa
 2799 0813 0E460000 		.4byte	.LASF1177
 2800 0817 01       		.byte	0x1
 2801 0818 3B       		.byte	0x3b
 2802 0819 6C070000 		.4byte	0x76c
 2803 081d 04       		.byte	0x4
 2804 081e 00       		.byte	0
 2805 081f 1A       		.uleb128 0x1a
 2806 0820 55020000 		.4byte	.LASF1178
 2807 0824 01       		.byte	0x1
 2808 0825 78       		.byte	0x78
 2809 0826 77000000 		.4byte	0x77
 2810 082a 03       		.byte	0x3
 2811 082b 3B080000 		.4byte	0x83b
 2812 082f 1B       		.uleb128 0x1b
 2813 0830 34770000 		.4byte	.LASF1180
 2814 0834 01       		.byte	0x1
 2815 0835 78       		.byte	0x78
 2816 0836 EE070000 		.4byte	0x7ee
 2817 083a 00       		.byte	0
 2818 083b 1A       		.uleb128 0x1a
 2819 083c 651C0000 		.4byte	.LASF1179
 2820 0840 01       		.byte	0x1
 2821 0841 92       		.byte	0x92
 2822 0842 77000000 		.4byte	0x77
 2823 0846 01       		.byte	0x1
 2824 0847 6D080000 		.4byte	0x86d
 2825 084b 1B       		.uleb128 0x1b
 2826 084c C6790000 		.4byte	.LASF1181
 2827 0850 01       		.byte	0x1
 2828 0851 92       		.byte	0x92
 2829 0852 85000000 		.4byte	0x85
 2830 0856 1B       		.uleb128 0x1b
 2831 0857 CC790000 		.4byte	.LASF1182
 2832 085b 01       		.byte	0x1
 2833 085c 92       		.byte	0x92
 2834 085d 85000000 		.4byte	0x85
 2835 0861 1B       		.uleb128 0x1b
 2836 0862 6C430000 		.4byte	.LASF1183
 2837 0866 01       		.byte	0x1
 2838 0867 92       		.byte	0x92
 2839 0868 85000000 		.4byte	0x85
 2840 086c 00       		.byte	0
 2841 086d 1C       		.uleb128 0x1c
 2842 086e 86750000 		.4byte	.LASF1228
 2843 0872 01       		.byte	0x1
 2844 0873 F5       		.byte	0xf5
 2845 0874 59060000 		.4byte	0x659
 2846 0878 01       		.byte	0x1
 2847 0879 89080000 		.4byte	0x889
 2848 087d 1B       		.uleb128 0x1b
 2849 087e 34770000 		.4byte	.LASF1180
 2850 0882 01       		.byte	0x1
 2851 0883 F5       		.byte	0xf5
 2852 0884 EE070000 		.4byte	0x7ee
ARM GAS  /tmp/ccAFBUIw.s 			page 69


 2853 0888 00       		.byte	0
 2854 0889 1D       		.uleb128 0x1d
 2855 088a CD430000 		.4byte	.LASF1229
 2856 088e 01       		.byte	0x1
 2857 088f 58       		.byte	0x58
 2858 0890 90000000 		.4byte	0x90
 2859 0894 03       		.byte	0x3
 2860 0895 1E       		.uleb128 0x1e
 2861 0896 49030000 		.4byte	.LASF1185
 2862 089a 01       		.byte	0x1
 2863 089b 5E       		.byte	0x5e
 2864 089c 03       		.byte	0x3
 2865 089d AD080000 		.4byte	0x8ad
 2866 08a1 1B       		.uleb128 0x1b
 2867 08a2 34770000 		.4byte	.LASF1180
 2868 08a6 01       		.byte	0x1
 2869 08a7 5E       		.byte	0x5e
 2870 08a8 EE070000 		.4byte	0x7ee
 2871 08ac 00       		.byte	0
 2872 08ad 1A       		.uleb128 0x1a
 2873 08ae AE5E0000 		.4byte	.LASF1184
 2874 08b2 01       		.byte	0x1
 2875 08b3 72       		.byte	0x72
 2876 08b4 77000000 		.4byte	0x77
 2877 08b8 03       		.byte	0x3
 2878 08b9 C9080000 		.4byte	0x8c9
 2879 08bd 1B       		.uleb128 0x1b
 2880 08be 34770000 		.4byte	.LASF1180
 2881 08c2 01       		.byte	0x1
 2882 08c3 72       		.byte	0x72
 2883 08c4 EE070000 		.4byte	0x7ee
 2884 08c8 00       		.byte	0
 2885 08c9 1E       		.uleb128 0x1e
 2886 08ca 0E320000 		.4byte	.LASF1186
 2887 08ce 01       		.byte	0x1
 2888 08cf 68       		.byte	0x68
 2889 08d0 03       		.byte	0x3
 2890 08d1 E1080000 		.4byte	0x8e1
 2891 08d5 1B       		.uleb128 0x1b
 2892 08d6 34770000 		.4byte	.LASF1180
 2893 08da 01       		.byte	0x1
 2894 08db 68       		.byte	0x68
 2895 08dc EE070000 		.4byte	0x7ee
 2896 08e0 00       		.byte	0
 2897 08e1 1A       		.uleb128 0x1a
 2898 08e2 26010000 		.4byte	.LASF1187
 2899 08e6 01       		.byte	0x1
 2900 08e7 7E       		.byte	0x7e
 2901 08e8 77000000 		.4byte	0x77
 2902 08ec 03       		.byte	0x3
 2903 08ed FD080000 		.4byte	0x8fd
 2904 08f1 1B       		.uleb128 0x1b
 2905 08f2 34770000 		.4byte	.LASF1180
 2906 08f6 01       		.byte	0x1
 2907 08f7 7E       		.byte	0x7e
 2908 08f8 EE070000 		.4byte	0x7ee
 2909 08fc 00       		.byte	0
ARM GAS  /tmp/ccAFBUIw.s 			page 70


 2910 08fd 1F       		.uleb128 0x1f
 2911 08fe 760B0000 		.4byte	.LASF1195
 2912 0902 01       		.byte	0x1
 2913 0903 4801     		.2byte	0x148
 2914 0905 00000000 		.4byte	.LFB212
 2915 0909 1C000000 		.4byte	.LFE212-.LFB212
 2916 090d 01       		.uleb128 0x1
 2917 090e 9C       		.byte	0x9c
 2918 090f 51090000 		.4byte	0x951
 2919 0913 20       		.uleb128 0x20
 2920 0914 696400   		.ascii	"id\000"
 2921 0917 01       		.byte	0x1
 2922 0918 4801     		.2byte	0x148
 2923 091a 26070000 		.4byte	0x726
 2924 091e 00000000 		.4byte	.LLST0
 2925 0922 21       		.uleb128 0x21
 2926 0923 0E460000 		.4byte	.LASF1177
 2927 0927 01       		.byte	0x1
 2928 0928 4801     		.2byte	0x148
 2929 092a 60070000 		.4byte	0x760
 2930 092e 01       		.uleb128 0x1
 2931 092f 51       		.byte	0x51
 2932 0930 22       		.uleb128 0x22
 2933 0931 69696300 		.ascii	"iic\000"
 2934 0935 01       		.byte	0x1
 2935 0936 4A01     		.2byte	0x14a
 2936 0938 51090000 		.4byte	0x951
 2937 093c 21000000 		.4byte	.LLST1
 2938 0940 23       		.uleb128 0x23
 2939 0941 180C0000 		.4byte	.LASF1188
 2940 0945 01       		.byte	0x1
 2941 0946 4B01     		.2byte	0x14b
 2942 0948 57090000 		.4byte	0x957
 2943 094c 5A000000 		.4byte	.LLST2
 2944 0950 00       		.byte	0
 2945 0951 14       		.uleb128 0x14
 2946 0952 04       		.byte	0x4
 2947 0953 8E070000 		.4byte	0x78e
 2948 0957 14       		.uleb128 0x14
 2949 0958 04       		.byte	0x4
 2950 0959 5D090000 		.4byte	0x95d
 2951 095d 08       		.uleb128 0x8
 2952 095e 8B060000 		.4byte	0x68b
 2953 0962 24       		.uleb128 0x24
 2954 0963 205D0000 		.4byte	.LASF1191
 2955 0967 01       		.byte	0x1
 2956 0968 B0       		.byte	0xb0
 2957 0969 77000000 		.4byte	0x77
 2958 096d 00000000 		.4byte	.LFB209
 2959 0971 D4000000 		.4byte	.LFE209-.LFB209
 2960 0975 01       		.uleb128 0x1
 2961 0976 9C       		.byte	0x9c
 2962 0977 C0090000 		.4byte	0x9c0
 2963 097b 25       		.uleb128 0x25
 2964 097c 34770000 		.4byte	.LASF1180
 2965 0980 01       		.byte	0x1
 2966 0981 B0       		.byte	0xb0
ARM GAS  /tmp/ccAFBUIw.s 			page 71


 2967 0982 EE070000 		.4byte	0x7ee
 2968 0986 6F000000 		.4byte	.LLST3
 2969 098a 26       		.uleb128 0x26
 2970 098b 03740000 		.4byte	.LASF1176
 2971 098f 01       		.byte	0x1
 2972 0990 B0       		.byte	0xb0
 2973 0991 F4070000 		.4byte	0x7f4
 2974 0995 01       		.uleb128 0x1
 2975 0996 51       		.byte	0x51
 2976 0997 27       		.uleb128 0x27
 2977 0998 BC4E0000 		.4byte	.LASF1189
 2978 099c 01       		.byte	0x1
 2979 099d B2       		.byte	0xb2
 2980 099e 90000000 		.4byte	0x90
 2981 09a2 90000000 		.4byte	.LLST4
 2982 09a6 28       		.uleb128 0x28
 2983 09a7 1F080000 		.4byte	0x81f
 2984 09ab 00000000 		.4byte	.LBB36
 2985 09af 00000000 		.4byte	.Ldebug_ranges0+0
 2986 09b3 01       		.byte	0x1
 2987 09b4 B4       		.byte	0xb4
 2988 09b5 29       		.uleb128 0x29
 2989 09b6 2F080000 		.4byte	0x82f
 2990 09ba 6F000000 		.4byte	.LLST3
 2991 09be 00       		.byte	0
 2992 09bf 00       		.byte	0
 2993 09c0 1A       		.uleb128 0x1a
 2994 09c1 84770000 		.4byte	.LASF1190
 2995 09c5 01       		.byte	0x1
 2996 09c6 99       		.byte	0x99
 2997 09c7 59060000 		.4byte	0x659
 2998 09cb 01       		.byte	0x1
 2999 09cc E7090000 		.4byte	0x9e7
 3000 09d0 1B       		.uleb128 0x1b
 3001 09d1 34770000 		.4byte	.LASF1180
 3002 09d5 01       		.byte	0x1
 3003 09d6 99       		.byte	0x99
 3004 09d7 EE070000 		.4byte	0x7ee
 3005 09db 1B       		.uleb128 0x1b
 3006 09dc 4C620000 		.4byte	.LASF1149
 3007 09e0 01       		.byte	0x1
 3008 09e1 99       		.byte	0x99
 3009 09e2 85000000 		.4byte	0x85
 3010 09e6 00       		.byte	0
 3011 09e7 2A       		.uleb128 0x2a
 3012 09e8 6D080000 		.4byte	0x86d
 3013 09ec 00000000 		.4byte	.LFB210
 3014 09f0 8C000000 		.4byte	.LFE210-.LFB210
 3015 09f4 01       		.uleb128 0x1
 3016 09f5 9C       		.byte	0x9c
 3017 09f6 0E0B0000 		.4byte	0xb0e
 3018 09fa 29       		.uleb128 0x29
 3019 09fb 7D080000 		.4byte	0x87d
 3020 09ff F1000000 		.4byte	.LLST6
 3021 0a03 2B       		.uleb128 0x2b
 3022 0a04 1F080000 		.4byte	0x81f
 3023 0a08 00000000 		.4byte	.LBB56
ARM GAS  /tmp/ccAFBUIw.s 			page 72


 3024 0a0c 18000000 		.4byte	.Ldebug_ranges0+0x18
 3025 0a10 01       		.byte	0x1
 3026 0a11 F7       		.byte	0xf7
 3027 0a12 200A0000 		.4byte	0xa20
 3028 0a16 29       		.uleb128 0x29
 3029 0a17 2F080000 		.4byte	0x82f
 3030 0a1b F1000000 		.4byte	.LLST6
 3031 0a1f 00       		.byte	0
 3032 0a20 2C       		.uleb128 0x2c
 3033 0a21 24000000 		.4byte	.LBB60
 3034 0a25 62000000 		.4byte	.LBE60-.LBB60
 3035 0a29 29       		.uleb128 0x29
 3036 0a2a 7D080000 		.4byte	0x87d
 3037 0a2e 2B010000 		.4byte	.LLST8
 3038 0a32 2D       		.uleb128 0x2d
 3039 0a33 C0090000 		.4byte	0x9c0
 3040 0a37 28000000 		.4byte	.LBB62
 3041 0a3b 5E000000 		.4byte	.LBE62-.LBB62
 3042 0a3f 01       		.byte	0x1
 3043 0a40 FE       		.byte	0xfe
 3044 0a41 29       		.uleb128 0x29
 3045 0a42 DB090000 		.4byte	0x9db
 3046 0a46 4C010000 		.4byte	.LLST9
 3047 0a4a 29       		.uleb128 0x29
 3048 0a4b D0090000 		.4byte	0x9d0
 3049 0a4f 5F010000 		.4byte	.LLST10
 3050 0a53 2B       		.uleb128 0x2b
 3051 0a54 3B080000 		.4byte	0x83b
 3052 0a58 30000000 		.4byte	.LBB64
 3053 0a5c 30000000 		.4byte	.Ldebug_ranges0+0x30
 3054 0a60 01       		.byte	0x1
 3055 0a61 9E       		.byte	0x9e
 3056 0a62 820A0000 		.4byte	0xa82
 3057 0a66 29       		.uleb128 0x29
 3058 0a67 61080000 		.4byte	0x861
 3059 0a6b 80010000 		.4byte	.LLST11
 3060 0a6f 29       		.uleb128 0x29
 3061 0a70 56080000 		.4byte	0x856
 3062 0a74 97010000 		.4byte	.LLST12
 3063 0a78 29       		.uleb128 0x29
 3064 0a79 4B080000 		.4byte	0x84b
 3065 0a7d AA010000 		.4byte	.LLST13
 3066 0a81 00       		.byte	0
 3067 0a82 2E       		.uleb128 0x2e
 3068 0a83 3B080000 		.4byte	0x83b
 3069 0a87 4A000000 		.4byte	.LBB68
 3070 0a8b 0A000000 		.4byte	.LBE68-.LBB68
 3071 0a8f 01       		.byte	0x1
 3072 0a90 A1       		.byte	0xa1
 3073 0a91 B10A0000 		.4byte	0xab1
 3074 0a95 29       		.uleb128 0x29
 3075 0a96 61080000 		.4byte	0x861
 3076 0a9a BD010000 		.4byte	.LLST14
 3077 0a9e 29       		.uleb128 0x29
 3078 0a9f 56080000 		.4byte	0x856
 3079 0aa3 D4010000 		.4byte	.LLST15
 3080 0aa7 29       		.uleb128 0x29
ARM GAS  /tmp/ccAFBUIw.s 			page 73


 3081 0aa8 4B080000 		.4byte	0x84b
 3082 0aac E7010000 		.4byte	.LLST16
 3083 0ab0 00       		.byte	0
 3084 0ab1 2E       		.uleb128 0x2e
 3085 0ab2 3B080000 		.4byte	0x83b
 3086 0ab6 5E000000 		.4byte	.LBB70
 3087 0aba 0A000000 		.4byte	.LBE70-.LBB70
 3088 0abe 01       		.byte	0x1
 3089 0abf A4       		.byte	0xa4
 3090 0ac0 E00A0000 		.4byte	0xae0
 3091 0ac4 29       		.uleb128 0x29
 3092 0ac5 61080000 		.4byte	0x861
 3093 0ac9 FA010000 		.4byte	.LLST17
 3094 0acd 29       		.uleb128 0x29
 3095 0ace 56080000 		.4byte	0x856
 3096 0ad2 11020000 		.4byte	.LLST18
 3097 0ad6 29       		.uleb128 0x29
 3098 0ad7 4B080000 		.4byte	0x84b
 3099 0adb 24020000 		.4byte	.LLST19
 3100 0adf 00       		.byte	0
 3101 0ae0 2D       		.uleb128 0x2d
 3102 0ae1 3B080000 		.4byte	0x83b
 3103 0ae5 72000000 		.4byte	.LBB72
 3104 0ae9 0C000000 		.4byte	.LBE72-.LBB72
 3105 0aed 01       		.byte	0x1
 3106 0aee A7       		.byte	0xa7
 3107 0aef 29       		.uleb128 0x29
 3108 0af0 61080000 		.4byte	0x861
 3109 0af4 37020000 		.4byte	.LLST20
 3110 0af8 29       		.uleb128 0x29
 3111 0af9 56080000 		.4byte	0x856
 3112 0afd 4E020000 		.4byte	.LLST21
 3113 0b01 29       		.uleb128 0x29
 3114 0b02 4B080000 		.4byte	0x84b
 3115 0b06 61020000 		.4byte	.LLST22
 3116 0b0a 00       		.byte	0
 3117 0b0b 00       		.byte	0
 3118 0b0c 00       		.byte	0
 3119 0b0d 00       		.byte	0
 3120 0b0e 2F       		.uleb128 0x2f
 3121 0b0f 08740000 		.4byte	.LASF1192
 3122 0b13 01       		.byte	0x1
 3123 0b14 0601     		.2byte	0x106
 3124 0b16 77000000 		.4byte	0x77
 3125 0b1a 00000000 		.4byte	.LFB211
 3126 0b1e BE000000 		.4byte	.LFE211-.LFB211
 3127 0b22 01       		.uleb128 0x1
 3128 0b23 9C       		.byte	0x9c
 3129 0b24 830B0000 		.4byte	0xb83
 3130 0b28 30       		.uleb128 0x30
 3131 0b29 34770000 		.4byte	.LASF1180
 3132 0b2d 01       		.byte	0x1
 3133 0b2e 0601     		.2byte	0x106
 3134 0b30 EE070000 		.4byte	0x7ee
 3135 0b34 74020000 		.4byte	.LLST23
 3136 0b38 30       		.uleb128 0x30
 3137 0b39 03740000 		.4byte	.LASF1176
ARM GAS  /tmp/ccAFBUIw.s 			page 74


 3138 0b3d 01       		.byte	0x1
 3139 0b3e 0601     		.2byte	0x106
 3140 0b40 F4070000 		.4byte	0x7f4
 3141 0b44 95020000 		.4byte	.LLST24
 3142 0b48 23       		.uleb128 0x23
 3143 0b49 BC4E0000 		.4byte	.LASF1189
 3144 0b4d 01       		.byte	0x1
 3145 0b4e 0801     		.2byte	0x108
 3146 0b50 90000000 		.4byte	0x90
 3147 0b54 B6020000 		.4byte	.LLST25
 3148 0b58 22       		.uleb128 0x22
 3149 0b59 72657400 		.ascii	"ret\000"
 3150 0b5d 01       		.byte	0x1
 3151 0b5e 0901     		.2byte	0x109
 3152 0b60 77000000 		.4byte	0x77
 3153 0b64 F0020000 		.4byte	.LLST26
 3154 0b68 31       		.uleb128 0x31
 3155 0b69 1F080000 		.4byte	0x81f
 3156 0b6d 02000000 		.4byte	.LBB74
 3157 0b71 48000000 		.4byte	.Ldebug_ranges0+0x48
 3158 0b75 01       		.byte	0x1
 3159 0b76 0C01     		.2byte	0x10c
 3160 0b78 29       		.uleb128 0x29
 3161 0b79 2F080000 		.4byte	0x82f
 3162 0b7d 3F030000 		.4byte	.LLST27
 3163 0b81 00       		.byte	0
 3164 0b82 00       		.byte	0
 3165 0b83 1E       		.uleb128 0x1e
 3166 0b84 BB360000 		.4byte	.LASF1193
 3167 0b88 01       		.byte	0x1
 3168 0b89 4D       		.byte	0x4d
 3169 0b8a 03       		.byte	0x3
 3170 0b8b 9A0B0000 		.4byte	0xb9a
 3171 0b8f 32       		.uleb128 0x32
 3172 0b90 696400   		.ascii	"id\000"
 3173 0b93 01       		.byte	0x1
 3174 0b94 4D       		.byte	0x4d
 3175 0b95 26070000 		.4byte	0x726
 3176 0b99 00       		.byte	0
 3177 0b9a 33       		.uleb128 0x33
 3178 0b9b 76580000 		.4byte	.LASF1194
 3179 0b9f 02       		.byte	0x2
 3180 0ba0 2701     		.2byte	0x127
 3181 0ba2 03       		.byte	0x3
 3182 0ba3 B40B0000 		.4byte	0xbb4
 3183 0ba7 34       		.uleb128 0x34
 3184 0ba8 636C6B00 		.ascii	"clk\000"
 3185 0bac 02       		.byte	0x2
 3186 0bad 2701     		.2byte	0x127
 3187 0baf 66050000 		.4byte	0x566
 3188 0bb3 00       		.byte	0
 3189 0bb4 1F       		.uleb128 0x1f
 3190 0bb5 80610000 		.4byte	.LASF1196
 3191 0bb9 01       		.byte	0x1
 3192 0bba 6C01     		.2byte	0x16c
 3193 0bbc 00000000 		.4byte	.LFB214
 3194 0bc0 28000000 		.4byte	.LFE214-.LFB214
ARM GAS  /tmp/ccAFBUIw.s 			page 75


 3195 0bc4 01       		.uleb128 0x1
 3196 0bc5 9C       		.byte	0x9c
 3197 0bc6 0D0C0000 		.4byte	0xc0d
 3198 0bca 20       		.uleb128 0x20
 3199 0bcb 696400   		.ascii	"id\000"
 3200 0bce 01       		.byte	0x1
 3201 0bcf 6C01     		.2byte	0x16c
 3202 0bd1 26070000 		.4byte	0x726
 3203 0bd5 60030000 		.4byte	.LLST28
 3204 0bd9 31       		.uleb128 0x31
 3205 0bda 830B0000 		.4byte	0xb83
 3206 0bde 00000000 		.4byte	.LBB82
 3207 0be2 60000000 		.4byte	.Ldebug_ranges0+0x60
 3208 0be6 01       		.byte	0x1
 3209 0be7 6E01     		.2byte	0x16e
 3210 0be9 29       		.uleb128 0x29
 3211 0bea 8F0B0000 		.4byte	0xb8f
 3212 0bee 60030000 		.4byte	.LLST28
 3213 0bf2 28       		.uleb128 0x28
 3214 0bf3 9A0B0000 		.4byte	0xb9a
 3215 0bf7 08000000 		.4byte	.LBB84
 3216 0bfb 88000000 		.4byte	.Ldebug_ranges0+0x88
 3217 0bff 01       		.byte	0x1
 3218 0c00 4F       		.byte	0x4f
 3219 0c01 29       		.uleb128 0x29
 3220 0c02 A70B0000 		.4byte	0xba7
 3221 0c06 81030000 		.4byte	.LLST30
 3222 0c0a 00       		.byte	0
 3223 0c0b 00       		.byte	0
 3224 0c0c 00       		.byte	0
 3225 0c0d 1E       		.uleb128 0x1e
 3226 0c0e B53C0000 		.4byte	.LASF1197
 3227 0c12 01       		.byte	0x1
 3228 0c13 52       		.byte	0x52
 3229 0c14 03       		.byte	0x3
 3230 0c15 240C0000 		.4byte	0xc24
 3231 0c19 32       		.uleb128 0x32
 3232 0c1a 696400   		.ascii	"id\000"
 3233 0c1d 01       		.byte	0x1
 3234 0c1e 52       		.byte	0x52
 3235 0c1f 26070000 		.4byte	0x726
 3236 0c23 00       		.byte	0
 3237 0c24 33       		.uleb128 0x33
 3238 0c25 32340000 		.4byte	.LASF1198
 3239 0c29 02       		.byte	0x2
 3240 0c2a 3101     		.2byte	0x131
 3241 0c2c 03       		.byte	0x3
 3242 0c2d 3E0C0000 		.4byte	0xc3e
 3243 0c31 34       		.uleb128 0x34
 3244 0c32 636C6B00 		.ascii	"clk\000"
 3245 0c36 02       		.byte	0x2
 3246 0c37 3101     		.2byte	0x131
 3247 0c39 66050000 		.4byte	0x566
 3248 0c3d 00       		.byte	0
 3249 0c3e 1F       		.uleb128 0x1f
 3250 0c3f F41A0000 		.4byte	.LASF1199
 3251 0c43 01       		.byte	0x1
ARM GAS  /tmp/ccAFBUIw.s 			page 76


 3252 0c44 7501     		.2byte	0x175
 3253 0c46 00000000 		.4byte	.LFB215
 3254 0c4a 28000000 		.4byte	.LFE215-.LFB215
 3255 0c4e 01       		.uleb128 0x1
 3256 0c4f 9C       		.byte	0x9c
 3257 0c50 8F0C0000 		.4byte	0xc8f
 3258 0c54 20       		.uleb128 0x20
 3259 0c55 696400   		.ascii	"id\000"
 3260 0c58 01       		.byte	0x1
 3261 0c59 7501     		.2byte	0x175
 3262 0c5b 26070000 		.4byte	0x726
 3263 0c5f 9D030000 		.4byte	.LLST31
 3264 0c63 31       		.uleb128 0x31
 3265 0c64 0D0C0000 		.4byte	0xc0d
 3266 0c68 0A000000 		.4byte	.LBB102
 3267 0c6c B0000000 		.4byte	.Ldebug_ranges0+0xb0
 3268 0c70 01       		.byte	0x1
 3269 0c71 7A01     		.2byte	0x17a
 3270 0c73 35       		.uleb128 0x35
 3271 0c74 190C0000 		.4byte	0xc19
 3272 0c78 28       		.uleb128 0x28
 3273 0c79 240C0000 		.4byte	0xc24
 3274 0c7d 0C000000 		.4byte	.LBB104
 3275 0c81 C8000000 		.4byte	.Ldebug_ranges0+0xc8
 3276 0c85 01       		.byte	0x1
 3277 0c86 54       		.byte	0x54
 3278 0c87 35       		.uleb128 0x35
 3279 0c88 310C0000 		.4byte	0xc31
 3280 0c8c 00       		.byte	0
 3281 0c8d 00       		.byte	0
 3282 0c8e 00       		.byte	0
 3283 0c8f 36       		.uleb128 0x36
 3284 0c90 0F5C0000 		.4byte	.LASF1200
 3285 0c94 01       		.byte	0x1
 3286 0c95 7E01     		.2byte	0x17e
 3287 0c97 00000000 		.4byte	.LFB216
 3288 0c9b 28000000 		.4byte	.LFE216-.LFB216
 3289 0c9f 01       		.uleb128 0x1
 3290 0ca0 9C       		.byte	0x9c
 3291 0ca1 EF0C0000 		.4byte	0xcef
 3292 0ca5 20       		.uleb128 0x20
 3293 0ca6 696400   		.ascii	"id\000"
 3294 0ca9 01       		.byte	0x1
 3295 0caa 7E01     		.2byte	0x17e
 3296 0cac 26070000 		.4byte	0x726
 3297 0cb0 BE030000 		.4byte	.LLST32
 3298 0cb4 30       		.uleb128 0x30
 3299 0cb5 F5300000 		.4byte	.LASF1201
 3300 0cb9 01       		.byte	0x1
 3301 0cba 7E01     		.2byte	0x17e
 3302 0cbc 90000000 		.4byte	0x90
 3303 0cc0 DF030000 		.4byte	.LLST33
 3304 0cc4 23       		.uleb128 0x23
 3305 0cc5 57710000 		.4byte	.LASF1202
 3306 0cc9 01       		.byte	0x1
 3307 0cca 8001     		.2byte	0x180
 3308 0ccc 90000000 		.4byte	0x90
ARM GAS  /tmp/ccAFBUIw.s 			page 77


 3309 0cd0 0B040000 		.4byte	.LLST34
 3310 0cd4 37       		.uleb128 0x37
 3311 0cd5 89080000 		.4byte	0x889
 3312 0cd9 06000000 		.4byte	.LBB110
 3313 0cdd 04000000 		.4byte	.LBE110-.LBB110
 3314 0ce1 01       		.byte	0x1
 3315 0ce2 8201     		.2byte	0x182
 3316 0ce4 38       		.uleb128 0x38
 3317 0ce5 0A000000 		.4byte	.LVL48
 3318 0ce9 C1130000 		.4byte	0x13c1
 3319 0ced 00       		.byte	0
 3320 0cee 00       		.byte	0
 3321 0cef 39       		.uleb128 0x39
 3322 0cf0 55410000 		.4byte	.LASF1203
 3323 0cf4 01       		.byte	0x1
 3324 0cf5 8801     		.2byte	0x188
 3325 0cf7 90000000 		.4byte	0x90
 3326 0cfb 00000000 		.4byte	.LFB217
 3327 0cff 20000000 		.4byte	.LFE217-.LFB217
 3328 0d03 01       		.uleb128 0x1
 3329 0d04 9C       		.byte	0x9c
 3330 0d05 330D0000 		.4byte	0xd33
 3331 0d09 20       		.uleb128 0x20
 3332 0d0a 696400   		.ascii	"id\000"
 3333 0d0d 01       		.byte	0x1
 3334 0d0e 8801     		.2byte	0x188
 3335 0d10 26070000 		.4byte	0x726
 3336 0d14 1E040000 		.4byte	.LLST35
 3337 0d18 37       		.uleb128 0x37
 3338 0d19 89080000 		.4byte	0x889
 3339 0d1d 04000000 		.4byte	.LBB112
 3340 0d21 04000000 		.4byte	.LBE112-.LBB112
 3341 0d25 01       		.byte	0x1
 3342 0d26 8A01     		.2byte	0x18a
 3343 0d28 38       		.uleb128 0x38
 3344 0d29 08000000 		.4byte	.LVL53
 3345 0d2d C1130000 		.4byte	0x13c1
 3346 0d31 00       		.byte	0
 3347 0d32 00       		.byte	0
 3348 0d33 2F       		.uleb128 0x2f
 3349 0d34 42750000 		.4byte	.LASF1204
 3350 0d38 01       		.byte	0x1
 3351 0d39 8E01     		.2byte	0x18e
 3352 0d3b 77000000 		.4byte	0x77
 3353 0d3f 00000000 		.4byte	.LFB218
 3354 0d43 28000000 		.4byte	.LFE218-.LFB218
 3355 0d47 01       		.uleb128 0x1
 3356 0d48 9C       		.byte	0x9c
 3357 0d49 7D0D0000 		.4byte	0xd7d
 3358 0d4d 20       		.uleb128 0x20
 3359 0d4e 696400   		.ascii	"id\000"
 3360 0d51 01       		.byte	0x1
 3361 0d52 8E01     		.2byte	0x18e
 3362 0d54 26070000 		.4byte	0x726
 3363 0d58 3F040000 		.4byte	.LLST36
 3364 0d5c 30       		.uleb128 0x30
 3365 0d5d 0E460000 		.4byte	.LASF1177
ARM GAS  /tmp/ccAFBUIw.s 			page 78


 3366 0d61 01       		.byte	0x1
 3367 0d62 8E01     		.2byte	0x18e
 3368 0d64 6C070000 		.4byte	0x76c
 3369 0d68 60040000 		.4byte	.LLST37
 3370 0d6c 22       		.uleb128 0x22
 3371 0d6d 69696300 		.ascii	"iic\000"
 3372 0d71 01       		.byte	0x1
 3373 0d72 9001     		.2byte	0x190
 3374 0d74 51090000 		.4byte	0x951
 3375 0d78 81040000 		.4byte	.LLST38
 3376 0d7c 00       		.byte	0
 3377 0d7d 2F       		.uleb128 0x2f
 3378 0d7e 230A0000 		.4byte	.LASF1205
 3379 0d82 01       		.byte	0x1
 3380 0d83 9801     		.2byte	0x198
 3381 0d85 6C070000 		.4byte	0x76c
 3382 0d89 00000000 		.4byte	.LFB219
 3383 0d8d 10000000 		.4byte	.LFE219-.LFB219
 3384 0d91 01       		.uleb128 0x1
 3385 0d92 9C       		.byte	0x9c
 3386 0d93 A70D0000 		.4byte	0xda7
 3387 0d97 20       		.uleb128 0x20
 3388 0d98 696400   		.ascii	"id\000"
 3389 0d9b 01       		.byte	0x1
 3390 0d9c 9801     		.2byte	0x198
 3391 0d9e 26070000 		.4byte	0x726
 3392 0da2 9E040000 		.4byte	.LLST39
 3393 0da6 00       		.byte	0
 3394 0da7 2F       		.uleb128 0x2f
 3395 0da8 DF3F0000 		.4byte	.LASF1206
 3396 0dac 01       		.byte	0x1
 3397 0dad 9E01     		.2byte	0x19e
 3398 0daf 77000000 		.4byte	0x77
 3399 0db3 00000000 		.4byte	.LFB220
 3400 0db7 7C000000 		.4byte	.LFE220-.LFB220
 3401 0dbb 01       		.uleb128 0x1
 3402 0dbc 9C       		.byte	0x9c
 3403 0dbd 860E0000 		.4byte	0xe86
 3404 0dc1 20       		.uleb128 0x20
 3405 0dc2 696400   		.ascii	"id\000"
 3406 0dc5 01       		.byte	0x1
 3407 0dc6 9E01     		.2byte	0x19e
 3408 0dc8 26070000 		.4byte	0x726
 3409 0dcc BF040000 		.4byte	.LLST40
 3410 0dd0 30       		.uleb128 0x30
 3411 0dd1 03740000 		.4byte	.LASF1176
 3412 0dd5 01       		.byte	0x1
 3413 0dd6 9E01     		.2byte	0x19e
 3414 0dd8 F4070000 		.4byte	0x7f4
 3415 0ddc E0040000 		.4byte	.LLST41
 3416 0de0 22       		.uleb128 0x22
 3417 0de1 69696300 		.ascii	"iic\000"
 3418 0de5 01       		.byte	0x1
 3419 0de6 A001     		.2byte	0x1a0
 3420 0de8 51090000 		.4byte	0x951
 3421 0dec 0C050000 		.4byte	.LLST42
 3422 0df0 3A       		.uleb128 0x3a
ARM GAS  /tmp/ccAFBUIw.s 			page 79


 3423 0df1 95080000 		.4byte	0x895
 3424 0df5 22000000 		.4byte	.LBB114
 3425 0df9 E0000000 		.4byte	.Ldebug_ranges0+0xe0
 3426 0dfd 01       		.byte	0x1
 3427 0dfe A801     		.2byte	0x1a8
 3428 0e00 0E0E0000 		.4byte	0xe0e
 3429 0e04 29       		.uleb128 0x29
 3430 0e05 A1080000 		.4byte	0x8a1
 3431 0e09 3E050000 		.4byte	.LLST43
 3432 0e0d 00       		.byte	0
 3433 0e0e 3B       		.uleb128 0x3b
 3434 0e0f AD080000 		.4byte	0x8ad
 3435 0e13 46000000 		.4byte	.LBB118
 3436 0e17 02000000 		.4byte	.LBE118-.LBB118
 3437 0e1b 01       		.byte	0x1
 3438 0e1c AE01     		.2byte	0x1ae
 3439 0e1e 2C0E0000 		.4byte	0xe2c
 3440 0e22 29       		.uleb128 0x29
 3441 0e23 BD080000 		.4byte	0x8bd
 3442 0e27 51050000 		.4byte	.LLST44
 3443 0e2b 00       		.byte	0
 3444 0e2c 3B       		.uleb128 0x3b
 3445 0e2d C9080000 		.4byte	0x8c9
 3446 0e31 5C000000 		.4byte	.LBB120
 3447 0e35 08000000 		.4byte	.LBE120-.LBB120
 3448 0e39 01       		.byte	0x1
 3449 0e3a B201     		.2byte	0x1b2
 3450 0e3c 4A0E0000 		.4byte	0xe4a
 3451 0e40 29       		.uleb128 0x29
 3452 0e41 D5080000 		.4byte	0x8d5
 3453 0e45 6D050000 		.4byte	.LLST45
 3454 0e49 00       		.byte	0
 3455 0e4a 3C       		.uleb128 0x3c
 3456 0e4b 16000000 		.4byte	.LVL62
 3457 0e4f 5F0E0000 		.4byte	0xe5f
 3458 0e53 3D       		.uleb128 0x3d
 3459 0e54 01       		.uleb128 0x1
 3460 0e55 51       		.byte	0x51
 3461 0e56 01       		.uleb128 0x1
 3462 0e57 33       		.byte	0x33
 3463 0e58 3D       		.uleb128 0x3d
 3464 0e59 01       		.uleb128 0x1
 3465 0e5a 50       		.byte	0x50
 3466 0e5b 02       		.uleb128 0x2
 3467 0e5c 75       		.byte	0x75
 3468 0e5d 00       		.sleb128 0
 3469 0e5e 00       		.byte	0
 3470 0e5f 3C       		.uleb128 0x3c
 3471 0e60 3E000000 		.4byte	.LVL65
 3472 0e64 740E0000 		.4byte	0xe74
 3473 0e68 3D       		.uleb128 0x3d
 3474 0e69 01       		.uleb128 0x1
 3475 0e6a 51       		.byte	0x51
 3476 0e6b 01       		.uleb128 0x1
 3477 0e6c 31       		.byte	0x31
 3478 0e6d 3D       		.uleb128 0x3d
 3479 0e6e 01       		.uleb128 0x1
ARM GAS  /tmp/ccAFBUIw.s 			page 80


 3480 0e6f 50       		.byte	0x50
 3481 0e70 02       		.uleb128 0x2
 3482 0e71 75       		.byte	0x75
 3483 0e72 00       		.sleb128 0
 3484 0e73 00       		.byte	0
 3485 0e74 3E       		.uleb128 0x3e
 3486 0e75 72000000 		.4byte	.LVL69
 3487 0e79 3D       		.uleb128 0x3d
 3488 0e7a 01       		.uleb128 0x1
 3489 0e7b 51       		.byte	0x51
 3490 0e7c 01       		.uleb128 0x1
 3491 0e7d 34       		.byte	0x34
 3492 0e7e 3D       		.uleb128 0x3d
 3493 0e7f 01       		.uleb128 0x1
 3494 0e80 50       		.byte	0x50
 3495 0e81 02       		.uleb128 0x2
 3496 0e82 75       		.byte	0x75
 3497 0e83 00       		.sleb128 0
 3498 0e84 00       		.byte	0
 3499 0e85 00       		.byte	0
 3500 0e86 2F       		.uleb128 0x2f
 3501 0e87 1E340000 		.4byte	.LASF1207
 3502 0e8b 01       		.byte	0x1
 3503 0e8c BA01     		.2byte	0x1ba
 3504 0e8e 77000000 		.4byte	0x77
 3505 0e92 00000000 		.4byte	.LFB221
 3506 0e96 24000000 		.4byte	.LFE221-.LFB221
 3507 0e9a 01       		.uleb128 0x1
 3508 0e9b 9C       		.byte	0x9c
 3509 0e9c 050F0000 		.4byte	0xf05
 3510 0ea0 20       		.uleb128 0x20
 3511 0ea1 696400   		.ascii	"id\000"
 3512 0ea4 01       		.byte	0x1
 3513 0ea5 BA01     		.2byte	0x1ba
 3514 0ea7 26070000 		.4byte	0x726
 3515 0eab 80050000 		.4byte	.LLST46
 3516 0eaf 30       		.uleb128 0x30
 3517 0eb0 4C620000 		.4byte	.LASF1149
 3518 0eb4 01       		.byte	0x1
 3519 0eb5 BA01     		.2byte	0x1ba
 3520 0eb7 85000000 		.4byte	0x85
 3521 0ebb A1050000 		.4byte	.LLST47
 3522 0ebf 30       		.uleb128 0x30
 3523 0ec0 3F450000 		.4byte	.LASF1208
 3524 0ec4 01       		.byte	0x1
 3525 0ec5 BA01     		.2byte	0x1ba
 3526 0ec7 EF060000 		.4byte	0x6ef
 3527 0ecb C2050000 		.4byte	.LLST48
 3528 0ecf 20       		.uleb128 0x20
 3529 0ed0 6C656E00 		.ascii	"len\000"
 3530 0ed4 01       		.byte	0x1
 3531 0ed5 BA01     		.2byte	0x1ba
 3532 0ed7 85000000 		.4byte	0x85
 3533 0edb E3050000 		.4byte	.LLST49
 3534 0edf 3F       		.uleb128 0x3f
 3535 0ee0 03740000 		.4byte	.LASF1176
 3536 0ee4 01       		.byte	0x1
ARM GAS  /tmp/ccAFBUIw.s 			page 81


 3537 0ee5 BC01     		.2byte	0x1bc
 3538 0ee7 00070000 		.4byte	0x700
 3539 0eeb 02       		.uleb128 0x2
 3540 0eec 91       		.byte	0x91
 3541 0eed 58       		.sleb128 -40
 3542 0eee 40       		.uleb128 0x40
 3543 0eef 18000000 		.4byte	.LVL75
 3544 0ef3 A70D0000 		.4byte	0xda7
 3545 0ef7 3D       		.uleb128 0x3d
 3546 0ef8 01       		.uleb128 0x1
 3547 0ef9 51       		.byte	0x51
 3548 0efa 02       		.uleb128 0x2
 3549 0efb 7D       		.byte	0x7d
 3550 0efc 00       		.sleb128 0
 3551 0efd 3D       		.uleb128 0x3d
 3552 0efe 01       		.uleb128 0x1
 3553 0eff 50       		.byte	0x50
 3554 0f00 02       		.uleb128 0x2
 3555 0f01 75       		.byte	0x75
 3556 0f02 00       		.sleb128 0
 3557 0f03 00       		.byte	0
 3558 0f04 00       		.byte	0
 3559 0f05 2F       		.uleb128 0x2f
 3560 0f06 1C540000 		.4byte	.LASF1209
 3561 0f0a 01       		.byte	0x1
 3562 0f0b C701     		.2byte	0x1c7
 3563 0f0d 77000000 		.4byte	0x77
 3564 0f11 00000000 		.4byte	.LFB222
 3565 0f15 30000000 		.4byte	.LFE222-.LFB222
 3566 0f19 01       		.uleb128 0x1
 3567 0f1a 9C       		.byte	0x9c
 3568 0f1b 930F0000 		.4byte	0xf93
 3569 0f1f 20       		.uleb128 0x20
 3570 0f20 696400   		.ascii	"id\000"
 3571 0f23 01       		.byte	0x1
 3572 0f24 C701     		.2byte	0x1c7
 3573 0f26 26070000 		.4byte	0x726
 3574 0f2a 04060000 		.4byte	.LLST50
 3575 0f2e 30       		.uleb128 0x30
 3576 0f2f 4C620000 		.4byte	.LASF1149
 3577 0f33 01       		.byte	0x1
 3578 0f34 C701     		.2byte	0x1c7
 3579 0f36 85000000 		.4byte	0x85
 3580 0f3a 25060000 		.4byte	.LLST51
 3581 0f3e 20       		.uleb128 0x20
 3582 0f3f 636D6400 		.ascii	"cmd\000"
 3583 0f43 01       		.byte	0x1
 3584 0f44 C701     		.2byte	0x1c7
 3585 0f46 85000000 		.4byte	0x85
 3586 0f4a 46060000 		.4byte	.LLST52
 3587 0f4e 30       		.uleb128 0x30
 3588 0f4f 3F450000 		.4byte	.LASF1208
 3589 0f53 01       		.byte	0x1
 3590 0f54 C701     		.2byte	0x1c7
 3591 0f56 FA060000 		.4byte	0x6fa
 3592 0f5a 89060000 		.4byte	.LLST53
 3593 0f5e 41       		.uleb128 0x41
ARM GAS  /tmp/ccAFBUIw.s 			page 82


 3594 0f5f 6C656E00 		.ascii	"len\000"
 3595 0f63 01       		.byte	0x1
 3596 0f64 C701     		.2byte	0x1c7
 3597 0f66 77000000 		.4byte	0x77
 3598 0f6a 02       		.uleb128 0x2
 3599 0f6b 91       		.byte	0x91
 3600 0f6c 00       		.sleb128 0
 3601 0f6d 3F       		.uleb128 0x3f
 3602 0f6e 03740000 		.4byte	.LASF1176
 3603 0f72 01       		.byte	0x1
 3604 0f73 C901     		.2byte	0x1c9
 3605 0f75 00070000 		.4byte	0x700
 3606 0f79 02       		.uleb128 0x2
 3607 0f7a 91       		.byte	0x91
 3608 0f7b 58       		.sleb128 -40
 3609 0f7c 40       		.uleb128 0x40
 3610 0f7d 24000000 		.4byte	.LVL81
 3611 0f81 A70D0000 		.4byte	0xda7
 3612 0f85 3D       		.uleb128 0x3d
 3613 0f86 01       		.uleb128 0x1
 3614 0f87 51       		.byte	0x51
 3615 0f88 02       		.uleb128 0x2
 3616 0f89 74       		.byte	0x74
 3617 0f8a 00       		.sleb128 0
 3618 0f8b 3D       		.uleb128 0x3d
 3619 0f8c 01       		.uleb128 0x1
 3620 0f8d 50       		.byte	0x50
 3621 0f8e 02       		.uleb128 0x2
 3622 0f8f 76       		.byte	0x76
 3623 0f90 00       		.sleb128 0
 3624 0f91 00       		.byte	0
 3625 0f92 00       		.byte	0
 3626 0f93 2F       		.uleb128 0x2f
 3627 0f94 D23B0000 		.4byte	.LASF1210
 3628 0f98 01       		.byte	0x1
 3629 0f99 D401     		.2byte	0x1d4
 3630 0f9b 77000000 		.4byte	0x77
 3631 0f9f 00000000 		.4byte	.LFB223
 3632 0fa3 24000000 		.4byte	.LFE223-.LFB223
 3633 0fa7 01       		.uleb128 0x1
 3634 0fa8 9C       		.byte	0x9c
 3635 0fa9 12100000 		.4byte	0x1012
 3636 0fad 20       		.uleb128 0x20
 3637 0fae 696400   		.ascii	"id\000"
 3638 0fb1 01       		.byte	0x1
 3639 0fb2 D401     		.2byte	0x1d4
 3640 0fb4 26070000 		.4byte	0x726
 3641 0fb8 AA060000 		.4byte	.LLST54
 3642 0fbc 30       		.uleb128 0x30
 3643 0fbd 4C620000 		.4byte	.LASF1149
 3644 0fc1 01       		.byte	0x1
 3645 0fc2 D401     		.2byte	0x1d4
 3646 0fc4 85000000 		.4byte	0x85
 3647 0fc8 CB060000 		.4byte	.LLST55
 3648 0fcc 30       		.uleb128 0x30
 3649 0fcd 3F450000 		.4byte	.LASF1208
 3650 0fd1 01       		.byte	0x1
ARM GAS  /tmp/ccAFBUIw.s 			page 83


 3651 0fd2 D401     		.2byte	0x1d4
 3652 0fd4 FA060000 		.4byte	0x6fa
 3653 0fd8 EC060000 		.4byte	.LLST56
 3654 0fdc 20       		.uleb128 0x20
 3655 0fdd 6C656E00 		.ascii	"len\000"
 3656 0fe1 01       		.byte	0x1
 3657 0fe2 D401     		.2byte	0x1d4
 3658 0fe4 77000000 		.4byte	0x77
 3659 0fe8 0D070000 		.4byte	.LLST57
 3660 0fec 3F       		.uleb128 0x3f
 3661 0fed 03740000 		.4byte	.LASF1176
 3662 0ff1 01       		.byte	0x1
 3663 0ff2 D601     		.2byte	0x1d6
 3664 0ff4 00070000 		.4byte	0x700
 3665 0ff8 02       		.uleb128 0x2
 3666 0ff9 91       		.byte	0x91
 3667 0ffa 58       		.sleb128 -40
 3668 0ffb 40       		.uleb128 0x40
 3669 0ffc 18000000 		.4byte	.LVL86
 3670 1000 A70D0000 		.4byte	0xda7
 3671 1004 3D       		.uleb128 0x3d
 3672 1005 01       		.uleb128 0x1
 3673 1006 51       		.byte	0x51
 3674 1007 02       		.uleb128 0x2
 3675 1008 7D       		.byte	0x7d
 3676 1009 00       		.sleb128 0
 3677 100a 3D       		.uleb128 0x3d
 3678 100b 01       		.uleb128 0x1
 3679 100c 50       		.byte	0x50
 3680 100d 02       		.uleb128 0x2
 3681 100e 75       		.byte	0x75
 3682 100f 00       		.sleb128 0
 3683 1010 00       		.byte	0
 3684 1011 00       		.byte	0
 3685 1012 2F       		.uleb128 0x2f
 3686 1013 FA480000 		.4byte	.LASF1211
 3687 1017 01       		.byte	0x1
 3688 1018 DF01     		.2byte	0x1df
 3689 101a 77000000 		.4byte	0x77
 3690 101e 00000000 		.4byte	.LFB224
 3691 1022 20000000 		.4byte	.LFE224-.LFB224
 3692 1026 01       		.uleb128 0x1
 3693 1027 9C       		.byte	0x9c
 3694 1028 6F100000 		.4byte	0x106f
 3695 102c 20       		.uleb128 0x20
 3696 102d 696400   		.ascii	"id\000"
 3697 1030 01       		.byte	0x1
 3698 1031 DF01     		.2byte	0x1df
 3699 1033 26070000 		.4byte	0x726
 3700 1037 39070000 		.4byte	.LLST58
 3701 103b 31       		.uleb128 0x31
 3702 103c E1080000 		.4byte	0x8e1
 3703 1040 06000000 		.4byte	.LBB122
 3704 1044 F8000000 		.4byte	.Ldebug_ranges0+0xf8
 3705 1048 01       		.byte	0x1
 3706 1049 E101     		.2byte	0x1e1
 3707 104b 29       		.uleb128 0x29
ARM GAS  /tmp/ccAFBUIw.s 			page 84


 3708 104c F1080000 		.4byte	0x8f1
 3709 1050 5A070000 		.4byte	.LLST59
 3710 1054 2D       		.uleb128 0x2d
 3711 1055 1F080000 		.4byte	0x81f
 3712 1059 0A000000 		.4byte	.LBB124
 3713 105d 06000000 		.4byte	.LBE124-.LBB124
 3714 1061 01       		.byte	0x1
 3715 1062 80       		.byte	0x80
 3716 1063 29       		.uleb128 0x29
 3717 1064 2F080000 		.4byte	0x82f
 3718 1068 5A070000 		.4byte	.LLST59
 3719 106c 00       		.byte	0
 3720 106d 00       		.byte	0
 3721 106e 00       		.byte	0
 3722 106f 1F       		.uleb128 0x1f
 3723 1070 3F3A0000 		.4byte	.LASF1212
 3724 1074 01       		.byte	0x1
 3725 1075 E501     		.2byte	0x1e5
 3726 1077 00000000 		.4byte	.LFB225
 3727 107b 28000000 		.4byte	.LFE225-.LFB225
 3728 107f 01       		.uleb128 0x1
 3729 1080 9C       		.byte	0x9c
 3730 1081 AF100000 		.4byte	0x10af
 3731 1085 20       		.uleb128 0x20
 3732 1086 696400   		.ascii	"id\000"
 3733 1089 01       		.byte	0x1
 3734 108a E501     		.2byte	0x1e5
 3735 108c 26070000 		.4byte	0x726
 3736 1090 7F070000 		.4byte	.LLST61
 3737 1094 38       		.uleb128 0x38
 3738 1095 14000000 		.4byte	.LVL95
 3739 1099 62090000 		.4byte	0x962
 3740 109d 3E       		.uleb128 0x3e
 3741 109e 20000000 		.4byte	.LVL96
 3742 10a2 3D       		.uleb128 0x3d
 3743 10a3 01       		.uleb128 0x1
 3744 10a4 51       		.byte	0x51
 3745 10a5 01       		.uleb128 0x1
 3746 10a6 32       		.byte	0x32
 3747 10a7 3D       		.uleb128 0x3d
 3748 10a8 01       		.uleb128 0x1
 3749 10a9 50       		.byte	0x50
 3750 10aa 02       		.uleb128 0x2
 3751 10ab 74       		.byte	0x74
 3752 10ac 00       		.sleb128 0
 3753 10ad 00       		.byte	0
 3754 10ae 00       		.byte	0
 3755 10af 1E       		.uleb128 0x1e
 3756 10b0 847A0000 		.4byte	.LASF1213
 3757 10b4 01       		.byte	0x1
 3758 10b5 84       		.byte	0x84
 3759 10b6 01       		.byte	0x1
 3760 10b7 00110000 		.4byte	0x1100
 3761 10bb 1B       		.uleb128 0x1b
 3762 10bc 34770000 		.4byte	.LASF1180
 3763 10c0 01       		.byte	0x1
 3764 10c1 84       		.byte	0x84
ARM GAS  /tmp/ccAFBUIw.s 			page 85


 3765 10c2 EE070000 		.4byte	0x7ee
 3766 10c6 32       		.uleb128 0x32
 3767 10c7 73696400 		.ascii	"sid\000"
 3768 10cb 01       		.byte	0x1
 3769 10cc 84       		.byte	0x84
 3770 10cd 59060000 		.4byte	0x659
 3771 10d1 1B       		.uleb128 0x1b
 3772 10d2 2F460000 		.4byte	.LASF1214
 3773 10d6 01       		.byte	0x1
 3774 10d7 84       		.byte	0x84
 3775 10d8 85000000 		.4byte	0x85
 3776 10dc 1B       		.uleb128 0x1b
 3777 10dd 6C430000 		.4byte	.LASF1183
 3778 10e1 01       		.byte	0x1
 3779 10e2 84       		.byte	0x84
 3780 10e3 85000000 		.4byte	0x85
 3781 10e7 42       		.uleb128 0x42
 3782 10e8 CC330000 		.4byte	.LASF1215
 3783 10ec 01       		.byte	0x1
 3784 10ed 86       		.byte	0x86
 3785 10ee 90000000 		.4byte	0x90
 3786 10f2 43       		.uleb128 0x43
 3787 10f3 42       		.uleb128 0x42
 3788 10f4 04370000 		.4byte	.LASF1216
 3789 10f8 01       		.byte	0x1
 3790 10f9 8C       		.byte	0x8c
 3791 10fa 00110000 		.4byte	0x1100
 3792 10fe 00       		.byte	0
 3793 10ff 00       		.byte	0
 3794 1100 14       		.uleb128 0x14
 3795 1101 04       		.byte	0x4
 3796 1102 C5000000 		.4byte	0xc5
 3797 1106 1F       		.uleb128 0x1f
 3798 1107 9F490000 		.4byte	.LASF1217
 3799 110b 01       		.byte	0x1
 3800 110c ED01     		.2byte	0x1ed
 3801 110e 00000000 		.4byte	.LFB226
 3802 1112 80000000 		.4byte	.LFE226-.LFB226
 3803 1116 01       		.uleb128 0x1
 3804 1117 9C       		.byte	0x9c
 3805 1118 01120000 		.4byte	0x1201
 3806 111c 20       		.uleb128 0x20
 3807 111d 696400   		.ascii	"id\000"
 3808 1120 01       		.byte	0x1
 3809 1121 ED01     		.2byte	0x1ed
 3810 1123 26070000 		.4byte	0x726
 3811 1127 A0070000 		.4byte	.LLST62
 3812 112b 20       		.uleb128 0x20
 3813 112c 73696400 		.ascii	"sid\000"
 3814 1130 01       		.byte	0x1
 3815 1131 EE01     		.2byte	0x1ee
 3816 1133 59060000 		.4byte	0x659
 3817 1137 C1070000 		.4byte	.LLST63
 3818 113b 30       		.uleb128 0x30
 3819 113c 03740000 		.4byte	.LASF1176
 3820 1140 01       		.byte	0x1
 3821 1141 EF01     		.2byte	0x1ef
ARM GAS  /tmp/ccAFBUIw.s 			page 86


 3822 1143 F4070000 		.4byte	0x7f4
 3823 1147 E2070000 		.4byte	.LLST64
 3824 114b 30       		.uleb128 0x30
 3825 114c 0E460000 		.4byte	.LASF1177
 3826 1150 01       		.byte	0x1
 3827 1151 F001     		.2byte	0x1f0
 3828 1153 6C070000 		.4byte	0x76c
 3829 1157 37080000 		.4byte	.LLST65
 3830 115b 30       		.uleb128 0x30
 3831 115c 97340000 		.4byte	.LASF1218
 3832 1160 01       		.byte	0x1
 3833 1161 F101     		.2byte	0x1f1
 3834 1163 85000000 		.4byte	0x85
 3835 1167 A4080000 		.4byte	.LLST66
 3836 116b 22       		.uleb128 0x22
 3837 116c 69696300 		.ascii	"iic\000"
 3838 1170 01       		.byte	0x1
 3839 1171 F301     		.2byte	0x1f3
 3840 1173 51090000 		.4byte	0x951
 3841 1177 D0080000 		.4byte	.LLST67
 3842 117b 23       		.uleb128 0x23
 3843 117c 092B0000 		.4byte	.LASF1219
 3844 1180 01       		.byte	0x1
 3845 1181 F401     		.2byte	0x1f4
 3846 1183 01120000 		.4byte	0x1201
 3847 1187 ED080000 		.4byte	.LLST68
 3848 118b 3A       		.uleb128 0x3a
 3849 118c AF100000 		.4byte	0x10af
 3850 1190 1E000000 		.4byte	.LBB133
 3851 1194 10010000 		.4byte	.Ldebug_ranges0+0x110
 3852 1198 01       		.byte	0x1
 3853 1199 FA01     		.2byte	0x1fa
 3854 119b E6110000 		.4byte	0x11e6
 3855 119f 29       		.uleb128 0x29
 3856 11a0 DC100000 		.4byte	0x10dc
 3857 11a4 2B090000 		.4byte	.LLST69
 3858 11a8 29       		.uleb128 0x29
 3859 11a9 D1100000 		.4byte	0x10d1
 3860 11ad 55090000 		.4byte	.LLST70
 3861 11b1 29       		.uleb128 0x29
 3862 11b2 C6100000 		.4byte	0x10c6
 3863 11b6 68090000 		.4byte	.LLST71
 3864 11ba 29       		.uleb128 0x29
 3865 11bb BB100000 		.4byte	0x10bb
 3866 11bf 7B090000 		.4byte	.LLST72
 3867 11c3 44       		.uleb128 0x44
 3868 11c4 10010000 		.4byte	.Ldebug_ranges0+0x110
 3869 11c8 45       		.uleb128 0x45
 3870 11c9 E7100000 		.4byte	0x10e7
 3871 11cd 9F090000 		.4byte	.LLST73
 3872 11d1 2C       		.uleb128 0x2c
 3873 11d2 34000000 		.4byte	.LBB135
 3874 11d6 0E000000 		.4byte	.LBE135-.LBB135
 3875 11da 45       		.uleb128 0x45
 3876 11db F3100000 		.4byte	0x10f3
 3877 11df B4090000 		.4byte	.LLST74
 3878 11e3 00       		.byte	0
ARM GAS  /tmp/ccAFBUIw.s 			page 87


 3879 11e4 00       		.byte	0
 3880 11e5 00       		.byte	0
 3881 11e6 37       		.uleb128 0x37
 3882 11e7 C9080000 		.4byte	0x8c9
 3883 11eb 5A000000 		.4byte	.LBB142
 3884 11ef 08000000 		.4byte	.LBE142-.LBB142
 3885 11f3 01       		.byte	0x1
 3886 11f4 FE01     		.2byte	0x1fe
 3887 11f6 29       		.uleb128 0x29
 3888 11f7 D5080000 		.4byte	0x8d5
 3889 11fb DF090000 		.4byte	.LLST75
 3890 11ff 00       		.byte	0
 3891 1200 00       		.byte	0
 3892 1201 14       		.uleb128 0x14
 3893 1202 04       		.byte	0x4
 3894 1203 FA070000 		.4byte	0x7fa
 3895 1207 1F       		.uleb128 0x1f
 3896 1208 8A290000 		.4byte	.LASF1220
 3897 120c 01       		.byte	0x1
 3898 120d 0402     		.2byte	0x204
 3899 120f 00000000 		.4byte	.LFB227
 3900 1213 74000000 		.4byte	.LFE227-.LFB227
 3901 1217 01       		.uleb128 0x1
 3902 1218 9C       		.byte	0x9c
 3903 1219 A4120000 		.4byte	0x12a4
 3904 121d 20       		.uleb128 0x20
 3905 121e 696400   		.ascii	"id\000"
 3906 1221 01       		.byte	0x1
 3907 1222 0402     		.2byte	0x204
 3908 1224 26070000 		.4byte	0x726
 3909 1228 F2090000 		.4byte	.LLST76
 3910 122c 22       		.uleb128 0x22
 3911 122d 72657400 		.ascii	"ret\000"
 3912 1231 01       		.byte	0x1
 3913 1232 0602     		.2byte	0x206
 3914 1234 77000000 		.4byte	0x77
 3915 1238 130A0000 		.4byte	.LLST77
 3916 123c 22       		.uleb128 0x22
 3917 123d 69696300 		.ascii	"iic\000"
 3918 1241 01       		.byte	0x1
 3919 1242 0702     		.2byte	0x207
 3920 1244 51090000 		.4byte	0x951
 3921 1248 260A0000 		.4byte	.LLST78
 3922 124c 46       		.uleb128 0x46
 3923 124d 16000000 		.4byte	.LBB144
 3924 1251 1A000000 		.4byte	.LBE144-.LBB144
 3925 1255 83120000 		.4byte	0x1283
 3926 1259 23       		.uleb128 0x23
 3927 125a 092B0000 		.4byte	.LASF1219
 3928 125e 01       		.byte	0x1
 3929 125f 0B02     		.2byte	0x20b
 3930 1261 01120000 		.4byte	0x1201
 3931 1265 580A0000 		.4byte	.LLST79
 3932 1269 22       		.uleb128 0x22
 3933 126a 73696400 		.ascii	"sid\000"
 3934 126e 01       		.byte	0x1
 3935 126f 0D02     		.2byte	0x20d
ARM GAS  /tmp/ccAFBUIw.s 			page 88


 3936 1271 59060000 		.4byte	0x659
 3937 1275 7A0A0000 		.4byte	.LLST80
 3938 1279 38       		.uleb128 0x38
 3939 127a 1C000000 		.4byte	.LVL114
 3940 127e 6D080000 		.4byte	0x86d
 3941 1282 00       		.byte	0
 3942 1283 47       		.uleb128 0x47
 3943 1284 4E000000 		.4byte	.LVL116
 3944 1288 0E0B0000 		.4byte	0xb0e
 3945 128c 97120000 		.4byte	0x1297
 3946 1290 3D       		.uleb128 0x3d
 3947 1291 01       		.uleb128 0x1
 3948 1292 51       		.byte	0x51
 3949 1293 02       		.uleb128 0x2
 3950 1294 76       		.byte	0x76
 3951 1295 00       		.sleb128 0
 3952 1296 00       		.byte	0
 3953 1297 3E       		.uleb128 0x3e
 3954 1298 6A000000 		.4byte	.LVL118
 3955 129c 3D       		.uleb128 0x3d
 3956 129d 01       		.uleb128 0x1
 3957 129e 50       		.byte	0x50
 3958 129f 02       		.uleb128 0x2
 3959 12a0 75       		.byte	0x75
 3960 12a1 00       		.sleb128 0
 3961 12a2 00       		.byte	0
 3962 12a3 00       		.byte	0
 3963 12a4 1F       		.uleb128 0x1f
 3964 12a5 5F7B0000 		.4byte	.LASF1221
 3965 12a9 01       		.byte	0x1
 3966 12aa 1E02     		.2byte	0x21e
 3967 12ac 00000000 		.4byte	.LFB228
 3968 12b0 14000000 		.4byte	.LFE228-.LFB228
 3969 12b4 01       		.uleb128 0x1
 3970 12b5 9C       		.byte	0x9c
 3971 12b6 CA120000 		.4byte	0x12ca
 3972 12ba 20       		.uleb128 0x20
 3973 12bb 696400   		.ascii	"id\000"
 3974 12be 01       		.byte	0x1
 3975 12bf 1E02     		.2byte	0x21e
 3976 12c1 26070000 		.4byte	0x726
 3977 12c5 8D0A0000 		.4byte	.LLST81
 3978 12c9 00       		.byte	0
 3979 12ca 2F       		.uleb128 0x2f
 3980 12cb D24B0000 		.4byte	.LASF1222
 3981 12cf 01       		.byte	0x1
 3982 12d0 2402     		.2byte	0x224
 3983 12d2 77000000 		.4byte	0x77
 3984 12d6 00000000 		.4byte	.LFB229
 3985 12da 14000000 		.4byte	.LFE229-.LFB229
 3986 12de 01       		.uleb128 0x1
 3987 12df 9C       		.byte	0x9c
 3988 12e0 F4120000 		.4byte	0x12f4
 3989 12e4 20       		.uleb128 0x20
 3990 12e5 696400   		.ascii	"id\000"
 3991 12e8 01       		.byte	0x1
 3992 12e9 2402     		.2byte	0x224
ARM GAS  /tmp/ccAFBUIw.s 			page 89


 3993 12eb 26070000 		.4byte	0x726
 3994 12ef AE0A0000 		.4byte	.LLST82
 3995 12f3 00       		.byte	0
 3996 12f4 1F       		.uleb128 0x1f
 3997 12f5 F8170000 		.4byte	.LASF1223
 3998 12f9 01       		.byte	0x1
 3999 12fa 5801     		.2byte	0x158
 4000 12fc 00000000 		.4byte	.LFB213
 4001 1300 30000000 		.4byte	.LFE213-.LFB213
 4002 1304 01       		.uleb128 0x1
 4003 1305 9C       		.byte	0x9c
 4004 1306 6E130000 		.4byte	0x136e
 4005 130a 20       		.uleb128 0x20
 4006 130b 696400   		.ascii	"id\000"
 4007 130e 01       		.byte	0x1
 4008 130f 5801     		.2byte	0x158
 4009 1311 26070000 		.4byte	0x726
 4010 1315 CF0A0000 		.4byte	.LLST83
 4011 1319 30       		.uleb128 0x30
 4012 131a 0E460000 		.4byte	.LASF1177
 4013 131e 01       		.byte	0x1
 4014 131f 5801     		.2byte	0x158
 4015 1321 60070000 		.4byte	0x760
 4016 1325 F00A0000 		.4byte	.LLST84
 4017 1329 22       		.uleb128 0x22
 4018 132a 69696300 		.ascii	"iic\000"
 4019 132e 01       		.byte	0x1
 4020 132f 5A01     		.2byte	0x15a
 4021 1331 51090000 		.4byte	0x951
 4022 1335 110B0000 		.4byte	.LLST85
 4023 1339 23       		.uleb128 0x23
 4024 133a 180C0000 		.4byte	.LASF1188
 4025 133e 01       		.byte	0x1
 4026 133f 5B01     		.2byte	0x15b
 4027 1341 57090000 		.4byte	0x957
 4028 1345 4A0B0000 		.4byte	.LLST86
 4029 1349 47       		.uleb128 0x47
 4030 134a 1E000000 		.4byte	.LVL126
 4031 134e CA120000 		.4byte	0x12ca
 4032 1352 5D130000 		.4byte	0x135d
 4033 1356 3D       		.uleb128 0x3d
 4034 1357 01       		.uleb128 0x1
 4035 1358 50       		.byte	0x50
 4036 1359 02       		.uleb128 0x2
 4037 135a 74       		.byte	0x74
 4038 135b 00       		.sleb128 0
 4039 135c 00       		.byte	0
 4040 135d 40       		.uleb128 0x40
 4041 135e 28000000 		.4byte	.LVL127
 4042 1362 6F100000 		.4byte	0x106f
 4043 1366 3D       		.uleb128 0x3d
 4044 1367 01       		.uleb128 0x1
 4045 1368 50       		.byte	0x50
 4046 1369 02       		.uleb128 0x2
 4047 136a 74       		.byte	0x74
 4048 136b 00       		.sleb128 0
 4049 136c 00       		.byte	0
ARM GAS  /tmp/ccAFBUIw.s 			page 90


 4050 136d 00       		.byte	0
 4051 136e 05       		.uleb128 0x5
 4052 136f 8E070000 		.4byte	0x78e
 4053 1373 7E130000 		.4byte	0x137e
 4054 1377 06       		.uleb128 0x6
 4055 1378 A9000000 		.4byte	0xa9
 4056 137c 00       		.byte	0
 4057 137d 00       		.byte	0
 4058 137e 48       		.uleb128 0x48
 4059 137f 69326300 		.ascii	"i2c\000"
 4060 1383 01       		.byte	0x1
 4061 1384 3F       		.byte	0x3f
 4062 1385 6E130000 		.4byte	0x136e
 4063 1389 05       		.uleb128 0x5
 4064 138a 03       		.byte	0x3
 4065 138b 00000000 		.4byte	i2c
 4066 138f 05       		.uleb128 0x5
 4067 1390 FA070000 		.4byte	0x7fa
 4068 1394 A5130000 		.4byte	0x13a5
 4069 1398 06       		.uleb128 0x6
 4070 1399 A9000000 		.4byte	0xa9
 4071 139d 00       		.byte	0
 4072 139e 06       		.uleb128 0x6
 4073 139f A9000000 		.4byte	0xa9
 4074 13a3 04       		.byte	0x4
 4075 13a4 00       		.byte	0
 4076 13a5 49       		.uleb128 0x49
 4077 13a6 684D0000 		.4byte	.LASF1224
 4078 13aa 01       		.byte	0x1
 4079 13ab 43       		.byte	0x43
 4080 13ac 8F130000 		.4byte	0x138f
 4081 13b0 05       		.uleb128 0x5
 4082 13b1 03       		.byte	0x3
 4083 13b2 00000000 		.4byte	i2c_slave
 4084 13b6 4A       		.uleb128 0x4a
 4085 13b7 E0540000 		.4byte	.LASF1230
 4086 13bb 07       		.byte	0x7
 4087 13bc D4       		.byte	0xd4
 4088 13bd 72050000 		.4byte	0x572
 4089 13c1 4B       		.uleb128 0x4b
 4090 13c2 B9410000 		.4byte	.LASF1231
 4091 13c6 02       		.byte	0x2
 4092 13c7 1302     		.2byte	0x213
 4093 13c9 90000000 		.4byte	0x90
 4094 13cd 00       		.byte	0
 4095              		.section	.debug_abbrev,"",%progbits
 4096              	.Ldebug_abbrev0:
 4097 0000 01       		.uleb128 0x1
 4098 0001 11       		.uleb128 0x11
 4099 0002 01       		.byte	0x1
 4100 0003 25       		.uleb128 0x25
 4101 0004 0E       		.uleb128 0xe
 4102 0005 13       		.uleb128 0x13
 4103 0006 0B       		.uleb128 0xb
 4104 0007 03       		.uleb128 0x3
 4105 0008 0E       		.uleb128 0xe
 4106 0009 1B       		.uleb128 0x1b
ARM GAS  /tmp/ccAFBUIw.s 			page 91


 4107 000a 0E       		.uleb128 0xe
 4108 000b 55       		.uleb128 0x55
 4109 000c 17       		.uleb128 0x17
 4110 000d 11       		.uleb128 0x11
 4111 000e 01       		.uleb128 0x1
 4112 000f 10       		.uleb128 0x10
 4113 0010 17       		.uleb128 0x17
 4114 0011 9942     		.uleb128 0x2119
 4115 0013 17       		.uleb128 0x17
 4116 0014 00       		.byte	0
 4117 0015 00       		.byte	0
 4118 0016 02       		.uleb128 0x2
 4119 0017 24       		.uleb128 0x24
 4120 0018 00       		.byte	0
 4121 0019 0B       		.uleb128 0xb
 4122 001a 0B       		.uleb128 0xb
 4123 001b 3E       		.uleb128 0x3e
 4124 001c 0B       		.uleb128 0xb
 4125 001d 03       		.uleb128 0x3
 4126 001e 0E       		.uleb128 0xe
 4127 001f 00       		.byte	0
 4128 0020 00       		.byte	0
 4129 0021 03       		.uleb128 0x3
 4130 0022 16       		.uleb128 0x16
 4131 0023 00       		.byte	0
 4132 0024 03       		.uleb128 0x3
 4133 0025 0E       		.uleb128 0xe
 4134 0026 3A       		.uleb128 0x3a
 4135 0027 0B       		.uleb128 0xb
 4136 0028 3B       		.uleb128 0x3b
 4137 0029 0B       		.uleb128 0xb
 4138 002a 49       		.uleb128 0x49
 4139 002b 13       		.uleb128 0x13
 4140 002c 00       		.byte	0
 4141 002d 00       		.byte	0
 4142 002e 04       		.uleb128 0x4
 4143 002f 24       		.uleb128 0x24
 4144 0030 00       		.byte	0
 4145 0031 0B       		.uleb128 0xb
 4146 0032 0B       		.uleb128 0xb
 4147 0033 3E       		.uleb128 0x3e
 4148 0034 0B       		.uleb128 0xb
 4149 0035 03       		.uleb128 0x3
 4150 0036 08       		.uleb128 0x8
 4151 0037 00       		.byte	0
 4152 0038 00       		.byte	0
 4153 0039 05       		.uleb128 0x5
 4154 003a 01       		.uleb128 0x1
 4155 003b 01       		.byte	0x1
 4156 003c 49       		.uleb128 0x49
 4157 003d 13       		.uleb128 0x13
 4158 003e 01       		.uleb128 0x1
 4159 003f 13       		.uleb128 0x13
 4160 0040 00       		.byte	0
 4161 0041 00       		.byte	0
 4162 0042 06       		.uleb128 0x6
 4163 0043 21       		.uleb128 0x21
ARM GAS  /tmp/ccAFBUIw.s 			page 92


 4164 0044 00       		.byte	0
 4165 0045 49       		.uleb128 0x49
 4166 0046 13       		.uleb128 0x13
 4167 0047 2F       		.uleb128 0x2f
 4168 0048 0B       		.uleb128 0xb
 4169 0049 00       		.byte	0
 4170 004a 00       		.byte	0
 4171 004b 07       		.uleb128 0x7
 4172 004c 26       		.uleb128 0x26
 4173 004d 00       		.byte	0
 4174 004e 49       		.uleb128 0x49
 4175 004f 13       		.uleb128 0x13
 4176 0050 00       		.byte	0
 4177 0051 00       		.byte	0
 4178 0052 08       		.uleb128 0x8
 4179 0053 35       		.uleb128 0x35
 4180 0054 00       		.byte	0
 4181 0055 49       		.uleb128 0x49
 4182 0056 13       		.uleb128 0x13
 4183 0057 00       		.byte	0
 4184 0058 00       		.byte	0
 4185 0059 09       		.uleb128 0x9
 4186 005a 13       		.uleb128 0x13
 4187 005b 01       		.byte	0x1
 4188 005c 0B       		.uleb128 0xb
 4189 005d 05       		.uleb128 0x5
 4190 005e 3A       		.uleb128 0x3a
 4191 005f 0B       		.uleb128 0xb
 4192 0060 3B       		.uleb128 0x3b
 4193 0061 0B       		.uleb128 0xb
 4194 0062 01       		.uleb128 0x1
 4195 0063 13       		.uleb128 0x13
 4196 0064 00       		.byte	0
 4197 0065 00       		.byte	0
 4198 0066 0A       		.uleb128 0xa
 4199 0067 0D       		.uleb128 0xd
 4200 0068 00       		.byte	0
 4201 0069 03       		.uleb128 0x3
 4202 006a 0E       		.uleb128 0xe
 4203 006b 3A       		.uleb128 0x3a
 4204 006c 0B       		.uleb128 0xb
 4205 006d 3B       		.uleb128 0x3b
 4206 006e 0B       		.uleb128 0xb
 4207 006f 49       		.uleb128 0x49
 4208 0070 13       		.uleb128 0x13
 4209 0071 38       		.uleb128 0x38
 4210 0072 0B       		.uleb128 0xb
 4211 0073 00       		.byte	0
 4212 0074 00       		.byte	0
 4213 0075 0B       		.uleb128 0xb
 4214 0076 0D       		.uleb128 0xd
 4215 0077 00       		.byte	0
 4216 0078 03       		.uleb128 0x3
 4217 0079 0E       		.uleb128 0xe
 4218 007a 3A       		.uleb128 0x3a
 4219 007b 0B       		.uleb128 0xb
 4220 007c 3B       		.uleb128 0x3b
ARM GAS  /tmp/ccAFBUIw.s 			page 93


 4221 007d 0B       		.uleb128 0xb
 4222 007e 49       		.uleb128 0x49
 4223 007f 13       		.uleb128 0x13
 4224 0080 38       		.uleb128 0x38
 4225 0081 05       		.uleb128 0x5
 4226 0082 00       		.byte	0
 4227 0083 00       		.byte	0
 4228 0084 0C       		.uleb128 0xc
 4229 0085 04       		.uleb128 0x4
 4230 0086 01       		.byte	0x1
 4231 0087 03       		.uleb128 0x3
 4232 0088 0E       		.uleb128 0xe
 4233 0089 0B       		.uleb128 0xb
 4234 008a 0B       		.uleb128 0xb
 4235 008b 3A       		.uleb128 0x3a
 4236 008c 0B       		.uleb128 0xb
 4237 008d 3B       		.uleb128 0x3b
 4238 008e 0B       		.uleb128 0xb
 4239 008f 01       		.uleb128 0x1
 4240 0090 13       		.uleb128 0x13
 4241 0091 00       		.byte	0
 4242 0092 00       		.byte	0
 4243 0093 0D       		.uleb128 0xd
 4244 0094 28       		.uleb128 0x28
 4245 0095 00       		.byte	0
 4246 0096 03       		.uleb128 0x3
 4247 0097 0E       		.uleb128 0xe
 4248 0098 1C       		.uleb128 0x1c
 4249 0099 0D       		.uleb128 0xd
 4250 009a 00       		.byte	0
 4251 009b 00       		.byte	0
 4252 009c 0E       		.uleb128 0xe
 4253 009d 16       		.uleb128 0x16
 4254 009e 00       		.byte	0
 4255 009f 03       		.uleb128 0x3
 4256 00a0 0E       		.uleb128 0xe
 4257 00a1 3A       		.uleb128 0x3a
 4258 00a2 0B       		.uleb128 0xb
 4259 00a3 3B       		.uleb128 0x3b
 4260 00a4 05       		.uleb128 0x5
 4261 00a5 49       		.uleb128 0x49
 4262 00a6 13       		.uleb128 0x13
 4263 00a7 00       		.byte	0
 4264 00a8 00       		.byte	0
 4265 00a9 0F       		.uleb128 0xf
 4266 00aa 13       		.uleb128 0x13
 4267 00ab 01       		.byte	0x1
 4268 00ac 0B       		.uleb128 0xb
 4269 00ad 0B       		.uleb128 0xb
 4270 00ae 3A       		.uleb128 0x3a
 4271 00af 0B       		.uleb128 0xb
 4272 00b0 3B       		.uleb128 0x3b
 4273 00b1 0B       		.uleb128 0xb
 4274 00b2 01       		.uleb128 0x1
 4275 00b3 13       		.uleb128 0x13
 4276 00b4 00       		.byte	0
 4277 00b5 00       		.byte	0
ARM GAS  /tmp/ccAFBUIw.s 			page 94


 4278 00b6 10       		.uleb128 0x10
 4279 00b7 0D       		.uleb128 0xd
 4280 00b8 00       		.byte	0
 4281 00b9 03       		.uleb128 0x3
 4282 00ba 08       		.uleb128 0x8
 4283 00bb 3A       		.uleb128 0x3a
 4284 00bc 0B       		.uleb128 0xb
 4285 00bd 3B       		.uleb128 0x3b
 4286 00be 0B       		.uleb128 0xb
 4287 00bf 49       		.uleb128 0x49
 4288 00c0 13       		.uleb128 0x13
 4289 00c1 38       		.uleb128 0x38
 4290 00c2 0B       		.uleb128 0xb
 4291 00c3 00       		.byte	0
 4292 00c4 00       		.byte	0
 4293 00c5 11       		.uleb128 0x11
 4294 00c6 04       		.uleb128 0x4
 4295 00c7 01       		.byte	0x1
 4296 00c8 0B       		.uleb128 0xb
 4297 00c9 0B       		.uleb128 0xb
 4298 00ca 3A       		.uleb128 0x3a
 4299 00cb 0B       		.uleb128 0xb
 4300 00cc 3B       		.uleb128 0x3b
 4301 00cd 0B       		.uleb128 0xb
 4302 00ce 01       		.uleb128 0x1
 4303 00cf 13       		.uleb128 0x13
 4304 00d0 00       		.byte	0
 4305 00d1 00       		.byte	0
 4306 00d2 12       		.uleb128 0x12
 4307 00d3 13       		.uleb128 0x13
 4308 00d4 01       		.byte	0x1
 4309 00d5 0B       		.uleb128 0xb
 4310 00d6 0B       		.uleb128 0xb
 4311 00d7 3A       		.uleb128 0x3a
 4312 00d8 0B       		.uleb128 0xb
 4313 00d9 3B       		.uleb128 0x3b
 4314 00da 05       		.uleb128 0x5
 4315 00db 01       		.uleb128 0x1
 4316 00dc 13       		.uleb128 0x13
 4317 00dd 00       		.byte	0
 4318 00de 00       		.byte	0
 4319 00df 13       		.uleb128 0x13
 4320 00e0 0D       		.uleb128 0xd
 4321 00e1 00       		.byte	0
 4322 00e2 03       		.uleb128 0x3
 4323 00e3 0E       		.uleb128 0xe
 4324 00e4 3A       		.uleb128 0x3a
 4325 00e5 0B       		.uleb128 0xb
 4326 00e6 3B       		.uleb128 0x3b
 4327 00e7 05       		.uleb128 0x5
 4328 00e8 49       		.uleb128 0x49
 4329 00e9 13       		.uleb128 0x13
 4330 00ea 38       		.uleb128 0x38
 4331 00eb 0B       		.uleb128 0xb
 4332 00ec 00       		.byte	0
 4333 00ed 00       		.byte	0
 4334 00ee 14       		.uleb128 0x14
ARM GAS  /tmp/ccAFBUIw.s 			page 95


 4335 00ef 0F       		.uleb128 0xf
 4336 00f0 00       		.byte	0
 4337 00f1 0B       		.uleb128 0xb
 4338 00f2 0B       		.uleb128 0xb
 4339 00f3 49       		.uleb128 0x49
 4340 00f4 13       		.uleb128 0x13
 4341 00f5 00       		.byte	0
 4342 00f6 00       		.byte	0
 4343 00f7 15       		.uleb128 0x15
 4344 00f8 04       		.uleb128 0x4
 4345 00f9 01       		.byte	0x1
 4346 00fa 03       		.uleb128 0x3
 4347 00fb 0E       		.uleb128 0xe
 4348 00fc 0B       		.uleb128 0xb
 4349 00fd 0B       		.uleb128 0xb
 4350 00fe 3A       		.uleb128 0x3a
 4351 00ff 0B       		.uleb128 0xb
 4352 0100 3B       		.uleb128 0x3b
 4353 0101 05       		.uleb128 0x5
 4354 0102 01       		.uleb128 0x1
 4355 0103 13       		.uleb128 0x13
 4356 0104 00       		.byte	0
 4357 0105 00       		.byte	0
 4358 0106 16       		.uleb128 0x16
 4359 0107 04       		.uleb128 0x4
 4360 0108 01       		.byte	0x1
 4361 0109 0B       		.uleb128 0xb
 4362 010a 0B       		.uleb128 0xb
 4363 010b 3A       		.uleb128 0x3a
 4364 010c 0B       		.uleb128 0xb
 4365 010d 3B       		.uleb128 0x3b
 4366 010e 05       		.uleb128 0x5
 4367 010f 01       		.uleb128 0x1
 4368 0110 13       		.uleb128 0x13
 4369 0111 00       		.byte	0
 4370 0112 00       		.byte	0
 4371 0113 17       		.uleb128 0x17
 4372 0114 15       		.uleb128 0x15
 4373 0115 01       		.byte	0x1
 4374 0116 27       		.uleb128 0x27
 4375 0117 19       		.uleb128 0x19
 4376 0118 01       		.uleb128 0x1
 4377 0119 13       		.uleb128 0x13
 4378 011a 00       		.byte	0
 4379 011b 00       		.byte	0
 4380 011c 18       		.uleb128 0x18
 4381 011d 05       		.uleb128 0x5
 4382 011e 00       		.byte	0
 4383 011f 49       		.uleb128 0x49
 4384 0120 13       		.uleb128 0x13
 4385 0121 00       		.byte	0
 4386 0122 00       		.byte	0
 4387 0123 19       		.uleb128 0x19
 4388 0124 13       		.uleb128 0x13
 4389 0125 01       		.byte	0x1
 4390 0126 03       		.uleb128 0x3
 4391 0127 0E       		.uleb128 0xe
ARM GAS  /tmp/ccAFBUIw.s 			page 96


 4392 0128 0B       		.uleb128 0xb
 4393 0129 0B       		.uleb128 0xb
 4394 012a 3A       		.uleb128 0x3a
 4395 012b 0B       		.uleb128 0xb
 4396 012c 3B       		.uleb128 0x3b
 4397 012d 0B       		.uleb128 0xb
 4398 012e 01       		.uleb128 0x1
 4399 012f 13       		.uleb128 0x13
 4400 0130 00       		.byte	0
 4401 0131 00       		.byte	0
 4402 0132 1A       		.uleb128 0x1a
 4403 0133 2E       		.uleb128 0x2e
 4404 0134 01       		.byte	0x1
 4405 0135 03       		.uleb128 0x3
 4406 0136 0E       		.uleb128 0xe
 4407 0137 3A       		.uleb128 0x3a
 4408 0138 0B       		.uleb128 0xb
 4409 0139 3B       		.uleb128 0x3b
 4410 013a 0B       		.uleb128 0xb
 4411 013b 27       		.uleb128 0x27
 4412 013c 19       		.uleb128 0x19
 4413 013d 49       		.uleb128 0x49
 4414 013e 13       		.uleb128 0x13
 4415 013f 20       		.uleb128 0x20
 4416 0140 0B       		.uleb128 0xb
 4417 0141 01       		.uleb128 0x1
 4418 0142 13       		.uleb128 0x13
 4419 0143 00       		.byte	0
 4420 0144 00       		.byte	0
 4421 0145 1B       		.uleb128 0x1b
 4422 0146 05       		.uleb128 0x5
 4423 0147 00       		.byte	0
 4424 0148 03       		.uleb128 0x3
 4425 0149 0E       		.uleb128 0xe
 4426 014a 3A       		.uleb128 0x3a
 4427 014b 0B       		.uleb128 0xb
 4428 014c 3B       		.uleb128 0x3b
 4429 014d 0B       		.uleb128 0xb
 4430 014e 49       		.uleb128 0x49
 4431 014f 13       		.uleb128 0x13
 4432 0150 00       		.byte	0
 4433 0151 00       		.byte	0
 4434 0152 1C       		.uleb128 0x1c
 4435 0153 2E       		.uleb128 0x2e
 4436 0154 01       		.byte	0x1
 4437 0155 3F       		.uleb128 0x3f
 4438 0156 19       		.uleb128 0x19
 4439 0157 03       		.uleb128 0x3
 4440 0158 0E       		.uleb128 0xe
 4441 0159 3A       		.uleb128 0x3a
 4442 015a 0B       		.uleb128 0xb
 4443 015b 3B       		.uleb128 0x3b
 4444 015c 0B       		.uleb128 0xb
 4445 015d 27       		.uleb128 0x27
 4446 015e 19       		.uleb128 0x19
 4447 015f 49       		.uleb128 0x49
 4448 0160 13       		.uleb128 0x13
ARM GAS  /tmp/ccAFBUIw.s 			page 97


 4449 0161 20       		.uleb128 0x20
 4450 0162 0B       		.uleb128 0xb
 4451 0163 01       		.uleb128 0x1
 4452 0164 13       		.uleb128 0x13
 4453 0165 00       		.byte	0
 4454 0166 00       		.byte	0
 4455 0167 1D       		.uleb128 0x1d
 4456 0168 2E       		.uleb128 0x2e
 4457 0169 00       		.byte	0
 4458 016a 03       		.uleb128 0x3
 4459 016b 0E       		.uleb128 0xe
 4460 016c 3A       		.uleb128 0x3a
 4461 016d 0B       		.uleb128 0xb
 4462 016e 3B       		.uleb128 0x3b
 4463 016f 0B       		.uleb128 0xb
 4464 0170 27       		.uleb128 0x27
 4465 0171 19       		.uleb128 0x19
 4466 0172 49       		.uleb128 0x49
 4467 0173 13       		.uleb128 0x13
 4468 0174 20       		.uleb128 0x20
 4469 0175 0B       		.uleb128 0xb
 4470 0176 00       		.byte	0
 4471 0177 00       		.byte	0
 4472 0178 1E       		.uleb128 0x1e
 4473 0179 2E       		.uleb128 0x2e
 4474 017a 01       		.byte	0x1
 4475 017b 03       		.uleb128 0x3
 4476 017c 0E       		.uleb128 0xe
 4477 017d 3A       		.uleb128 0x3a
 4478 017e 0B       		.uleb128 0xb
 4479 017f 3B       		.uleb128 0x3b
 4480 0180 0B       		.uleb128 0xb
 4481 0181 27       		.uleb128 0x27
 4482 0182 19       		.uleb128 0x19
 4483 0183 20       		.uleb128 0x20
 4484 0184 0B       		.uleb128 0xb
 4485 0185 01       		.uleb128 0x1
 4486 0186 13       		.uleb128 0x13
 4487 0187 00       		.byte	0
 4488 0188 00       		.byte	0
 4489 0189 1F       		.uleb128 0x1f
 4490 018a 2E       		.uleb128 0x2e
 4491 018b 01       		.byte	0x1
 4492 018c 3F       		.uleb128 0x3f
 4493 018d 19       		.uleb128 0x19
 4494 018e 03       		.uleb128 0x3
 4495 018f 0E       		.uleb128 0xe
 4496 0190 3A       		.uleb128 0x3a
 4497 0191 0B       		.uleb128 0xb
 4498 0192 3B       		.uleb128 0x3b
 4499 0193 05       		.uleb128 0x5
 4500 0194 27       		.uleb128 0x27
 4501 0195 19       		.uleb128 0x19
 4502 0196 11       		.uleb128 0x11
 4503 0197 01       		.uleb128 0x1
 4504 0198 12       		.uleb128 0x12
 4505 0199 06       		.uleb128 0x6
ARM GAS  /tmp/ccAFBUIw.s 			page 98


 4506 019a 40       		.uleb128 0x40
 4507 019b 18       		.uleb128 0x18
 4508 019c 9742     		.uleb128 0x2117
 4509 019e 19       		.uleb128 0x19
 4510 019f 01       		.uleb128 0x1
 4511 01a0 13       		.uleb128 0x13
 4512 01a1 00       		.byte	0
 4513 01a2 00       		.byte	0
 4514 01a3 20       		.uleb128 0x20
 4515 01a4 05       		.uleb128 0x5
 4516 01a5 00       		.byte	0
 4517 01a6 03       		.uleb128 0x3
 4518 01a7 08       		.uleb128 0x8
 4519 01a8 3A       		.uleb128 0x3a
 4520 01a9 0B       		.uleb128 0xb
 4521 01aa 3B       		.uleb128 0x3b
 4522 01ab 05       		.uleb128 0x5
 4523 01ac 49       		.uleb128 0x49
 4524 01ad 13       		.uleb128 0x13
 4525 01ae 02       		.uleb128 0x2
 4526 01af 17       		.uleb128 0x17
 4527 01b0 00       		.byte	0
 4528 01b1 00       		.byte	0
 4529 01b2 21       		.uleb128 0x21
 4530 01b3 05       		.uleb128 0x5
 4531 01b4 00       		.byte	0
 4532 01b5 03       		.uleb128 0x3
 4533 01b6 0E       		.uleb128 0xe
 4534 01b7 3A       		.uleb128 0x3a
 4535 01b8 0B       		.uleb128 0xb
 4536 01b9 3B       		.uleb128 0x3b
 4537 01ba 05       		.uleb128 0x5
 4538 01bb 49       		.uleb128 0x49
 4539 01bc 13       		.uleb128 0x13
 4540 01bd 02       		.uleb128 0x2
 4541 01be 18       		.uleb128 0x18
 4542 01bf 00       		.byte	0
 4543 01c0 00       		.byte	0
 4544 01c1 22       		.uleb128 0x22
 4545 01c2 34       		.uleb128 0x34
 4546 01c3 00       		.byte	0
 4547 01c4 03       		.uleb128 0x3
 4548 01c5 08       		.uleb128 0x8
 4549 01c6 3A       		.uleb128 0x3a
 4550 01c7 0B       		.uleb128 0xb
 4551 01c8 3B       		.uleb128 0x3b
 4552 01c9 05       		.uleb128 0x5
 4553 01ca 49       		.uleb128 0x49
 4554 01cb 13       		.uleb128 0x13
 4555 01cc 02       		.uleb128 0x2
 4556 01cd 17       		.uleb128 0x17
 4557 01ce 00       		.byte	0
 4558 01cf 00       		.byte	0
 4559 01d0 23       		.uleb128 0x23
 4560 01d1 34       		.uleb128 0x34
 4561 01d2 00       		.byte	0
 4562 01d3 03       		.uleb128 0x3
ARM GAS  /tmp/ccAFBUIw.s 			page 99


 4563 01d4 0E       		.uleb128 0xe
 4564 01d5 3A       		.uleb128 0x3a
 4565 01d6 0B       		.uleb128 0xb
 4566 01d7 3B       		.uleb128 0x3b
 4567 01d8 05       		.uleb128 0x5
 4568 01d9 49       		.uleb128 0x49
 4569 01da 13       		.uleb128 0x13
 4570 01db 02       		.uleb128 0x2
 4571 01dc 17       		.uleb128 0x17
 4572 01dd 00       		.byte	0
 4573 01de 00       		.byte	0
 4574 01df 24       		.uleb128 0x24
 4575 01e0 2E       		.uleb128 0x2e
 4576 01e1 01       		.byte	0x1
 4577 01e2 3F       		.uleb128 0x3f
 4578 01e3 19       		.uleb128 0x19
 4579 01e4 03       		.uleb128 0x3
 4580 01e5 0E       		.uleb128 0xe
 4581 01e6 3A       		.uleb128 0x3a
 4582 01e7 0B       		.uleb128 0xb
 4583 01e8 3B       		.uleb128 0x3b
 4584 01e9 0B       		.uleb128 0xb
 4585 01ea 27       		.uleb128 0x27
 4586 01eb 19       		.uleb128 0x19
 4587 01ec 49       		.uleb128 0x49
 4588 01ed 13       		.uleb128 0x13
 4589 01ee 11       		.uleb128 0x11
 4590 01ef 01       		.uleb128 0x1
 4591 01f0 12       		.uleb128 0x12
 4592 01f1 06       		.uleb128 0x6
 4593 01f2 40       		.uleb128 0x40
 4594 01f3 18       		.uleb128 0x18
 4595 01f4 9742     		.uleb128 0x2117
 4596 01f6 19       		.uleb128 0x19
 4597 01f7 01       		.uleb128 0x1
 4598 01f8 13       		.uleb128 0x13
 4599 01f9 00       		.byte	0
 4600 01fa 00       		.byte	0
 4601 01fb 25       		.uleb128 0x25
 4602 01fc 05       		.uleb128 0x5
 4603 01fd 00       		.byte	0
 4604 01fe 03       		.uleb128 0x3
 4605 01ff 0E       		.uleb128 0xe
 4606 0200 3A       		.uleb128 0x3a
 4607 0201 0B       		.uleb128 0xb
 4608 0202 3B       		.uleb128 0x3b
 4609 0203 0B       		.uleb128 0xb
 4610 0204 49       		.uleb128 0x49
 4611 0205 13       		.uleb128 0x13
 4612 0206 02       		.uleb128 0x2
 4613 0207 17       		.uleb128 0x17
 4614 0208 00       		.byte	0
 4615 0209 00       		.byte	0
 4616 020a 26       		.uleb128 0x26
 4617 020b 05       		.uleb128 0x5
 4618 020c 00       		.byte	0
 4619 020d 03       		.uleb128 0x3
ARM GAS  /tmp/ccAFBUIw.s 			page 100


 4620 020e 0E       		.uleb128 0xe
 4621 020f 3A       		.uleb128 0x3a
 4622 0210 0B       		.uleb128 0xb
 4623 0211 3B       		.uleb128 0x3b
 4624 0212 0B       		.uleb128 0xb
 4625 0213 49       		.uleb128 0x49
 4626 0214 13       		.uleb128 0x13
 4627 0215 02       		.uleb128 0x2
 4628 0216 18       		.uleb128 0x18
 4629 0217 00       		.byte	0
 4630 0218 00       		.byte	0
 4631 0219 27       		.uleb128 0x27
 4632 021a 34       		.uleb128 0x34
 4633 021b 00       		.byte	0
 4634 021c 03       		.uleb128 0x3
 4635 021d 0E       		.uleb128 0xe
 4636 021e 3A       		.uleb128 0x3a
 4637 021f 0B       		.uleb128 0xb
 4638 0220 3B       		.uleb128 0x3b
 4639 0221 0B       		.uleb128 0xb
 4640 0222 49       		.uleb128 0x49
 4641 0223 13       		.uleb128 0x13
 4642 0224 02       		.uleb128 0x2
 4643 0225 17       		.uleb128 0x17
 4644 0226 00       		.byte	0
 4645 0227 00       		.byte	0
 4646 0228 28       		.uleb128 0x28
 4647 0229 1D       		.uleb128 0x1d
 4648 022a 01       		.byte	0x1
 4649 022b 31       		.uleb128 0x31
 4650 022c 13       		.uleb128 0x13
 4651 022d 52       		.uleb128 0x52
 4652 022e 01       		.uleb128 0x1
 4653 022f 55       		.uleb128 0x55
 4654 0230 17       		.uleb128 0x17
 4655 0231 58       		.uleb128 0x58
 4656 0232 0B       		.uleb128 0xb
 4657 0233 59       		.uleb128 0x59
 4658 0234 0B       		.uleb128 0xb
 4659 0235 00       		.byte	0
 4660 0236 00       		.byte	0
 4661 0237 29       		.uleb128 0x29
 4662 0238 05       		.uleb128 0x5
 4663 0239 00       		.byte	0
 4664 023a 31       		.uleb128 0x31
 4665 023b 13       		.uleb128 0x13
 4666 023c 02       		.uleb128 0x2
 4667 023d 17       		.uleb128 0x17
 4668 023e 00       		.byte	0
 4669 023f 00       		.byte	0
 4670 0240 2A       		.uleb128 0x2a
 4671 0241 2E       		.uleb128 0x2e
 4672 0242 01       		.byte	0x1
 4673 0243 31       		.uleb128 0x31
 4674 0244 13       		.uleb128 0x13
 4675 0245 11       		.uleb128 0x11
 4676 0246 01       		.uleb128 0x1
ARM GAS  /tmp/ccAFBUIw.s 			page 101


 4677 0247 12       		.uleb128 0x12
 4678 0248 06       		.uleb128 0x6
 4679 0249 40       		.uleb128 0x40
 4680 024a 18       		.uleb128 0x18
 4681 024b 9742     		.uleb128 0x2117
 4682 024d 19       		.uleb128 0x19
 4683 024e 01       		.uleb128 0x1
 4684 024f 13       		.uleb128 0x13
 4685 0250 00       		.byte	0
 4686 0251 00       		.byte	0
 4687 0252 2B       		.uleb128 0x2b
 4688 0253 1D       		.uleb128 0x1d
 4689 0254 01       		.byte	0x1
 4690 0255 31       		.uleb128 0x31
 4691 0256 13       		.uleb128 0x13
 4692 0257 52       		.uleb128 0x52
 4693 0258 01       		.uleb128 0x1
 4694 0259 55       		.uleb128 0x55
 4695 025a 17       		.uleb128 0x17
 4696 025b 58       		.uleb128 0x58
 4697 025c 0B       		.uleb128 0xb
 4698 025d 59       		.uleb128 0x59
 4699 025e 0B       		.uleb128 0xb
 4700 025f 01       		.uleb128 0x1
 4701 0260 13       		.uleb128 0x13
 4702 0261 00       		.byte	0
 4703 0262 00       		.byte	0
 4704 0263 2C       		.uleb128 0x2c
 4705 0264 0B       		.uleb128 0xb
 4706 0265 01       		.byte	0x1
 4707 0266 11       		.uleb128 0x11
 4708 0267 01       		.uleb128 0x1
 4709 0268 12       		.uleb128 0x12
 4710 0269 06       		.uleb128 0x6
 4711 026a 00       		.byte	0
 4712 026b 00       		.byte	0
 4713 026c 2D       		.uleb128 0x2d
 4714 026d 1D       		.uleb128 0x1d
 4715 026e 01       		.byte	0x1
 4716 026f 31       		.uleb128 0x31
 4717 0270 13       		.uleb128 0x13
 4718 0271 11       		.uleb128 0x11
 4719 0272 01       		.uleb128 0x1
 4720 0273 12       		.uleb128 0x12
 4721 0274 06       		.uleb128 0x6
 4722 0275 58       		.uleb128 0x58
 4723 0276 0B       		.uleb128 0xb
 4724 0277 59       		.uleb128 0x59
 4725 0278 0B       		.uleb128 0xb
 4726 0279 00       		.byte	0
 4727 027a 00       		.byte	0
 4728 027b 2E       		.uleb128 0x2e
 4729 027c 1D       		.uleb128 0x1d
 4730 027d 01       		.byte	0x1
 4731 027e 31       		.uleb128 0x31
 4732 027f 13       		.uleb128 0x13
 4733 0280 11       		.uleb128 0x11
ARM GAS  /tmp/ccAFBUIw.s 			page 102


 4734 0281 01       		.uleb128 0x1
 4735 0282 12       		.uleb128 0x12
 4736 0283 06       		.uleb128 0x6
 4737 0284 58       		.uleb128 0x58
 4738 0285 0B       		.uleb128 0xb
 4739 0286 59       		.uleb128 0x59
 4740 0287 0B       		.uleb128 0xb
 4741 0288 01       		.uleb128 0x1
 4742 0289 13       		.uleb128 0x13
 4743 028a 00       		.byte	0
 4744 028b 00       		.byte	0
 4745 028c 2F       		.uleb128 0x2f
 4746 028d 2E       		.uleb128 0x2e
 4747 028e 01       		.byte	0x1
 4748 028f 3F       		.uleb128 0x3f
 4749 0290 19       		.uleb128 0x19
 4750 0291 03       		.uleb128 0x3
 4751 0292 0E       		.uleb128 0xe
 4752 0293 3A       		.uleb128 0x3a
 4753 0294 0B       		.uleb128 0xb
 4754 0295 3B       		.uleb128 0x3b
 4755 0296 05       		.uleb128 0x5
 4756 0297 27       		.uleb128 0x27
 4757 0298 19       		.uleb128 0x19
 4758 0299 49       		.uleb128 0x49
 4759 029a 13       		.uleb128 0x13
 4760 029b 11       		.uleb128 0x11
 4761 029c 01       		.uleb128 0x1
 4762 029d 12       		.uleb128 0x12
 4763 029e 06       		.uleb128 0x6
 4764 029f 40       		.uleb128 0x40
 4765 02a0 18       		.uleb128 0x18
 4766 02a1 9742     		.uleb128 0x2117
 4767 02a3 19       		.uleb128 0x19
 4768 02a4 01       		.uleb128 0x1
 4769 02a5 13       		.uleb128 0x13
 4770 02a6 00       		.byte	0
 4771 02a7 00       		.byte	0
 4772 02a8 30       		.uleb128 0x30
 4773 02a9 05       		.uleb128 0x5
 4774 02aa 00       		.byte	0
 4775 02ab 03       		.uleb128 0x3
 4776 02ac 0E       		.uleb128 0xe
 4777 02ad 3A       		.uleb128 0x3a
 4778 02ae 0B       		.uleb128 0xb
 4779 02af 3B       		.uleb128 0x3b
 4780 02b0 05       		.uleb128 0x5
 4781 02b1 49       		.uleb128 0x49
 4782 02b2 13       		.uleb128 0x13
 4783 02b3 02       		.uleb128 0x2
 4784 02b4 17       		.uleb128 0x17
 4785 02b5 00       		.byte	0
 4786 02b6 00       		.byte	0
 4787 02b7 31       		.uleb128 0x31
 4788 02b8 1D       		.uleb128 0x1d
 4789 02b9 01       		.byte	0x1
 4790 02ba 31       		.uleb128 0x31
ARM GAS  /tmp/ccAFBUIw.s 			page 103


 4791 02bb 13       		.uleb128 0x13
 4792 02bc 52       		.uleb128 0x52
 4793 02bd 01       		.uleb128 0x1
 4794 02be 55       		.uleb128 0x55
 4795 02bf 17       		.uleb128 0x17
 4796 02c0 58       		.uleb128 0x58
 4797 02c1 0B       		.uleb128 0xb
 4798 02c2 59       		.uleb128 0x59
 4799 02c3 05       		.uleb128 0x5
 4800 02c4 00       		.byte	0
 4801 02c5 00       		.byte	0
 4802 02c6 32       		.uleb128 0x32
 4803 02c7 05       		.uleb128 0x5
 4804 02c8 00       		.byte	0
 4805 02c9 03       		.uleb128 0x3
 4806 02ca 08       		.uleb128 0x8
 4807 02cb 3A       		.uleb128 0x3a
 4808 02cc 0B       		.uleb128 0xb
 4809 02cd 3B       		.uleb128 0x3b
 4810 02ce 0B       		.uleb128 0xb
 4811 02cf 49       		.uleb128 0x49
 4812 02d0 13       		.uleb128 0x13
 4813 02d1 00       		.byte	0
 4814 02d2 00       		.byte	0
 4815 02d3 33       		.uleb128 0x33
 4816 02d4 2E       		.uleb128 0x2e
 4817 02d5 01       		.byte	0x1
 4818 02d6 03       		.uleb128 0x3
 4819 02d7 0E       		.uleb128 0xe
 4820 02d8 3A       		.uleb128 0x3a
 4821 02d9 0B       		.uleb128 0xb
 4822 02da 3B       		.uleb128 0x3b
 4823 02db 05       		.uleb128 0x5
 4824 02dc 27       		.uleb128 0x27
 4825 02dd 19       		.uleb128 0x19
 4826 02de 20       		.uleb128 0x20
 4827 02df 0B       		.uleb128 0xb
 4828 02e0 01       		.uleb128 0x1
 4829 02e1 13       		.uleb128 0x13
 4830 02e2 00       		.byte	0
 4831 02e3 00       		.byte	0
 4832 02e4 34       		.uleb128 0x34
 4833 02e5 05       		.uleb128 0x5
 4834 02e6 00       		.byte	0
 4835 02e7 03       		.uleb128 0x3
 4836 02e8 08       		.uleb128 0x8
 4837 02e9 3A       		.uleb128 0x3a
 4838 02ea 0B       		.uleb128 0xb
 4839 02eb 3B       		.uleb128 0x3b
 4840 02ec 05       		.uleb128 0x5
 4841 02ed 49       		.uleb128 0x49
 4842 02ee 13       		.uleb128 0x13
 4843 02ef 00       		.byte	0
 4844 02f0 00       		.byte	0
 4845 02f1 35       		.uleb128 0x35
 4846 02f2 05       		.uleb128 0x5
 4847 02f3 00       		.byte	0
ARM GAS  /tmp/ccAFBUIw.s 			page 104


 4848 02f4 31       		.uleb128 0x31
 4849 02f5 13       		.uleb128 0x13
 4850 02f6 00       		.byte	0
 4851 02f7 00       		.byte	0
 4852 02f8 36       		.uleb128 0x36
 4853 02f9 2E       		.uleb128 0x2e
 4854 02fa 01       		.byte	0x1
 4855 02fb 3F       		.uleb128 0x3f
 4856 02fc 19       		.uleb128 0x19
 4857 02fd 03       		.uleb128 0x3
 4858 02fe 0E       		.uleb128 0xe
 4859 02ff 3A       		.uleb128 0x3a
 4860 0300 0B       		.uleb128 0xb
 4861 0301 3B       		.uleb128 0x3b
 4862 0302 05       		.uleb128 0x5
 4863 0303 27       		.uleb128 0x27
 4864 0304 19       		.uleb128 0x19
 4865 0305 11       		.uleb128 0x11
 4866 0306 01       		.uleb128 0x1
 4867 0307 12       		.uleb128 0x12
 4868 0308 06       		.uleb128 0x6
 4869 0309 40       		.uleb128 0x40
 4870 030a 18       		.uleb128 0x18
 4871 030b 9642     		.uleb128 0x2116
 4872 030d 19       		.uleb128 0x19
 4873 030e 01       		.uleb128 0x1
 4874 030f 13       		.uleb128 0x13
 4875 0310 00       		.byte	0
 4876 0311 00       		.byte	0
 4877 0312 37       		.uleb128 0x37
 4878 0313 1D       		.uleb128 0x1d
 4879 0314 01       		.byte	0x1
 4880 0315 31       		.uleb128 0x31
 4881 0316 13       		.uleb128 0x13
 4882 0317 11       		.uleb128 0x11
 4883 0318 01       		.uleb128 0x1
 4884 0319 12       		.uleb128 0x12
 4885 031a 06       		.uleb128 0x6
 4886 031b 58       		.uleb128 0x58
 4887 031c 0B       		.uleb128 0xb
 4888 031d 59       		.uleb128 0x59
 4889 031e 05       		.uleb128 0x5
 4890 031f 00       		.byte	0
 4891 0320 00       		.byte	0
 4892 0321 38       		.uleb128 0x38
 4893 0322 898201   		.uleb128 0x4109
 4894 0325 00       		.byte	0
 4895 0326 11       		.uleb128 0x11
 4896 0327 01       		.uleb128 0x1
 4897 0328 31       		.uleb128 0x31
 4898 0329 13       		.uleb128 0x13
 4899 032a 00       		.byte	0
 4900 032b 00       		.byte	0
 4901 032c 39       		.uleb128 0x39
 4902 032d 2E       		.uleb128 0x2e
 4903 032e 01       		.byte	0x1
 4904 032f 3F       		.uleb128 0x3f
ARM GAS  /tmp/ccAFBUIw.s 			page 105


 4905 0330 19       		.uleb128 0x19
 4906 0331 03       		.uleb128 0x3
 4907 0332 0E       		.uleb128 0xe
 4908 0333 3A       		.uleb128 0x3a
 4909 0334 0B       		.uleb128 0xb
 4910 0335 3B       		.uleb128 0x3b
 4911 0336 05       		.uleb128 0x5
 4912 0337 27       		.uleb128 0x27
 4913 0338 19       		.uleb128 0x19
 4914 0339 49       		.uleb128 0x49
 4915 033a 13       		.uleb128 0x13
 4916 033b 11       		.uleb128 0x11
 4917 033c 01       		.uleb128 0x1
 4918 033d 12       		.uleb128 0x12
 4919 033e 06       		.uleb128 0x6
 4920 033f 40       		.uleb128 0x40
 4921 0340 18       		.uleb128 0x18
 4922 0341 9642     		.uleb128 0x2116
 4923 0343 19       		.uleb128 0x19
 4924 0344 01       		.uleb128 0x1
 4925 0345 13       		.uleb128 0x13
 4926 0346 00       		.byte	0
 4927 0347 00       		.byte	0
 4928 0348 3A       		.uleb128 0x3a
 4929 0349 1D       		.uleb128 0x1d
 4930 034a 01       		.byte	0x1
 4931 034b 31       		.uleb128 0x31
 4932 034c 13       		.uleb128 0x13
 4933 034d 52       		.uleb128 0x52
 4934 034e 01       		.uleb128 0x1
 4935 034f 55       		.uleb128 0x55
 4936 0350 17       		.uleb128 0x17
 4937 0351 58       		.uleb128 0x58
 4938 0352 0B       		.uleb128 0xb
 4939 0353 59       		.uleb128 0x59
 4940 0354 05       		.uleb128 0x5
 4941 0355 01       		.uleb128 0x1
 4942 0356 13       		.uleb128 0x13
 4943 0357 00       		.byte	0
 4944 0358 00       		.byte	0
 4945 0359 3B       		.uleb128 0x3b
 4946 035a 1D       		.uleb128 0x1d
 4947 035b 01       		.byte	0x1
 4948 035c 31       		.uleb128 0x31
 4949 035d 13       		.uleb128 0x13
 4950 035e 11       		.uleb128 0x11
 4951 035f 01       		.uleb128 0x1
 4952 0360 12       		.uleb128 0x12
 4953 0361 06       		.uleb128 0x6
 4954 0362 58       		.uleb128 0x58
 4955 0363 0B       		.uleb128 0xb
 4956 0364 59       		.uleb128 0x59
 4957 0365 05       		.uleb128 0x5
 4958 0366 01       		.uleb128 0x1
 4959 0367 13       		.uleb128 0x13
 4960 0368 00       		.byte	0
 4961 0369 00       		.byte	0
ARM GAS  /tmp/ccAFBUIw.s 			page 106


 4962 036a 3C       		.uleb128 0x3c
 4963 036b 898201   		.uleb128 0x4109
 4964 036e 01       		.byte	0x1
 4965 036f 11       		.uleb128 0x11
 4966 0370 01       		.uleb128 0x1
 4967 0371 01       		.uleb128 0x1
 4968 0372 13       		.uleb128 0x13
 4969 0373 00       		.byte	0
 4970 0374 00       		.byte	0
 4971 0375 3D       		.uleb128 0x3d
 4972 0376 8A8201   		.uleb128 0x410a
 4973 0379 00       		.byte	0
 4974 037a 02       		.uleb128 0x2
 4975 037b 18       		.uleb128 0x18
 4976 037c 9142     		.uleb128 0x2111
 4977 037e 18       		.uleb128 0x18
 4978 037f 00       		.byte	0
 4979 0380 00       		.byte	0
 4980 0381 3E       		.uleb128 0x3e
 4981 0382 898201   		.uleb128 0x4109
 4982 0385 01       		.byte	0x1
 4983 0386 11       		.uleb128 0x11
 4984 0387 01       		.uleb128 0x1
 4985 0388 00       		.byte	0
 4986 0389 00       		.byte	0
 4987 038a 3F       		.uleb128 0x3f
 4988 038b 34       		.uleb128 0x34
 4989 038c 00       		.byte	0
 4990 038d 03       		.uleb128 0x3
 4991 038e 0E       		.uleb128 0xe
 4992 038f 3A       		.uleb128 0x3a
 4993 0390 0B       		.uleb128 0xb
 4994 0391 3B       		.uleb128 0x3b
 4995 0392 05       		.uleb128 0x5
 4996 0393 49       		.uleb128 0x49
 4997 0394 13       		.uleb128 0x13
 4998 0395 02       		.uleb128 0x2
 4999 0396 18       		.uleb128 0x18
 5000 0397 00       		.byte	0
 5001 0398 00       		.byte	0
 5002 0399 40       		.uleb128 0x40
 5003 039a 898201   		.uleb128 0x4109
 5004 039d 01       		.byte	0x1
 5005 039e 11       		.uleb128 0x11
 5006 039f 01       		.uleb128 0x1
 5007 03a0 31       		.uleb128 0x31
 5008 03a1 13       		.uleb128 0x13
 5009 03a2 00       		.byte	0
 5010 03a3 00       		.byte	0
 5011 03a4 41       		.uleb128 0x41
 5012 03a5 05       		.uleb128 0x5
 5013 03a6 00       		.byte	0
 5014 03a7 03       		.uleb128 0x3
 5015 03a8 08       		.uleb128 0x8
 5016 03a9 3A       		.uleb128 0x3a
 5017 03aa 0B       		.uleb128 0xb
 5018 03ab 3B       		.uleb128 0x3b
ARM GAS  /tmp/ccAFBUIw.s 			page 107


 5019 03ac 05       		.uleb128 0x5
 5020 03ad 49       		.uleb128 0x49
 5021 03ae 13       		.uleb128 0x13
 5022 03af 02       		.uleb128 0x2
 5023 03b0 18       		.uleb128 0x18
 5024 03b1 00       		.byte	0
 5025 03b2 00       		.byte	0
 5026 03b3 42       		.uleb128 0x42
 5027 03b4 34       		.uleb128 0x34
 5028 03b5 00       		.byte	0
 5029 03b6 03       		.uleb128 0x3
 5030 03b7 0E       		.uleb128 0xe
 5031 03b8 3A       		.uleb128 0x3a
 5032 03b9 0B       		.uleb128 0xb
 5033 03ba 3B       		.uleb128 0x3b
 5034 03bb 0B       		.uleb128 0xb
 5035 03bc 49       		.uleb128 0x49
 5036 03bd 13       		.uleb128 0x13
 5037 03be 00       		.byte	0
 5038 03bf 00       		.byte	0
 5039 03c0 43       		.uleb128 0x43
 5040 03c1 0B       		.uleb128 0xb
 5041 03c2 01       		.byte	0x1
 5042 03c3 00       		.byte	0
 5043 03c4 00       		.byte	0
 5044 03c5 44       		.uleb128 0x44
 5045 03c6 0B       		.uleb128 0xb
 5046 03c7 01       		.byte	0x1
 5047 03c8 55       		.uleb128 0x55
 5048 03c9 17       		.uleb128 0x17
 5049 03ca 00       		.byte	0
 5050 03cb 00       		.byte	0
 5051 03cc 45       		.uleb128 0x45
 5052 03cd 34       		.uleb128 0x34
 5053 03ce 00       		.byte	0
 5054 03cf 31       		.uleb128 0x31
 5055 03d0 13       		.uleb128 0x13
 5056 03d1 02       		.uleb128 0x2
 5057 03d2 17       		.uleb128 0x17
 5058 03d3 00       		.byte	0
 5059 03d4 00       		.byte	0
 5060 03d5 46       		.uleb128 0x46
 5061 03d6 0B       		.uleb128 0xb
 5062 03d7 01       		.byte	0x1
 5063 03d8 11       		.uleb128 0x11
 5064 03d9 01       		.uleb128 0x1
 5065 03da 12       		.uleb128 0x12
 5066 03db 06       		.uleb128 0x6
 5067 03dc 01       		.uleb128 0x1
 5068 03dd 13       		.uleb128 0x13
 5069 03de 00       		.byte	0
 5070 03df 00       		.byte	0
 5071 03e0 47       		.uleb128 0x47
 5072 03e1 898201   		.uleb128 0x4109
 5073 03e4 01       		.byte	0x1
 5074 03e5 11       		.uleb128 0x11
 5075 03e6 01       		.uleb128 0x1
ARM GAS  /tmp/ccAFBUIw.s 			page 108


 5076 03e7 31       		.uleb128 0x31
 5077 03e8 13       		.uleb128 0x13
 5078 03e9 01       		.uleb128 0x1
 5079 03ea 13       		.uleb128 0x13
 5080 03eb 00       		.byte	0
 5081 03ec 00       		.byte	0
 5082 03ed 48       		.uleb128 0x48
 5083 03ee 34       		.uleb128 0x34
 5084 03ef 00       		.byte	0
 5085 03f0 03       		.uleb128 0x3
 5086 03f1 08       		.uleb128 0x8
 5087 03f2 3A       		.uleb128 0x3a
 5088 03f3 0B       		.uleb128 0xb
 5089 03f4 3B       		.uleb128 0x3b
 5090 03f5 0B       		.uleb128 0xb
 5091 03f6 49       		.uleb128 0x49
 5092 03f7 13       		.uleb128 0x13
 5093 03f8 02       		.uleb128 0x2
 5094 03f9 18       		.uleb128 0x18
 5095 03fa 00       		.byte	0
 5096 03fb 00       		.byte	0
 5097 03fc 49       		.uleb128 0x49
 5098 03fd 34       		.uleb128 0x34
 5099 03fe 00       		.byte	0
 5100 03ff 03       		.uleb128 0x3
 5101 0400 0E       		.uleb128 0xe
 5102 0401 3A       		.uleb128 0x3a
 5103 0402 0B       		.uleb128 0xb
 5104 0403 3B       		.uleb128 0x3b
 5105 0404 0B       		.uleb128 0xb
 5106 0405 49       		.uleb128 0x49
 5107 0406 13       		.uleb128 0x13
 5108 0407 02       		.uleb128 0x2
 5109 0408 18       		.uleb128 0x18
 5110 0409 00       		.byte	0
 5111 040a 00       		.byte	0
 5112 040b 4A       		.uleb128 0x4a
 5113 040c 34       		.uleb128 0x34
 5114 040d 00       		.byte	0
 5115 040e 03       		.uleb128 0x3
 5116 040f 0E       		.uleb128 0xe
 5117 0410 3A       		.uleb128 0x3a
 5118 0411 0B       		.uleb128 0xb
 5119 0412 3B       		.uleb128 0x3b
 5120 0413 0B       		.uleb128 0xb
 5121 0414 49       		.uleb128 0x49
 5122 0415 13       		.uleb128 0x13
 5123 0416 3F       		.uleb128 0x3f
 5124 0417 19       		.uleb128 0x19
 5125 0418 3C       		.uleb128 0x3c
 5126 0419 19       		.uleb128 0x19
 5127 041a 00       		.byte	0
 5128 041b 00       		.byte	0
 5129 041c 4B       		.uleb128 0x4b
 5130 041d 2E       		.uleb128 0x2e
 5131 041e 00       		.byte	0
 5132 041f 3F       		.uleb128 0x3f
ARM GAS  /tmp/ccAFBUIw.s 			page 109


 5133 0420 19       		.uleb128 0x19
 5134 0421 03       		.uleb128 0x3
 5135 0422 0E       		.uleb128 0xe
 5136 0423 3A       		.uleb128 0x3a
 5137 0424 0B       		.uleb128 0xb
 5138 0425 3B       		.uleb128 0x3b
 5139 0426 05       		.uleb128 0x5
 5140 0427 27       		.uleb128 0x27
 5141 0428 19       		.uleb128 0x19
 5142 0429 49       		.uleb128 0x49
 5143 042a 13       		.uleb128 0x13
 5144 042b 3C       		.uleb128 0x3c
 5145 042c 19       		.uleb128 0x19
 5146 042d 00       		.byte	0
 5147 042e 00       		.byte	0
 5148 042f 00       		.byte	0
 5149              		.section	.debug_loc,"",%progbits
 5150              	.Ldebug_loc0:
 5151              	.LLST0:
 5152 0000 00000000 		.4byte	.LVL0
 5153 0004 08000000 		.4byte	.LVL1
 5154 0008 0100     		.2byte	0x1
 5155 000a 50       		.byte	0x50
 5156 000b 08000000 		.4byte	.LVL1
 5157 000f 1C000000 		.4byte	.LFE212
 5158 0013 0400     		.2byte	0x4
 5159 0015 F3       		.byte	0xf3
 5160 0016 01       		.uleb128 0x1
 5161 0017 50       		.byte	0x50
 5162 0018 9F       		.byte	0x9f
 5163 0019 00000000 		.4byte	0
 5164 001d 00000000 		.4byte	0
 5165              	.LLST1:
 5166 0021 00000000 		.4byte	.LVL0
 5167 0025 08000000 		.4byte	.LVL1
 5168 0029 0E00     		.2byte	0xe
 5169 002b 70       		.byte	0x70
 5170 002c 00       		.sleb128 0
 5171 002d 08       		.byte	0x8
 5172 002e FF       		.byte	0xff
 5173 002f 1A       		.byte	0x1a
 5174 0030 4C       		.byte	0x4c
 5175 0031 1E       		.byte	0x1e
 5176 0032 03       		.byte	0x3
 5177 0033 00000000 		.4byte	i2c
 5178 0037 22       		.byte	0x22
 5179 0038 9F       		.byte	0x9f
 5180 0039 08000000 		.4byte	.LVL1
 5181 003d 1C000000 		.4byte	.LFE212
 5182 0041 0F00     		.2byte	0xf
 5183 0043 F3       		.byte	0xf3
 5184 0044 01       		.uleb128 0x1
 5185 0045 50       		.byte	0x50
 5186 0046 08       		.byte	0x8
 5187 0047 FF       		.byte	0xff
 5188 0048 1A       		.byte	0x1a
 5189 0049 4C       		.byte	0x4c
ARM GAS  /tmp/ccAFBUIw.s 			page 110


 5190 004a 1E       		.byte	0x1e
 5191 004b 03       		.byte	0x3
 5192 004c 00000000 		.4byte	i2c
 5193 0050 22       		.byte	0x22
 5194 0051 9F       		.byte	0x9f
 5195 0052 00000000 		.4byte	0
 5196 0056 00000000 		.4byte	0
 5197              	.LLST2:
 5198 005a 0E000000 		.4byte	.LVL2
 5199 005e 14000000 		.4byte	.LVL3
 5200 0062 0300     		.2byte	0x3
 5201 0064 72       		.byte	0x72
 5202 0065 14       		.sleb128 20
 5203 0066 9F       		.byte	0x9f
 5204 0067 00000000 		.4byte	0
 5205 006b 00000000 		.4byte	0
 5206              	.LLST3:
 5207 006f 00000000 		.4byte	.LVL4
 5208 0073 C6000000 		.4byte	.LVL14
 5209 0077 0100     		.2byte	0x1
 5210 0079 50       		.byte	0x50
 5211 007a C6000000 		.4byte	.LVL14
 5212 007e D4000000 		.4byte	.LFE209
 5213 0082 0400     		.2byte	0x4
 5214 0084 F3       		.byte	0xf3
 5215 0085 01       		.uleb128 0x1
 5216 0086 50       		.byte	0x50
 5217 0087 9F       		.byte	0x9f
 5218 0088 00000000 		.4byte	0
 5219 008c 00000000 		.4byte	0
 5220              	.LLST4:
 5221 0090 00000000 		.4byte	.LVL4
 5222 0094 74000000 		.4byte	.LVL5
 5223 0098 0300     		.2byte	0x3
 5224 009a 08       		.byte	0x8
 5225 009b 3C       		.byte	0x3c
 5226 009c 9F       		.byte	0x9f
 5227 009d 74000000 		.4byte	.LVL5
 5228 00a1 76000000 		.4byte	.LVL6
 5229 00a5 0100     		.2byte	0x1
 5230 00a7 52       		.byte	0x52
 5231 00a8 76000000 		.4byte	.LVL6
 5232 00ac 88000000 		.4byte	.LVL7
 5233 00b0 0300     		.2byte	0x3
 5234 00b2 08       		.byte	0x8
 5235 00b3 3C       		.byte	0x3c
 5236 00b4 9F       		.byte	0x9f
 5237 00b5 9A000000 		.4byte	.LVL8
 5238 00b9 9C000000 		.4byte	.LVL9
 5239 00bd 0300     		.2byte	0x3
 5240 00bf 08       		.byte	0x8
 5241 00c0 3C       		.byte	0x3c
 5242 00c1 9F       		.byte	0x9f
 5243 00c2 A8000000 		.4byte	.LVL10
 5244 00c6 B0000000 		.4byte	.LVL11
 5245 00ca 0300     		.2byte	0x3
 5246 00cc 08       		.byte	0x8
ARM GAS  /tmp/ccAFBUIw.s 			page 111


 5247 00cd 3C       		.byte	0x3c
 5248 00ce 9F       		.byte	0x9f
 5249 00cf B0000000 		.4byte	.LVL11
 5250 00d3 B4000000 		.4byte	.LVL12
 5251 00d7 0300     		.2byte	0x3
 5252 00d9 08       		.byte	0x8
 5253 00da 2C       		.byte	0x2c
 5254 00db 9F       		.byte	0x9f
 5255 00dc B4000000 		.4byte	.LVL12
 5256 00e0 B6000000 		.4byte	.LVL13
 5257 00e4 0300     		.2byte	0x3
 5258 00e6 08       		.byte	0x8
 5259 00e7 3C       		.byte	0x3c
 5260 00e8 9F       		.byte	0x9f
 5261 00e9 00000000 		.4byte	0
 5262 00ed 00000000 		.4byte	0
 5263              	.LLST6:
 5264 00f1 00000000 		.4byte	.LVL15
 5265 00f5 82000000 		.4byte	.LVL28
 5266 00f9 0100     		.2byte	0x1
 5267 00fb 50       		.byte	0x50
 5268 00fc 82000000 		.4byte	.LVL28
 5269 0100 86000000 		.4byte	.LVL29
 5270 0104 0400     		.2byte	0x4
 5271 0106 F3       		.byte	0xf3
 5272 0107 01       		.uleb128 0x1
 5273 0108 50       		.byte	0x50
 5274 0109 9F       		.byte	0x9f
 5275 010a 86000000 		.4byte	.LVL29
 5276 010e 88000000 		.4byte	.LVL30
 5277 0112 0100     		.2byte	0x1
 5278 0114 50       		.byte	0x50
 5279 0115 88000000 		.4byte	.LVL30
 5280 0119 8C000000 		.4byte	.LFE210
 5281 011d 0400     		.2byte	0x4
 5282 011f F3       		.byte	0xf3
 5283 0120 01       		.uleb128 0x1
 5284 0121 50       		.byte	0x50
 5285 0122 9F       		.byte	0x9f
 5286 0123 00000000 		.4byte	0
 5287 0127 00000000 		.4byte	0
 5288              	.LLST8:
 5289 012b 24000000 		.4byte	.LVL16
 5290 012f 82000000 		.4byte	.LVL28
 5291 0133 0100     		.2byte	0x1
 5292 0135 50       		.byte	0x50
 5293 0136 82000000 		.4byte	.LVL28
 5294 013a 86000000 		.4byte	.LVL29
 5295 013e 0400     		.2byte	0x4
 5296 0140 F3       		.byte	0xf3
 5297 0141 01       		.uleb128 0x1
 5298 0142 50       		.byte	0x50
 5299 0143 9F       		.byte	0x9f
 5300 0144 00000000 		.4byte	0
 5301 0148 00000000 		.4byte	0
 5302              	.LLST9:
 5303 014c 28000000 		.4byte	.LVL17
ARM GAS  /tmp/ccAFBUIw.s 			page 112


 5304 0150 86000000 		.4byte	.LVL29
 5305 0154 0100     		.2byte	0x1
 5306 0156 51       		.byte	0x51
 5307 0157 00000000 		.4byte	0
 5308 015b 00000000 		.4byte	0
 5309              	.LLST10:
 5310 015f 28000000 		.4byte	.LVL17
 5311 0163 82000000 		.4byte	.LVL28
 5312 0167 0100     		.2byte	0x1
 5313 0169 50       		.byte	0x50
 5314 016a 82000000 		.4byte	.LVL28
 5315 016e 86000000 		.4byte	.LVL29
 5316 0172 0400     		.2byte	0x4
 5317 0174 F3       		.byte	0xf3
 5318 0175 01       		.uleb128 0x1
 5319 0176 50       		.byte	0x50
 5320 0177 9F       		.byte	0x9f
 5321 0178 00000000 		.4byte	0
 5322 017c 00000000 		.4byte	0
 5323              	.LLST11:
 5324 0180 36000000 		.4byte	.LVL18
 5325 0184 3A000000 		.4byte	.LVL20
 5326 0188 0500     		.2byte	0x5
 5327 018a 73       		.byte	0x73
 5328 018b 00       		.sleb128 0
 5329 018c 31       		.byte	0x31
 5330 018d 21       		.byte	0x21
 5331 018e 9F       		.byte	0x9f
 5332 018f 00000000 		.4byte	0
 5333 0193 00000000 		.4byte	0
 5334              	.LLST12:
 5335 0197 36000000 		.4byte	.LVL18
 5336 019b 86000000 		.4byte	.LVL29
 5337 019f 0100     		.2byte	0x1
 5338 01a1 51       		.byte	0x51
 5339 01a2 00000000 		.4byte	0
 5340 01a6 00000000 		.4byte	0
 5341              	.LLST13:
 5342 01aa 36000000 		.4byte	.LVL18
 5343 01ae 38000000 		.4byte	.LVL19
 5344 01b2 0100     		.2byte	0x1
 5345 01b4 52       		.byte	0x52
 5346 01b5 00000000 		.4byte	0
 5347 01b9 00000000 		.4byte	0
 5348              	.LLST14:
 5349 01bd 4A000000 		.4byte	.LVL21
 5350 01c1 86000000 		.4byte	.LVL29
 5351 01c5 0500     		.2byte	0x5
 5352 01c7 75       		.byte	0x75
 5353 01c8 00       		.sleb128 0
 5354 01c9 31       		.byte	0x31
 5355 01ca 21       		.byte	0x21
 5356 01cb 9F       		.byte	0x9f
 5357 01cc 00000000 		.4byte	0
 5358 01d0 00000000 		.4byte	0
 5359              	.LLST15:
 5360 01d4 4A000000 		.4byte	.LVL21
ARM GAS  /tmp/ccAFBUIw.s 			page 113


 5361 01d8 86000000 		.4byte	.LVL29
 5362 01dc 0100     		.2byte	0x1
 5363 01de 51       		.byte	0x51
 5364 01df 00000000 		.4byte	0
 5365 01e3 00000000 		.4byte	0
 5366              	.LLST16:
 5367 01e7 4A000000 		.4byte	.LVL21
 5368 01eb 4C000000 		.4byte	.LVL22
 5369 01ef 0100     		.2byte	0x1
 5370 01f1 52       		.byte	0x52
 5371 01f2 00000000 		.4byte	0
 5372 01f6 00000000 		.4byte	0
 5373              	.LLST17:
 5374 01fa 5E000000 		.4byte	.LVL23
 5375 01fe 62000000 		.4byte	.LVL25
 5376 0202 0500     		.2byte	0x5
 5377 0204 73       		.byte	0x73
 5378 0205 00       		.sleb128 0
 5379 0206 31       		.byte	0x31
 5380 0207 21       		.byte	0x21
 5381 0208 9F       		.byte	0x9f
 5382 0209 00000000 		.4byte	0
 5383 020d 00000000 		.4byte	0
 5384              	.LLST18:
 5385 0211 5E000000 		.4byte	.LVL23
 5386 0215 86000000 		.4byte	.LVL29
 5387 0219 0100     		.2byte	0x1
 5388 021b 51       		.byte	0x51
 5389 021c 00000000 		.4byte	0
 5390 0220 00000000 		.4byte	0
 5391              	.LLST19:
 5392 0224 5E000000 		.4byte	.LVL23
 5393 0228 60000000 		.4byte	.LVL24
 5394 022c 0100     		.2byte	0x1
 5395 022e 52       		.byte	0x52
 5396 022f 00000000 		.4byte	0
 5397 0233 00000000 		.4byte	0
 5398              	.LLST20:
 5399 0237 72000000 		.4byte	.LVL26
 5400 023b 76000000 		.4byte	.LVL27
 5401 023f 0500     		.2byte	0x5
 5402 0241 73       		.byte	0x73
 5403 0242 00       		.sleb128 0
 5404 0243 31       		.byte	0x31
 5405 0244 21       		.byte	0x21
 5406 0245 9F       		.byte	0x9f
 5407 0246 00000000 		.4byte	0
 5408 024a 00000000 		.4byte	0
 5409              	.LLST21:
 5410 024e 72000000 		.4byte	.LVL26
 5411 0252 86000000 		.4byte	.LVL29
 5412 0256 0100     		.2byte	0x1
 5413 0258 51       		.byte	0x51
 5414 0259 00000000 		.4byte	0
 5415 025d 00000000 		.4byte	0
 5416              	.LLST22:
 5417 0261 72000000 		.4byte	.LVL26
ARM GAS  /tmp/ccAFBUIw.s 			page 114


 5418 0265 86000000 		.4byte	.LVL29
 5419 0269 0100     		.2byte	0x1
 5420 026b 52       		.byte	0x52
 5421 026c 00000000 		.4byte	0
 5422 0270 00000000 		.4byte	0
 5423              	.LLST23:
 5424 0274 00000000 		.4byte	.LVL31
 5425 0278 BC000000 		.4byte	.LVL41
 5426 027c 0100     		.2byte	0x1
 5427 027e 50       		.byte	0x50
 5428 027f BC000000 		.4byte	.LVL41
 5429 0283 BE000000 		.4byte	.LFE211
 5430 0287 0400     		.2byte	0x4
 5431 0289 F3       		.byte	0xf3
 5432 028a 01       		.uleb128 0x1
 5433 028b 50       		.byte	0x50
 5434 028c 9F       		.byte	0x9f
 5435 028d 00000000 		.4byte	0
 5436 0291 00000000 		.4byte	0
 5437              	.LLST24:
 5438 0295 00000000 		.4byte	.LVL31
 5439 0299 B4000000 		.4byte	.LVL40
 5440 029d 0100     		.2byte	0x1
 5441 029f 51       		.byte	0x51
 5442 02a0 B4000000 		.4byte	.LVL40
 5443 02a4 BE000000 		.4byte	.LFE211
 5444 02a8 0400     		.2byte	0x4
 5445 02aa F3       		.byte	0xf3
 5446 02ab 01       		.uleb128 0x1
 5447 02ac 51       		.byte	0x51
 5448 02ad 9F       		.byte	0x9f
 5449 02ae 00000000 		.4byte	0
 5450 02b2 00000000 		.4byte	0
 5451              	.LLST25:
 5452 02b6 00000000 		.4byte	.LVL31
 5453 02ba 9A000000 		.4byte	.LVL35
 5454 02be 0300     		.2byte	0x3
 5455 02c0 08       		.byte	0x8
 5456 02c1 3C       		.byte	0x3c
 5457 02c2 9F       		.byte	0x9f
 5458 02c3 9A000000 		.4byte	.LVL35
 5459 02c7 AA000000 		.4byte	.LVL36
 5460 02cb 0300     		.2byte	0x3
 5461 02cd 08       		.byte	0x8
 5462 02ce 38       		.byte	0x38
 5463 02cf 9F       		.byte	0x9f
 5464 02d0 AA000000 		.4byte	.LVL36
 5465 02d4 B0000000 		.4byte	.LVL38
 5466 02d8 0300     		.2byte	0x3
 5467 02da 08       		.byte	0x8
 5468 02db 3C       		.byte	0x3c
 5469 02dc 9F       		.byte	0x9f
 5470 02dd B2000000 		.4byte	.LVL39
 5471 02e1 BE000000 		.4byte	.LFE211
 5472 02e5 0100     		.2byte	0x1
 5473 02e7 53       		.byte	0x53
 5474 02e8 00000000 		.4byte	0
ARM GAS  /tmp/ccAFBUIw.s 			page 115


 5475 02ec 00000000 		.4byte	0
 5476              	.LLST26:
 5477 02f0 00000000 		.4byte	.LVL31
 5478 02f4 62000000 		.4byte	.LVL33
 5479 02f8 0200     		.2byte	0x2
 5480 02fa 30       		.byte	0x30
 5481 02fb 9F       		.byte	0x9f
 5482 02fc 62000000 		.4byte	.LVL33
 5483 0300 68000000 		.4byte	.LVL34
 5484 0304 0200     		.2byte	0x2
 5485 0306 35       		.byte	0x35
 5486 0307 9F       		.byte	0x9f
 5487 0308 68000000 		.4byte	.LVL34
 5488 030c 9A000000 		.4byte	.LVL35
 5489 0310 0200     		.2byte	0x2
 5490 0312 30       		.byte	0x30
 5491 0313 9F       		.byte	0x9f
 5492 0314 9A000000 		.4byte	.LVL35
 5493 0318 AA000000 		.4byte	.LVL36
 5494 031c 0200     		.2byte	0x2
 5495 031e 32       		.byte	0x32
 5496 031f 9F       		.byte	0x9f
 5497 0320 AA000000 		.4byte	.LVL36
 5498 0324 AC000000 		.4byte	.LVL37
 5499 0328 0200     		.2byte	0x2
 5500 032a 30       		.byte	0x30
 5501 032b 9F       		.byte	0x9f
 5502 032c B2000000 		.4byte	.LVL39
 5503 0330 BE000000 		.4byte	.LFE211
 5504 0334 0100     		.2byte	0x1
 5505 0336 52       		.byte	0x52
 5506 0337 00000000 		.4byte	0
 5507 033b 00000000 		.4byte	0
 5508              	.LLST27:
 5509 033f 06000000 		.4byte	.LVL32
 5510 0343 BC000000 		.4byte	.LVL41
 5511 0347 0100     		.2byte	0x1
 5512 0349 50       		.byte	0x50
 5513 034a BC000000 		.4byte	.LVL41
 5514 034e BE000000 		.4byte	.LFE211
 5515 0352 0400     		.2byte	0x4
 5516 0354 F3       		.byte	0xf3
 5517 0355 01       		.uleb128 0x1
 5518 0356 50       		.byte	0x50
 5519 0357 9F       		.byte	0x9f
 5520 0358 00000000 		.4byte	0
 5521 035c 00000000 		.4byte	0
 5522              	.LLST28:
 5523 0360 00000000 		.4byte	.LVL42
 5524 0364 06000000 		.4byte	.LVL43
 5525 0368 0100     		.2byte	0x1
 5526 036a 50       		.byte	0x50
 5527 036b 06000000 		.4byte	.LVL43
 5528 036f 28000000 		.4byte	.LFE214
 5529 0373 0400     		.2byte	0x4
 5530 0375 F3       		.byte	0xf3
 5531 0376 01       		.uleb128 0x1
ARM GAS  /tmp/ccAFBUIw.s 			page 116


 5532 0377 50       		.byte	0x50
 5533 0378 9F       		.byte	0x9f
 5534 0379 00000000 		.4byte	0
 5535 037d 00000000 		.4byte	0
 5536              	.LLST30:
 5537 0381 00000000 		.4byte	.LVL42
 5538 0385 06000000 		.4byte	.LVL43
 5539 0389 0A00     		.2byte	0xa
 5540 038b 70       		.byte	0x70
 5541 038c 00       		.sleb128 0
 5542 038d 4C       		.byte	0x4c
 5543 038e 1E       		.byte	0x1e
 5544 038f 03       		.byte	0x3
 5545 0390 04000000 		.4byte	i2c+4
 5546 0394 22       		.byte	0x22
 5547 0395 00000000 		.4byte	0
 5548 0399 00000000 		.4byte	0
 5549              	.LLST31:
 5550 039d 00000000 		.4byte	.LVL44
 5551 03a1 04000000 		.4byte	.LVL45
 5552 03a5 0100     		.2byte	0x1
 5553 03a7 50       		.byte	0x50
 5554 03a8 04000000 		.4byte	.LVL45
 5555 03ac 28000000 		.4byte	.LFE215
 5556 03b0 0400     		.2byte	0x4
 5557 03b2 F3       		.byte	0xf3
 5558 03b3 01       		.uleb128 0x1
 5559 03b4 50       		.byte	0x50
 5560 03b5 9F       		.byte	0x9f
 5561 03b6 00000000 		.4byte	0
 5562 03ba 00000000 		.4byte	0
 5563              	.LLST32:
 5564 03be 00000000 		.4byte	.LVL47
 5565 03c2 09000000 		.4byte	.LVL48-1
 5566 03c6 0100     		.2byte	0x1
 5567 03c8 50       		.byte	0x50
 5568 03c9 09000000 		.4byte	.LVL48-1
 5569 03cd 28000000 		.4byte	.LFE216
 5570 03d1 0400     		.2byte	0x4
 5571 03d3 F3       		.byte	0xf3
 5572 03d4 01       		.uleb128 0x1
 5573 03d5 50       		.byte	0x50
 5574 03d6 9F       		.byte	0x9f
 5575 03d7 00000000 		.4byte	0
 5576 03db 00000000 		.4byte	0
 5577              	.LLST33:
 5578 03df 00000000 		.4byte	.LVL47
 5579 03e3 09000000 		.4byte	.LVL48-1
 5580 03e7 0100     		.2byte	0x1
 5581 03e9 51       		.byte	0x51
 5582 03ea 09000000 		.4byte	.LVL48-1
 5583 03ee 22000000 		.4byte	.LVL51
 5584 03f2 0100     		.2byte	0x1
 5585 03f4 55       		.byte	0x55
 5586 03f5 22000000 		.4byte	.LVL51
 5587 03f9 28000000 		.4byte	.LFE216
 5588 03fd 0400     		.2byte	0x4
ARM GAS  /tmp/ccAFBUIw.s 			page 117


 5589 03ff F3       		.byte	0xf3
 5590 0400 01       		.uleb128 0x1
 5591 0401 51       		.byte	0x51
 5592 0402 9F       		.byte	0x9f
 5593 0403 00000000 		.4byte	0
 5594 0407 00000000 		.4byte	0
 5595              	.LLST34:
 5596 040b 10000000 		.4byte	.LVL49
 5597 040f 20000000 		.4byte	.LVL50
 5598 0413 0100     		.2byte	0x1
 5599 0415 50       		.byte	0x50
 5600 0416 00000000 		.4byte	0
 5601 041a 00000000 		.4byte	0
 5602              	.LLST35:
 5603 041e 00000000 		.4byte	.LVL52
 5604 0422 07000000 		.4byte	.LVL53-1
 5605 0426 0100     		.2byte	0x1
 5606 0428 50       		.byte	0x50
 5607 0429 07000000 		.4byte	.LVL53-1
 5608 042d 20000000 		.4byte	.LFE217
 5609 0431 0400     		.2byte	0x4
 5610 0433 F3       		.byte	0xf3
 5611 0434 01       		.uleb128 0x1
 5612 0435 50       		.byte	0x50
 5613 0436 9F       		.byte	0x9f
 5614 0437 00000000 		.4byte	0
 5615 043b 00000000 		.4byte	0
 5616              	.LLST36:
 5617 043f 00000000 		.4byte	.LVL55
 5618 0443 16000000 		.4byte	.LVL56
 5619 0447 0100     		.2byte	0x1
 5620 0449 50       		.byte	0x50
 5621 044a 16000000 		.4byte	.LVL56
 5622 044e 28000000 		.4byte	.LFE218
 5623 0452 0400     		.2byte	0x4
 5624 0454 F3       		.byte	0xf3
 5625 0455 01       		.uleb128 0x1
 5626 0456 50       		.byte	0x50
 5627 0457 9F       		.byte	0x9f
 5628 0458 00000000 		.4byte	0
 5629 045c 00000000 		.4byte	0
 5630              	.LLST37:
 5631 0460 00000000 		.4byte	.LVL55
 5632 0464 20000000 		.4byte	.LVL57
 5633 0468 0100     		.2byte	0x1
 5634 046a 51       		.byte	0x51
 5635 046b 20000000 		.4byte	.LVL57
 5636 046f 28000000 		.4byte	.LFE218
 5637 0473 0400     		.2byte	0x4
 5638 0475 F3       		.byte	0xf3
 5639 0476 01       		.uleb128 0x1
 5640 0477 51       		.byte	0x51
 5641 0478 9F       		.byte	0x9f
 5642 0479 00000000 		.4byte	0
 5643 047d 00000000 		.4byte	0
 5644              	.LLST38:
 5645 0481 00000000 		.4byte	.LVL55
ARM GAS  /tmp/ccAFBUIw.s 			page 118


 5646 0485 16000000 		.4byte	.LVL56
 5647 0489 0B00     		.2byte	0xb
 5648 048b 70       		.byte	0x70
 5649 048c 00       		.sleb128 0
 5650 048d 4C       		.byte	0x4c
 5651 048e 1E       		.byte	0x1e
 5652 048f 03       		.byte	0x3
 5653 0490 00000000 		.4byte	i2c
 5654 0494 22       		.byte	0x22
 5655 0495 9F       		.byte	0x9f
 5656 0496 00000000 		.4byte	0
 5657 049a 00000000 		.4byte	0
 5658              	.LLST39:
 5659 049e 00000000 		.4byte	.LVL58
 5660 04a2 04000000 		.4byte	.LVL59
 5661 04a6 0100     		.2byte	0x1
 5662 04a8 50       		.byte	0x50
 5663 04a9 04000000 		.4byte	.LVL59
 5664 04ad 10000000 		.4byte	.LFE219
 5665 04b1 0400     		.2byte	0x4
 5666 04b3 F3       		.byte	0xf3
 5667 04b4 01       		.uleb128 0x1
 5668 04b5 50       		.byte	0x50
 5669 04b6 9F       		.byte	0x9f
 5670 04b7 00000000 		.4byte	0
 5671 04bb 00000000 		.4byte	0
 5672              	.LLST40:
 5673 04bf 00000000 		.4byte	.LVL60
 5674 04c3 15000000 		.4byte	.LVL62-1
 5675 04c7 0100     		.2byte	0x1
 5676 04c9 50       		.byte	0x50
 5677 04ca 15000000 		.4byte	.LVL62-1
 5678 04ce 7C000000 		.4byte	.LFE220
 5679 04d2 0400     		.2byte	0x4
 5680 04d4 F3       		.byte	0xf3
 5681 04d5 01       		.uleb128 0x1
 5682 04d6 50       		.byte	0x50
 5683 04d7 9F       		.byte	0x9f
 5684 04d8 00000000 		.4byte	0
 5685 04dc 00000000 		.4byte	0
 5686              	.LLST41:
 5687 04e0 00000000 		.4byte	.LVL60
 5688 04e4 10000000 		.4byte	.LVL61
 5689 04e8 0100     		.2byte	0x1
 5690 04ea 51       		.byte	0x51
 5691 04eb 10000000 		.4byte	.LVL61
 5692 04ef 74000000 		.4byte	.LVL71
 5693 04f3 0100     		.2byte	0x1
 5694 04f5 56       		.byte	0x56
 5695 04f6 74000000 		.4byte	.LVL71
 5696 04fa 7C000000 		.4byte	.LFE220
 5697 04fe 0400     		.2byte	0x4
 5698 0500 F3       		.byte	0xf3
 5699 0501 01       		.uleb128 0x1
 5700 0502 51       		.byte	0x51
 5701 0503 9F       		.byte	0x9f
 5702 0504 00000000 		.4byte	0
ARM GAS  /tmp/ccAFBUIw.s 			page 119


 5703 0508 00000000 		.4byte	0
 5704              	.LLST42:
 5705 050c 00000000 		.4byte	.LVL60
 5706 0510 15000000 		.4byte	.LVL62-1
 5707 0514 0B00     		.2byte	0xb
 5708 0516 70       		.byte	0x70
 5709 0517 00       		.sleb128 0
 5710 0518 4C       		.byte	0x4c
 5711 0519 1E       		.byte	0x1e
 5712 051a 03       		.byte	0x3
 5713 051b 00000000 		.4byte	i2c
 5714 051f 22       		.byte	0x22
 5715 0520 9F       		.byte	0x9f
 5716 0521 15000000 		.4byte	.LVL62-1
 5717 0525 74000000 		.4byte	.LVL70
 5718 0529 0B00     		.2byte	0xb
 5719 052b 75       		.byte	0x75
 5720 052c 00       		.sleb128 0
 5721 052d 4C       		.byte	0x4c
 5722 052e 1E       		.byte	0x1e
 5723 052f 03       		.byte	0x3
 5724 0530 00000000 		.4byte	i2c
 5725 0534 22       		.byte	0x22
 5726 0535 9F       		.byte	0x9f
 5727 0536 00000000 		.4byte	0
 5728 053a 00000000 		.4byte	0
 5729              	.LLST43:
 5730 053e 28000000 		.4byte	.LVL63
 5731 0542 2E000000 		.4byte	.LVL64
 5732 0546 0100     		.2byte	0x1
 5733 0548 53       		.byte	0x53
 5734 0549 00000000 		.4byte	0
 5735 054d 00000000 		.4byte	0
 5736              	.LLST44:
 5737 0551 46000000 		.4byte	.LVL66
 5738 0555 71000000 		.4byte	.LVL69-1
 5739 0559 0A00     		.2byte	0xa
 5740 055b 75       		.byte	0x75
 5741 055c 00       		.sleb128 0
 5742 055d 4C       		.byte	0x4c
 5743 055e 1E       		.byte	0x1e
 5744 055f 03       		.byte	0x3
 5745 0560 00000000 		.4byte	i2c
 5746 0564 22       		.byte	0x22
 5747 0565 00000000 		.4byte	0
 5748 0569 00000000 		.4byte	0
 5749              	.LLST45:
 5750 056d 5C000000 		.4byte	.LVL67
 5751 0571 64000000 		.4byte	.LVL68
 5752 0575 0100     		.2byte	0x1
 5753 0577 52       		.byte	0x52
 5754 0578 00000000 		.4byte	0
 5755 057c 00000000 		.4byte	0
 5756              	.LLST46:
 5757 0580 00000000 		.4byte	.LVL72
 5758 0584 10000000 		.4byte	.LVL74
 5759 0588 0100     		.2byte	0x1
ARM GAS  /tmp/ccAFBUIw.s 			page 120


 5760 058a 50       		.byte	0x50
 5761 058b 10000000 		.4byte	.LVL74
 5762 058f 24000000 		.4byte	.LFE221
 5763 0593 0400     		.2byte	0x4
 5764 0595 F3       		.byte	0xf3
 5765 0596 01       		.uleb128 0x1
 5766 0597 50       		.byte	0x50
 5767 0598 9F       		.byte	0x9f
 5768 0599 00000000 		.4byte	0
 5769 059d 00000000 		.4byte	0
 5770              	.LLST47:
 5771 05a1 00000000 		.4byte	.LVL72
 5772 05a5 10000000 		.4byte	.LVL74
 5773 05a9 0100     		.2byte	0x1
 5774 05ab 51       		.byte	0x51
 5775 05ac 10000000 		.4byte	.LVL74
 5776 05b0 24000000 		.4byte	.LFE221
 5777 05b4 0400     		.2byte	0x4
 5778 05b6 F3       		.byte	0xf3
 5779 05b7 01       		.uleb128 0x1
 5780 05b8 51       		.byte	0x51
 5781 05b9 9F       		.byte	0x9f
 5782 05ba 00000000 		.4byte	0
 5783 05be 00000000 		.4byte	0
 5784              	.LLST48:
 5785 05c2 00000000 		.4byte	.LVL72
 5786 05c6 10000000 		.4byte	.LVL74
 5787 05ca 0100     		.2byte	0x1
 5788 05cc 52       		.byte	0x52
 5789 05cd 10000000 		.4byte	.LVL74
 5790 05d1 24000000 		.4byte	.LFE221
 5791 05d5 0400     		.2byte	0x4
 5792 05d7 F3       		.byte	0xf3
 5793 05d8 01       		.uleb128 0x1
 5794 05d9 52       		.byte	0x52
 5795 05da 9F       		.byte	0x9f
 5796 05db 00000000 		.4byte	0
 5797 05df 00000000 		.4byte	0
 5798              	.LLST49:
 5799 05e3 00000000 		.4byte	.LVL72
 5800 05e7 08000000 		.4byte	.LVL73
 5801 05eb 0100     		.2byte	0x1
 5802 05ed 53       		.byte	0x53
 5803 05ee 08000000 		.4byte	.LVL73
 5804 05f2 24000000 		.4byte	.LFE221
 5805 05f6 0400     		.2byte	0x4
 5806 05f8 F3       		.byte	0xf3
 5807 05f9 01       		.uleb128 0x1
 5808 05fa 53       		.byte	0x53
 5809 05fb 9F       		.byte	0x9f
 5810 05fc 00000000 		.4byte	0
 5811 0600 00000000 		.4byte	0
 5812              	.LLST50:
 5813 0604 00000000 		.4byte	.LVL76
 5814 0608 08000000 		.4byte	.LVL77
 5815 060c 0100     		.2byte	0x1
 5816 060e 50       		.byte	0x50
ARM GAS  /tmp/ccAFBUIw.s 			page 121


 5817 060f 08000000 		.4byte	.LVL77
 5818 0613 30000000 		.4byte	.LFE222
 5819 0617 0400     		.2byte	0x4
 5820 0619 F3       		.byte	0xf3
 5821 061a 01       		.uleb128 0x1
 5822 061b 50       		.byte	0x50
 5823 061c 9F       		.byte	0x9f
 5824 061d 00000000 		.4byte	0
 5825 0621 00000000 		.4byte	0
 5826              	.LLST51:
 5827 0625 00000000 		.4byte	.LVL76
 5828 0629 1C000000 		.4byte	.LVL80
 5829 062d 0100     		.2byte	0x1
 5830 062f 51       		.byte	0x51
 5831 0630 1C000000 		.4byte	.LVL80
 5832 0634 30000000 		.4byte	.LFE222
 5833 0638 0400     		.2byte	0x4
 5834 063a F3       		.byte	0xf3
 5835 063b 01       		.uleb128 0x1
 5836 063c 51       		.byte	0x51
 5837 063d 9F       		.byte	0x9f
 5838 063e 00000000 		.4byte	0
 5839 0642 00000000 		.4byte	0
 5840              	.LLST52:
 5841 0646 00000000 		.4byte	.LVL76
 5842 064a 0C000000 		.4byte	.LVL78
 5843 064e 0100     		.2byte	0x1
 5844 0650 52       		.byte	0x52
 5845 0651 0C000000 		.4byte	.LVL78
 5846 0655 12000000 		.4byte	.LVL79
 5847 0659 0200     		.2byte	0x2
 5848 065b 70       		.byte	0x70
 5849 065c 07       		.sleb128 7
 5850 065d 12000000 		.4byte	.LVL79
 5851 0661 1C000000 		.4byte	.LVL80
 5852 0665 0200     		.2byte	0x2
 5853 0667 70       		.byte	0x70
 5854 0668 00       		.sleb128 0
 5855 0669 1C000000 		.4byte	.LVL80
 5856 066d 2E000000 		.4byte	.LVL82
 5857 0671 0200     		.2byte	0x2
 5858 0673 7D       		.byte	0x7d
 5859 0674 07       		.sleb128 7
 5860 0675 2E000000 		.4byte	.LVL82
 5861 0679 30000000 		.4byte	.LFE222
 5862 067d 0200     		.2byte	0x2
 5863 067f 91       		.byte	0x91
 5864 0680 57       		.sleb128 -41
 5865 0681 00000000 		.4byte	0
 5866 0685 00000000 		.4byte	0
 5867              	.LLST53:
 5868 0689 00000000 		.4byte	.LVL76
 5869 068d 1C000000 		.4byte	.LVL80
 5870 0691 0100     		.2byte	0x1
 5871 0693 53       		.byte	0x53
 5872 0694 1C000000 		.4byte	.LVL80
 5873 0698 30000000 		.4byte	.LFE222
ARM GAS  /tmp/ccAFBUIw.s 			page 122


 5874 069c 0400     		.2byte	0x4
 5875 069e F3       		.byte	0xf3
 5876 069f 01       		.uleb128 0x1
 5877 06a0 53       		.byte	0x53
 5878 06a1 9F       		.byte	0x9f
 5879 06a2 00000000 		.4byte	0
 5880 06a6 00000000 		.4byte	0
 5881              	.LLST54:
 5882 06aa 00000000 		.4byte	.LVL83
 5883 06ae 10000000 		.4byte	.LVL85
 5884 06b2 0100     		.2byte	0x1
 5885 06b4 50       		.byte	0x50
 5886 06b5 10000000 		.4byte	.LVL85
 5887 06b9 24000000 		.4byte	.LFE223
 5888 06bd 0400     		.2byte	0x4
 5889 06bf F3       		.byte	0xf3
 5890 06c0 01       		.uleb128 0x1
 5891 06c1 50       		.byte	0x50
 5892 06c2 9F       		.byte	0x9f
 5893 06c3 00000000 		.4byte	0
 5894 06c7 00000000 		.4byte	0
 5895              	.LLST55:
 5896 06cb 00000000 		.4byte	.LVL83
 5897 06cf 10000000 		.4byte	.LVL85
 5898 06d3 0100     		.2byte	0x1
 5899 06d5 51       		.byte	0x51
 5900 06d6 10000000 		.4byte	.LVL85
 5901 06da 24000000 		.4byte	.LFE223
 5902 06de 0400     		.2byte	0x4
 5903 06e0 F3       		.byte	0xf3
 5904 06e1 01       		.uleb128 0x1
 5905 06e2 51       		.byte	0x51
 5906 06e3 9F       		.byte	0x9f
 5907 06e4 00000000 		.4byte	0
 5908 06e8 00000000 		.4byte	0
 5909              	.LLST56:
 5910 06ec 00000000 		.4byte	.LVL83
 5911 06f0 10000000 		.4byte	.LVL85
 5912 06f4 0100     		.2byte	0x1
 5913 06f6 52       		.byte	0x52
 5914 06f7 10000000 		.4byte	.LVL85
 5915 06fb 24000000 		.4byte	.LFE223
 5916 06ff 0400     		.2byte	0x4
 5917 0701 F3       		.byte	0xf3
 5918 0702 01       		.uleb128 0x1
 5919 0703 52       		.byte	0x52
 5920 0704 9F       		.byte	0x9f
 5921 0705 00000000 		.4byte	0
 5922 0709 00000000 		.4byte	0
 5923              	.LLST57:
 5924 070d 00000000 		.4byte	.LVL83
 5925 0711 08000000 		.4byte	.LVL84
 5926 0715 0100     		.2byte	0x1
 5927 0717 53       		.byte	0x53
 5928 0718 08000000 		.4byte	.LVL84
 5929 071c 22000000 		.4byte	.LVL87
 5930 0720 0100     		.2byte	0x1
ARM GAS  /tmp/ccAFBUIw.s 			page 123


 5931 0722 54       		.byte	0x54
 5932 0723 22000000 		.4byte	.LVL87
 5933 0727 24000000 		.4byte	.LFE223
 5934 072b 0400     		.2byte	0x4
 5935 072d F3       		.byte	0xf3
 5936 072e 01       		.uleb128 0x1
 5937 072f 53       		.byte	0x53
 5938 0730 9F       		.byte	0x9f
 5939 0731 00000000 		.4byte	0
 5940 0735 00000000 		.4byte	0
 5941              	.LLST58:
 5942 0739 00000000 		.4byte	.LVL88
 5943 073d 04000000 		.4byte	.LVL89
 5944 0741 0100     		.2byte	0x1
 5945 0743 50       		.byte	0x50
 5946 0744 04000000 		.4byte	.LVL89
 5947 0748 20000000 		.4byte	.LFE224
 5948 074c 0400     		.2byte	0x4
 5949 074e F3       		.byte	0xf3
 5950 074f 01       		.uleb128 0x1
 5951 0750 50       		.byte	0x50
 5952 0751 9F       		.byte	0x9f
 5953 0752 00000000 		.4byte	0
 5954 0756 00000000 		.4byte	0
 5955              	.LLST59:
 5956 075a 0A000000 		.4byte	.LVL90
 5957 075e 0E000000 		.4byte	.LVL91
 5958 0762 0100     		.2byte	0x1
 5959 0764 53       		.byte	0x53
 5960 0765 0E000000 		.4byte	.LVL91
 5961 0769 14000000 		.4byte	.LVL92
 5962 076d 0800     		.2byte	0x8
 5963 076f 70       		.byte	0x70
 5964 0770 00       		.sleb128 0
 5965 0771 03       		.byte	0x3
 5966 0772 00000000 		.4byte	.LANCHOR0
 5967 0776 22       		.byte	0x22
 5968 0777 00000000 		.4byte	0
 5969 077b 00000000 		.4byte	0
 5970              	.LLST61:
 5971 077f 00000000 		.4byte	.LVL93
 5972 0783 0E000000 		.4byte	.LVL94
 5973 0787 0100     		.2byte	0x1
 5974 0789 50       		.byte	0x50
 5975 078a 0E000000 		.4byte	.LVL94
 5976 078e 28000000 		.4byte	.LFE225
 5977 0792 0400     		.2byte	0x4
 5978 0794 F3       		.byte	0xf3
 5979 0795 01       		.uleb128 0x1
 5980 0796 50       		.byte	0x50
 5981 0797 9F       		.byte	0x9f
 5982 0798 00000000 		.4byte	0
 5983 079c 00000000 		.4byte	0
 5984              	.LLST62:
 5985 07a0 00000000 		.4byte	.LVL97
 5986 07a4 68000000 		.4byte	.LVL111
 5987 07a8 0100     		.2byte	0x1
ARM GAS  /tmp/ccAFBUIw.s 			page 124


 5988 07aa 50       		.byte	0x50
 5989 07ab 68000000 		.4byte	.LVL111
 5990 07af 80000000 		.4byte	.LFE226
 5991 07b3 0400     		.2byte	0x4
 5992 07b5 F3       		.byte	0xf3
 5993 07b6 01       		.uleb128 0x1
 5994 07b7 50       		.byte	0x50
 5995 07b8 9F       		.byte	0x9f
 5996 07b9 00000000 		.4byte	0
 5997 07bd 00000000 		.4byte	0
 5998              	.LLST63:
 5999 07c1 00000000 		.4byte	.LVL97
 6000 07c5 66000000 		.4byte	.LVL110
 6001 07c9 0100     		.2byte	0x1
 6002 07cb 51       		.byte	0x51
 6003 07cc 66000000 		.4byte	.LVL110
 6004 07d0 80000000 		.4byte	.LFE226
 6005 07d4 0400     		.2byte	0x4
 6006 07d6 F3       		.byte	0xf3
 6007 07d7 01       		.uleb128 0x1
 6008 07d8 51       		.byte	0x51
 6009 07d9 9F       		.byte	0x9f
 6010 07da 00000000 		.4byte	0
 6011 07de 00000000 		.4byte	0
 6012              	.LLST64:
 6013 07e2 00000000 		.4byte	.LVL97
 6014 07e6 2A000000 		.4byte	.LVL102
 6015 07ea 0100     		.2byte	0x1
 6016 07ec 52       		.byte	0x52
 6017 07ed 2A000000 		.4byte	.LVL102
 6018 07f1 66000000 		.4byte	.LVL110
 6019 07f5 0F00     		.2byte	0xf
 6020 07f7 70       		.byte	0x70
 6021 07f8 00       		.sleb128 0
 6022 07f9 35       		.byte	0x35
 6023 07fa 1E       		.byte	0x1e
 6024 07fb 71       		.byte	0x71
 6025 07fc 00       		.sleb128 0
 6026 07fd 22       		.byte	0x22
 6027 07fe 33       		.byte	0x33
 6028 07ff 24       		.byte	0x24
 6029 0800 03       		.byte	0x3
 6030 0801 00000000 		.4byte	.LANCHOR1
 6031 0805 22       		.byte	0x22
 6032 0806 66000000 		.4byte	.LVL110
 6033 080a 68000000 		.4byte	.LVL111
 6034 080e 1100     		.2byte	0x11
 6035 0810 70       		.byte	0x70
 6036 0811 00       		.sleb128 0
 6037 0812 35       		.byte	0x35
 6038 0813 1E       		.byte	0x1e
 6039 0814 71       		.byte	0x71
 6040 0815 00       		.sleb128 0
 6041 0816 22       		.byte	0x22
 6042 0817 38       		.byte	0x38
 6043 0818 1C       		.byte	0x1c
 6044 0819 33       		.byte	0x33
ARM GAS  /tmp/ccAFBUIw.s 			page 125


 6045 081a 24       		.byte	0x24
 6046 081b 03       		.byte	0x3
 6047 081c 00000000 		.4byte	.LANCHOR1
 6048 0820 22       		.byte	0x22
 6049 0821 68000000 		.4byte	.LVL111
 6050 0825 80000000 		.4byte	.LFE226
 6051 0829 0400     		.2byte	0x4
 6052 082b F3       		.byte	0xf3
 6053 082c 01       		.uleb128 0x1
 6054 082d 52       		.byte	0x52
 6055 082e 9F       		.byte	0x9f
 6056 082f 00000000 		.4byte	0
 6057 0833 00000000 		.4byte	0
 6058              	.LLST65:
 6059 0837 00000000 		.4byte	.LVL97
 6060 083b 1E000000 		.4byte	.LVL100
 6061 083f 0100     		.2byte	0x1
 6062 0841 53       		.byte	0x53
 6063 0842 1E000000 		.4byte	.LVL100
 6064 0846 20000000 		.4byte	.LVL101
 6065 084a 0E00     		.2byte	0xe
 6066 084c 70       		.byte	0x70
 6067 084d 00       		.sleb128 0
 6068 084e 35       		.byte	0x35
 6069 084f 1E       		.byte	0x1e
 6070 0850 71       		.byte	0x71
 6071 0851 00       		.sleb128 0
 6072 0852 22       		.byte	0x22
 6073 0853 33       		.byte	0x33
 6074 0854 24       		.byte	0x24
 6075 0855 76       		.byte	0x76
 6076 0856 00       		.sleb128 0
 6077 0857 22       		.byte	0x22
 6078 0858 23       		.byte	0x23
 6079 0859 04       		.uleb128 0x4
 6080 085a 20000000 		.4byte	.LVL101
 6081 085e 66000000 		.4byte	.LVL110
 6082 0862 0F00     		.2byte	0xf
 6083 0864 70       		.byte	0x70
 6084 0865 00       		.sleb128 0
 6085 0866 35       		.byte	0x35
 6086 0867 1E       		.byte	0x1e
 6087 0868 71       		.byte	0x71
 6088 0869 00       		.sleb128 0
 6089 086a 22       		.byte	0x22
 6090 086b 33       		.byte	0x33
 6091 086c 24       		.byte	0x24
 6092 086d 03       		.byte	0x3
 6093 086e 04000000 		.4byte	.LANCHOR1+4
 6094 0872 22       		.byte	0x22
 6095 0873 66000000 		.4byte	.LVL110
 6096 0877 68000000 		.4byte	.LVL111
 6097 087b 1100     		.2byte	0x11
 6098 087d 70       		.byte	0x70
 6099 087e 00       		.sleb128 0
 6100 087f 35       		.byte	0x35
 6101 0880 1E       		.byte	0x1e
ARM GAS  /tmp/ccAFBUIw.s 			page 126


 6102 0881 71       		.byte	0x71
 6103 0882 00       		.sleb128 0
 6104 0883 22       		.byte	0x22
 6105 0884 38       		.byte	0x38
 6106 0885 1C       		.byte	0x1c
 6107 0886 33       		.byte	0x33
 6108 0887 24       		.byte	0x24
 6109 0888 03       		.byte	0x3
 6110 0889 04000000 		.4byte	.LANCHOR1+4
 6111 088d 22       		.byte	0x22
 6112 088e 68000000 		.4byte	.LVL111
 6113 0892 80000000 		.4byte	.LFE226
 6114 0896 0400     		.2byte	0x4
 6115 0898 F3       		.byte	0xf3
 6116 0899 01       		.uleb128 0x1
 6117 089a 53       		.byte	0x53
 6118 089b 9F       		.byte	0x9f
 6119 089c 00000000 		.4byte	0
 6120 08a0 00000000 		.4byte	0
 6121              	.LLST66:
 6122 08a4 00000000 		.4byte	.LVL97
 6123 08a8 04000000 		.4byte	.LVL98
 6124 08ac 0200     		.2byte	0x2
 6125 08ae 91       		.byte	0x91
 6126 08af 00       		.sleb128 0
 6127 08b0 04000000 		.4byte	.LVL98
 6128 08b4 08000000 		.4byte	.LVL99
 6129 08b8 0200     		.2byte	0x2
 6130 08ba 74       		.byte	0x74
 6131 08bb 00       		.sleb128 0
 6132 08bc 08000000 		.4byte	.LVL99
 6133 08c0 80000000 		.4byte	.LFE226
 6134 08c4 0200     		.2byte	0x2
 6135 08c6 91       		.byte	0x91
 6136 08c7 00       		.sleb128 0
 6137 08c8 00000000 		.4byte	0
 6138 08cc 00000000 		.4byte	0
 6139              	.LLST67:
 6140 08d0 00000000 		.4byte	.LVL97
 6141 08d4 68000000 		.4byte	.LVL111
 6142 08d8 0B00     		.2byte	0xb
 6143 08da 70       		.byte	0x70
 6144 08db 00       		.sleb128 0
 6145 08dc 4C       		.byte	0x4c
 6146 08dd 1E       		.byte	0x1e
 6147 08de 03       		.byte	0x3
 6148 08df 00000000 		.4byte	i2c
 6149 08e3 22       		.byte	0x22
 6150 08e4 9F       		.byte	0x9f
 6151 08e5 00000000 		.4byte	0
 6152 08e9 00000000 		.4byte	0
 6153              	.LLST68:
 6154 08ed 00000000 		.4byte	.LVL97
 6155 08f1 66000000 		.4byte	.LVL110
 6156 08f5 1000     		.2byte	0x10
 6157 08f7 70       		.byte	0x70
 6158 08f8 00       		.sleb128 0
ARM GAS  /tmp/ccAFBUIw.s 			page 127


 6159 08f9 35       		.byte	0x35
 6160 08fa 1E       		.byte	0x1e
 6161 08fb 71       		.byte	0x71
 6162 08fc 00       		.sleb128 0
 6163 08fd 22       		.byte	0x22
 6164 08fe 33       		.byte	0x33
 6165 08ff 24       		.byte	0x24
 6166 0900 03       		.byte	0x3
 6167 0901 00000000 		.4byte	i2c_slave
 6168 0905 22       		.byte	0x22
 6169 0906 9F       		.byte	0x9f
 6170 0907 66000000 		.4byte	.LVL110
 6171 090b 68000000 		.4byte	.LVL111
 6172 090f 1200     		.2byte	0x12
 6173 0911 70       		.byte	0x70
 6174 0912 00       		.sleb128 0
 6175 0913 35       		.byte	0x35
 6176 0914 1E       		.byte	0x1e
 6177 0915 71       		.byte	0x71
 6178 0916 00       		.sleb128 0
 6179 0917 22       		.byte	0x22
 6180 0918 38       		.byte	0x38
 6181 0919 1C       		.byte	0x1c
 6182 091a 33       		.byte	0x33
 6183 091b 24       		.byte	0x24
 6184 091c 03       		.byte	0x3
 6185 091d 00000000 		.4byte	i2c_slave
 6186 0921 22       		.byte	0x22
 6187 0922 9F       		.byte	0x9f
 6188 0923 00000000 		.4byte	0
 6189 0927 00000000 		.4byte	0
 6190              	.LLST69:
 6191 092b 2A000000 		.4byte	.LVL102
 6192 092f 38000000 		.4byte	.LVL105
 6193 0933 0100     		.2byte	0x1
 6194 0935 55       		.byte	0x55
 6195 0936 38000000 		.4byte	.LVL105
 6196 093a 42000000 		.4byte	.LVL107
 6197 093e 0D00     		.2byte	0xd
 6198 0940 70       		.byte	0x70
 6199 0941 00       		.sleb128 0
 6200 0942 4C       		.byte	0x4c
 6201 0943 1E       		.byte	0x1e
 6202 0944 74       		.byte	0x74
 6203 0945 00       		.sleb128 0
 6204 0946 22       		.byte	0x22
 6205 0947 06       		.byte	0x6
 6206 0948 76       		.byte	0x76
 6207 0949 00       		.sleb128 0
 6208 094a 22       		.byte	0x22
 6209 094b 06       		.byte	0x6
 6210 094c 9F       		.byte	0x9f
 6211 094d 00000000 		.4byte	0
 6212 0951 00000000 		.4byte	0
 6213              	.LLST70:
 6214 0955 2A000000 		.4byte	.LVL102
 6215 0959 42000000 		.4byte	.LVL107
ARM GAS  /tmp/ccAFBUIw.s 			page 128


 6216 095d 0100     		.2byte	0x1
 6217 095f 52       		.byte	0x52
 6218 0960 00000000 		.4byte	0
 6219 0964 00000000 		.4byte	0
 6220              	.LLST71:
 6221 0968 2A000000 		.4byte	.LVL102
 6222 096c 42000000 		.4byte	.LVL107
 6223 0970 0100     		.2byte	0x1
 6224 0972 51       		.byte	0x51
 6225 0973 00000000 		.4byte	0
 6226 0977 00000000 		.4byte	0
 6227              	.LLST72:
 6228 097b 2A000000 		.4byte	.LVL102
 6229 097f 36000000 		.4byte	.LVL104
 6230 0983 0100     		.2byte	0x1
 6231 0985 53       		.byte	0x53
 6232 0986 36000000 		.4byte	.LVL104
 6233 098a 42000000 		.4byte	.LVL107
 6234 098e 0700     		.2byte	0x7
 6235 0990 70       		.byte	0x70
 6236 0991 00       		.sleb128 0
 6237 0992 4C       		.byte	0x4c
 6238 0993 1E       		.byte	0x1e
 6239 0994 74       		.byte	0x74
 6240 0995 00       		.sleb128 0
 6241 0996 22       		.byte	0x22
 6242 0997 00000000 		.4byte	0
 6243 099b 00000000 		.4byte	0
 6244              	.LLST73:
 6245 099f 2A000000 		.4byte	.LVL102
 6246 09a3 42000000 		.4byte	.LVL107
 6247 09a7 0300     		.2byte	0x3
 6248 09a9 71       		.byte	0x71
 6249 09aa 7F       		.sleb128 -1
 6250 09ab 9F       		.byte	0x9f
 6251 09ac 00000000 		.4byte	0
 6252 09b0 00000000 		.4byte	0
 6253              	.LLST74:
 6254 09b4 34000000 		.4byte	.LVL103
 6255 09b8 36000000 		.4byte	.LVL104
 6256 09bc 0300     		.2byte	0x3
 6257 09be 73       		.byte	0x73
 6258 09bf 20       		.sleb128 32
 6259 09c0 9F       		.byte	0x9f
 6260 09c1 36000000 		.4byte	.LVL104
 6261 09c5 3A000000 		.4byte	.LVL106
 6262 09c9 0100     		.2byte	0x1
 6263 09cb 53       		.byte	0x53
 6264 09cc 3A000000 		.4byte	.LVL106
 6265 09d0 42000000 		.4byte	.LVL107
 6266 09d4 0100     		.2byte	0x1
 6267 09d6 55       		.byte	0x55
 6268 09d7 00000000 		.4byte	0
 6269 09db 00000000 		.4byte	0
 6270              	.LLST75:
 6271 09df 5A000000 		.4byte	.LVL108
 6272 09e3 62000000 		.4byte	.LVL109
ARM GAS  /tmp/ccAFBUIw.s 			page 129


 6273 09e7 0100     		.2byte	0x1
 6274 09e9 53       		.byte	0x53
 6275 09ea 00000000 		.4byte	0
 6276 09ee 00000000 		.4byte	0
 6277              	.LLST76:
 6278 09f2 00000000 		.4byte	.LVL112
 6279 09f6 18000000 		.4byte	.LVL113
 6280 09fa 0100     		.2byte	0x1
 6281 09fc 50       		.byte	0x50
 6282 09fd 18000000 		.4byte	.LVL113
 6283 0a01 74000000 		.4byte	.LFE227
 6284 0a05 0400     		.2byte	0x4
 6285 0a07 F3       		.byte	0xf3
 6286 0a08 01       		.uleb128 0x1
 6287 0a09 50       		.byte	0x50
 6288 0a0a 9F       		.byte	0x9f
 6289 0a0b 00000000 		.4byte	0
 6290 0a0f 00000000 		.4byte	0
 6291              	.LLST77:
 6292 0a13 4E000000 		.4byte	.LVL116
 6293 0a17 68000000 		.4byte	.LVL117
 6294 0a1b 0100     		.2byte	0x1
 6295 0a1d 50       		.byte	0x50
 6296 0a1e 00000000 		.4byte	0
 6297 0a22 00000000 		.4byte	0
 6298              	.LLST78:
 6299 0a26 00000000 		.4byte	.LVL112
 6300 0a2a 18000000 		.4byte	.LVL113
 6301 0a2e 0B00     		.2byte	0xb
 6302 0a30 70       		.byte	0x70
 6303 0a31 00       		.sleb128 0
 6304 0a32 4C       		.byte	0x4c
 6305 0a33 1E       		.byte	0x1e
 6306 0a34 03       		.byte	0x3
 6307 0a35 00000000 		.4byte	i2c
 6308 0a39 22       		.byte	0x22
 6309 0a3a 9F       		.byte	0x9f
 6310 0a3b 18000000 		.4byte	.LVL113
 6311 0a3f 6A000000 		.4byte	.LVL119
 6312 0a43 0B00     		.2byte	0xb
 6313 0a45 75       		.byte	0x75
 6314 0a46 00       		.sleb128 0
 6315 0a47 4C       		.byte	0x4c
 6316 0a48 1E       		.byte	0x1e
 6317 0a49 03       		.byte	0x3
 6318 0a4a 00000000 		.4byte	i2c
 6319 0a4e 22       		.byte	0x22
 6320 0a4f 9F       		.byte	0x9f
 6321 0a50 00000000 		.4byte	0
 6322 0a54 00000000 		.4byte	0
 6323              	.LLST79:
 6324 0a58 1C000000 		.4byte	.LVL114
 6325 0a5c 24000000 		.4byte	.LVL115
 6326 0a60 1000     		.2byte	0x10
 6327 0a62 75       		.byte	0x75
 6328 0a63 00       		.sleb128 0
 6329 0a64 35       		.byte	0x35
ARM GAS  /tmp/ccAFBUIw.s 			page 130


 6330 0a65 1E       		.byte	0x1e
 6331 0a66 70       		.byte	0x70
 6332 0a67 00       		.sleb128 0
 6333 0a68 22       		.byte	0x22
 6334 0a69 33       		.byte	0x33
 6335 0a6a 24       		.byte	0x24
 6336 0a6b 03       		.byte	0x3
 6337 0a6c 00000000 		.4byte	i2c_slave
 6338 0a70 22       		.byte	0x22
 6339 0a71 9F       		.byte	0x9f
 6340 0a72 00000000 		.4byte	0
 6341 0a76 00000000 		.4byte	0
 6342              	.LLST80:
 6343 0a7a 1C000000 		.4byte	.LVL114
 6344 0a7e 24000000 		.4byte	.LVL115
 6345 0a82 0100     		.2byte	0x1
 6346 0a84 50       		.byte	0x50
 6347 0a85 00000000 		.4byte	0
 6348 0a89 00000000 		.4byte	0
 6349              	.LLST81:
 6350 0a8d 00000000 		.4byte	.LVL120
 6351 0a91 06000000 		.4byte	.LVL121
 6352 0a95 0100     		.2byte	0x1
 6353 0a97 50       		.byte	0x50
 6354 0a98 06000000 		.4byte	.LVL121
 6355 0a9c 14000000 		.4byte	.LFE228
 6356 0aa0 0400     		.2byte	0x4
 6357 0aa2 F3       		.byte	0xf3
 6358 0aa3 01       		.uleb128 0x1
 6359 0aa4 50       		.byte	0x50
 6360 0aa5 9F       		.byte	0x9f
 6361 0aa6 00000000 		.4byte	0
 6362 0aaa 00000000 		.4byte	0
 6363              	.LLST82:
 6364 0aae 00000000 		.4byte	.LVL122
 6365 0ab2 04000000 		.4byte	.LVL123
 6366 0ab6 0100     		.2byte	0x1
 6367 0ab8 50       		.byte	0x50
 6368 0ab9 04000000 		.4byte	.LVL123
 6369 0abd 14000000 		.4byte	.LFE229
 6370 0ac1 0400     		.2byte	0x4
 6371 0ac3 F3       		.byte	0xf3
 6372 0ac4 01       		.uleb128 0x1
 6373 0ac5 50       		.byte	0x50
 6374 0ac6 9F       		.byte	0x9f
 6375 0ac7 00000000 		.4byte	0
 6376 0acb 00000000 		.4byte	0
 6377              	.LLST83:
 6378 0acf 00000000 		.4byte	.LVL124
 6379 0ad3 12000000 		.4byte	.LVL125
 6380 0ad7 0100     		.2byte	0x1
 6381 0ad9 50       		.byte	0x50
 6382 0ada 12000000 		.4byte	.LVL125
 6383 0ade 30000000 		.4byte	.LFE213
 6384 0ae2 0400     		.2byte	0x4
 6385 0ae4 F3       		.byte	0xf3
 6386 0ae5 01       		.uleb128 0x1
ARM GAS  /tmp/ccAFBUIw.s 			page 131


 6387 0ae6 50       		.byte	0x50
 6388 0ae7 9F       		.byte	0x9f
 6389 0ae8 00000000 		.4byte	0
 6390 0aec 00000000 		.4byte	0
 6391              	.LLST84:
 6392 0af0 00000000 		.4byte	.LVL124
 6393 0af4 12000000 		.4byte	.LVL125
 6394 0af8 0100     		.2byte	0x1
 6395 0afa 51       		.byte	0x51
 6396 0afb 12000000 		.4byte	.LVL125
 6397 0aff 30000000 		.4byte	.LFE213
 6398 0b03 0400     		.2byte	0x4
 6399 0b05 F3       		.byte	0xf3
 6400 0b06 01       		.uleb128 0x1
 6401 0b07 51       		.byte	0x51
 6402 0b08 9F       		.byte	0x9f
 6403 0b09 00000000 		.4byte	0
 6404 0b0d 00000000 		.4byte	0
 6405              	.LLST85:
 6406 0b11 00000000 		.4byte	.LVL124
 6407 0b15 12000000 		.4byte	.LVL125
 6408 0b19 0E00     		.2byte	0xe
 6409 0b1b 70       		.byte	0x70
 6410 0b1c 00       		.sleb128 0
 6411 0b1d 08       		.byte	0x8
 6412 0b1e FF       		.byte	0xff
 6413 0b1f 1A       		.byte	0x1a
 6414 0b20 4C       		.byte	0x4c
 6415 0b21 1E       		.byte	0x1e
 6416 0b22 03       		.byte	0x3
 6417 0b23 00000000 		.4byte	i2c
 6418 0b27 22       		.byte	0x22
 6419 0b28 9F       		.byte	0x9f
 6420 0b29 12000000 		.4byte	.LVL125
 6421 0b2d 30000000 		.4byte	.LFE213
 6422 0b31 0F00     		.2byte	0xf
 6423 0b33 F3       		.byte	0xf3
 6424 0b34 01       		.uleb128 0x1
 6425 0b35 50       		.byte	0x50
 6426 0b36 08       		.byte	0x8
 6427 0b37 FF       		.byte	0xff
 6428 0b38 1A       		.byte	0x1a
 6429 0b39 4C       		.byte	0x4c
 6430 0b3a 1E       		.byte	0x1e
 6431 0b3b 03       		.byte	0x3
 6432 0b3c 00000000 		.4byte	i2c
 6433 0b40 22       		.byte	0x22
 6434 0b41 9F       		.byte	0x9f
 6435 0b42 00000000 		.4byte	0
 6436 0b46 00000000 		.4byte	0
 6437              	.LLST86:
 6438 0b4a 12000000 		.4byte	.LVL125
 6439 0b4e 2A000000 		.4byte	.LVL128
 6440 0b52 0300     		.2byte	0x3
 6441 0b54 75       		.byte	0x75
 6442 0b55 14       		.sleb128 20
 6443 0b56 9F       		.byte	0x9f
ARM GAS  /tmp/ccAFBUIw.s 			page 132


 6444 0b57 00000000 		.4byte	0
 6445 0b5b 00000000 		.4byte	0
 6446              		.section	.debug_aranges,"",%progbits
 6447 0000 BC000000 		.4byte	0xbc
 6448 0004 0200     		.2byte	0x2
 6449 0006 00000000 		.4byte	.Ldebug_info0
 6450 000a 04       		.byte	0x4
 6451 000b 00       		.byte	0
 6452 000c 0000     		.2byte	0
 6453 000e 0000     		.2byte	0
 6454 0010 00000000 		.4byte	.LFB212
 6455 0014 1C000000 		.4byte	.LFE212-.LFB212
 6456 0018 00000000 		.4byte	.LFB209
 6457 001c D4000000 		.4byte	.LFE209-.LFB209
 6458 0020 00000000 		.4byte	.LFB210
 6459 0024 8C000000 		.4byte	.LFE210-.LFB210
 6460 0028 00000000 		.4byte	.LFB211
 6461 002c BE000000 		.4byte	.LFE211-.LFB211
 6462 0030 00000000 		.4byte	.LFB214
 6463 0034 28000000 		.4byte	.LFE214-.LFB214
 6464 0038 00000000 		.4byte	.LFB215
 6465 003c 28000000 		.4byte	.LFE215-.LFB215
 6466 0040 00000000 		.4byte	.LFB216
 6467 0044 28000000 		.4byte	.LFE216-.LFB216
 6468 0048 00000000 		.4byte	.LFB217
 6469 004c 20000000 		.4byte	.LFE217-.LFB217
 6470 0050 00000000 		.4byte	.LFB218
 6471 0054 28000000 		.4byte	.LFE218-.LFB218
 6472 0058 00000000 		.4byte	.LFB219
 6473 005c 10000000 		.4byte	.LFE219-.LFB219
 6474 0060 00000000 		.4byte	.LFB220
 6475 0064 7C000000 		.4byte	.LFE220-.LFB220
 6476 0068 00000000 		.4byte	.LFB221
 6477 006c 24000000 		.4byte	.LFE221-.LFB221
 6478 0070 00000000 		.4byte	.LFB222
 6479 0074 30000000 		.4byte	.LFE222-.LFB222
 6480 0078 00000000 		.4byte	.LFB223
 6481 007c 24000000 		.4byte	.LFE223-.LFB223
 6482 0080 00000000 		.4byte	.LFB224
 6483 0084 20000000 		.4byte	.LFE224-.LFB224
 6484 0088 00000000 		.4byte	.LFB225
 6485 008c 28000000 		.4byte	.LFE225-.LFB225
 6486 0090 00000000 		.4byte	.LFB226
 6487 0094 80000000 		.4byte	.LFE226-.LFB226
 6488 0098 00000000 		.4byte	.LFB227
 6489 009c 74000000 		.4byte	.LFE227-.LFB227
 6490 00a0 00000000 		.4byte	.LFB228
 6491 00a4 14000000 		.4byte	.LFE228-.LFB228
 6492 00a8 00000000 		.4byte	.LFB229
 6493 00ac 14000000 		.4byte	.LFE229-.LFB229
 6494 00b0 00000000 		.4byte	.LFB213
 6495 00b4 30000000 		.4byte	.LFE213-.LFB213
 6496 00b8 00000000 		.4byte	0
 6497 00bc 00000000 		.4byte	0
 6498              		.section	.debug_ranges,"",%progbits
 6499              	.Ldebug_ranges0:
 6500 0000 00000000 		.4byte	.LBB36
ARM GAS  /tmp/ccAFBUIw.s 			page 133


 6501 0004 04000000 		.4byte	.LBE36
 6502 0008 06000000 		.4byte	.LBB39
 6503 000c 08000000 		.4byte	.LBE39
 6504 0010 00000000 		.4byte	0
 6505 0014 00000000 		.4byte	0
 6506 0018 00000000 		.4byte	.LBB56
 6507 001c 04000000 		.4byte	.LBE56
 6508 0020 06000000 		.4byte	.LBB59
 6509 0024 08000000 		.4byte	.LBE59
 6510 0028 00000000 		.4byte	0
 6511 002c 00000000 		.4byte	0
 6512 0030 30000000 		.4byte	.LBB64
 6513 0034 32000000 		.4byte	.LBE64
 6514 0038 36000000 		.4byte	.LBB67
 6515 003c 40000000 		.4byte	.LBE67
 6516 0040 00000000 		.4byte	0
 6517 0044 00000000 		.4byte	0
 6518 0048 02000000 		.4byte	.LBB74
 6519 004c 04000000 		.4byte	.LBE74
 6520 0050 06000000 		.4byte	.LBB77
 6521 0054 0A000000 		.4byte	.LBE77
 6522 0058 00000000 		.4byte	0
 6523 005c 00000000 		.4byte	0
 6524 0060 00000000 		.4byte	.LBB82
 6525 0064 02000000 		.4byte	.LBE82
 6526 0068 04000000 		.4byte	.LBB95
 6527 006c 14000000 		.4byte	.LBE95
 6528 0070 14000000 		.4byte	.LBB96
 6529 0074 16000000 		.4byte	.LBE96
 6530 0078 18000000 		.4byte	.LBB97
 6531 007c 1A000000 		.4byte	.LBE97
 6532 0080 00000000 		.4byte	0
 6533 0084 00000000 		.4byte	0
 6534 0088 08000000 		.4byte	.LBB84
 6535 008c 0A000000 		.4byte	.LBE84
 6536 0090 0C000000 		.4byte	.LBB89
 6537 0094 14000000 		.4byte	.LBE89
 6538 0098 14000000 		.4byte	.LBB90
 6539 009c 16000000 		.4byte	.LBE90
 6540 00a0 18000000 		.4byte	.LBB91
 6541 00a4 1A000000 		.4byte	.LBE91
 6542 00a8 00000000 		.4byte	0
 6543 00ac 00000000 		.4byte	0
 6544 00b0 0A000000 		.4byte	.LBB102
 6545 00b4 0E000000 		.4byte	.LBE102
 6546 00b8 10000000 		.4byte	.LBB109
 6547 00bc 1C000000 		.4byte	.LBE109
 6548 00c0 00000000 		.4byte	0
 6549 00c4 00000000 		.4byte	0
 6550 00c8 0C000000 		.4byte	.LBB104
 6551 00cc 0E000000 		.4byte	.LBE104
 6552 00d0 10000000 		.4byte	.LBB107
 6553 00d4 1C000000 		.4byte	.LBE107
 6554 00d8 00000000 		.4byte	0
 6555 00dc 00000000 		.4byte	0
 6556 00e0 22000000 		.4byte	.LBB114
 6557 00e4 24000000 		.4byte	.LBE114
ARM GAS  /tmp/ccAFBUIw.s 			page 134


 6558 00e8 28000000 		.4byte	.LBB117
 6559 00ec 2E000000 		.4byte	.LBE117
 6560 00f0 00000000 		.4byte	0
 6561 00f4 00000000 		.4byte	0
 6562 00f8 06000000 		.4byte	.LBB122
 6563 00fc 08000000 		.4byte	.LBE122
 6564 0100 0A000000 		.4byte	.LBB127
 6565 0104 18000000 		.4byte	.LBE127
 6566 0108 00000000 		.4byte	0
 6567 010c 00000000 		.4byte	0
 6568 0110 1E000000 		.4byte	.LBB133
 6569 0114 20000000 		.4byte	.LBE133
 6570 0118 22000000 		.4byte	.LBB139
 6571 011c 24000000 		.4byte	.LBE139
 6572 0120 26000000 		.4byte	.LBB140
 6573 0124 28000000 		.4byte	.LBE140
 6574 0128 2A000000 		.4byte	.LBB141
 6575 012c 42000000 		.4byte	.LBE141
 6576 0130 00000000 		.4byte	0
 6577 0134 00000000 		.4byte	0
 6578 0138 00000000 		.4byte	.LFB212
 6579 013c 1C000000 		.4byte	.LFE212
 6580 0140 00000000 		.4byte	.LFB209
 6581 0144 D4000000 		.4byte	.LFE209
 6582 0148 00000000 		.4byte	.LFB210
 6583 014c 8C000000 		.4byte	.LFE210
 6584 0150 00000000 		.4byte	.LFB211
 6585 0154 BE000000 		.4byte	.LFE211
 6586 0158 00000000 		.4byte	.LFB214
 6587 015c 28000000 		.4byte	.LFE214
 6588 0160 00000000 		.4byte	.LFB215
 6589 0164 28000000 		.4byte	.LFE215
 6590 0168 00000000 		.4byte	.LFB216
 6591 016c 28000000 		.4byte	.LFE216
 6592 0170 00000000 		.4byte	.LFB217
 6593 0174 20000000 		.4byte	.LFE217
 6594 0178 00000000 		.4byte	.LFB218
 6595 017c 28000000 		.4byte	.LFE218
 6596 0180 00000000 		.4byte	.LFB219
 6597 0184 10000000 		.4byte	.LFE219
 6598 0188 00000000 		.4byte	.LFB220
 6599 018c 7C000000 		.4byte	.LFE220
 6600 0190 00000000 		.4byte	.LFB221
 6601 0194 24000000 		.4byte	.LFE221
 6602 0198 00000000 		.4byte	.LFB222
 6603 019c 30000000 		.4byte	.LFE222
 6604 01a0 00000000 		.4byte	.LFB223
 6605 01a4 24000000 		.4byte	.LFE223
 6606 01a8 00000000 		.4byte	.LFB224
 6607 01ac 20000000 		.4byte	.LFE224
 6608 01b0 00000000 		.4byte	.LFB225
 6609 01b4 28000000 		.4byte	.LFE225
 6610 01b8 00000000 		.4byte	.LFB226
 6611 01bc 80000000 		.4byte	.LFE226
 6612 01c0 00000000 		.4byte	.LFB227
 6613 01c4 74000000 		.4byte	.LFE227
 6614 01c8 00000000 		.4byte	.LFB228
ARM GAS  /tmp/ccAFBUIw.s 			page 135


 6615 01cc 14000000 		.4byte	.LFE228
 6616 01d0 00000000 		.4byte	.LFB229
 6617 01d4 14000000 		.4byte	.LFE229
 6618 01d8 00000000 		.4byte	.LFB213
 6619 01dc 30000000 		.4byte	.LFE213
 6620 01e0 00000000 		.4byte	0
 6621 01e4 00000000 		.4byte	0
 6622              		.section	.debug_macro,"",%progbits
 6623              	.Ldebug_macro0:
 6624 0000 0400     		.2byte	0x4
 6625 0002 02       		.byte	0x2
 6626 0003 00000000 		.4byte	.Ldebug_line0
 6627 0007 07       		.byte	0x7
 6628 0008 00000000 		.4byte	.Ldebug_macro1
 6629 000c 03       		.byte	0x3
 6630 000d 00       		.uleb128 0
 6631 000e 01       		.uleb128 0x1
 6632 000f 03       		.byte	0x3
 6633 0010 20       		.uleb128 0x20
 6634 0011 07       		.uleb128 0x7
 6635 0012 05       		.byte	0x5
 6636 0013 1E       		.uleb128 0x1e
 6637 0014 FD790000 		.4byte	.LASF346
 6638              		.file 8 "../../lpc11cx4-library/lpc_chip_11cxx_lib/inc/lpc_types.h"
 6639 0018 03       		.byte	0x3
 6640 0019 20       		.uleb128 0x20
 6641 001a 08       		.uleb128 0x8
 6642 001b 05       		.byte	0x5
 6643 001c 21       		.uleb128 0x21
 6644 001d 65220000 		.4byte	.LASF347
 6645              		.file 9 "/usr/lib/gcc/arm-none-eabi/4.9.3/include/stdint.h"
 6646 0021 03       		.byte	0x3
 6647 0022 23       		.uleb128 0x23
 6648 0023 09       		.uleb128 0x9
 6649              		.file 10 "/usr/arm-none-eabi/include/stdint.h"
 6650 0024 03       		.byte	0x3
 6651 0025 09       		.uleb128 0x9
 6652 0026 0A       		.uleb128 0xa
 6653 0027 05       		.byte	0x5
 6654 0028 0A       		.uleb128 0xa
 6655 0029 791C0000 		.4byte	.LASF348
 6656 002d 03       		.byte	0x3
 6657 002e 0C       		.uleb128 0xc
 6658 002f 03       		.uleb128 0x3
 6659 0030 05       		.byte	0x5
 6660 0031 06       		.uleb128 0x6
 6661 0032 14500000 		.4byte	.LASF349
 6662              		.file 11 "/usr/arm-none-eabi/include/sys/features.h"
 6663 0036 03       		.byte	0x3
 6664 0037 08       		.uleb128 0x8
 6665 0038 0B       		.uleb128 0xb
 6666 0039 07       		.byte	0x7
 6667 003a 00000000 		.4byte	.Ldebug_macro2
 6668 003e 04       		.byte	0x4
 6669 003f 07       		.byte	0x7
 6670 0040 00000000 		.4byte	.Ldebug_macro3
 6671 0044 04       		.byte	0x4
ARM GAS  /tmp/ccAFBUIw.s 			page 136


 6672              		.file 12 "/usr/arm-none-eabi/include/sys/_intsup.h"
 6673 0045 03       		.byte	0x3
 6674 0046 0D       		.uleb128 0xd
 6675 0047 0C       		.uleb128 0xc
 6676 0048 07       		.byte	0x7
 6677 0049 00000000 		.4byte	.Ldebug_macro4
 6678 004d 04       		.byte	0x4
 6679 004e 03       		.byte	0x3
 6680 004f 0E       		.uleb128 0xe
 6681 0050 04       		.uleb128 0x4
 6682 0051 07       		.byte	0x7
 6683 0052 00000000 		.4byte	.Ldebug_macro5
 6684 0056 04       		.byte	0x4
 6685 0057 07       		.byte	0x7
 6686 0058 00000000 		.4byte	.Ldebug_macro6
 6687 005c 04       		.byte	0x4
 6688 005d 05       		.byte	0x5
 6689 005e 0D       		.uleb128 0xd
 6690 005f 00660000 		.4byte	.LASF467
 6691 0063 04       		.byte	0x4
 6692              		.file 13 "/usr/lib/gcc/arm-none-eabi/4.9.3/include/stdbool.h"
 6693 0064 03       		.byte	0x3
 6694 0065 24       		.uleb128 0x24
 6695 0066 0D       		.uleb128 0xd
 6696 0067 07       		.byte	0x7
 6697 0068 00000000 		.4byte	.Ldebug_macro7
 6698 006c 04       		.byte	0x4
 6699 006d 07       		.byte	0x7
 6700 006e 00000000 		.4byte	.Ldebug_macro8
 6701 0072 04       		.byte	0x4
 6702              		.file 14 "../../lpc11cx4-library/lpc_chip_11cxx_lib/inc/sys_config.h"
 6703 0073 03       		.byte	0x3
 6704 0074 21       		.uleb128 0x21
 6705 0075 0E       		.uleb128 0xe
 6706 0076 07       		.byte	0x7
 6707 0077 00000000 		.4byte	.Ldebug_macro9
 6708 007b 04       		.byte	0x4
 6709              		.file 15 "../../lpc11cx4-library/lpc_chip_11cxx_lib/inc/cmsis.h"
 6710 007c 03       		.byte	0x3
 6711 007d 22       		.uleb128 0x22
 6712 007e 0F       		.uleb128 0xf
 6713 007f 05       		.byte	0x5
 6714 0080 1E       		.uleb128 0x1e
 6715 0081 154F0000 		.4byte	.LASF491
 6716              		.file 16 "../../lpc11cx4-library/lpc_chip_11cxx_lib/inc/cmsis_11cxx.h"
 6717 0085 03       		.byte	0x3
 6718 0086 2E       		.uleb128 0x2e
 6719 0087 10       		.uleb128 0x10
 6720 0088 07       		.byte	0x7
 6721 0089 00000000 		.4byte	.Ldebug_macro10
 6722 008d 04       		.byte	0x4
 6723              		.file 17 "../../lpc11cx4-library/lpc_chip_11cxx_lib/inc/core_cm0.h"
 6724 008e 03       		.byte	0x3
 6725 008f 3E       		.uleb128 0x3e
 6726 0090 11       		.uleb128 0x11
 6727 0091 07       		.byte	0x7
 6728 0092 00000000 		.4byte	.Ldebug_macro11
ARM GAS  /tmp/ccAFBUIw.s 			page 137


 6729              		.file 18 "../../lpc11cx4-library/lpc_chip_11cxx_lib/inc/core_cmInstr.h"
 6730 0096 03       		.byte	0x3
 6731 0097 70       		.uleb128 0x70
 6732 0098 12       		.uleb128 0x12
 6733 0099 05       		.byte	0x5
 6734 009a 19       		.uleb128 0x19
 6735 009b 021D0000 		.4byte	.LASF505
 6736 009f 04       		.byte	0x4
 6737              		.file 19 "../../lpc11cx4-library/lpc_chip_11cxx_lib/inc/core_cmFunc.h"
 6738 00a0 03       		.byte	0x3
 6739 00a1 71       		.uleb128 0x71
 6740 00a2 13       		.uleb128 0x13
 6741 00a3 05       		.byte	0x5
 6742 00a4 19       		.uleb128 0x19
 6743 00a5 2B700000 		.4byte	.LASF506
 6744 00a9 04       		.byte	0x4
 6745 00aa 07       		.byte	0x7
 6746 00ab 00000000 		.4byte	.Ldebug_macro12
 6747 00af 04       		.byte	0x4
 6748 00b0 04       		.byte	0x4
 6749 00b1 07       		.byte	0x7
 6750 00b2 00000000 		.4byte	.Ldebug_macro13
 6751              		.file 20 "../../lpc11cx4-library/lpc_chip_11cxx_lib/inc/pmu_11xx.h"
 6752 00b6 03       		.byte	0x3
 6753 00b7 E901     		.uleb128 0xe9
 6754 00b9 14       		.uleb128 0x14
 6755 00ba 07       		.byte	0x7
 6756 00bb 00000000 		.4byte	.Ldebug_macro14
 6757 00bf 04       		.byte	0x4
 6758              		.file 21 "../../lpc11cx4-library/lpc_chip_11cxx_lib/inc/fmc_11xx.h"
 6759 00c0 03       		.byte	0x3
 6760 00c1 EA01     		.uleb128 0xea
 6761 00c3 15       		.uleb128 0x15
 6762 00c4 05       		.byte	0x5
 6763 00c5 21       		.uleb128 0x21
 6764 00c6 01680000 		.4byte	.LASF636
 6765 00ca 04       		.byte	0x4
 6766 00cb 03       		.byte	0x3
 6767 00cc EB01     		.uleb128 0xeb
 6768 00ce 05       		.uleb128 0x5
 6769 00cf 07       		.byte	0x7
 6770 00d0 00000000 		.4byte	.Ldebug_macro15
 6771 00d4 04       		.byte	0x4
 6772 00d5 03       		.byte	0x3
 6773 00d6 EC01     		.uleb128 0xec
 6774 00d8 02       		.uleb128 0x2
 6775 00d9 07       		.byte	0x7
 6776 00da 00000000 		.4byte	.Ldebug_macro16
 6777 00de 04       		.byte	0x4
 6778              		.file 22 "../../lpc11cx4-library/lpc_chip_11cxx_lib/inc/iocon_11xx.h"
 6779 00df 03       		.byte	0x3
 6780 00e0 ED01     		.uleb128 0xed
 6781 00e2 16       		.uleb128 0x16
 6782 00e3 07       		.byte	0x7
 6783 00e4 00000000 		.4byte	.Ldebug_macro17
 6784 00e8 04       		.byte	0x4
 6785              		.file 23 "../../lpc11cx4-library/lpc_chip_11cxx_lib/inc/timer_11xx.h"
ARM GAS  /tmp/ccAFBUIw.s 			page 138


 6786 00e9 03       		.byte	0x3
 6787 00ea EE01     		.uleb128 0xee
 6788 00ec 17       		.uleb128 0x17
 6789 00ed 07       		.byte	0x7
 6790 00ee 00000000 		.4byte	.Ldebug_macro18
 6791 00f2 04       		.byte	0x4
 6792              		.file 24 "../../lpc11cx4-library/lpc_chip_11cxx_lib/inc/uart_11xx.h"
 6793 00f3 03       		.byte	0x3
 6794 00f4 EF01     		.uleb128 0xef
 6795 00f6 18       		.uleb128 0x18
 6796 00f7 05       		.byte	0x5
 6797 00f8 21       		.uleb128 0x21
 6798 00f9 89250000 		.4byte	.LASF720
 6799              		.file 25 "../../lpc11cx4-library/lpc_chip_11cxx_lib/inc/ring_buffer.h"
 6800 00fd 03       		.byte	0x3
 6801 00fe 23       		.uleb128 0x23
 6802 00ff 19       		.uleb128 0x19
 6803 0100 07       		.byte	0x7
 6804 0101 00000000 		.4byte	.Ldebug_macro19
 6805 0105 04       		.byte	0x4
 6806 0106 07       		.byte	0x7
 6807 0107 00000000 		.4byte	.Ldebug_macro20
 6808 010b 04       		.byte	0x4
 6809              		.file 26 "../../lpc11cx4-library/lpc_chip_11cxx_lib/inc/wwdt_11xx.h"
 6810 010c 03       		.byte	0x3
 6811 010d F001     		.uleb128 0xf0
 6812 010f 1A       		.uleb128 0x1a
 6813 0110 07       		.byte	0x7
 6814 0111 00000000 		.4byte	.Ldebug_macro21
 6815 0115 04       		.byte	0x4
 6816              		.file 27 "../../lpc11cx4-library/lpc_chip_11cxx_lib/inc/ssp_11xx.h"
 6817 0116 03       		.byte	0x3
 6818 0117 F101     		.uleb128 0xf1
 6819 0119 1B       		.uleb128 0x1b
 6820 011a 07       		.byte	0x7
 6821 011b 00000000 		.4byte	.Ldebug_macro22
 6822 011f 04       		.byte	0x4
 6823              		.file 28 "../../lpc11cx4-library/lpc_chip_11cxx_lib/inc/romapi_11xx.h"
 6824 0120 03       		.byte	0x3
 6825 0121 F201     		.uleb128 0xf2
 6826 0123 1C       		.uleb128 0x1c
 6827 0124 05       		.byte	0x5
 6828 0125 21       		.uleb128 0x21
 6829 0126 492E0000 		.4byte	.LASF873
 6830              		.file 29 "../../lpc11cx4-library/lpc_chip_11cxx_lib/inc/error.h"
 6831 012a 03       		.byte	0x3
 6832 012b 23       		.uleb128 0x23
 6833 012c 1D       		.uleb128 0x1d
 6834 012d 07       		.byte	0x7
 6835 012e 00000000 		.4byte	.Ldebug_macro23
 6836 0132 04       		.byte	0x4
 6837 0133 04       		.byte	0x4
 6838              		.file 30 "../../lpc11cx4-library/lpc_chip_11cxx_lib/inc/adc_11xx.h"
 6839 0134 03       		.byte	0x3
 6840 0135 F601     		.uleb128 0xf6
 6841 0137 1E       		.uleb128 0x1e
 6842 0138 07       		.byte	0x7
ARM GAS  /tmp/ccAFBUIw.s 			page 139


 6843 0139 00000000 		.4byte	.Ldebug_macro24
 6844 013d 04       		.byte	0x4
 6845              		.file 31 "../../lpc11cx4-library/lpc_chip_11cxx_lib/inc/gpio_11xx_2.h"
 6846 013e 03       		.byte	0x3
 6847 013f FF01     		.uleb128 0xff
 6848 0141 1F       		.uleb128 0x1f
 6849 0142 05       		.byte	0x5
 6850 0143 22       		.uleb128 0x22
 6851 0144 65380000 		.4byte	.LASF896
 6852 0148 04       		.byte	0x4
 6853 0149 03       		.byte	0x3
 6854 014a 8C02     		.uleb128 0x10c
 6855 014c 06       		.uleb128 0x6
 6856 014d 07       		.byte	0x7
 6857 014e 00000000 		.4byte	.Ldebug_macro25
 6858 0152 04       		.byte	0x4
 6859              		.file 32 "../../lpc11cx4-library/lpc_chip_11cxx_lib/inc/ccand_11xx.h"
 6860 0153 03       		.byte	0x3
 6861 0154 8F02     		.uleb128 0x10f
 6862 0156 20       		.uleb128 0x20
 6863 0157 07       		.byte	0x7
 6864 0158 00000000 		.4byte	.Ldebug_macro26
 6865 015c 04       		.byte	0x4
 6866 015d 04       		.byte	0x4
 6867 015e 05       		.byte	0x5
 6868 015f 29       		.uleb128 0x29
 6869 0160 AA720000 		.4byte	.LASF1021
 6870 0164 05       		.byte	0x5
 6871 0165 2A       		.uleb128 0x2a
 6872 0166 19480000 		.4byte	.LASF1022
 6873 016a 05       		.byte	0x5
 6874 016b 2B       		.uleb128 0x2b
 6875 016c 56570000 		.4byte	.LASF1023
 6876 0170 04       		.byte	0x4
 6877 0171 00       		.byte	0
 6878              		.section	.debug_macro,"G",%progbits,wm4.0.d60539c8b2f01ca1b851fc35675107cd,comdat
 6879              	.Ldebug_macro1:
 6880 0000 0400     		.2byte	0x4
 6881 0002 00       		.byte	0
 6882 0003 05       		.byte	0x5
 6883 0004 00       		.uleb128 0
 6884 0005 034B0000 		.4byte	.LASF0
 6885 0009 05       		.byte	0x5
 6886 000a 00       		.uleb128 0
 6887 000b 92090000 		.4byte	.LASF1
 6888 000f 05       		.byte	0x5
 6889 0010 00       		.uleb128 0
 6890 0011 0A370000 		.4byte	.LASF2
 6891 0015 05       		.byte	0x5
 6892 0016 00       		.uleb128 0
 6893 0017 A6600000 		.4byte	.LASF3
 6894 001b 05       		.byte	0x5
 6895 001c 00       		.uleb128 0
 6896 001d F71B0000 		.4byte	.LASF4
 6897 0021 05       		.byte	0x5
 6898 0022 00       		.uleb128 0
 6899 0023 30760000 		.4byte	.LASF5
ARM GAS  /tmp/ccAFBUIw.s 			page 140


 6900 0027 05       		.byte	0x5
 6901 0028 00       		.uleb128 0
 6902 0029 D6670000 		.4byte	.LASF6
 6903 002d 05       		.byte	0x5
 6904 002e 00       		.uleb128 0
 6905 002f 371F0000 		.4byte	.LASF7
 6906 0033 05       		.byte	0x5
 6907 0034 00       		.uleb128 0
 6908 0035 EA560000 		.4byte	.LASF8
 6909 0039 05       		.byte	0x5
 6910 003a 00       		.uleb128 0
 6911 003b CA3A0000 		.4byte	.LASF9
 6912 003f 05       		.byte	0x5
 6913 0040 00       		.uleb128 0
 6914 0041 D2790000 		.4byte	.LASF10
 6915 0045 05       		.byte	0x5
 6916 0046 00       		.uleb128 0
 6917 0047 59030000 		.4byte	.LASF11
 6918 004b 05       		.byte	0x5
 6919 004c 00       		.uleb128 0
 6920 004d 2B450000 		.4byte	.LASF12
 6921 0051 05       		.byte	0x5
 6922 0052 00       		.uleb128 0
 6923 0053 BC3B0000 		.4byte	.LASF13
 6924 0057 05       		.byte	0x5
 6925 0058 00       		.uleb128 0
 6926 0059 0E5B0000 		.4byte	.LASF14
 6927 005d 05       		.byte	0x5
 6928 005e 00       		.uleb128 0
 6929 005f 4B700000 		.4byte	.LASF15
 6930 0063 05       		.byte	0x5
 6931 0064 00       		.uleb128 0
 6932 0065 28170000 		.4byte	.LASF16
 6933 0069 05       		.byte	0x5
 6934 006a 00       		.uleb128 0
 6935 006b 76040000 		.4byte	.LASF17
 6936 006f 05       		.byte	0x5
 6937 0070 00       		.uleb128 0
 6938 0071 675B0000 		.4byte	.LASF18
 6939 0075 05       		.byte	0x5
 6940 0076 00       		.uleb128 0
 6941 0077 1C690000 		.4byte	.LASF19
 6942 007b 05       		.byte	0x5
 6943 007c 00       		.uleb128 0
 6944 007d 81170000 		.4byte	.LASF20
 6945 0081 05       		.byte	0x5
 6946 0082 00       		.uleb128 0
 6947 0083 D1220000 		.4byte	.LASF21
 6948 0087 05       		.byte	0x5
 6949 0088 00       		.uleb128 0
 6950 0089 00650000 		.4byte	.LASF22
 6951 008d 05       		.byte	0x5
 6952 008e 00       		.uleb128 0
 6953 008f 03430000 		.4byte	.LASF23
 6954 0093 05       		.byte	0x5
 6955 0094 00       		.uleb128 0
 6956 0095 2F500000 		.4byte	.LASF24
ARM GAS  /tmp/ccAFBUIw.s 			page 141


 6957 0099 05       		.byte	0x5
 6958 009a 00       		.uleb128 0
 6959 009b 87570000 		.4byte	.LASF25
 6960 009f 05       		.byte	0x5
 6961 00a0 00       		.uleb128 0
 6962 00a1 960D0000 		.4byte	.LASF26
 6963 00a5 05       		.byte	0x5
 6964 00a6 00       		.uleb128 0
 6965 00a7 CD050000 		.4byte	.LASF27
 6966 00ab 05       		.byte	0x5
 6967 00ac 00       		.uleb128 0
 6968 00ad 97430000 		.4byte	.LASF28
 6969 00b1 05       		.byte	0x5
 6970 00b2 00       		.uleb128 0
 6971 00b3 16250000 		.4byte	.LASF29
 6972 00b7 05       		.byte	0x5
 6973 00b8 00       		.uleb128 0
 6974 00b9 05150000 		.4byte	.LASF30
 6975 00bd 05       		.byte	0x5
 6976 00be 00       		.uleb128 0
 6977 00bf FB770000 		.4byte	.LASF31
 6978 00c3 05       		.byte	0x5
 6979 00c4 00       		.uleb128 0
 6980 00c5 53580000 		.4byte	.LASF32
 6981 00c9 05       		.byte	0x5
 6982 00ca 00       		.uleb128 0
 6983 00cb 36230000 		.4byte	.LASF33
 6984 00cf 05       		.byte	0x5
 6985 00d0 00       		.uleb128 0
 6986 00d1 14460000 		.4byte	.LASF34
 6987 00d5 05       		.byte	0x5
 6988 00d6 00       		.uleb128 0
 6989 00d7 B7600000 		.4byte	.LASF35
 6990 00db 05       		.byte	0x5
 6991 00dc 00       		.uleb128 0
 6992 00dd D2480000 		.4byte	.LASF36
 6993 00e1 05       		.byte	0x5
 6994 00e2 00       		.uleb128 0
 6995 00e3 B2630000 		.4byte	.LASF37
 6996 00e7 05       		.byte	0x5
 6997 00e8 00       		.uleb128 0
 6998 00e9 8B160000 		.4byte	.LASF38
 6999 00ed 05       		.byte	0x5
 7000 00ee 00       		.uleb128 0
 7001 00ef B8390000 		.4byte	.LASF39
 7002 00f3 05       		.byte	0x5
 7003 00f4 00       		.uleb128 0
 7004 00f5 67060000 		.4byte	.LASF40
 7005 00f9 05       		.byte	0x5
 7006 00fa 00       		.uleb128 0
 7007 00fb B3070000 		.4byte	.LASF41
 7008 00ff 05       		.byte	0x5
 7009 0100 00       		.uleb128 0
 7010 0101 E5790000 		.4byte	.LASF42
 7011 0105 05       		.byte	0x5
 7012 0106 00       		.uleb128 0
 7013 0107 D3420000 		.4byte	.LASF43
ARM GAS  /tmp/ccAFBUIw.s 			page 142


 7014 010b 05       		.byte	0x5
 7015 010c 00       		.uleb128 0
 7016 010d 5F4B0000 		.4byte	.LASF44
 7017 0111 05       		.byte	0x5
 7018 0112 00       		.uleb128 0
 7019 0113 6B370000 		.4byte	.LASF45
 7020 0117 05       		.byte	0x5
 7021 0118 00       		.uleb128 0
 7022 0119 F96E0000 		.4byte	.LASF46
 7023 011d 05       		.byte	0x5
 7024 011e 00       		.uleb128 0
 7025 011f 49650000 		.4byte	.LASF47
 7026 0123 05       		.byte	0x5
 7027 0124 00       		.uleb128 0
 7028 0125 1A150000 		.4byte	.LASF48
 7029 0129 05       		.byte	0x5
 7030 012a 00       		.uleb128 0
 7031 012b 1D740000 		.4byte	.LASF49
 7032 012f 05       		.byte	0x5
 7033 0130 00       		.uleb128 0
 7034 0131 07560000 		.4byte	.LASF50
 7035 0135 05       		.byte	0x5
 7036 0136 00       		.uleb128 0
 7037 0137 A07B0000 		.4byte	.LASF51
 7038 013b 05       		.byte	0x5
 7039 013c 00       		.uleb128 0
 7040 013d 14120000 		.4byte	.LASF52
 7041 0141 05       		.byte	0x5
 7042 0142 00       		.uleb128 0
 7043 0143 8E590000 		.4byte	.LASF53
 7044 0147 05       		.byte	0x5
 7045 0148 00       		.uleb128 0
 7046 0149 6F600000 		.4byte	.LASF54
 7047 014d 05       		.byte	0x5
 7048 014e 00       		.uleb128 0
 7049 014f F7390000 		.4byte	.LASF55
 7050 0153 05       		.byte	0x5
 7051 0154 00       		.uleb128 0
 7052 0155 7B140000 		.4byte	.LASF56
 7053 0159 05       		.byte	0x5
 7054 015a 00       		.uleb128 0
 7055 015b 12590000 		.4byte	.LASF57
 7056 015f 05       		.byte	0x5
 7057 0160 00       		.uleb128 0
 7058 0161 1A3B0000 		.4byte	.LASF58
 7059 0165 05       		.byte	0x5
 7060 0166 00       		.uleb128 0
 7061 0167 010A0000 		.4byte	.LASF59
 7062 016b 05       		.byte	0x5
 7063 016c 00       		.uleb128 0
 7064 016d 8D380000 		.4byte	.LASF60
 7065 0171 05       		.byte	0x5
 7066 0172 00       		.uleb128 0
 7067 0173 EA710000 		.4byte	.LASF61
 7068 0177 05       		.byte	0x5
 7069 0178 00       		.uleb128 0
 7070 0179 F0580000 		.4byte	.LASF62
ARM GAS  /tmp/ccAFBUIw.s 			page 143


 7071 017d 05       		.byte	0x5
 7072 017e 00       		.uleb128 0
 7073 017f 31240000 		.4byte	.LASF63
 7074 0183 05       		.byte	0x5
 7075 0184 00       		.uleb128 0
 7076 0185 9E630000 		.4byte	.LASF64
 7077 0189 05       		.byte	0x5
 7078 018a 00       		.uleb128 0
 7079 018b D5630000 		.4byte	.LASF65
 7080 018f 05       		.byte	0x5
 7081 0190 00       		.uleb128 0
 7082 0191 D3340000 		.4byte	.LASF66
 7083 0195 05       		.byte	0x5
 7084 0196 00       		.uleb128 0
 7085 0197 A5290000 		.4byte	.LASF67
 7086 019b 05       		.byte	0x5
 7087 019c 00       		.uleb128 0
 7088 019d 1A240000 		.4byte	.LASF68
 7089 01a1 05       		.byte	0x5
 7090 01a2 00       		.uleb128 0
 7091 01a3 B40E0000 		.4byte	.LASF69
 7092 01a7 05       		.byte	0x5
 7093 01a8 00       		.uleb128 0
 7094 01a9 47690000 		.4byte	.LASF70
 7095 01ad 05       		.byte	0x5
 7096 01ae 00       		.uleb128 0
 7097 01af E0390000 		.4byte	.LASF71
 7098 01b3 05       		.byte	0x5
 7099 01b4 00       		.uleb128 0
 7100 01b5 416B0000 		.4byte	.LASF72
 7101 01b9 05       		.byte	0x5
 7102 01ba 00       		.uleb128 0
 7103 01bb 99010000 		.4byte	.LASF73
 7104 01bf 05       		.byte	0x5
 7105 01c0 00       		.uleb128 0
 7106 01c1 27140000 		.4byte	.LASF74
 7107 01c5 05       		.byte	0x5
 7108 01c6 00       		.uleb128 0
 7109 01c7 8D3E0000 		.4byte	.LASF75
 7110 01cb 05       		.byte	0x5
 7111 01cc 00       		.uleb128 0
 7112 01cd C95C0000 		.4byte	.LASF76
 7113 01d1 05       		.byte	0x5
 7114 01d2 00       		.uleb128 0
 7115 01d3 61730000 		.4byte	.LASF77
 7116 01d7 05       		.byte	0x5
 7117 01d8 00       		.uleb128 0
 7118 01d9 16630000 		.4byte	.LASF78
 7119 01dd 05       		.byte	0x5
 7120 01de 00       		.uleb128 0
 7121 01df 3B5E0000 		.4byte	.LASF79
 7122 01e3 05       		.byte	0x5
 7123 01e4 00       		.uleb128 0
 7124 01e5 1D100000 		.4byte	.LASF80
 7125 01e9 05       		.byte	0x5
 7126 01ea 00       		.uleb128 0
 7127 01eb 36420000 		.4byte	.LASF81
ARM GAS  /tmp/ccAFBUIw.s 			page 144


 7128 01ef 05       		.byte	0x5
 7129 01f0 00       		.uleb128 0
 7130 01f1 FC5F0000 		.4byte	.LASF82
 7131 01f5 05       		.byte	0x5
 7132 01f6 00       		.uleb128 0
 7133 01f7 ED140000 		.4byte	.LASF83
 7134 01fb 05       		.byte	0x5
 7135 01fc 00       		.uleb128 0
 7136 01fd 884C0000 		.4byte	.LASF84
 7137 0201 05       		.byte	0x5
 7138 0202 00       		.uleb128 0
 7139 0203 A12F0000 		.4byte	.LASF85
 7140 0207 05       		.byte	0x5
 7141 0208 00       		.uleb128 0
 7142 0209 25160000 		.4byte	.LASF86
 7143 020d 05       		.byte	0x5
 7144 020e 00       		.uleb128 0
 7145 020f 970F0000 		.4byte	.LASF87
 7146 0213 05       		.byte	0x5
 7147 0214 00       		.uleb128 0
 7148 0215 5B3A0000 		.4byte	.LASF88
 7149 0219 05       		.byte	0x5
 7150 021a 00       		.uleb128 0
 7151 021b A72A0000 		.4byte	.LASF89
 7152 021f 05       		.byte	0x5
 7153 0220 00       		.uleb128 0
 7154 0221 D07A0000 		.4byte	.LASF90
 7155 0225 05       		.byte	0x5
 7156 0226 00       		.uleb128 0
 7157 0227 6E660000 		.4byte	.LASF91
 7158 022b 05       		.byte	0x5
 7159 022c 00       		.uleb128 0
 7160 022d 9E3E0000 		.4byte	.LASF92
 7161 0231 05       		.byte	0x5
 7162 0232 00       		.uleb128 0
 7163 0233 F10A0000 		.4byte	.LASF93
 7164 0237 05       		.byte	0x5
 7165 0238 00       		.uleb128 0
 7166 0239 58310000 		.4byte	.LASF94
 7167 023d 05       		.byte	0x5
 7168 023e 00       		.uleb128 0
 7169 023f 2B530000 		.4byte	.LASF95
 7170 0243 05       		.byte	0x5
 7171 0244 00       		.uleb128 0
 7172 0245 88660000 		.4byte	.LASF96
 7173 0249 05       		.byte	0x5
 7174 024a 00       		.uleb128 0
 7175 024b 08790000 		.4byte	.LASF97
 7176 024f 05       		.byte	0x5
 7177 0250 00       		.uleb128 0
 7178 0251 F2600000 		.4byte	.LASF98
 7179 0255 05       		.byte	0x5
 7180 0256 00       		.uleb128 0
 7181 0257 31260000 		.4byte	.LASF99
 7182 025b 05       		.byte	0x5
 7183 025c 00       		.uleb128 0
 7184 025d 365D0000 		.4byte	.LASF100
ARM GAS  /tmp/ccAFBUIw.s 			page 145


 7185 0261 05       		.byte	0x5
 7186 0262 00       		.uleb128 0
 7187 0263 89650000 		.4byte	.LASF101
 7188 0267 05       		.byte	0x5
 7189 0268 00       		.uleb128 0
 7190 0269 237B0000 		.4byte	.LASF102
 7191 026d 05       		.byte	0x5
 7192 026e 00       		.uleb128 0
 7193 026f A4070000 		.4byte	.LASF103
 7194 0273 05       		.byte	0x5
 7195 0274 00       		.uleb128 0
 7196 0275 635A0000 		.4byte	.LASF104
 7197 0279 05       		.byte	0x5
 7198 027a 00       		.uleb128 0
 7199 027b 33670000 		.4byte	.LASF105
 7200 027f 05       		.byte	0x5
 7201 0280 00       		.uleb128 0
 7202 0281 0F6A0000 		.4byte	.LASF106
 7203 0285 05       		.byte	0x5
 7204 0286 00       		.uleb128 0
 7205 0287 242A0000 		.4byte	.LASF107
 7206 028b 05       		.byte	0x5
 7207 028c 00       		.uleb128 0
 7208 028d FE510000 		.4byte	.LASF108
 7209 0291 05       		.byte	0x5
 7210 0292 00       		.uleb128 0
 7211 0293 92550000 		.4byte	.LASF109
 7212 0297 05       		.byte	0x5
 7213 0298 00       		.uleb128 0
 7214 0299 7D520000 		.4byte	.LASF110
 7215 029d 05       		.byte	0x5
 7216 029e 00       		.uleb128 0
 7217 029f 8F150000 		.4byte	.LASF111
 7218 02a3 05       		.byte	0x5
 7219 02a4 00       		.uleb128 0
 7220 02a5 BC000000 		.4byte	.LASF112
 7221 02a9 05       		.byte	0x5
 7222 02aa 00       		.uleb128 0
 7223 02ab 27320000 		.4byte	.LASF113
 7224 02af 05       		.byte	0x5
 7225 02b0 00       		.uleb128 0
 7226 02b1 98200000 		.4byte	.LASF114
 7227 02b5 05       		.byte	0x5
 7228 02b6 00       		.uleb128 0
 7229 02b7 66750000 		.4byte	.LASF115
 7230 02bb 05       		.byte	0x5
 7231 02bc 00       		.uleb128 0
 7232 02bd 037B0000 		.4byte	.LASF116
 7233 02c1 05       		.byte	0x5
 7234 02c2 00       		.uleb128 0
 7235 02c3 0F130000 		.4byte	.LASF117
 7236 02c7 05       		.byte	0x5
 7237 02c8 00       		.uleb128 0
 7238 02c9 85490000 		.4byte	.LASF118
 7239 02cd 05       		.byte	0x5
 7240 02ce 00       		.uleb128 0
 7241 02cf 94480000 		.4byte	.LASF119
ARM GAS  /tmp/ccAFBUIw.s 			page 146


 7242 02d3 05       		.byte	0x5
 7243 02d4 00       		.uleb128 0
 7244 02d5 8C1E0000 		.4byte	.LASF120
 7245 02d9 05       		.byte	0x5
 7246 02da 00       		.uleb128 0
 7247 02db E5100000 		.4byte	.LASF121
 7248 02df 05       		.byte	0x5
 7249 02e0 00       		.uleb128 0
 7250 02e1 12490000 		.4byte	.LASF122
 7251 02e5 05       		.byte	0x5
 7252 02e6 00       		.uleb128 0
 7253 02e7 B2470000 		.4byte	.LASF123
 7254 02eb 05       		.byte	0x5
 7255 02ec 00       		.uleb128 0
 7256 02ed 403F0000 		.4byte	.LASF124
 7257 02f1 05       		.byte	0x5
 7258 02f2 00       		.uleb128 0
 7259 02f3 E93A0000 		.4byte	.LASF125
 7260 02f7 05       		.byte	0x5
 7261 02f8 00       		.uleb128 0
 7262 02f9 C4480000 		.4byte	.LASF126
 7263 02fd 05       		.byte	0x5
 7264 02fe 00       		.uleb128 0
 7265 02ff 9B470000 		.4byte	.LASF127
 7266 0303 05       		.byte	0x5
 7267 0304 00       		.uleb128 0
 7268 0305 5D190000 		.4byte	.LASF128
 7269 0309 05       		.byte	0x5
 7270 030a 00       		.uleb128 0
 7271 030b 14170000 		.4byte	.LASF129
 7272 030f 05       		.byte	0x5
 7273 0310 00       		.uleb128 0
 7274 0311 24600000 		.4byte	.LASF130
 7275 0315 05       		.byte	0x5
 7276 0316 00       		.uleb128 0
 7277 0317 B9190000 		.4byte	.LASF131
 7278 031b 05       		.byte	0x5
 7279 031c 00       		.uleb128 0
 7280 031d 163E0000 		.4byte	.LASF132
 7281 0321 05       		.byte	0x5
 7282 0322 00       		.uleb128 0
 7283 0323 9B240000 		.4byte	.LASF133
 7284 0327 05       		.byte	0x5
 7285 0328 00       		.uleb128 0
 7286 0329 E22A0000 		.4byte	.LASF134
 7287 032d 05       		.byte	0x5
 7288 032e 00       		.uleb128 0
 7289 032f 3D290000 		.4byte	.LASF135
 7290 0333 05       		.byte	0x5
 7291 0334 00       		.uleb128 0
 7292 0335 52060000 		.4byte	.LASF136
 7293 0339 05       		.byte	0x5
 7294 033a 00       		.uleb128 0
 7295 033b C5350000 		.4byte	.LASF137
 7296 033f 05       		.byte	0x5
 7297 0340 00       		.uleb128 0
 7298 0341 6D1B0000 		.4byte	.LASF138
ARM GAS  /tmp/ccAFBUIw.s 			page 147


 7299 0345 05       		.byte	0x5
 7300 0346 00       		.uleb128 0
 7301 0347 060E0000 		.4byte	.LASF139
 7302 034b 05       		.byte	0x5
 7303 034c 00       		.uleb128 0
 7304 034d 25040000 		.4byte	.LASF140
 7305 0351 05       		.byte	0x5
 7306 0352 00       		.uleb128 0
 7307 0353 D0530000 		.4byte	.LASF141
 7308 0357 05       		.byte	0x5
 7309 0358 00       		.uleb128 0
 7310 0359 087A0000 		.4byte	.LASF142
 7311 035d 05       		.byte	0x5
 7312 035e 00       		.uleb128 0
 7313 035f 83200000 		.4byte	.LASF143
 7314 0363 05       		.byte	0x5
 7315 0364 00       		.uleb128 0
 7316 0365 8D040000 		.4byte	.LASF144
 7317 0369 05       		.byte	0x5
 7318 036a 00       		.uleb128 0
 7319 036b A5690000 		.4byte	.LASF145
 7320 036f 05       		.byte	0x5
 7321 0370 00       		.uleb128 0
 7322 0371 87740000 		.4byte	.LASF146
 7323 0375 05       		.byte	0x5
 7324 0376 00       		.uleb128 0
 7325 0377 A0130000 		.4byte	.LASF147
 7326 037b 05       		.byte	0x5
 7327 037c 00       		.uleb128 0
 7328 037d 7E350000 		.4byte	.LASF148
 7329 0381 05       		.byte	0x5
 7330 0382 00       		.uleb128 0
 7331 0383 226E0000 		.4byte	.LASF149
 7332 0387 05       		.byte	0x5
 7333 0388 00       		.uleb128 0
 7334 0389 B1270000 		.4byte	.LASF150
 7335 038d 05       		.byte	0x5
 7336 038e 00       		.uleb128 0
 7337 038f 29680000 		.4byte	.LASF151
 7338 0393 05       		.byte	0x5
 7339 0394 00       		.uleb128 0
 7340 0395 F1610000 		.4byte	.LASF152
 7341 0399 05       		.byte	0x5
 7342 039a 00       		.uleb128 0
 7343 039b 50070000 		.4byte	.LASF153
 7344 039f 05       		.byte	0x5
 7345 03a0 00       		.uleb128 0
 7346 03a1 EE720000 		.4byte	.LASF154
 7347 03a5 05       		.byte	0x5
 7348 03a6 00       		.uleb128 0
 7349 03a7 37070000 		.4byte	.LASF155
 7350 03ab 05       		.byte	0x5
 7351 03ac 00       		.uleb128 0
 7352 03ad 30360000 		.4byte	.LASF156
 7353 03b1 05       		.byte	0x5
 7354 03b2 00       		.uleb128 0
 7355 03b3 29270000 		.4byte	.LASF157
ARM GAS  /tmp/ccAFBUIw.s 			page 148


 7356 03b7 05       		.byte	0x5
 7357 03b8 00       		.uleb128 0
 7358 03b9 A0460000 		.4byte	.LASF158
 7359 03bd 05       		.byte	0x5
 7360 03be 00       		.uleb128 0
 7361 03bf 59000000 		.4byte	.LASF159
 7362 03c3 05       		.byte	0x5
 7363 03c4 00       		.uleb128 0
 7364 03c5 1A3F0000 		.4byte	.LASF160
 7365 03c9 05       		.byte	0x5
 7366 03ca 00       		.uleb128 0
 7367 03cb 36660000 		.4byte	.LASF161
 7368 03cf 05       		.byte	0x5
 7369 03d0 00       		.uleb128 0
 7370 03d1 6E260000 		.4byte	.LASF162
 7371 03d5 05       		.byte	0x5
 7372 03d6 00       		.uleb128 0
 7373 03d7 883C0000 		.4byte	.LASF163
 7374 03db 05       		.byte	0x5
 7375 03dc 00       		.uleb128 0
 7376 03dd 20550000 		.4byte	.LASF164
 7377 03e1 05       		.byte	0x5
 7378 03e2 00       		.uleb128 0
 7379 03e3 35470000 		.4byte	.LASF165
 7380 03e7 05       		.byte	0x5
 7381 03e8 00       		.uleb128 0
 7382 03e9 38110000 		.4byte	.LASF166
 7383 03ed 05       		.byte	0x5
 7384 03ee 00       		.uleb128 0
 7385 03ef D64F0000 		.4byte	.LASF167
 7386 03f3 05       		.byte	0x5
 7387 03f4 00       		.uleb128 0
 7388 03f5 06260000 		.4byte	.LASF168
 7389 03f9 05       		.byte	0x5
 7390 03fa 00       		.uleb128 0
 7391 03fb DB370000 		.4byte	.LASF169
 7392 03ff 05       		.byte	0x5
 7393 0400 00       		.uleb128 0
 7394 0401 7B050000 		.4byte	.LASF170
 7395 0405 05       		.byte	0x5
 7396 0406 00       		.uleb128 0
 7397 0407 FD100000 		.4byte	.LASF171
 7398 040b 05       		.byte	0x5
 7399 040c 00       		.uleb128 0
 7400 040d C60E0000 		.4byte	.LASF172
 7401 0411 05       		.byte	0x5
 7402 0412 00       		.uleb128 0
 7403 0413 B8020000 		.4byte	.LASF173
 7404 0417 05       		.byte	0x5
 7405 0418 00       		.uleb128 0
 7406 0419 06540000 		.4byte	.LASF174
 7407 041d 05       		.byte	0x5
 7408 041e 00       		.uleb128 0
 7409 041f 474A0000 		.4byte	.LASF175
 7410 0423 05       		.byte	0x5
 7411 0424 00       		.uleb128 0
 7412 0425 FB050000 		.4byte	.LASF176
ARM GAS  /tmp/ccAFBUIw.s 			page 149


 7413 0429 05       		.byte	0x5
 7414 042a 00       		.uleb128 0
 7415 042b A3540000 		.4byte	.LASF177
 7416 042f 05       		.byte	0x5
 7417 0430 00       		.uleb128 0
 7418 0431 AF180000 		.4byte	.LASF178
 7419 0435 05       		.byte	0x5
 7420 0436 00       		.uleb128 0
 7421 0437 90730000 		.4byte	.LASF179
 7422 043b 05       		.byte	0x5
 7423 043c 00       		.uleb128 0
 7424 043d BF310000 		.4byte	.LASF180
 7425 0441 05       		.byte	0x5
 7426 0442 00       		.uleb128 0
 7427 0443 714C0000 		.4byte	.LASF181
 7428 0447 05       		.byte	0x5
 7429 0448 00       		.uleb128 0
 7430 0449 41140000 		.4byte	.LASF182
 7431 044d 05       		.byte	0x5
 7432 044e 00       		.uleb128 0
 7433 044f 741E0000 		.4byte	.LASF183
 7434 0453 05       		.byte	0x5
 7435 0454 00       		.uleb128 0
 7436 0455 70650000 		.4byte	.LASF184
 7437 0459 05       		.byte	0x5
 7438 045a 00       		.uleb128 0
 7439 045b FC010000 		.4byte	.LASF185
 7440 045f 05       		.byte	0x5
 7441 0460 00       		.uleb128 0
 7442 0461 243A0000 		.4byte	.LASF186
 7443 0465 05       		.byte	0x5
 7444 0466 00       		.uleb128 0
 7445 0467 66640000 		.4byte	.LASF187
 7446 046b 05       		.byte	0x5
 7447 046c 00       		.uleb128 0
 7448 046d 7E010000 		.4byte	.LASF188
 7449 0471 05       		.byte	0x5
 7450 0472 00       		.uleb128 0
 7451 0473 0A770000 		.4byte	.LASF189
 7452 0477 05       		.byte	0x5
 7453 0478 00       		.uleb128 0
 7454 0479 C5360000 		.4byte	.LASF190
 7455 047d 05       		.byte	0x5
 7456 047e 00       		.uleb128 0
 7457 047f 83780000 		.4byte	.LASF191
 7458 0483 05       		.byte	0x5
 7459 0484 00       		.uleb128 0
 7460 0485 520D0000 		.4byte	.LASF192
 7461 0489 05       		.byte	0x5
 7462 048a 00       		.uleb128 0
 7463 048b 77320000 		.4byte	.LASF193
 7464 048f 05       		.byte	0x5
 7465 0490 00       		.uleb128 0
 7466 0491 1E260000 		.4byte	.LASF194
 7467 0495 05       		.byte	0x5
 7468 0496 00       		.uleb128 0
 7469 0497 B5260000 		.4byte	.LASF195
ARM GAS  /tmp/ccAFBUIw.s 			page 150


 7470 049b 05       		.byte	0x5
 7471 049c 00       		.uleb128 0
 7472 049d 2C0B0000 		.4byte	.LASF196
 7473 04a1 05       		.byte	0x5
 7474 04a2 00       		.uleb128 0
 7475 04a3 F0310000 		.4byte	.LASF197
 7476 04a7 05       		.byte	0x5
 7477 04a8 00       		.uleb128 0
 7478 04a9 511B0000 		.4byte	.LASF198
 7479 04ad 05       		.byte	0x5
 7480 04ae 00       		.uleb128 0
 7481 04af D9560000 		.4byte	.LASF199
 7482 04b3 05       		.byte	0x5
 7483 04b4 00       		.uleb128 0
 7484 04b5 D8040000 		.4byte	.LASF200
 7485 04b9 05       		.byte	0x5
 7486 04ba 00       		.uleb128 0
 7487 04bb 74470000 		.4byte	.LASF201
 7488 04bf 05       		.byte	0x5
 7489 04c0 00       		.uleb128 0
 7490 04c1 CF380000 		.4byte	.LASF202
 7491 04c5 05       		.byte	0x5
 7492 04c6 00       		.uleb128 0
 7493 04c7 20670000 		.4byte	.LASF203
 7494 04cb 05       		.byte	0x5
 7495 04cc 00       		.uleb128 0
 7496 04cd E4520000 		.4byte	.LASF204
 7497 04d1 05       		.byte	0x5
 7498 04d2 00       		.uleb128 0
 7499 04d3 8B7B0000 		.4byte	.LASF205
 7500 04d7 05       		.byte	0x5
 7501 04d8 00       		.uleb128 0
 7502 04d9 FB430000 		.4byte	.LASF206
 7503 04dd 05       		.byte	0x5
 7504 04de 00       		.uleb128 0
 7505 04df 703E0000 		.4byte	.LASF207
 7506 04e3 05       		.byte	0x5
 7507 04e4 00       		.uleb128 0
 7508 04e5 F0420000 		.4byte	.LASF208
 7509 04e9 05       		.byte	0x5
 7510 04ea 00       		.uleb128 0
 7511 04eb 39530000 		.4byte	.LASF209
 7512 04ef 05       		.byte	0x5
 7513 04f0 00       		.uleb128 0
 7514 04f1 6C030000 		.4byte	.LASF210
 7515 04f5 05       		.byte	0x5
 7516 04f6 00       		.uleb128 0
 7517 04f7 AE4A0000 		.4byte	.LASF211
 7518 04fb 05       		.byte	0x5
 7519 04fc 00       		.uleb128 0
 7520 04fd CB4D0000 		.4byte	.LASF212
 7521 0501 05       		.byte	0x5
 7522 0502 00       		.uleb128 0
 7523 0503 650C0000 		.4byte	.LASF213
 7524 0507 05       		.byte	0x5
 7525 0508 00       		.uleb128 0
 7526 0509 4C7B0000 		.4byte	.LASF214
ARM GAS  /tmp/ccAFBUIw.s 			page 151


 7527 050d 05       		.byte	0x5
 7528 050e 00       		.uleb128 0
 7529 050f 255C0000 		.4byte	.LASF215
 7530 0513 05       		.byte	0x5
 7531 0514 00       		.uleb128 0
 7532 0515 83690000 		.4byte	.LASF216
 7533 0519 05       		.byte	0x5
 7534 051a 00       		.uleb128 0
 7535 051b B5640000 		.4byte	.LASF217
 7536 051f 05       		.byte	0x5
 7537 0520 00       		.uleb128 0
 7538 0521 C9740000 		.4byte	.LASF218
 7539 0525 05       		.byte	0x5
 7540 0526 00       		.uleb128 0
 7541 0527 5C700000 		.4byte	.LASF219
 7542 052b 05       		.byte	0x5
 7543 052c 00       		.uleb128 0
 7544 052d 736D0000 		.4byte	.LASF220
 7545 0531 05       		.byte	0x5
 7546 0532 00       		.uleb128 0
 7547 0533 56620000 		.4byte	.LASF221
 7548 0537 05       		.byte	0x5
 7549 0538 00       		.uleb128 0
 7550 0539 8F5E0000 		.4byte	.LASF222
 7551 053d 05       		.byte	0x5
 7552 053e 00       		.uleb128 0
 7553 053f A4090000 		.4byte	.LASF223
 7554 0543 05       		.byte	0x5
 7555 0544 00       		.uleb128 0
 7556 0545 D43C0000 		.4byte	.LASF224
 7557 0549 05       		.byte	0x5
 7558 054a 00       		.uleb128 0
 7559 054b E46F0000 		.4byte	.LASF225
 7560 054f 05       		.byte	0x5
 7561 0550 00       		.uleb128 0
 7562 0551 C3150000 		.4byte	.LASF226
 7563 0555 05       		.byte	0x5
 7564 0556 00       		.uleb128 0
 7565 0557 BB6C0000 		.4byte	.LASF227
 7566 055b 05       		.byte	0x5
 7567 055c 00       		.uleb128 0
 7568 055d 0C7C0000 		.4byte	.LASF228
 7569 0561 05       		.byte	0x5
 7570 0562 00       		.uleb128 0
 7571 0563 AB580000 		.4byte	.LASF229
 7572 0567 05       		.byte	0x5
 7573 0568 00       		.uleb128 0
 7574 0569 65590000 		.4byte	.LASF230
 7575 056d 05       		.byte	0x5
 7576 056e 00       		.uleb128 0
 7577 056f 83630000 		.4byte	.LASF231
 7578 0573 05       		.byte	0x5
 7579 0574 00       		.uleb128 0
 7580 0575 1F710000 		.4byte	.LASF232
 7581 0579 05       		.byte	0x5
 7582 057a 00       		.uleb128 0
 7583 057b DC2C0000 		.4byte	.LASF233
ARM GAS  /tmp/ccAFBUIw.s 			page 152


 7584 057f 05       		.byte	0x5
 7585 0580 00       		.uleb128 0
 7586 0581 4B480000 		.4byte	.LASF234
 7587 0585 05       		.byte	0x5
 7588 0586 00       		.uleb128 0
 7589 0587 69500000 		.4byte	.LASF235
 7590 058b 05       		.byte	0x5
 7591 058c 00       		.uleb128 0
 7592 058d 5E050000 		.4byte	.LASF236
 7593 0591 05       		.byte	0x5
 7594 0592 00       		.uleb128 0
 7595 0593 D3610000 		.4byte	.LASF237
 7596 0597 05       		.byte	0x5
 7597 0598 00       		.uleb128 0
 7598 0599 65120000 		.4byte	.LASF238
 7599 059d 05       		.byte	0x5
 7600 059e 00       		.uleb128 0
 7601 059f 5C660000 		.4byte	.LASF239
 7602 05a3 05       		.byte	0x5
 7603 05a4 00       		.uleb128 0
 7604 05a5 CB030000 		.4byte	.LASF240
 7605 05a9 05       		.byte	0x5
 7606 05aa 00       		.uleb128 0
 7607 05ab A9550000 		.4byte	.LASF241
 7608 05af 05       		.byte	0x5
 7609 05b0 00       		.uleb128 0
 7610 05b1 70720000 		.4byte	.LASF242
 7611 05b5 05       		.byte	0x5
 7612 05b6 00       		.uleb128 0
 7613 05b7 4B3E0000 		.4byte	.LASF243
 7614 05bb 05       		.byte	0x5
 7615 05bc 00       		.uleb128 0
 7616 05bd F3120000 		.4byte	.LASF244
 7617 05c1 05       		.byte	0x5
 7618 05c2 00       		.uleb128 0
 7619 05c3 CE2F0000 		.4byte	.LASF245
 7620 05c7 05       		.byte	0x5
 7621 05c8 00       		.uleb128 0
 7622 05c9 98020000 		.4byte	.LASF246
 7623 05cd 05       		.byte	0x5
 7624 05ce 00       		.uleb128 0
 7625 05cf FC2B0000 		.4byte	.LASF247
 7626 05d3 05       		.byte	0x5
 7627 05d4 00       		.uleb128 0
 7628 05d5 BF2D0000 		.4byte	.LASF248
 7629 05d9 05       		.byte	0x5
 7630 05da 00       		.uleb128 0
 7631 05db 9E650000 		.4byte	.LASF249
 7632 05df 05       		.byte	0x5
 7633 05e0 00       		.uleb128 0
 7634 05e1 B86D0000 		.4byte	.LASF250
 7635 05e5 05       		.byte	0x5
 7636 05e6 00       		.uleb128 0
 7637 05e7 4E080000 		.4byte	.LASF251
 7638 05eb 05       		.byte	0x5
 7639 05ec 00       		.uleb128 0
 7640 05ed 75220000 		.4byte	.LASF252
ARM GAS  /tmp/ccAFBUIw.s 			page 153


 7641 05f1 05       		.byte	0x5
 7642 05f2 00       		.uleb128 0
 7643 05f3 316A0000 		.4byte	.LASF253
 7644 05f7 05       		.byte	0x5
 7645 05f8 00       		.uleb128 0
 7646 05f9 03580000 		.4byte	.LASF254
 7647 05fd 05       		.byte	0x5
 7648 05fe 00       		.uleb128 0
 7649 05ff F83E0000 		.4byte	.LASF255
 7650 0603 05       		.byte	0x5
 7651 0604 00       		.uleb128 0
 7652 0605 DE5B0000 		.4byte	.LASF256
 7653 0609 05       		.byte	0x5
 7654 060a 00       		.uleb128 0
 7655 060b 8B720000 		.4byte	.LASF257
 7656 060f 05       		.byte	0x5
 7657 0610 00       		.uleb128 0
 7658 0611 E85F0000 		.4byte	.LASF258
 7659 0615 05       		.byte	0x5
 7660 0616 00       		.uleb128 0
 7661 0617 AE380000 		.4byte	.LASF259
 7662 061b 05       		.byte	0x5
 7663 061c 00       		.uleb128 0
 7664 061d 66540000 		.4byte	.LASF260
 7665 0621 05       		.byte	0x5
 7666 0622 00       		.uleb128 0
 7667 0623 8A320000 		.4byte	.LASF261
 7668 0627 05       		.byte	0x5
 7669 0628 00       		.uleb128 0
 7670 0629 EF5A0000 		.4byte	.LASF262
 7671 062d 05       		.byte	0x5
 7672 062e 00       		.uleb128 0
 7673 062f E5210000 		.4byte	.LASF263
 7674 0633 05       		.byte	0x5
 7675 0634 00       		.uleb128 0
 7676 0635 496C0000 		.4byte	.LASF264
 7677 0639 05       		.byte	0x5
 7678 063a 00       		.uleb128 0
 7679 063b 1E7C0000 		.4byte	.LASF265
 7680 063f 05       		.byte	0x5
 7681 0640 00       		.uleb128 0
 7682 0641 F3040000 		.4byte	.LASF266
 7683 0645 05       		.byte	0x5
 7684 0646 00       		.uleb128 0
 7685 0647 47740000 		.4byte	.LASF267
 7686 064b 05       		.byte	0x5
 7687 064c 00       		.uleb128 0
 7688 064d 5A6B0000 		.4byte	.LASF268
 7689 0651 05       		.byte	0x5
 7690 0652 00       		.uleb128 0
 7691 0653 615F0000 		.4byte	.LASF269
 7692 0657 05       		.byte	0x5
 7693 0658 00       		.uleb128 0
 7694 0659 94750000 		.4byte	.LASF270
 7695 065d 05       		.byte	0x5
 7696 065e 00       		.uleb128 0
 7697 065f BC2C0000 		.4byte	.LASF271
ARM GAS  /tmp/ccAFBUIw.s 			page 154


 7698 0663 05       		.byte	0x5
 7699 0664 00       		.uleb128 0
 7700 0665 D80D0000 		.4byte	.LASF272
 7701 0669 05       		.byte	0x5
 7702 066a 00       		.uleb128 0
 7703 066b BF050000 		.4byte	.LASF273
 7704 066f 05       		.byte	0x5
 7705 0670 00       		.uleb128 0
 7706 0671 BD580000 		.4byte	.LASF274
 7707 0675 05       		.byte	0x5
 7708 0676 00       		.uleb128 0
 7709 0677 505C0000 		.4byte	.LASF275
 7710 067b 05       		.byte	0x5
 7711 067c 00       		.uleb128 0
 7712 067d CE200000 		.4byte	.LASF276
 7713 0681 05       		.byte	0x5
 7714 0682 00       		.uleb128 0
 7715 0683 DF020000 		.4byte	.LASF277
 7716 0687 05       		.byte	0x5
 7717 0688 00       		.uleb128 0
 7718 0689 DA490000 		.4byte	.LASF278
 7719 068d 05       		.byte	0x5
 7720 068e 00       		.uleb128 0
 7721 068f CB3E0000 		.4byte	.LASF279
 7722 0693 05       		.byte	0x5
 7723 0694 00       		.uleb128 0
 7724 0695 310E0000 		.4byte	.LASF280
 7725 0699 05       		.byte	0x5
 7726 069a 00       		.uleb128 0
 7727 069b 97600000 		.4byte	.LASF281
 7728 069f 05       		.byte	0x5
 7729 06a0 00       		.uleb128 0
 7730 06a1 860D0000 		.4byte	.LASF282
 7731 06a5 05       		.byte	0x5
 7732 06a6 00       		.uleb128 0
 7733 06a7 60600000 		.4byte	.LASF283
 7734 06ab 05       		.byte	0x5
 7735 06ac 00       		.uleb128 0
 7736 06ad 34460000 		.4byte	.LASF284
 7737 06b1 05       		.byte	0x5
 7738 06b2 00       		.uleb128 0
 7739 06b3 3C700000 		.4byte	.LASF285
 7740 06b7 05       		.byte	0x5
 7741 06b8 00       		.uleb128 0
 7742 06b9 7E5A0000 		.4byte	.LASF286
 7743 06bd 05       		.byte	0x5
 7744 06be 00       		.uleb128 0
 7745 06bf 715E0000 		.4byte	.LASF287
 7746 06c3 05       		.byte	0x5
 7747 06c4 00       		.uleb128 0
 7748 06c5 BF240000 		.4byte	.LASF288
 7749 06c9 05       		.byte	0x5
 7750 06ca 00       		.uleb128 0
 7751 06cb 01410000 		.4byte	.LASF289
 7752 06cf 05       		.byte	0x5
 7753 06d0 00       		.uleb128 0
 7754 06d1 805E0000 		.4byte	.LASF290
ARM GAS  /tmp/ccAFBUIw.s 			page 155


 7755 06d5 05       		.byte	0x5
 7756 06d6 00       		.uleb128 0
 7757 06d7 F5360000 		.4byte	.LASF291
 7758 06db 05       		.byte	0x5
 7759 06dc 00       		.uleb128 0
 7760 06dd C0280000 		.4byte	.LASF292
 7761 06e1 05       		.byte	0x5
 7762 06e2 00       		.uleb128 0
 7763 06e3 42790000 		.4byte	.LASF293
 7764 06e7 05       		.byte	0x5
 7765 06e8 00       		.uleb128 0
 7766 06e9 662E0000 		.4byte	.LASF294
 7767 06ed 05       		.byte	0x5
 7768 06ee 00       		.uleb128 0
 7769 06ef B0500000 		.4byte	.LASF295
 7770 06f3 05       		.byte	0x5
 7771 06f4 00       		.uleb128 0
 7772 06f5 8B000000 		.4byte	.LASF296
 7773 06f9 05       		.byte	0x5
 7774 06fa 00       		.uleb128 0
 7775 06fb 43720000 		.4byte	.LASF297
 7776 06ff 05       		.byte	0x5
 7777 0700 00       		.uleb128 0
 7778 0701 D54C0000 		.4byte	.LASF298
 7779 0705 05       		.byte	0x5
 7780 0706 00       		.uleb128 0
 7781 0707 7D230000 		.4byte	.LASF299
 7782 070b 05       		.byte	0x5
 7783 070c 00       		.uleb128 0
 7784 070d 9F140000 		.4byte	.LASF300
 7785 0711 05       		.byte	0x5
 7786 0712 00       		.uleb128 0
 7787 0713 7D670000 		.4byte	.LASF301
 7788 0717 05       		.byte	0x5
 7789 0718 00       		.uleb128 0
 7790 0719 F60D0000 		.4byte	.LASF302
 7791 071d 05       		.byte	0x5
 7792 071e 00       		.uleb128 0
 7793 071f 396C0000 		.4byte	.LASF303
 7794 0723 05       		.byte	0x5
 7795 0724 00       		.uleb128 0
 7796 0725 51640000 		.4byte	.LASF304
 7797 0729 05       		.byte	0x5
 7798 072a 00       		.uleb128 0
 7799 072b F2320000 		.4byte	.LASF305
 7800 072f 05       		.byte	0x5
 7801 0730 00       		.uleb128 0
 7802 0731 FB750000 		.4byte	.LASF306
 7803 0735 05       		.byte	0x5
 7804 0736 00       		.uleb128 0
 7805 0737 12610000 		.4byte	.LASF307
 7806 073b 05       		.byte	0x5
 7807 073c 00       		.uleb128 0
 7808 073d 3A150000 		.4byte	.LASF308
 7809 0741 05       		.byte	0x5
 7810 0742 00       		.uleb128 0
 7811 0743 914D0000 		.4byte	.LASF309
ARM GAS  /tmp/ccAFBUIw.s 			page 156


 7812 0747 05       		.byte	0x5
 7813 0748 00       		.uleb128 0
 7814 0749 943A0000 		.4byte	.LASF310
 7815 074d 05       		.byte	0x5
 7816 074e 00       		.uleb128 0
 7817 074f 9C1B0000 		.4byte	.LASF311
 7818 0753 05       		.byte	0x5
 7819 0754 00       		.uleb128 0
 7820 0755 05010000 		.4byte	.LASF312
 7821 0759 05       		.byte	0x5
 7822 075a 00       		.uleb128 0
 7823 075b 522C0000 		.4byte	.LASF313
 7824 075f 05       		.byte	0x5
 7825 0760 00       		.uleb128 0
 7826 0761 D5600000 		.4byte	.LASF314
 7827 0765 05       		.byte	0x5
 7828 0766 00       		.uleb128 0
 7829 0767 DA3E0000 		.4byte	.LASF315
 7830 076b 05       		.byte	0x5
 7831 076c 00       		.uleb128 0
 7832 076d 43250000 		.4byte	.LASF316
 7833 0771 05       		.byte	0x5
 7834 0772 00       		.uleb128 0
 7835 0773 EF2C0000 		.4byte	.LASF317
 7836 0777 05       		.byte	0x5
 7837 0778 00       		.uleb128 0
 7838 0779 AF530000 		.4byte	.LASF318
 7839 077d 05       		.byte	0x5
 7840 077e 00       		.uleb128 0
 7841 077f 9F360000 		.4byte	.LASF319
 7842 0783 05       		.byte	0x5
 7843 0784 00       		.uleb128 0
 7844 0785 1A230000 		.4byte	.LASF320
 7845 0789 05       		.byte	0x5
 7846 078a 00       		.uleb128 0
 7847 078b 12430000 		.4byte	.LASF321
 7848 078f 05       		.byte	0x5
 7849 0790 00       		.uleb128 0
 7850 0791 056D0000 		.4byte	.LASF322
 7851 0795 05       		.byte	0x5
 7852 0796 00       		.uleb128 0
 7853 0797 66670000 		.4byte	.LASF323
 7854 079b 05       		.byte	0x5
 7855 079c 00       		.uleb128 0
 7856 079d 354E0000 		.4byte	.LASF324
 7857 07a1 05       		.byte	0x5
 7858 07a2 00       		.uleb128 0
 7859 07a3 A0340000 		.4byte	.LASF325
 7860 07a7 05       		.byte	0x5
 7861 07a8 00       		.uleb128 0
 7862 07a9 81060000 		.4byte	.LASF326
 7863 07ad 05       		.byte	0x5
 7864 07ae 00       		.uleb128 0
 7865 07af 6B4E0000 		.4byte	.LASF327
 7866 07b3 05       		.byte	0x5
 7867 07b4 00       		.uleb128 0
 7868 07b5 9E5B0000 		.4byte	.LASF328
ARM GAS  /tmp/ccAFBUIw.s 			page 157


 7869 07b9 05       		.byte	0x5
 7870 07ba 00       		.uleb128 0
 7871 07bb 68580000 		.4byte	.LASF329
 7872 07bf 05       		.byte	0x5
 7873 07c0 00       		.uleb128 0
 7874 07c1 1D750000 		.4byte	.LASF330
 7875 07c5 05       		.byte	0x5
 7876 07c6 00       		.uleb128 0
 7877 07c7 E7510000 		.4byte	.LASF331
 7878 07cb 05       		.byte	0x5
 7879 07cc 00       		.uleb128 0
 7880 07cd D16A0000 		.4byte	.LASF332
 7881 07d1 05       		.byte	0x5
 7882 07d2 00       		.uleb128 0
 7883 07d3 365F0000 		.4byte	.LASF333
 7884 07d7 05       		.byte	0x5
 7885 07d8 00       		.uleb128 0
 7886 07d9 AF370000 		.4byte	.LASF334
 7887 07dd 05       		.byte	0x5
 7888 07de 00       		.uleb128 0
 7889 07df DB0F0000 		.4byte	.LASF335
 7890 07e3 05       		.byte	0x5
 7891 07e4 00       		.uleb128 0
 7892 07e5 2F5E0000 		.4byte	.LASF336
 7893 07e9 05       		.byte	0x5
 7894 07ea 00       		.uleb128 0
 7895 07eb 91050000 		.4byte	.LASF337
 7896 07ef 05       		.byte	0x5
 7897 07f0 00       		.uleb128 0
 7898 07f1 AD150000 		.4byte	.LASF338
 7899 07f5 05       		.byte	0x5
 7900 07f6 00       		.uleb128 0
 7901 07f7 EE640000 		.4byte	.LASF339
 7902 07fb 05       		.byte	0x5
 7903 07fc 00       		.uleb128 0
 7904 07fd 192F0000 		.4byte	.LASF340
 7905 0801 05       		.byte	0x5
 7906 0802 00       		.uleb128 0
 7907 0803 FA6D0000 		.4byte	.LASF341
 7908 0807 05       		.byte	0x5
 7909 0808 00       		.uleb128 0
 7910 0809 87390000 		.4byte	.LASF342
 7911 080d 05       		.byte	0x5
 7912 080e 00       		.uleb128 0
 7913 080f 0D5F0000 		.4byte	.LASF343
 7914 0813 05       		.byte	0x5
 7915 0814 00       		.uleb128 0
 7916 0815 7C210000 		.4byte	.LASF344
 7917 0819 05       		.byte	0x5
 7918 081a 00       		.uleb128 0
 7919 081b 1B6F0000 		.4byte	.LASF345
 7920 081f 00       		.byte	0
 7921              		.section	.debug_macro,"G",%progbits,wm4.features.h.22.2e382148a0560adabf236cddd4e880f4,comdat
 7922              	.Ldebug_macro2:
 7923 0000 0400     		.2byte	0x4
 7924 0002 00       		.byte	0
 7925 0003 05       		.byte	0x5
ARM GAS  /tmp/ccAFBUIw.s 			page 158


 7926 0004 16       		.uleb128 0x16
 7927 0005 F4000000 		.4byte	.LASF350
 7928 0009 05       		.byte	0x5
 7929 000a 1F       		.uleb128 0x1f
 7930 000b D5180000 		.4byte	.LASF351
 7931 000f 05       		.byte	0x5
 7932 0010 20       		.uleb128 0x20
 7933 0011 4E170000 		.4byte	.LASF352
 7934 0015 05       		.byte	0x5
 7935 0016 25       		.uleb128 0x25
 7936 0017 77120000 		.4byte	.LASF353
 7937 001b 05       		.byte	0x5
 7938 001c 2C       		.uleb128 0x2c
 7939 001d E36B0000 		.4byte	.LASF354
 7940 0021 00       		.byte	0
 7941              		.section	.debug_macro,"G",%progbits,wm4._default_types.h.15.933e8edd27a65e0b69af4a865eb623d2,comda
 7942              	.Ldebug_macro3:
 7943 0000 0400     		.2byte	0x4
 7944 0002 00       		.byte	0
 7945 0003 05       		.byte	0x5
 7946 0004 0F       		.uleb128 0xf
 7947 0005 16450000 		.4byte	.LASF355
 7948 0009 05       		.byte	0x5
 7949 000a 21       		.uleb128 0x21
 7950 000b 3A170000 		.4byte	.LASF356
 7951 000f 05       		.byte	0x5
 7952 0010 2F       		.uleb128 0x2f
 7953 0011 14270000 		.4byte	.LASF357
 7954 0015 05       		.byte	0x5
 7955 0016 45       		.uleb128 0x45
 7956 0017 5F1D0000 		.4byte	.LASF358
 7957 001b 05       		.byte	0x5
 7958 001c 5F       		.uleb128 0x5f
 7959 001d 0B550000 		.4byte	.LASF359
 7960 0021 05       		.byte	0x5
 7961 0022 7E       		.uleb128 0x7e
 7962 0023 194B0000 		.4byte	.LASF360
 7963 0027 05       		.byte	0x5
 7964 0028 9801     		.uleb128 0x98
 7965 002a 0C140000 		.4byte	.LASF361
 7966 002e 05       		.byte	0x5
 7967 002f AE01     		.uleb128 0xae
 7968 0031 B8610000 		.4byte	.LASF362
 7969 0035 05       		.byte	0x5
 7970 0036 C001     		.uleb128 0xc0
 7971 0038 17440000 		.4byte	.LASF363
 7972 003c 06       		.byte	0x6
 7973 003d D601     		.uleb128 0xd6
 7974 003f EA540000 		.4byte	.LASF364
 7975 0043 00       		.byte	0
 7976              		.section	.debug_macro,"G",%progbits,wm4._intsup.h.10.35a45952db64d30146faa63a55c20c1c,comdat
 7977              	.Ldebug_macro4:
 7978 0000 0400     		.2byte	0x4
 7979 0002 00       		.byte	0
 7980 0003 05       		.byte	0x5
 7981 0004 0A       		.uleb128 0xa
 7982 0005 05710000 		.4byte	.LASF365
ARM GAS  /tmp/ccAFBUIw.s 			page 159


 7983 0009 05       		.byte	0x5
 7984 000a 10       		.uleb128 0x10
 7985 000b FA440000 		.4byte	.LASF366
 7986 000f 05       		.byte	0x5
 7987 0010 1A       		.uleb128 0x1a
 7988 0011 3E5B0000 		.4byte	.LASF367
 7989 0015 05       		.byte	0x5
 7990 0016 21       		.uleb128 0x21
 7991 0017 D6690000 		.4byte	.LASF368
 7992 001b 06       		.byte	0x6
 7993 001c 37       		.uleb128 0x37
 7994 001d 057C0000 		.4byte	.LASF369
 7995 0021 06       		.byte	0x6
 7996 0022 38       		.uleb128 0x38
 7997 0023 CC070000 		.4byte	.LASF370
 7998 0027 06       		.byte	0x6
 7999 0028 39       		.uleb128 0x39
 8000 0029 78230000 		.4byte	.LASF371
 8001 002d 06       		.byte	0x6
 8002 002e 3A       		.uleb128 0x3a
 8003 002f C8520000 		.4byte	.LASF372
 8004 0033 02       		.byte	0x2
 8005 0034 3B       		.uleb128 0x3b
 8006 0035 696E7400 		.ascii	"int\000"
 8007 0039 06       		.byte	0x6
 8008 003a 3C       		.uleb128 0x3c
 8009 003b 9A520000 		.4byte	.LASF373
 8010 003f 05       		.byte	0x5
 8011 0040 3D       		.uleb128 0x3d
 8012 0041 980A0000 		.4byte	.LASF374
 8013 0045 05       		.byte	0x5
 8014 0046 3E       		.uleb128 0x3e
 8015 0047 DD3A0000 		.4byte	.LASF375
 8016 004b 05       		.byte	0x5
 8017 004c 3F       		.uleb128 0x3f
 8018 004d A64A0000 		.4byte	.LASF376
 8019 0051 05       		.byte	0x5
 8020 0052 40       		.uleb128 0x40
 8021 0053 6C790000 		.4byte	.LASF377
 8022 0057 05       		.byte	0x5
 8023 0058 41       		.uleb128 0x41
 8024 0059 4E380000 		.4byte	.LASF378
 8025 005d 05       		.byte	0x5
 8026 005e 42       		.uleb128 0x42
 8027 005f 7C770000 		.4byte	.LASF379
 8028 0063 05       		.byte	0x5
 8029 0064 4D       		.uleb128 0x4d
 8030 0065 EB750000 		.4byte	.LASF380
 8031 0069 05       		.byte	0x5
 8032 006a 55       		.uleb128 0x55
 8033 006b 3E090000 		.4byte	.LASF381
 8034 006f 05       		.byte	0x5
 8035 0070 60       		.uleb128 0x60
 8036 0071 79490000 		.4byte	.LASF382
 8037 0075 05       		.byte	0x5
 8038 0076 6B       		.uleb128 0x6b
 8039 0077 7B6E0000 		.4byte	.LASF383
ARM GAS  /tmp/ccAFBUIw.s 			page 160


 8040 007b 05       		.byte	0x5
 8041 007c 74       		.uleb128 0x74
 8042 007d F60F0000 		.4byte	.LASF384
 8043 0081 05       		.byte	0x5
 8044 0082 7B       		.uleb128 0x7b
 8045 0083 316B0000 		.4byte	.LASF385
 8046 0087 05       		.byte	0x5
 8047 0088 8401     		.uleb128 0x84
 8048 008a 73180000 		.4byte	.LASF386
 8049 008e 05       		.byte	0x5
 8050 008f 8B01     		.uleb128 0x8b
 8051 0091 203C0000 		.4byte	.LASF387
 8052 0095 05       		.byte	0x5
 8053 0096 9601     		.uleb128 0x96
 8054 0098 BC3A0000 		.4byte	.LASF388
 8055 009c 05       		.byte	0x5
 8056 009d 9A01     		.uleb128 0x9a
 8057 009f 68290000 		.4byte	.LASF389
 8058 00a3 05       		.byte	0x5
 8059 00a4 A501     		.uleb128 0xa5
 8060 00a6 8D670000 		.4byte	.LASF390
 8061 00aa 05       		.byte	0x5
 8062 00ab B001     		.uleb128 0xb0
 8063 00ad E80F0000 		.4byte	.LASF391
 8064 00b1 05       		.byte	0x5
 8065 00b2 B901     		.uleb128 0xb9
 8066 00b4 D0500000 		.4byte	.LASF392
 8067 00b8 06       		.byte	0x6
 8068 00b9 BB01     		.uleb128 0xbb
 8069 00bb 057C0000 		.4byte	.LASF369
 8070 00bf 06       		.byte	0x6
 8071 00c0 BC01     		.uleb128 0xbc
 8072 00c2 CC070000 		.4byte	.LASF370
 8073 00c6 06       		.byte	0x6
 8074 00c7 BD01     		.uleb128 0xbd
 8075 00c9 78230000 		.4byte	.LASF371
 8076 00cd 06       		.byte	0x6
 8077 00ce BE01     		.uleb128 0xbe
 8078 00d0 C8520000 		.4byte	.LASF372
 8079 00d4 02       		.byte	0x2
 8080 00d5 BF01     		.uleb128 0xbf
 8081 00d7 696E7400 		.ascii	"int\000"
 8082 00db 06       		.byte	0x6
 8083 00dc C001     		.uleb128 0xc0
 8084 00de 9A520000 		.4byte	.LASF373
 8085 00e2 00       		.byte	0
 8086              		.section	.debug_macro,"G",%progbits,wm4._stdint.h.10.f76354baea1c7088202064e6f3d4f5e3,comdat
 8087              	.Ldebug_macro5:
 8088 0000 0400     		.2byte	0x4
 8089 0002 00       		.byte	0
 8090 0003 05       		.byte	0x5
 8091 0004 0A       		.uleb128 0xa
 8092 0005 D0390000 		.4byte	.LASF393
 8093 0009 05       		.byte	0x5
 8094 000a 15       		.uleb128 0x15
 8095 000b 82270000 		.4byte	.LASF394
 8096 000f 05       		.byte	0x5
ARM GAS  /tmp/ccAFBUIw.s 			page 161


 8097 0010 1B       		.uleb128 0x1b
 8098 0011 C03C0000 		.4byte	.LASF395
 8099 0015 05       		.byte	0x5
 8100 0016 21       		.uleb128 0x21
 8101 0017 68130000 		.4byte	.LASF396
 8102 001b 05       		.byte	0x5
 8103 001c 27       		.uleb128 0x27
 8104 001d A36A0000 		.4byte	.LASF397
 8105 0021 00       		.byte	0
 8106              		.section	.debug_macro,"G",%progbits,wm4.stdint.h.23.373a9d32a9e4c2e88fd347156532d281,comdat
 8107              	.Ldebug_macro6:
 8108 0000 0400     		.2byte	0x4
 8109 0002 00       		.byte	0
 8110 0003 05       		.byte	0x5
 8111 0004 17       		.uleb128 0x17
 8112 0005 3E730000 		.4byte	.LASF398
 8113 0009 05       		.byte	0x5
 8114 000a 1D       		.uleb128 0x1d
 8115 000b E22B0000 		.4byte	.LASF399
 8116 000f 05       		.byte	0x5
 8117 0010 23       		.uleb128 0x23
 8118 0011 D8320000 		.4byte	.LASF400
 8119 0015 05       		.byte	0x5
 8120 0016 29       		.uleb128 0x29
 8121 0017 DD3D0000 		.4byte	.LASF401
 8122 001b 05       		.byte	0x5
 8123 001c 35       		.uleb128 0x35
 8124 001d BA4B0000 		.4byte	.LASF402
 8125 0021 05       		.byte	0x5
 8126 0022 3F       		.uleb128 0x3f
 8127 0023 6E460000 		.4byte	.LASF403
 8128 0027 05       		.byte	0x5
 8129 0028 49       		.uleb128 0x49
 8130 0029 C40C0000 		.4byte	.LASF404
 8131 002d 05       		.byte	0x5
 8132 002e 53       		.uleb128 0x53
 8133 002f 43210000 		.4byte	.LASF405
 8134 0033 05       		.byte	0x5
 8135 0034 9301     		.uleb128 0x93
 8136 0036 BB2E0000 		.4byte	.LASF406
 8137 003a 05       		.byte	0x5
 8138 003b 9401     		.uleb128 0x94
 8139 003d 9B670000 		.4byte	.LASF407
 8140 0041 05       		.byte	0x5
 8141 0042 9501     		.uleb128 0x95
 8142 0044 71150000 		.4byte	.LASF408
 8143 0048 05       		.byte	0x5
 8144 0049 AB01     		.uleb128 0xab
 8145 004b AF330000 		.4byte	.LASF409
 8146 004f 05       		.byte	0x5
 8147 0050 AC01     		.uleb128 0xac
 8148 0052 5C0A0000 		.4byte	.LASF410
 8149 0056 05       		.byte	0x5
 8150 0057 AD01     		.uleb128 0xad
 8151 0059 F0760000 		.4byte	.LASF411
 8152 005d 05       		.byte	0x5
 8153 005e B501     		.uleb128 0xb5
ARM GAS  /tmp/ccAFBUIw.s 			page 162


 8154 0060 E6690000 		.4byte	.LASF412
 8155 0064 05       		.byte	0x5
 8156 0065 B601     		.uleb128 0xb6
 8157 0067 260F0000 		.4byte	.LASF413
 8158 006b 05       		.byte	0x5
 8159 006c B701     		.uleb128 0xb7
 8160 006e 3A600000 		.4byte	.LASF414
 8161 0072 05       		.byte	0x5
 8162 0073 C101     		.uleb128 0xc1
 8163 0075 3E4F0000 		.4byte	.LASF415
 8164 0079 05       		.byte	0x5
 8165 007a C201     		.uleb128 0xc2
 8166 007c 1D0C0000 		.4byte	.LASF416
 8167 0080 05       		.byte	0x5
 8168 0081 C301     		.uleb128 0xc3
 8169 0083 B7340000 		.4byte	.LASF417
 8170 0087 05       		.byte	0x5
 8171 0088 CB01     		.uleb128 0xcb
 8172 008a 41430000 		.4byte	.LASF418
 8173 008e 05       		.byte	0x5
 8174 008f CC01     		.uleb128 0xcc
 8175 0091 6C090000 		.4byte	.LASF419
 8176 0095 05       		.byte	0x5
 8177 0096 CD01     		.uleb128 0xcd
 8178 0098 FC290000 		.4byte	.LASF420
 8179 009c 05       		.byte	0x5
 8180 009d D701     		.uleb128 0xd7
 8181 009f 175F0000 		.4byte	.LASF421
 8182 00a3 05       		.byte	0x5
 8183 00a4 D801     		.uleb128 0xd8
 8184 00a6 80280000 		.4byte	.LASF422
 8185 00aa 05       		.byte	0x5
 8186 00ab D901     		.uleb128 0xd9
 8187 00ad AB3F0000 		.4byte	.LASF423
 8188 00b1 05       		.byte	0x5
 8189 00b2 E701     		.uleb128 0xe7
 8190 00b4 BA650000 		.4byte	.LASF424
 8191 00b8 05       		.byte	0x5
 8192 00b9 E801     		.uleb128 0xe8
 8193 00bb 2C2C0000 		.4byte	.LASF425
 8194 00bf 05       		.byte	0x5
 8195 00c0 E901     		.uleb128 0xe9
 8196 00c2 C0620000 		.4byte	.LASF426
 8197 00c6 05       		.byte	0x5
 8198 00c7 F901     		.uleb128 0xf9
 8199 00c9 B7670000 		.4byte	.LASF427
 8200 00cd 05       		.byte	0x5
 8201 00ce FA01     		.uleb128 0xfa
 8202 00d0 F7460000 		.4byte	.LASF428
 8203 00d4 05       		.byte	0x5
 8204 00d5 FB01     		.uleb128 0xfb
 8205 00d7 7E680000 		.4byte	.LASF429
 8206 00db 05       		.byte	0x5
 8207 00dc 8902     		.uleb128 0x109
 8208 00de AD160000 		.4byte	.LASF430
 8209 00e2 05       		.byte	0x5
 8210 00e3 8A02     		.uleb128 0x10a
ARM GAS  /tmp/ccAFBUIw.s 			page 163


 8211 00e5 410E0000 		.4byte	.LASF431
 8212 00e9 05       		.byte	0x5
 8213 00ea 8B02     		.uleb128 0x10b
 8214 00ec DB570000 		.4byte	.LASF432
 8215 00f0 05       		.byte	0x5
 8216 00f1 9902     		.uleb128 0x119
 8217 00f3 6D480000 		.4byte	.LASF433
 8218 00f7 05       		.byte	0x5
 8219 00f8 9A02     		.uleb128 0x11a
 8220 00fa 31200000 		.4byte	.LASF434
 8221 00fe 05       		.byte	0x5
 8222 00ff 9B02     		.uleb128 0x11b
 8223 0101 17580000 		.4byte	.LASF435
 8224 0105 05       		.byte	0x5
 8225 0106 A902     		.uleb128 0x129
 8226 0108 141D0000 		.4byte	.LASF436
 8227 010c 05       		.byte	0x5
 8228 010d AA02     		.uleb128 0x12a
 8229 010f DD090000 		.4byte	.LASF437
 8230 0113 05       		.byte	0x5
 8231 0114 AB02     		.uleb128 0x12b
 8232 0116 26620000 		.4byte	.LASF438
 8233 011a 05       		.byte	0x5
 8234 011b B902     		.uleb128 0x139
 8235 011d BA110000 		.4byte	.LASF439
 8236 0121 05       		.byte	0x5
 8237 0122 BA02     		.uleb128 0x13a
 8238 0124 CF130000 		.4byte	.LASF440
 8239 0128 05       		.byte	0x5
 8240 0129 BB02     		.uleb128 0x13b
 8241 012b D4440000 		.4byte	.LASF441
 8242 012f 05       		.byte	0x5
 8243 0130 C902     		.uleb128 0x149
 8244 0132 EB4F0000 		.4byte	.LASF442
 8245 0136 05       		.byte	0x5
 8246 0137 CA02     		.uleb128 0x14a
 8247 0139 60710000 		.4byte	.LASF443
 8248 013d 05       		.byte	0x5
 8249 013e CB02     		.uleb128 0x14b
 8250 0140 58680000 		.4byte	.LASF444
 8251 0144 05       		.byte	0x5
 8252 0145 D902     		.uleb128 0x159
 8253 0147 64280000 		.4byte	.LASF445
 8254 014b 05       		.byte	0x5
 8255 014c DA02     		.uleb128 0x15a
 8256 014e 424B0000 		.4byte	.LASF446
 8257 0152 05       		.byte	0x5
 8258 0153 E202     		.uleb128 0x162
 8259 0155 453B0000 		.4byte	.LASF447
 8260 0159 05       		.byte	0x5
 8261 015a EA02     		.uleb128 0x16a
 8262 015c C3370000 		.4byte	.LASF448
 8263 0160 05       		.byte	0x5
 8264 0161 F002     		.uleb128 0x170
 8265 0163 80300000 		.4byte	.LASF449
 8266 0167 05       		.byte	0x5
 8267 0168 F102     		.uleb128 0x171
ARM GAS  /tmp/ccAFBUIw.s 			page 164


 8268 016a 62250000 		.4byte	.LASF450
 8269 016e 05       		.byte	0x5
 8270 016f F502     		.uleb128 0x175
 8271 0171 A20A0000 		.4byte	.LASF451
 8272 0175 05       		.byte	0x5
 8273 0176 F902     		.uleb128 0x179
 8274 0178 DA230000 		.4byte	.LASF452
 8275 017c 05       		.byte	0x5
 8276 017d FE02     		.uleb128 0x17e
 8277 017f 261B0000 		.4byte	.LASF453
 8278 0183 05       		.byte	0x5
 8279 0184 8903     		.uleb128 0x189
 8280 0186 DF0E0000 		.4byte	.LASF454
 8281 018a 05       		.byte	0x5
 8282 018b 9303     		.uleb128 0x193
 8283 018d 86400000 		.4byte	.LASF455
 8284 0191 05       		.byte	0x5
 8285 0192 9803     		.uleb128 0x198
 8286 0194 1A000000 		.4byte	.LASF456
 8287 0198 05       		.byte	0x5
 8288 0199 9F03     		.uleb128 0x19f
 8289 019b 77380000 		.4byte	.LASF457
 8290 019f 05       		.byte	0x5
 8291 01a0 A003     		.uleb128 0x1a0
 8292 01a2 2F690000 		.4byte	.LASF458
 8293 01a6 05       		.byte	0x5
 8294 01a7 AB03     		.uleb128 0x1ab
 8295 01a9 180D0000 		.4byte	.LASF459
 8296 01ad 05       		.byte	0x5
 8297 01ae AC03     		.uleb128 0x1ac
 8298 01b0 6F700000 		.4byte	.LASF460
 8299 01b4 05       		.byte	0x5
 8300 01b5 B703     		.uleb128 0x1b7
 8301 01b7 0E620000 		.4byte	.LASF461
 8302 01bb 05       		.byte	0x5
 8303 01bc B803     		.uleb128 0x1b8
 8304 01be C8470000 		.4byte	.LASF462
 8305 01c2 05       		.byte	0x5
 8306 01c3 C403     		.uleb128 0x1c4
 8307 01c5 97330000 		.4byte	.LASF463
 8308 01c9 05       		.byte	0x5
 8309 01ca C503     		.uleb128 0x1c5
 8310 01cc CE5F0000 		.4byte	.LASF464
 8311 01d0 05       		.byte	0x5
 8312 01d1 D403     		.uleb128 0x1d4
 8313 01d3 C0230000 		.4byte	.LASF465
 8314 01d7 05       		.byte	0x5
 8315 01d8 D503     		.uleb128 0x1d5
 8316 01da C4540000 		.4byte	.LASF466
 8317 01de 00       		.byte	0
 8318              		.section	.debug_macro,"G",%progbits,wm4.stdbool.h.29.1c9ee6859ce8145f7838a4f2549ccec2,comdat
 8319              	.Ldebug_macro7:
 8320 0000 0400     		.2byte	0x4
 8321 0002 00       		.byte	0
 8322 0003 05       		.byte	0x5
 8323 0004 1D       		.uleb128 0x1d
 8324 0005 FD6F0000 		.4byte	.LASF468
ARM GAS  /tmp/ccAFBUIw.s 			page 165


 8325 0009 05       		.byte	0x5
 8326 000a 21       		.uleb128 0x21
 8327 000b F87A0000 		.4byte	.LASF469
 8328 000f 05       		.byte	0x5
 8329 0010 22       		.uleb128 0x22
 8330 0011 BE4C0000 		.4byte	.LASF470
 8331 0015 05       		.byte	0x5
 8332 0016 23       		.uleb128 0x23
 8333 0017 712C0000 		.4byte	.LASF471
 8334 001b 05       		.byte	0x5
 8335 001c 30       		.uleb128 0x30
 8336 001d A3750000 		.4byte	.LASF472
 8337 0021 00       		.byte	0
 8338              		.section	.debug_macro,"G",%progbits,wm4.lpc_types.h.63.860ba57581a002825766a7c2ac00d549,comdat
 8339              	.Ldebug_macro8:
 8340 0000 0400     		.2byte	0x4
 8341 0002 00       		.byte	0
 8342 0003 05       		.byte	0x5
 8343 0004 3F       		.uleb128 0x3f
 8344 0005 13080000 		.4byte	.LASF473
 8345 0009 05       		.byte	0x5
 8346 000a 45       		.uleb128 0x45
 8347 000b 9B080000 		.4byte	.LASF474
 8348 000f 06       		.byte	0x6
 8349 0010 66       		.uleb128 0x66
 8350 0011 09620000 		.4byte	.LASF475
 8351 0015 05       		.byte	0x5
 8352 0016 68       		.uleb128 0x68
 8353 0017 192C0000 		.4byte	.LASF476
 8354 001b 06       		.byte	0x6
 8355 001c 6E       		.uleb128 0x6e
 8356 001d A22A0000 		.4byte	.LASF477
 8357 0021 05       		.byte	0x5
 8358 0022 70       		.uleb128 0x70
 8359 0023 851B0000 		.4byte	.LASF478
 8360 0027 06       		.byte	0x6
 8361 0028 7F       		.uleb128 0x7f
 8362 0029 1E320000 		.4byte	.LASF479
 8363 002d 05       		.byte	0x5
 8364 002e 8101     		.uleb128 0x81
 8365 0030 A06E0000 		.4byte	.LASF480
 8366 0034 05       		.byte	0x5
 8367 0035 8501     		.uleb128 0x85
 8368 0037 E8530000 		.4byte	.LASF481
 8369 003b 05       		.byte	0x5
 8370 003c 8901     		.uleb128 0x89
 8371 003e 6B6C0000 		.4byte	.LASF482
 8372 0042 05       		.byte	0x5
 8373 0043 8C01     		.uleb128 0x8c
 8374 0045 A1220000 		.4byte	.LASF483
 8375 0049 05       		.byte	0x5
 8376 004a 8E01     		.uleb128 0x8e
 8377 004c EA380000 		.4byte	.LASF484
 8378 0050 05       		.byte	0x5
 8379 0051 9101     		.uleb128 0x91
 8380 0053 180B0000 		.4byte	.LASF485
 8381 0057 05       		.byte	0x5
ARM GAS  /tmp/ccAFBUIw.s 			page 166


 8382 0058 9401     		.uleb128 0x94
 8383 005a 43670000 		.4byte	.LASF486
 8384 005e 05       		.byte	0x5
 8385 005f 9701     		.uleb128 0x97
 8386 0061 E04A0000 		.4byte	.LASF487
 8387 0065 05       		.byte	0x5
 8388 0066 D001     		.uleb128 0xd0
 8389 0068 986B0000 		.4byte	.LASF488
 8390 006c 00       		.byte	0
 8391              		.section	.debug_macro,"G",%progbits,wm4.sys_config.h.31.9f234e9c90333d233c7e647ebe63e928,comdat
 8392              	.Ldebug_macro9:
 8393 0000 0400     		.2byte	0x4
 8394 0002 00       		.byte	0
 8395 0003 05       		.byte	0x5
 8396 0004 1F       		.uleb128 0x1f
 8397 0005 BA3E0000 		.4byte	.LASF489
 8398 0009 05       		.byte	0x5
 8399 000a 26       		.uleb128 0x26
 8400 000b C01A0000 		.4byte	.LASF490
 8401 000f 00       		.byte	0
 8402              		.section	.debug_macro,"G",%progbits,wm4.cmsis_11cxx.h.33.407e9bbb5d170cd1552d3f7dc3fd5c42,comdat
 8403              	.Ldebug_macro10:
 8404 0000 0400     		.2byte	0x4
 8405 0002 00       		.byte	0
 8406 0003 05       		.byte	0x5
 8407 0004 21       		.uleb128 0x21
 8408 0005 81760000 		.4byte	.LASF492
 8409 0009 05       		.byte	0x5
 8410 000a 8801     		.uleb128 0x88
 8411 000c A8390000 		.4byte	.LASF493
 8412 0010 05       		.byte	0x5
 8413 0011 8901     		.uleb128 0x89
 8414 0013 AF710000 		.4byte	.LASF494
 8415 0017 05       		.byte	0x5
 8416 0018 8A01     		.uleb128 0x8a
 8417 001a 65530000 		.4byte	.LASF495
 8418 001e 00       		.byte	0
 8419              		.section	.debug_macro,"G",%progbits,wm4.core_cm0.h.32.192d13cfa8b31e63c86621de62eb153f,comdat
 8420              	.Ldebug_macro11:
 8421 0000 0400     		.2byte	0x4
 8422 0002 00       		.byte	0
 8423 0003 05       		.byte	0x5
 8424 0004 20       		.uleb128 0x20
 8425 0005 FE110000 		.4byte	.LASF496
 8426 0009 05       		.byte	0x5
 8427 000a 38       		.uleb128 0x38
 8428 000b 2B520000 		.4byte	.LASF497
 8429 000f 05       		.byte	0x5
 8430 0010 39       		.uleb128 0x39
 8431 0011 E66C0000 		.4byte	.LASF498
 8432 0015 05       		.byte	0x5
 8433 0016 3A       		.uleb128 0x3a
 8434 0017 A71E0000 		.4byte	.LASF499
 8435 001b 05       		.byte	0x5
 8436 001c 3D       		.uleb128 0x3d
 8437 001d CA2C0000 		.4byte	.LASF500
 8438 0021 05       		.byte	0x5
ARM GAS  /tmp/ccAFBUIw.s 			page 167


 8439 0022 4B       		.uleb128 0x4b
 8440 0023 4A0F0000 		.4byte	.LASF501
 8441 0027 05       		.byte	0x5
 8442 0028 4C       		.uleb128 0x4c
 8443 0029 C07A0000 		.4byte	.LASF502
 8444 002d 05       		.byte	0x5
 8445 002e 4D       		.uleb128 0x4d
 8446 002f A73D0000 		.4byte	.LASF503
 8447 0033 05       		.byte	0x5
 8448 0034 58       		.uleb128 0x58
 8449 0035 5E6C0000 		.4byte	.LASF504
 8450 0039 00       		.byte	0
 8451              		.section	.debug_macro,"G",%progbits,wm4.core_cm0.h.120.f4257ea7d0bce0cbabffe223e23b2fd4,comdat
 8452              	.Ldebug_macro12:
 8453 0000 0400     		.2byte	0x4
 8454 0002 00       		.byte	0
 8455 0003 05       		.byte	0x5
 8456 0004 78       		.uleb128 0x78
 8457 0005 1C770000 		.4byte	.LASF507
 8458 0009 05       		.byte	0x5
 8459 000a 9701     		.uleb128 0x97
 8460 000c 2A3C0000 		.4byte	.LASF508
 8461 0010 05       		.byte	0x5
 8462 0011 9901     		.uleb128 0x99
 8463 0013 19300000 		.4byte	.LASF509
 8464 0017 05       		.byte	0x5
 8465 0018 9A01     		.uleb128 0x9a
 8466 001a E2680000 		.4byte	.LASF510
 8467 001e 05       		.byte	0x5
 8468 001f B002     		.uleb128 0x130
 8469 0021 A2440000 		.4byte	.LASF511
 8470 0025 05       		.byte	0x5
 8471 0026 B102     		.uleb128 0x131
 8472 0028 DD740000 		.4byte	.LASF512
 8473 002c 05       		.byte	0x5
 8474 002d B302     		.uleb128 0x133
 8475 002f B05C0000 		.4byte	.LASF513
 8476 0033 05       		.byte	0x5
 8477 0034 B402     		.uleb128 0x134
 8478 0036 E2470000 		.4byte	.LASF514
 8479 003a 05       		.byte	0x5
 8480 003b B602     		.uleb128 0x136
 8481 003d 90210000 		.4byte	.LASF515
 8482 0041 05       		.byte	0x5
 8483 0042 B702     		.uleb128 0x137
 8484 0044 8A030000 		.4byte	.LASF516
 8485 0048 05       		.byte	0x5
 8486 0049 B902     		.uleb128 0x139
 8487 004b 3A2A0000 		.4byte	.LASF517
 8488 004f 05       		.byte	0x5
 8489 0050 BA02     		.uleb128 0x13a
 8490 0052 EB190000 		.4byte	.LASF518
 8491 0056 05       		.byte	0x5
 8492 0057 BC02     		.uleb128 0x13c
 8493 0059 8E3D0000 		.4byte	.LASF519
 8494 005d 05       		.byte	0x5
 8495 005e BD02     		.uleb128 0x13d
ARM GAS  /tmp/ccAFBUIw.s 			page 168


 8496 0060 1D350000 		.4byte	.LASF520
 8497 0064 05       		.byte	0x5
 8498 0065 C002     		.uleb128 0x140
 8499 0067 9D510000 		.4byte	.LASF521
 8500 006b 05       		.byte	0x5
 8501 006c C102     		.uleb128 0x141
 8502 006e 512A0000 		.4byte	.LASF522
 8503 0072 05       		.byte	0x5
 8504 0073 C302     		.uleb128 0x143
 8505 0075 E32F0000 		.4byte	.LASF523
 8506 0079 05       		.byte	0x5
 8507 007a C402     		.uleb128 0x144
 8508 007c 31630000 		.4byte	.LASF524
 8509 0080 05       		.byte	0x5
 8510 0081 C602     		.uleb128 0x146
 8511 0083 BC690000 		.4byte	.LASF525
 8512 0087 05       		.byte	0x5
 8513 0088 C702     		.uleb128 0x147
 8514 008a 06290000 		.4byte	.LASF526
 8515 008e 05       		.byte	0x5
 8516 008f C902     		.uleb128 0x149
 8517 0091 420A0000 		.4byte	.LASF527
 8518 0095 05       		.byte	0x5
 8519 0096 CA02     		.uleb128 0x14a
 8520 0098 AF060000 		.4byte	.LASF528
 8521 009c 05       		.byte	0x5
 8522 009d CC02     		.uleb128 0x14c
 8523 009f 4D470000 		.4byte	.LASF529
 8524 00a3 05       		.byte	0x5
 8525 00a4 CD02     		.uleb128 0x14d
 8526 00a6 61020000 		.4byte	.LASF530
 8527 00aa 05       		.byte	0x5
 8528 00ab CF02     		.uleb128 0x14f
 8529 00ad 82510000 		.4byte	.LASF531
 8530 00b1 05       		.byte	0x5
 8531 00b2 D002     		.uleb128 0x150
 8532 00b4 F8380000 		.4byte	.LASF532
 8533 00b8 05       		.byte	0x5
 8534 00b9 D202     		.uleb128 0x152
 8535 00bb 5B040000 		.4byte	.LASF533
 8536 00bf 05       		.byte	0x5
 8537 00c0 D302     		.uleb128 0x153
 8538 00c2 F7350000 		.4byte	.LASF534
 8539 00c6 05       		.byte	0x5
 8540 00c7 D502     		.uleb128 0x155
 8541 00c9 792C0000 		.4byte	.LASF535
 8542 00cd 05       		.byte	0x5
 8543 00ce D602     		.uleb128 0x156
 8544 00d0 352D0000 		.4byte	.LASF536
 8545 00d4 05       		.byte	0x5
 8546 00d5 D802     		.uleb128 0x158
 8547 00d7 FE0B0000 		.4byte	.LASF537
 8548 00db 05       		.byte	0x5
 8549 00dc D902     		.uleb128 0x159
 8550 00de AB1C0000 		.4byte	.LASF538
 8551 00e2 05       		.byte	0x5
 8552 00e3 DC02     		.uleb128 0x15c
ARM GAS  /tmp/ccAFBUIw.s 			page 169


 8553 00e5 876E0000 		.4byte	.LASF539
 8554 00e9 05       		.byte	0x5
 8555 00ea DD02     		.uleb128 0x15d
 8556 00ec E4330000 		.4byte	.LASF540
 8557 00f0 05       		.byte	0x5
 8558 00f1 DF02     		.uleb128 0x15f
 8559 00f3 AF0B0000 		.4byte	.LASF541
 8560 00f7 05       		.byte	0x5
 8561 00f8 E002     		.uleb128 0x160
 8562 00fa 427A0000 		.4byte	.LASF542
 8563 00fe 05       		.byte	0x5
 8564 00ff E202     		.uleb128 0x162
 8565 0101 456A0000 		.4byte	.LASF543
 8566 0105 05       		.byte	0x5
 8567 0106 E302     		.uleb128 0x163
 8568 0108 BE1B0000 		.4byte	.LASF544
 8569 010c 05       		.byte	0x5
 8570 010d E502     		.uleb128 0x165
 8571 010f FD2F0000 		.4byte	.LASF545
 8572 0113 05       		.byte	0x5
 8573 0114 E602     		.uleb128 0x166
 8574 0116 AA730000 		.4byte	.LASF546
 8575 011a 05       		.byte	0x5
 8576 011b E802     		.uleb128 0x168
 8577 011d AA520000 		.4byte	.LASF547
 8578 0121 05       		.byte	0x5
 8579 0122 E902     		.uleb128 0x169
 8580 0124 08030000 		.4byte	.LASF548
 8581 0128 05       		.byte	0x5
 8582 0129 EC02     		.uleb128 0x16c
 8583 012b 80500000 		.4byte	.LASF549
 8584 012f 05       		.byte	0x5
 8585 0130 ED02     		.uleb128 0x16d
 8586 0132 91790000 		.4byte	.LASF550
 8587 0136 05       		.byte	0x5
 8588 0137 EF02     		.uleb128 0x16f
 8589 0139 E7280000 		.4byte	.LASF551
 8590 013d 05       		.byte	0x5
 8591 013e F002     		.uleb128 0x170
 8592 0140 EB180000 		.4byte	.LASF552
 8593 0144 05       		.byte	0x5
 8594 0145 F202     		.uleb128 0x172
 8595 0147 4F270000 		.4byte	.LASF553
 8596 014b 05       		.byte	0x5
 8597 014c F302     		.uleb128 0x173
 8598 014e 4A1F0000 		.4byte	.LASF554
 8599 0152 05       		.byte	0x5
 8600 0153 F602     		.uleb128 0x176
 8601 0155 A66B0000 		.4byte	.LASF555
 8602 0159 05       		.byte	0x5
 8603 015a F702     		.uleb128 0x177
 8604 015c 77110000 		.4byte	.LASF556
 8605 0160 05       		.byte	0x5
 8606 0161 F902     		.uleb128 0x179
 8607 0163 1B4E0000 		.4byte	.LASF557
 8608 0167 05       		.byte	0x5
 8609 0168 FA02     		.uleb128 0x17a
ARM GAS  /tmp/ccAFBUIw.s 			page 170


 8610 016a 19060000 		.4byte	.LASF558
 8611 016e 05       		.byte	0x5
 8612 016f FD02     		.uleb128 0x17d
 8613 0171 C8660000 		.4byte	.LASF559
 8614 0175 05       		.byte	0x5
 8615 0176 FE02     		.uleb128 0x17e
 8616 0178 4F560000 		.4byte	.LASF560
 8617 017c 05       		.byte	0x5
 8618 017d 9403     		.uleb128 0x194
 8619 017f C42B0000 		.4byte	.LASF561
 8620 0183 05       		.byte	0x5
 8621 0184 9503     		.uleb128 0x195
 8622 0186 346D0000 		.4byte	.LASF562
 8623 018a 05       		.byte	0x5
 8624 018b 9703     		.uleb128 0x197
 8625 018d 470B0000 		.4byte	.LASF563
 8626 0191 05       		.byte	0x5
 8627 0192 9803     		.uleb128 0x198
 8628 0194 1F050000 		.4byte	.LASF564
 8629 0198 05       		.byte	0x5
 8630 0199 9A03     		.uleb128 0x19a
 8631 019b E3110000 		.4byte	.LASF565
 8632 019f 05       		.byte	0x5
 8633 01a0 9B03     		.uleb128 0x19b
 8634 01a2 DF5D0000 		.4byte	.LASF566
 8635 01a6 05       		.byte	0x5
 8636 01a7 9D03     		.uleb128 0x19d
 8637 01a9 4A280000 		.4byte	.LASF567
 8638 01ad 05       		.byte	0x5
 8639 01ae 9E03     		.uleb128 0x19e
 8640 01b0 18640000 		.4byte	.LASF568
 8641 01b4 05       		.byte	0x5
 8642 01b5 A103     		.uleb128 0x1a1
 8643 01b7 B76A0000 		.4byte	.LASF569
 8644 01bb 05       		.byte	0x5
 8645 01bc A203     		.uleb128 0x1a2
 8646 01be 80620000 		.4byte	.LASF570
 8647 01c2 05       		.byte	0x5
 8648 01c3 A503     		.uleb128 0x1a5
 8649 01c5 36550000 		.4byte	.LASF571
 8650 01c9 05       		.byte	0x5
 8651 01ca A603     		.uleb128 0x1a6
 8652 01cc 074A0000 		.4byte	.LASF572
 8653 01d0 05       		.byte	0x5
 8654 01d1 A903     		.uleb128 0x1a9
 8655 01d3 68630000 		.4byte	.LASF573
 8656 01d7 05       		.byte	0x5
 8657 01d8 AA03     		.uleb128 0x1aa
 8658 01da F81F0000 		.4byte	.LASF574
 8659 01de 05       		.byte	0x5
 8660 01df AC03     		.uleb128 0x1ac
 8661 01e1 820E0000 		.4byte	.LASF575
 8662 01e5 05       		.byte	0x5
 8663 01e6 AD03     		.uleb128 0x1ad
 8664 01e8 0C720000 		.4byte	.LASF576
 8665 01ec 05       		.byte	0x5
 8666 01ed AF03     		.uleb128 0x1af
ARM GAS  /tmp/ccAFBUIw.s 			page 171


 8667 01ef F0370000 		.4byte	.LASF577
 8668 01f3 05       		.byte	0x5
 8669 01f4 B003     		.uleb128 0x1b0
 8670 01f6 C7550000 		.4byte	.LASF578
 8671 01fa 05       		.byte	0x5
 8672 01fb C603     		.uleb128 0x1c6
 8673 01fd 13530000 		.4byte	.LASF579
 8674 0201 05       		.byte	0x5
 8675 0202 C703     		.uleb128 0x1c7
 8676 0204 074D0000 		.4byte	.LASF580
 8677 0208 05       		.byte	0x5
 8678 0209 C803     		.uleb128 0x1c8
 8679 020b 7C4F0000 		.4byte	.LASF581
 8680 020f 05       		.byte	0x5
 8681 0210 C903     		.uleb128 0x1c9
 8682 0212 18220000 		.4byte	.LASF582
 8683 0216 05       		.byte	0x5
 8684 0217 CB03     		.uleb128 0x1cb
 8685 0219 545E0000 		.4byte	.LASF583
 8686 021d 05       		.byte	0x5
 8687 021e CC03     		.uleb128 0x1cc
 8688 0220 5A690000 		.4byte	.LASF584
 8689 0224 05       		.byte	0x5
 8690 0225 CD03     		.uleb128 0x1cd
 8691 0227 B8460000 		.4byte	.LASF585
 8692 022b 05       		.byte	0x5
 8693 022c E903     		.uleb128 0x1e9
 8694 022e 6B410000 		.4byte	.LASF586
 8695 0232 05       		.byte	0x5
 8696 0233 EA03     		.uleb128 0x1ea
 8697 0235 7F5D0000 		.4byte	.LASF587
 8698 0239 05       		.byte	0x5
 8699 023a EB03     		.uleb128 0x1eb
 8700 023c 44460000 		.4byte	.LASF588
 8701 0240 00       		.byte	0
 8702              		.section	.debug_macro,"G",%progbits,wm4.chip.h.116.857da603c399e979152c31968de4baae,comdat
 8703              	.Ldebug_macro13:
 8704 0000 0400     		.2byte	0x4
 8705 0002 00       		.byte	0
 8706 0003 05       		.byte	0x5
 8707 0004 74       		.uleb128 0x74
 8708 0005 BA760000 		.4byte	.LASF589
 8709 0009 05       		.byte	0x5
 8710 000a 75       		.uleb128 0x75
 8711 000b C1010000 		.4byte	.LASF590
 8712 000f 05       		.byte	0x5
 8713 0010 76       		.uleb128 0x76
 8714 0011 106C0000 		.4byte	.LASF591
 8715 0015 05       		.byte	0x5
 8716 0016 77       		.uleb128 0x77
 8717 0017 B05F0000 		.4byte	.LASF592
 8718 001b 05       		.byte	0x5
 8719 001c 78       		.uleb128 0x78
 8720 001d 95770000 		.4byte	.LASF593
 8721 0021 05       		.byte	0x5
 8722 0022 79       		.uleb128 0x79
 8723 0023 76080000 		.4byte	.LASF594
ARM GAS  /tmp/ccAFBUIw.s 			page 172


 8724 0027 05       		.byte	0x5
 8725 0028 7A       		.uleb128 0x7a
 8726 0029 A1050000 		.4byte	.LASF595
 8727 002d 05       		.byte	0x5
 8728 002e 7B       		.uleb128 0x7b
 8729 002f 606F0000 		.4byte	.LASF596
 8730 0033 05       		.byte	0x5
 8731 0034 7C       		.uleb128 0x7c
 8732 0035 636E0000 		.4byte	.LASF597
 8733 0039 05       		.byte	0x5
 8734 003a 7D       		.uleb128 0x7d
 8735 003b 58150000 		.4byte	.LASF598
 8736 003f 05       		.byte	0x5
 8737 0040 7E       		.uleb128 0x7e
 8738 0041 C53D0000 		.4byte	.LASF599
 8739 0045 05       		.byte	0x5
 8740 0046 7F       		.uleb128 0x7f
 8741 0047 27430000 		.4byte	.LASF600
 8742 004b 05       		.byte	0x5
 8743 004c 8001     		.uleb128 0x80
 8744 004e A34E0000 		.4byte	.LASF601
 8745 0052 05       		.byte	0x5
 8746 0053 8101     		.uleb128 0x81
 8747 0055 DA000000 		.4byte	.LASF602
 8748 0059 05       		.byte	0x5
 8749 005a 8201     		.uleb128 0x82
 8750 005c 862F0000 		.4byte	.LASF603
 8751 0060 05       		.byte	0x5
 8752 0061 8301     		.uleb128 0x83
 8753 0063 B3770000 		.4byte	.LASF604
 8754 0067 05       		.byte	0x5
 8755 0068 8401     		.uleb128 0x84
 8756 006a E82E0000 		.4byte	.LASF605
 8757 006e 05       		.byte	0x5
 8758 006f 8501     		.uleb128 0x85
 8759 0071 186B0000 		.4byte	.LASF606
 8760 0075 05       		.byte	0x5
 8761 0076 9001     		.uleb128 0x90
 8762 0078 CF5E0000 		.4byte	.LASF607
 8763 007c 05       		.byte	0x5
 8764 007d 9101     		.uleb128 0x91
 8765 007f 5D4F0000 		.4byte	.LASF608
 8766 0083 05       		.byte	0x5
 8767 0084 9301     		.uleb128 0x93
 8768 0086 44450000 		.4byte	.LASF609
 8769 008a 05       		.byte	0x5
 8770 008b 9401     		.uleb128 0x94
 8771 008d 2D330000 		.4byte	.LASF610
 8772 0091 05       		.byte	0x5
 8773 0092 9701     		.uleb128 0x97
 8774 0094 DC6D0000 		.4byte	.LASF611
 8775 0098 05       		.byte	0x5
 8776 0099 9801     		.uleb128 0x98
 8777 009b 5C210000 		.4byte	.LASF612
 8778 009f 05       		.byte	0x5
 8779 00a0 9B01     		.uleb128 0x9b
 8780 00a2 412B0000 		.4byte	.LASF613
ARM GAS  /tmp/ccAFBUIw.s 			page 173


 8781 00a6 05       		.byte	0x5
 8782 00a7 9E01     		.uleb128 0x9e
 8783 00a9 B75D0000 		.4byte	.LASF614
 8784 00ad 05       		.byte	0x5
 8785 00ae 9F01     		.uleb128 0x9f
 8786 00b0 17790000 		.4byte	.LASF615
 8787 00b4 05       		.byte	0x5
 8788 00b5 A001     		.uleb128 0xa0
 8789 00b7 6C360000 		.4byte	.LASF616
 8790 00bb 05       		.byte	0x5
 8791 00bc A101     		.uleb128 0xa1
 8792 00be 8D230000 		.4byte	.LASF617
 8793 00c2 05       		.byte	0x5
 8794 00c3 A201     		.uleb128 0xa2
 8795 00c5 36160000 		.4byte	.LASF618
 8796 00c9 05       		.byte	0x5
 8797 00ca A301     		.uleb128 0xa3
 8798 00cc E84D0000 		.4byte	.LASF619
 8799 00d0 05       		.byte	0x5
 8800 00d1 A401     		.uleb128 0xa4
 8801 00d3 D31F0000 		.4byte	.LASF620
 8802 00d7 05       		.byte	0x5
 8803 00d8 B101     		.uleb128 0xb1
 8804 00da 9B7A0000 		.4byte	.LASF621
 8805 00de 05       		.byte	0x5
 8806 00df B201     		.uleb128 0xb2
 8807 00e1 841C0000 		.4byte	.LASF622
 8808 00e5 05       		.byte	0x5
 8809 00e6 B301     		.uleb128 0xb3
 8810 00e8 50320000 		.4byte	.LASF623
 8811 00ec 05       		.byte	0x5
 8812 00ed B401     		.uleb128 0xb4
 8813 00ef 26300000 		.4byte	.LASF624
 8814 00f3 05       		.byte	0x5
 8815 00f4 B501     		.uleb128 0xb5
 8816 00f6 E8240000 		.4byte	.LASF625
 8817 00fa 05       		.byte	0x5
 8818 00fb B701     		.uleb128 0xb7
 8819 00fd 4D3D0000 		.4byte	.LASF626
 8820 0101 05       		.byte	0x5
 8821 0102 B801     		.uleb128 0xb8
 8822 0104 CB120000 		.4byte	.LASF627
 8823 0108 05       		.byte	0x5
 8824 0109 BA01     		.uleb128 0xba
 8825 010b 52230000 		.4byte	.LASF628
 8826 010f 05       		.byte	0x5
 8827 0110 C101     		.uleb128 0xc1
 8828 0112 37220000 		.4byte	.LASF629
 8829 0116 05       		.byte	0x5
 8830 0117 C401     		.uleb128 0xc4
 8831 0119 E63B0000 		.4byte	.LASF630
 8832 011d 00       		.byte	0
 8833              		.section	.debug_macro,"G",%progbits,wm4.pmu_11xx.h.33.1d6b708881441cb98d19b8bab3caa180,comdat
 8834              	.Ldebug_macro14:
 8835 0000 0400     		.2byte	0x4
 8836 0002 00       		.byte	0
 8837 0003 05       		.byte	0x5
ARM GAS  /tmp/ccAFBUIw.s 			page 174


 8838 0004 21       		.uleb128 0x21
 8839 0005 BC4D0000 		.4byte	.LASF631
 8840 0009 05       		.byte	0x5
 8841 000a 4D       		.uleb128 0x4d
 8842 000b 40680000 		.4byte	.LASF632
 8843 000f 05       		.byte	0x5
 8844 0010 53       		.uleb128 0x53
 8845 0011 50340000 		.4byte	.LASF633
 8846 0015 05       		.byte	0x5
 8847 0016 55       		.uleb128 0x55
 8848 0017 3B710000 		.4byte	.LASF634
 8849 001b 05       		.byte	0x5
 8850 001c 56       		.uleb128 0x56
 8851 001d 196D0000 		.4byte	.LASF635
 8852 0021 00       		.byte	0
 8853              		.section	.debug_macro,"G",%progbits,wm4.sysctl_11xx.h.33.ae61a1181e608f8409883008e291930c,comdat
 8854              	.Ldebug_macro15:
 8855 0000 0400     		.2byte	0x4
 8856 0002 00       		.byte	0
 8857 0003 05       		.byte	0x5
 8858 0004 21       		.uleb128 0x21
 8859 0005 E76E0000 		.4byte	.LASF637
 8860 0009 05       		.byte	0x5
 8861 000a BC01     		.uleb128 0xbc
 8862 000c E4010000 		.4byte	.LASF638
 8863 0010 05       		.byte	0x5
 8864 0011 BD01     		.uleb128 0xbd
 8865 0013 89070000 		.4byte	.LASF639
 8866 0017 05       		.byte	0x5
 8867 0018 BE01     		.uleb128 0xbe
 8868 001a 6E2F0000 		.4byte	.LASF640
 8869 001e 05       		.byte	0x5
 8870 001f BF01     		.uleb128 0xbf
 8871 0021 CF6E0000 		.4byte	.LASF641
 8872 0025 05       		.byte	0x5
 8873 0026 C001     		.uleb128 0xc0
 8874 0028 26610000 		.4byte	.LASF642
 8875 002c 05       		.byte	0x5
 8876 002d C501     		.uleb128 0xc5
 8877 002f D8160000 		.4byte	.LASF643
 8878 0033 05       		.byte	0x5
 8879 0034 A904     		.uleb128 0x229
 8880 0036 2B280000 		.4byte	.LASF644
 8881 003a 05       		.byte	0x5
 8882 003b AA04     		.uleb128 0x22a
 8883 003d E25C0000 		.4byte	.LASF645
 8884 0041 05       		.byte	0x5
 8885 0042 C904     		.uleb128 0x249
 8886 0044 09700000 		.4byte	.LASF646
 8887 0048 05       		.byte	0x5
 8888 0049 CA04     		.uleb128 0x24a
 8889 004b 68740000 		.4byte	.LASF647
 8890 004f 05       		.byte	0x5
 8891 0050 CB04     		.uleb128 0x24b
 8892 0052 2D380000 		.4byte	.LASF648
 8893 0056 05       		.byte	0x5
 8894 0057 CC04     		.uleb128 0x24c
ARM GAS  /tmp/ccAFBUIw.s 			page 175


 8895 0059 780F0000 		.4byte	.LASF649
 8896 005d 05       		.byte	0x5
 8897 005e CD04     		.uleb128 0x24d
 8898 0060 2A590000 		.4byte	.LASF650
 8899 0064 05       		.byte	0x5
 8900 0065 CE04     		.uleb128 0x24e
 8901 0067 64400000 		.4byte	.LASF651
 8902 006b 05       		.byte	0x5
 8903 006c CF04     		.uleb128 0x24f
 8904 006e 606A0000 		.4byte	.LASF652
 8905 0072 05       		.byte	0x5
 8906 0073 D004     		.uleb128 0x250
 8907 0075 725C0000 		.4byte	.LASF653
 8908 0079 05       		.byte	0x5
 8909 007a F104     		.uleb128 0x271
 8910 007c 786F0000 		.4byte	.LASF654
 8911 0080 05       		.byte	0x5
 8912 0081 F204     		.uleb128 0x272
 8913 0083 474D0000 		.4byte	.LASF655
 8914 0087 05       		.byte	0x5
 8915 0088 F304     		.uleb128 0x273
 8916 008a 901A0000 		.4byte	.LASF656
 8917 008e 05       		.byte	0x5
 8918 008f F504     		.uleb128 0x275
 8919 0091 ED450000 		.4byte	.LASF657
 8920 0095 05       		.byte	0x5
 8921 0096 F704     		.uleb128 0x277
 8922 0098 826A0000 		.4byte	.LASF658
 8923 009c 05       		.byte	0x5
 8924 009d F804     		.uleb128 0x278
 8925 009f 740A0000 		.4byte	.LASF659
 8926 00a3 05       		.byte	0x5
 8927 00a4 F904     		.uleb128 0x279
 8928 00a6 11470000 		.4byte	.LASF660
 8929 00aa 05       		.byte	0x5
 8930 00ab FA04     		.uleb128 0x27a
 8931 00ad 424C0000 		.4byte	.LASF661
 8932 00b1 00       		.byte	0
 8933              		.section	.debug_macro,"G",%progbits,wm4.clock_11xx.h.33.23290a9e2ed919e3a6958d25130bc848,comdat
 8934              	.Ldebug_macro16:
 8935 0000 0400     		.2byte	0x4
 8936 0002 00       		.byte	0
 8937 0003 05       		.byte	0x5
 8938 0004 21       		.uleb128 0x21
 8939 0005 3A3E0000 		.4byte	.LASF662
 8940 0009 05       		.byte	0x5
 8941 000a 2D       		.uleb128 0x2d
 8942 000b FB620000 		.4byte	.LASF663
 8943 000f 00       		.byte	0
 8944              		.section	.debug_macro,"G",%progbits,wm4.iocon_11xx.h.33.25e2b3cde122df23fb07b984cb4f3a93,comdat
 8945              	.Ldebug_macro17:
 8946 0000 0400     		.2byte	0x4
 8947 0002 00       		.byte	0
 8948 0003 05       		.byte	0x5
 8949 0004 21       		.uleb128 0x21
 8950 0005 EE2D0000 		.4byte	.LASF664
 8951 0009 05       		.byte	0x5
ARM GAS  /tmp/ccAFBUIw.s 			page 176


 8952 000a A601     		.uleb128 0xa6
 8953 000c 6E350000 		.4byte	.LASF665
 8954 0010 05       		.byte	0x5
 8955 0011 A701     		.uleb128 0xa7
 8956 0013 5C090000 		.4byte	.LASF666
 8957 0017 05       		.byte	0x5
 8958 0018 A801     		.uleb128 0xa8
 8959 001a 63180000 		.4byte	.LASF667
 8960 001e 05       		.byte	0x5
 8961 001f A901     		.uleb128 0xa9
 8962 0021 445F0000 		.4byte	.LASF668
 8963 0025 05       		.byte	0x5
 8964 0026 AA01     		.uleb128 0xaa
 8965 0028 C54C0000 		.4byte	.LASF669
 8966 002c 05       		.byte	0x5
 8967 002d AB01     		.uleb128 0xab
 8968 002f 843A0000 		.4byte	.LASF670
 8969 0033 05       		.byte	0x5
 8970 0034 AC01     		.uleb128 0xac
 8971 0036 3F270000 		.4byte	.LASF671
 8972 003a 05       		.byte	0x5
 8973 003b AD01     		.uleb128 0xad
 8974 003d AA110000 		.4byte	.LASF672
 8975 0041 05       		.byte	0x5
 8976 0042 AE01     		.uleb128 0xae
 8977 0044 C8250000 		.4byte	.LASF673
 8978 0048 05       		.byte	0x5
 8979 0049 AF01     		.uleb128 0xaf
 8980 004b 754E0000 		.4byte	.LASF674
 8981 004f 05       		.byte	0x5
 8982 0050 B001     		.uleb128 0xb0
 8983 0052 63610000 		.4byte	.LASF675
 8984 0056 05       		.byte	0x5
 8985 0057 B101     		.uleb128 0xb1
 8986 0059 71730000 		.4byte	.LASF676
 8987 005d 05       		.byte	0x5
 8988 005e B201     		.uleb128 0xb2
 8989 0060 98500000 		.4byte	.LASF677
 8990 0064 05       		.byte	0x5
 8991 0065 B301     		.uleb128 0xb3
 8992 0067 B9220000 		.4byte	.LASF678
 8993 006b 05       		.byte	0x5
 8994 006c B401     		.uleb128 0xb4
 8995 006e F0540000 		.4byte	.LASF679
 8996 0072 05       		.byte	0x5
 8997 0073 B501     		.uleb128 0xb5
 8998 0075 945C0000 		.4byte	.LASF680
 8999 0079 05       		.byte	0x5
 9000 007a B601     		.uleb128 0xb6
 9001 007c 03100000 		.4byte	.LASF681
 9002 0080 05       		.byte	0x5
 9003 0081 B701     		.uleb128 0xb7
 9004 0083 E5650000 		.4byte	.LASF682
 9005 0087 05       		.byte	0x5
 9006 0088 B801     		.uleb128 0xb8
 9007 008a AC660000 		.4byte	.LASF683
 9008 008e 05       		.byte	0x5
ARM GAS  /tmp/ccAFBUIw.s 			page 177


 9009 008f B901     		.uleb128 0xb9
 9010 0091 81240000 		.4byte	.LASF684
 9011 0095 05       		.byte	0x5
 9012 0096 BA01     		.uleb128 0xba
 9013 0098 5C140000 		.4byte	.LASF685
 9014 009c 05       		.byte	0x5
 9015 009d C001     		.uleb128 0xc0
 9016 009f 640B0000 		.4byte	.LASF686
 9017 00a3 05       		.byte	0x5
 9018 00a4 C101     		.uleb128 0xc1
 9019 00a6 F0680000 		.4byte	.LASF687
 9020 00aa 05       		.byte	0x5
 9021 00ab C201     		.uleb128 0xc2
 9022 00ad A6610000 		.4byte	.LASF688
 9023 00b1 05       		.byte	0x5
 9024 00b2 C301     		.uleb128 0xc3
 9025 00b4 E6170000 		.4byte	.LASF689
 9026 00b8 05       		.byte	0x5
 9027 00b9 C401     		.uleb128 0xc4
 9028 00bb 831F0000 		.4byte	.LASF690
 9029 00bf 05       		.byte	0x5
 9030 00c0 C501     		.uleb128 0xc5
 9031 00c2 02170000 		.4byte	.LASF691
 9032 00c6 05       		.byte	0x5
 9033 00c7 C601     		.uleb128 0xc6
 9034 00c9 D1170000 		.4byte	.LASF692
 9035 00cd 05       		.byte	0x5
 9036 00ce C701     		.uleb128 0xc7
 9037 00d0 35480000 		.4byte	.LASF693
 9038 00d4 05       		.byte	0x5
 9039 00d5 C801     		.uleb128 0xc8
 9040 00d7 10160000 		.4byte	.LASF694
 9041 00db 05       		.byte	0x5
 9042 00dc C901     		.uleb128 0xc9
 9043 00de 3B560000 		.4byte	.LASF695
 9044 00e2 05       		.byte	0x5
 9045 00e3 CA01     		.uleb128 0xca
 9046 00e5 B0480000 		.4byte	.LASF696
 9047 00e9 05       		.byte	0x5
 9048 00ea CB01     		.uleb128 0xcb
 9049 00ec F9230000 		.4byte	.LASF697
 9050 00f0 05       		.byte	0x5
 9051 00f1 CC01     		.uleb128 0xcc
 9052 00f3 7F450000 		.4byte	.LASF698
 9053 00f7 05       		.byte	0x5
 9054 00f8 CD01     		.uleb128 0xcd
 9055 00fa 096E0000 		.4byte	.LASF699
 9056 00fe 05       		.byte	0x5
 9057 00ff CE01     		.uleb128 0xce
 9058 0101 9C6F0000 		.4byte	.LASF700
 9059 0105 05       		.byte	0x5
 9060 0106 CF01     		.uleb128 0xcf
 9061 0108 BA540000 		.4byte	.LASF701
 9062 010c 05       		.byte	0x5
 9063 010d D001     		.uleb128 0xd0
 9064 010f BB5E0000 		.4byte	.LASF702
 9065 0113 05       		.byte	0x5
ARM GAS  /tmp/ccAFBUIw.s 			page 178


 9066 0114 D101     		.uleb128 0xd1
 9067 0116 0F4C0000 		.4byte	.LASF703
 9068 011a 05       		.byte	0x5
 9069 011b D201     		.uleb128 0xd2
 9070 011d A13F0000 		.4byte	.LASF704
 9071 0121 05       		.byte	0x5
 9072 0122 D301     		.uleb128 0xd3
 9073 0124 CC260000 		.4byte	.LASF705
 9074 0128 05       		.byte	0x5
 9075 0129 D401     		.uleb128 0xd4
 9076 012b CE320000 		.4byte	.LASF706
 9077 012f 05       		.byte	0x5
 9078 0130 D501     		.uleb128 0xd5
 9079 0132 917A0000 		.4byte	.LASF707
 9080 0136 00       		.byte	0
 9081              		.section	.debug_macro,"G",%progbits,wm4.timer_11xx.h.33.c92f50a9325789ee6a8ffd6248980d70,comdat
 9082              	.Ldebug_macro18:
 9083 0000 0400     		.2byte	0x4
 9084 0002 00       		.byte	0
 9085 0003 05       		.byte	0x5
 9086 0004 21       		.uleb128 0x21
 9087 0005 4F6F0000 		.4byte	.LASF708
 9088 0009 05       		.byte	0x5
 9089 000a 40       		.uleb128 0x40
 9090 000b E2080000 		.4byte	.LASF709
 9091 000f 05       		.byte	0x5
 9092 0010 43       		.uleb128 0x43
 9093 0011 45370000 		.4byte	.LASF710
 9094 0015 05       		.byte	0x5
 9095 0016 45       		.uleb128 0x45
 9096 0017 1D2E0000 		.4byte	.LASF711
 9097 001b 05       		.byte	0x5
 9098 001c 48       		.uleb128 0x48
 9099 001d B80F0000 		.4byte	.LASF712
 9100 0021 05       		.byte	0x5
 9101 0022 4A       		.uleb128 0x4a
 9102 0023 E54C0000 		.4byte	.LASF713
 9103 0027 05       		.byte	0x5
 9104 0028 4D       		.uleb128 0x4d
 9105 0029 FD200000 		.4byte	.LASF714
 9106 002d 05       		.byte	0x5
 9107 002e 4F       		.uleb128 0x4f
 9108 002f 8F2D0000 		.4byte	.LASF715
 9109 0033 05       		.byte	0x5
 9110 0034 51       		.uleb128 0x51
 9111 0035 8F5A0000 		.4byte	.LASF716
 9112 0039 05       		.byte	0x5
 9113 003a 54       		.uleb128 0x54
 9114 003b 95450000 		.4byte	.LASF717
 9115 003f 05       		.byte	0x5
 9116 0040 56       		.uleb128 0x56
 9117 0041 54440000 		.4byte	.LASF718
 9118 0045 05       		.byte	0x5
 9119 0046 58       		.uleb128 0x58
 9120 0047 9C780000 		.4byte	.LASF719
 9121 004b 00       		.byte	0
 9122              		.section	.debug_macro,"G",%progbits,wm4.ring_buffer.h.33.ffd8153954783612f9c626df1ed9e770,comdat
ARM GAS  /tmp/ccAFBUIw.s 			page 179


 9123              	.Ldebug_macro19:
 9124 0000 0400     		.2byte	0x4
 9125 0002 00       		.byte	0
 9126 0003 05       		.byte	0x5
 9127 0004 21       		.uleb128 0x21
 9128 0005 D5510000 		.4byte	.LASF721
 9129 0009 05       		.byte	0x5
 9130 000a 39       		.uleb128 0x39
 9131 000b 4B520000 		.4byte	.LASF722
 9132 000f 05       		.byte	0x5
 9133 0010 3F       		.uleb128 0x3f
 9134 0011 12400000 		.4byte	.LASF723
 9135 0015 00       		.byte	0
 9136              		.section	.debug_macro,"G",%progbits,wm4.uart_11xx.h.98.fe68b709973730a4fba3f3ce60c5c312,comdat
 9137              	.Ldebug_macro20:
 9138 0000 0400     		.2byte	0x4
 9139 0002 00       		.byte	0
 9140 0003 05       		.byte	0x5
 9141 0004 62       		.uleb128 0x62
 9142 0005 012F0000 		.4byte	.LASF724
 9143 0009 05       		.byte	0x5
 9144 000a 67       		.uleb128 0x67
 9145 000b 7E530000 		.4byte	.LASF725
 9146 000f 05       		.byte	0x5
 9147 0010 68       		.uleb128 0x68
 9148 0011 8B710000 		.4byte	.LASF726
 9149 0015 05       		.byte	0x5
 9150 0016 6D       		.uleb128 0x6d
 9151 0017 50550000 		.4byte	.LASF727
 9152 001b 05       		.byte	0x5
 9153 001c 6E       		.uleb128 0x6e
 9154 001d 952C0000 		.4byte	.LASF728
 9155 0021 05       		.byte	0x5
 9156 0022 73       		.uleb128 0x73
 9157 0023 79550000 		.4byte	.LASF729
 9158 0027 05       		.byte	0x5
 9159 0028 74       		.uleb128 0x74
 9160 0029 8C4A0000 		.4byte	.LASF730
 9161 002d 05       		.byte	0x5
 9162 002e 75       		.uleb128 0x75
 9163 002f 87460000 		.4byte	.LASF731
 9164 0033 05       		.byte	0x5
 9165 0034 76       		.uleb128 0x76
 9166 0035 93580000 		.4byte	.LASF732
 9167 0039 05       		.byte	0x5
 9168 003a 77       		.uleb128 0x77
 9169 003b 10680000 		.4byte	.LASF733
 9170 003f 05       		.byte	0x5
 9171 0040 78       		.uleb128 0x78
 9172 0041 95180000 		.4byte	.LASF734
 9173 0045 05       		.byte	0x5
 9174 0046 79       		.uleb128 0x79
 9175 0047 02690000 		.4byte	.LASF735
 9176 004b 05       		.byte	0x5
 9177 004c 7A       		.uleb128 0x7a
 9178 004d 255B0000 		.4byte	.LASF736
 9179 0051 05       		.byte	0x5
ARM GAS  /tmp/ccAFBUIw.s 			page 180


 9180 0052 7B       		.uleb128 0x7b
 9181 0053 76190000 		.4byte	.LASF737
 9182 0057 05       		.byte	0x5
 9183 0058 7C       		.uleb128 0x7c
 9184 0059 B9090000 		.4byte	.LASF738
 9185 005d 05       		.byte	0x5
 9186 005e 8101     		.uleb128 0x81
 9187 0060 605D0000 		.4byte	.LASF739
 9188 0064 05       		.byte	0x5
 9189 0065 8201     		.uleb128 0x82
 9190 0067 B4320000 		.4byte	.LASF740
 9191 006b 05       		.byte	0x5
 9192 006c 8301     		.uleb128 0x83
 9193 006e 742D0000 		.4byte	.LASF741
 9194 0072 05       		.byte	0x5
 9195 0073 8401     		.uleb128 0x84
 9196 0075 C37B0000 		.4byte	.LASF742
 9197 0079 05       		.byte	0x5
 9198 007a 8501     		.uleb128 0x85
 9199 007c 69270000 		.4byte	.LASF743
 9200 0080 05       		.byte	0x5
 9201 0081 8801     		.uleb128 0x88
 9202 0083 221A0000 		.4byte	.LASF744
 9203 0087 05       		.byte	0x5
 9204 0088 8901     		.uleb128 0x89
 9205 008a 045D0000 		.4byte	.LASF745
 9206 008e 05       		.byte	0x5
 9207 008f 8A01     		.uleb128 0x8a
 9208 0091 9F6C0000 		.4byte	.LASF746
 9209 0095 05       		.byte	0x5
 9210 0096 8B01     		.uleb128 0x8b
 9211 0098 70340000 		.4byte	.LASF747
 9212 009c 05       		.byte	0x5
 9213 009d 8C01     		.uleb128 0x8c
 9214 009f B94F0000 		.4byte	.LASF748
 9215 00a3 05       		.byte	0x5
 9216 00a4 8D01     		.uleb128 0x8d
 9217 00a6 8C0B0000 		.4byte	.LASF749
 9218 00aa 05       		.byte	0x5
 9219 00ab 9201     		.uleb128 0x92
 9220 00ad 49180000 		.4byte	.LASF750
 9221 00b1 05       		.byte	0x5
 9222 00b2 9301     		.uleb128 0x93
 9223 00b4 E9670000 		.4byte	.LASF751
 9224 00b8 05       		.byte	0x5
 9225 00b9 9401     		.uleb128 0x94
 9226 00bb 56350000 		.4byte	.LASF752
 9227 00bf 05       		.byte	0x5
 9228 00c0 9501     		.uleb128 0x95
 9229 00c2 02670000 		.4byte	.LASF753
 9230 00c6 05       		.byte	0x5
 9231 00c7 9601     		.uleb128 0x96
 9232 00c9 00220000 		.4byte	.LASF754
 9233 00cd 05       		.byte	0x5
 9234 00ce 9801     		.uleb128 0x98
 9235 00d0 1A0E0000 		.4byte	.LASF755
 9236 00d4 05       		.byte	0x5
ARM GAS  /tmp/ccAFBUIw.s 			page 181


 9237 00d5 9B01     		.uleb128 0x9b
 9238 00d7 CC0B0000 		.4byte	.LASF756
 9239 00db 05       		.byte	0x5
 9240 00dc 9C01     		.uleb128 0x9c
 9241 00de A4100000 		.4byte	.LASF757
 9242 00e2 05       		.byte	0x5
 9243 00e3 9D01     		.uleb128 0x9d
 9244 00e5 872B0000 		.4byte	.LASF758
 9245 00e9 05       		.byte	0x5
 9246 00ea 9E01     		.uleb128 0x9e
 9247 00ec 133D0000 		.4byte	.LASF759
 9248 00f0 05       		.byte	0x5
 9249 00f1 A401     		.uleb128 0xa4
 9250 00f3 9A280000 		.4byte	.LASF760
 9251 00f7 05       		.byte	0x5
 9252 00f8 A501     		.uleb128 0xa5
 9253 00fa 8E610000 		.4byte	.LASF761
 9254 00fe 05       		.byte	0x5
 9255 00ff A601     		.uleb128 0xa6
 9256 0101 97060000 		.4byte	.LASF762
 9257 0105 05       		.byte	0x5
 9258 0106 A701     		.uleb128 0xa7
 9259 0108 8A2A0000 		.4byte	.LASF763
 9260 010c 05       		.byte	0x5
 9261 010d A801     		.uleb128 0xa8
 9262 010f 67330000 		.4byte	.LASF764
 9263 0113 05       		.byte	0x5
 9264 0114 AB01     		.uleb128 0xab
 9265 0116 FF220000 		.4byte	.LASF765
 9266 011a 05       		.byte	0x5
 9267 011b AC01     		.uleb128 0xac
 9268 011d 707B0000 		.4byte	.LASF766
 9269 0121 05       		.byte	0x5
 9270 0122 AD01     		.uleb128 0xad
 9271 0124 F73F0000 		.4byte	.LASF767
 9272 0128 05       		.byte	0x5
 9273 0129 B001     		.uleb128 0xb0
 9274 012b B7420000 		.4byte	.LASF768
 9275 012f 05       		.byte	0x5
 9276 0130 B101     		.uleb128 0xb1
 9277 0132 2A4D0000 		.4byte	.LASF769
 9278 0136 05       		.byte	0x5
 9279 0137 B201     		.uleb128 0xb2
 9280 0139 214F0000 		.4byte	.LASF770
 9281 013d 05       		.byte	0x5
 9282 013e B301     		.uleb128 0xb3
 9283 0140 B0680000 		.4byte	.LASF771
 9284 0144 05       		.byte	0x5
 9285 0145 B401     		.uleb128 0xb4
 9286 0147 9A420000 		.4byte	.LASF772
 9287 014b 05       		.byte	0x5
 9288 014c B501     		.uleb128 0xb5
 9289 014e B61F0000 		.4byte	.LASF773
 9290 0152 05       		.byte	0x5
 9291 0153 B601     		.uleb128 0xb6
 9292 0155 ED020000 		.4byte	.LASF774
 9293 0159 05       		.byte	0x5
ARM GAS  /tmp/ccAFBUIw.s 			page 182


 9294 015a B701     		.uleb128 0xb7
 9295 015c E81C0000 		.4byte	.LASF775
 9296 0160 05       		.byte	0x5
 9297 0161 B801     		.uleb128 0xb8
 9298 0163 C73F0000 		.4byte	.LASF776
 9299 0167 05       		.byte	0x5
 9300 0168 BD01     		.uleb128 0xbd
 9301 016a BD040000 		.4byte	.LASF777
 9302 016e 05       		.byte	0x5
 9303 016f BE01     		.uleb128 0xbe
 9304 0171 31390000 		.4byte	.LASF778
 9305 0175 05       		.byte	0x5
 9306 0176 BF01     		.uleb128 0xbf
 9307 0178 95170000 		.4byte	.LASF779
 9308 017c 05       		.byte	0x5
 9309 017d C001     		.uleb128 0xc0
 9310 017f BF100000 		.4byte	.LASF780
 9311 0183 05       		.byte	0x5
 9312 0184 C101     		.uleb128 0xc1
 9313 0186 07040000 		.4byte	.LASF781
 9314 018a 05       		.byte	0x5
 9315 018b C201     		.uleb128 0xc2
 9316 018d D90A0000 		.4byte	.LASF782
 9317 0191 05       		.byte	0x5
 9318 0192 C701     		.uleb128 0xc7
 9319 0194 45490000 		.4byte	.LASF783
 9320 0198 05       		.byte	0x5
 9321 0199 C801     		.uleb128 0xc8
 9322 019b 09730000 		.4byte	.LASF784
 9323 019f 05       		.byte	0x5
 9324 01a0 C901     		.uleb128 0xc9
 9325 01a2 341C0000 		.4byte	.LASF785
 9326 01a6 05       		.byte	0x5
 9327 01a7 CA01     		.uleb128 0xca
 9328 01a9 B0350000 		.4byte	.LASF786
 9329 01ad 05       		.byte	0x5
 9330 01ae CB01     		.uleb128 0xcb
 9331 01b0 EA220000 		.4byte	.LASF787
 9332 01b4 05       		.byte	0x5
 9333 01b5 CC01     		.uleb128 0xcc
 9334 01b7 CB2A0000 		.4byte	.LASF788
 9335 01bb 05       		.byte	0x5
 9336 01bc CD01     		.uleb128 0xcd
 9337 01be D6450000 		.4byte	.LASF789
 9338 01c2 05       		.byte	0x5
 9339 01c3 CE01     		.uleb128 0xce
 9340 01c5 CC6B0000 		.4byte	.LASF790
 9341 01c9 05       		.byte	0x5
 9342 01ca CF01     		.uleb128 0xcf
 9343 01cc 20070000 		.4byte	.LASF791
 9344 01d0 05       		.byte	0x5
 9345 01d1 D001     		.uleb128 0xd0
 9346 01d3 000D0000 		.4byte	.LASF792
 9347 01d7 05       		.byte	0x5
 9348 01d8 D101     		.uleb128 0xd1
 9349 01da F93C0000 		.4byte	.LASF793
 9350 01de 05       		.byte	0x5
ARM GAS  /tmp/ccAFBUIw.s 			page 183


 9351 01df D601     		.uleb128 0xd6
 9352 01e1 63450000 		.4byte	.LASF794
 9353 01e5 05       		.byte	0x5
 9354 01e6 D701     		.uleb128 0xd7
 9355 01e8 C86F0000 		.4byte	.LASF795
 9356 01ec 05       		.byte	0x5
 9357 01ed D801     		.uleb128 0xd8
 9358 01ef EC030000 		.4byte	.LASF796
 9359 01f3 05       		.byte	0x5
 9360 01f4 D901     		.uleb128 0xd9
 9361 01f6 D5410000 		.4byte	.LASF797
 9362 01fa 05       		.byte	0x5
 9363 01fb DA01     		.uleb128 0xda
 9364 01fd 377C0000 		.4byte	.LASF798
 9365 0201 05       		.byte	0x5
 9366 0202 DB01     		.uleb128 0xdb
 9367 0204 8D540000 		.4byte	.LASF799
 9368 0208 05       		.byte	0x5
 9369 0209 DC01     		.uleb128 0xdc
 9370 020b 1A5E0000 		.4byte	.LASF800
 9371 020f 05       		.byte	0x5
 9372 0210 DD01     		.uleb128 0xdd
 9373 0212 E27A0000 		.4byte	.LASF801
 9374 0216 05       		.byte	0x5
 9375 0217 DE01     		.uleb128 0xde
 9376 0219 A1410000 		.4byte	.LASF802
 9377 021d 05       		.byte	0x5
 9378 021e E301     		.uleb128 0xe3
 9379 0220 1F310000 		.4byte	.LASF803
 9380 0224 05       		.byte	0x5
 9381 0225 E401     		.uleb128 0xe4
 9382 0227 71430000 		.4byte	.LASF804
 9383 022b 05       		.byte	0x5
 9384 022c E501     		.uleb128 0xe5
 9385 022e EE5E0000 		.4byte	.LASF805
 9386 0232 05       		.byte	0x5
 9387 0233 E601     		.uleb128 0xe6
 9388 0235 5B490000 		.4byte	.LASF806
 9389 0239 05       		.byte	0x5
 9390 023a E701     		.uleb128 0xe7
 9391 023c D6260000 		.4byte	.LASF807
 9392 0240 05       		.byte	0x5
 9393 0241 E801     		.uleb128 0xe8
 9394 0243 A4040000 		.4byte	.LASF808
 9395 0247 05       		.byte	0x5
 9396 0248 ED01     		.uleb128 0xed
 9397 024a 2E3D0000 		.4byte	.LASF809
 9398 024e 05       		.byte	0x5
 9399 024f EE01     		.uleb128 0xee
 9400 0251 19110000 		.4byte	.LASF810
 9401 0255 05       		.byte	0x5
 9402 0256 EF01     		.uleb128 0xef
 9403 0258 CD300000 		.4byte	.LASF811
 9404 025c 05       		.byte	0x5
 9405 025d F001     		.uleb128 0xf0
 9406 025f 61170000 		.4byte	.LASF812
 9407 0263 05       		.byte	0x5
ARM GAS  /tmp/ccAFBUIw.s 			page 184


 9408 0264 F201     		.uleb128 0xf2
 9409 0266 8E370000 		.4byte	.LASF813
 9410 026a 05       		.byte	0x5
 9411 026b F301     		.uleb128 0xf3
 9412 026d 724D0000 		.4byte	.LASF814
 9413 0271 05       		.byte	0x5
 9414 0272 F601     		.uleb128 0xf6
 9415 0274 E9490000 		.4byte	.LASF815
 9416 0278 05       		.byte	0x5
 9417 0279 FB01     		.uleb128 0xfb
 9418 027b 461D0000 		.4byte	.LASF816
 9419 027f 05       		.byte	0x5
 9420 0280 FC01     		.uleb128 0xfc
 9421 0282 4B360000 		.4byte	.LASF817
 9422 0286 05       		.byte	0x5
 9423 0287 FD01     		.uleb128 0xfd
 9424 0289 D2760000 		.4byte	.LASF818
 9425 028d 05       		.byte	0x5
 9426 028e FE01     		.uleb128 0xfe
 9427 0290 0D1C0000 		.4byte	.LASF819
 9428 0294 05       		.byte	0x5
 9429 0295 FF01     		.uleb128 0xff
 9430 0297 9C0E0000 		.4byte	.LASF820
 9431 029b 05       		.byte	0x5
 9432 029c 8402     		.uleb128 0x104
 9433 029e 743D0000 		.4byte	.LASF821
 9434 02a2 05       		.byte	0x5
 9435 02a3 8902     		.uleb128 0x109
 9436 02a5 F1410000 		.4byte	.LASF822
 9437 02a9 05       		.byte	0x5
 9438 02aa 8A02     		.uleb128 0x10a
 9439 02ac E7700000 		.4byte	.LASF823
 9440 02b0 05       		.byte	0x5
 9441 02b1 8B02     		.uleb128 0x10b
 9442 02b3 37310000 		.4byte	.LASF824
 9443 02b7 05       		.byte	0x5
 9444 02b8 8C02     		.uleb128 0x10c
 9445 02ba AF560000 		.4byte	.LASF825
 9446 02be 05       		.byte	0x5
 9447 02bf 8D02     		.uleb128 0x10d
 9448 02c1 88310000 		.4byte	.LASF826
 9449 02c5 05       		.byte	0x5
 9450 02c6 9202     		.uleb128 0x112
 9451 02c8 662B0000 		.4byte	.LASF827
 9452 02cc 05       		.byte	0x5
 9453 02cd 9302     		.uleb128 0x113
 9454 02cf F3630000 		.4byte	.LASF828
 9455 02d3 05       		.byte	0x5
 9456 02d4 9402     		.uleb128 0x114
 9457 02d6 006B0000 		.4byte	.LASF829
 9458 02da 05       		.byte	0x5
 9459 02db 9902     		.uleb128 0x119
 9460 02dd 600F0000 		.4byte	.LASF830
 9461 02e1 05       		.byte	0x5
 9462 02e2 9A02     		.uleb128 0x11a
 9463 02e4 31180000 		.4byte	.LASF831
 9464 02e8 05       		.byte	0x5
ARM GAS  /tmp/ccAFBUIw.s 			page 185


 9465 02e9 9F02     		.uleb128 0x11f
 9466 02eb 825B0000 		.4byte	.LASF832
 9467 02ef 05       		.byte	0x5
 9468 02f0 A002     		.uleb128 0x120
 9469 02f2 0A380000 		.4byte	.LASF833
 9470 02f6 05       		.byte	0x5
 9471 02f7 A102     		.uleb128 0x121
 9472 02f9 1C1F0000 		.4byte	.LASF834
 9473 02fd 05       		.byte	0x5
 9474 02fe A202     		.uleb128 0x122
 9475 0300 AB5B0000 		.4byte	.LASF835
 9476 0304 05       		.byte	0x5
 9477 0305 A302     		.uleb128 0x123
 9478 0307 28490000 		.4byte	.LASF836
 9479 030b 05       		.byte	0x5
 9480 030c A402     		.uleb128 0x124
 9481 030e 16780000 		.4byte	.LASF837
 9482 0312 05       		.byte	0x5
 9483 0313 A502     		.uleb128 0x125
 9484 0315 33540000 		.4byte	.LASF838
 9485 0319 00       		.byte	0
 9486              		.section	.debug_macro,"G",%progbits,wm4.wwdt_11xx.h.33.5768344983cb842df69cc91ea86cabb0,comdat
 9487              	.Ldebug_macro21:
 9488 0000 0400     		.2byte	0x4
 9489 0002 00       		.byte	0
 9490 0003 05       		.byte	0x5
 9491 0004 21       		.uleb128 0x21
 9492 0005 42100000 		.4byte	.LASF839
 9493 0009 05       		.byte	0x5
 9494 000a 4B       		.uleb128 0x4b
 9495 000b 24650000 		.4byte	.LASF840
 9496 000f 05       		.byte	0x5
 9497 0010 4D       		.uleb128 0x4d
 9498 0011 47010000 		.4byte	.LASF841
 9499 0015 05       		.byte	0x5
 9500 0016 4F       		.uleb128 0x4f
 9501 0017 2D570000 		.4byte	.LASF842
 9502 001b 05       		.byte	0x5
 9503 001c 51       		.uleb128 0x51
 9504 001d 3D3C0000 		.4byte	.LASF843
 9505 0021 05       		.byte	0x5
 9506 0022 53       		.uleb128 0x53
 9507 0023 39770000 		.4byte	.LASF844
 9508 0027 05       		.byte	0x5
 9509 0028 55       		.uleb128 0x55
 9510 0029 4C420000 		.4byte	.LASF845
 9511 002d 00       		.byte	0
 9512              		.section	.debug_macro,"G",%progbits,wm4.ssp_11xx.h.33.af054d3d65f4cb0c078be40bb872ec37,comdat
 9513              	.Ldebug_macro22:
 9514 0000 0400     		.2byte	0x4
 9515 0002 00       		.byte	0
 9516 0003 05       		.byte	0x5
 9517 0004 21       		.uleb128 0x21
 9518 0005 AD2C0000 		.4byte	.LASF846
 9519 0009 05       		.byte	0x5
 9520 000a 40       		.uleb128 0x40
 9521 000b 924B0000 		.4byte	.LASF847
ARM GAS  /tmp/ccAFBUIw.s 			page 186


 9522 000f 05       		.byte	0x5
 9523 0010 42       		.uleb128 0x42
 9524 0011 FA060000 		.4byte	.LASF848
 9525 0015 05       		.byte	0x5
 9526 0016 44       		.uleb128 0x44
 9527 0017 D7290000 		.4byte	.LASF849
 9528 001b 05       		.byte	0x5
 9529 001c 46       		.uleb128 0x46
 9530 001d FF270000 		.4byte	.LASF850
 9531 0021 05       		.byte	0x5
 9532 0022 49       		.uleb128 0x49
 9533 0023 503F0000 		.4byte	.LASF851
 9534 0027 05       		.byte	0x5
 9535 0028 4A       		.uleb128 0x4a
 9536 0029 18090000 		.4byte	.LASF852
 9537 002d 05       		.byte	0x5
 9538 002e 4D       		.uleb128 0x4d
 9539 002f AE210000 		.4byte	.LASF853
 9540 0033 05       		.byte	0x5
 9541 0034 4E       		.uleb128 0x4e
 9542 0035 256F0000 		.4byte	.LASF854
 9543 0039 05       		.byte	0x5
 9544 003a 51       		.uleb128 0x51
 9545 003b 4B1A0000 		.4byte	.LASF855
 9546 003f 05       		.byte	0x5
 9547 0040 53       		.uleb128 0x53
 9548 0041 51110000 		.4byte	.LASF856
 9549 0045 05       		.byte	0x5
 9550 0046 55       		.uleb128 0x55
 9551 0047 51110000 		.4byte	.LASF856
 9552 004b 05       		.byte	0x5
 9553 004c 58       		.uleb128 0x58
 9554 004d 4B1A0000 		.4byte	.LASF855
 9555 0051 05       		.byte	0x5
 9556 0052 5F       		.uleb128 0x5f
 9557 0053 3C510000 		.4byte	.LASF857
 9558 0057 05       		.byte	0x5
 9559 0058 61       		.uleb128 0x61
 9560 0059 CF1A0000 		.4byte	.LASF858
 9561 005d 05       		.byte	0x5
 9562 005e 63       		.uleb128 0x63
 9563 005f 32000000 		.4byte	.LASF859
 9564 0063 05       		.byte	0x5
 9565 0064 64       		.uleb128 0x64
 9566 0065 4C390000 		.4byte	.LASF860
 9567 0069 05       		.byte	0x5
 9568 006a 67       		.uleb128 0x67
 9569 006b 194C0000 		.4byte	.LASF861
 9570 006f 05       		.byte	0x5
 9571 0070 69       		.uleb128 0x69
 9572 0071 E4780000 		.4byte	.LASF862
 9573 0075 05       		.byte	0x5
 9574 0076 6C       		.uleb128 0x6c
 9575 0077 D6770000 		.4byte	.LASF863
 9576 007b 05       		.byte	0x5
 9577 007c 72       		.uleb128 0x72
 9578 007d 951F0000 		.4byte	.LASF864
ARM GAS  /tmp/ccAFBUIw.s 			page 187


 9579 0081 05       		.byte	0x5
 9580 0082 79       		.uleb128 0x79
 9581 0083 DD6A0000 		.4byte	.LASF865
 9582 0087 05       		.byte	0x5
 9583 0088 7C       		.uleb128 0x7c
 9584 0089 65070000 		.4byte	.LASF866
 9585 008d 05       		.byte	0x5
 9586 008e C503     		.uleb128 0x1c5
 9587 0090 415A0000 		.4byte	.LASF867
 9588 0094 05       		.byte	0x5
 9589 0095 C603     		.uleb128 0x1c6
 9590 0097 09330000 		.4byte	.LASF868
 9591 009b 05       		.byte	0x5
 9592 009c CF03     		.uleb128 0x1cf
 9593 009e 41190000 		.4byte	.LASF869
 9594 00a2 05       		.byte	0x5
 9595 00a3 D003     		.uleb128 0x1d0
 9596 00a5 491C0000 		.4byte	.LASF870
 9597 00a9 05       		.byte	0x5
 9598 00aa D303     		.uleb128 0x1d3
 9599 00ac 227A0000 		.4byte	.LASF871
 9600 00b0 05       		.byte	0x5
 9601 00b1 D403     		.uleb128 0x1d4
 9602 00b3 7F3F0000 		.4byte	.LASF872
 9603 00b7 00       		.byte	0
 9604              		.section	.debug_macro,"G",%progbits,wm4.error.h.38.ae74fe1dd9d19c80c505f1fda144fce8,comdat
 9605              	.Ldebug_macro23:
 9606 0000 0400     		.2byte	0x4
 9607 0002 00       		.byte	0
 9608 0003 05       		.byte	0x5
 9609 0004 26       		.uleb128 0x26
 9610 0005 BF500000 		.4byte	.LASF874
 9611 0009 05       		.byte	0x5
 9612 000a 8401     		.uleb128 0x84
 9613 000c DB070000 		.4byte	.LASF875
 9614 0010 00       		.byte	0
 9615              		.section	.debug_macro,"G",%progbits,wm4.adc_11xx.h.33.6ce7433ac6b30df70a6993d01dbd513f,comdat
 9616              	.Ldebug_macro24:
 9617 0000 0400     		.2byte	0x4
 9618 0002 00       		.byte	0
 9619 0003 05       		.byte	0x5
 9620 0004 21       		.uleb128 0x21
 9621 0005 791A0000 		.4byte	.LASF876
 9622 0009 05       		.byte	0x5
 9623 000a 2F       		.uleb128 0x2f
 9624 000b CC700000 		.4byte	.LASF877
 9625 000f 05       		.byte	0x5
 9626 0010 40       		.uleb128 0x40
 9627 0011 C2710000 		.4byte	.LASF878
 9628 0015 05       		.byte	0x5
 9629 0016 41       		.uleb128 0x41
 9630 0017 B3490000 		.4byte	.LASF879
 9631 001b 05       		.byte	0x5
 9632 001c 43       		.uleb128 0x43
 9633 001d BA400000 		.4byte	.LASF880
 9634 0021 05       		.byte	0x5
 9635 0022 44       		.uleb128 0x44
ARM GAS  /tmp/ccAFBUIw.s 			page 188


 9636 0023 D7400000 		.4byte	.LASF881
 9637 0027 05       		.byte	0x5
 9638 0028 45       		.uleb128 0x45
 9639 0029 633B0000 		.4byte	.LASF882
 9640 002d 05       		.byte	0x5
 9641 002e 46       		.uleb128 0x46
 9642 002f DE7B0000 		.4byte	.LASF883
 9643 0033 05       		.byte	0x5
 9644 0034 47       		.uleb128 0x47
 9645 0035 68780000 		.4byte	.LASF884
 9646 0039 05       		.byte	0x5
 9647 003a 48       		.uleb128 0x48
 9648 003b 29750000 		.4byte	.LASF885
 9649 003f 05       		.byte	0x5
 9650 0040 49       		.uleb128 0x49
 9651 0041 905F0000 		.4byte	.LASF886
 9652 0045 05       		.byte	0x5
 9653 0046 4A       		.uleb128 0x4a
 9654 0047 90190000 		.4byte	.LASF887
 9655 004b 05       		.byte	0x5
 9656 004c 4B       		.uleb128 0x4b
 9657 004d DE200000 		.4byte	.LASF888
 9658 0051 05       		.byte	0x5
 9659 0052 4C       		.uleb128 0x4c
 9660 0053 D8430000 		.4byte	.LASF889
 9661 0057 05       		.byte	0x5
 9662 0058 4D       		.uleb128 0x4d
 9663 0059 69160000 		.4byte	.LASF890
 9664 005d 05       		.byte	0x5
 9665 005e 4E       		.uleb128 0x4e
 9666 005f 752E0000 		.4byte	.LASF891
 9667 0063 05       		.byte	0x5
 9668 0064 4F       		.uleb128 0x4f
 9669 0065 643C0000 		.4byte	.LASF892
 9670 0069 05       		.byte	0x5
 9671 006a 50       		.uleb128 0x50
 9672 006b 6F5F0000 		.4byte	.LASF893
 9673 006f 05       		.byte	0x5
 9674 0070 51       		.uleb128 0x51
 9675 0071 4B530000 		.4byte	.LASF894
 9676 0075 05       		.byte	0x5
 9677 0076 52       		.uleb128 0x52
 9678 0077 B7590000 		.4byte	.LASF895
 9679 007b 00       		.byte	0
 9680              		.section	.debug_macro,"G",%progbits,wm4.i2c_11xx.h.33.2b506d1350e00a8c26e8bf006a5f9390,comdat
 9681              	.Ldebug_macro25:
 9682 0000 0400     		.2byte	0x4
 9683 0002 00       		.byte	0
 9684 0003 05       		.byte	0x5
 9685 0004 21       		.uleb128 0x21
 9686 0005 BD6B0000 		.4byte	.LASF897
 9687 0009 05       		.byte	0x5
 9688 000a 46       		.uleb128 0x46
 9689 000b E70D0000 		.4byte	.LASF898
 9690 000f 05       		.byte	0x5
 9691 0010 47       		.uleb128 0x47
 9692 0011 FD560000 		.4byte	.LASF899
ARM GAS  /tmp/ccAFBUIw.s 			page 189


 9693 0015 05       		.byte	0x5
 9694 0016 48       		.uleb128 0x48
 9695 0017 401B0000 		.4byte	.LASF900
 9696 001b 05       		.byte	0x5
 9697 001c 49       		.uleb128 0x49
 9698 001d 540C0000 		.4byte	.LASF901
 9699 0021 05       		.byte	0x5
 9700 0022 4E       		.uleb128 0x4e
 9701 0023 9A680000 		.4byte	.LASF902
 9702 0027 05       		.byte	0x5
 9703 0028 53       		.uleb128 0x53
 9704 0029 6F310000 		.4byte	.LASF903
 9705 002d 05       		.byte	0x5
 9706 002e 54       		.uleb128 0x54
 9707 002f C00A0000 		.4byte	.LASF904
 9708 0033 05       		.byte	0x5
 9709 0034 55       		.uleb128 0x55
 9710 0035 00000000 		.4byte	.LASF905
 9711 0039 05       		.byte	0x5
 9712 003a 56       		.uleb128 0x56
 9713 003b 382F0000 		.4byte	.LASF906
 9714 003f 05       		.byte	0x5
 9715 0040 57       		.uleb128 0x57
 9716 0041 670E0000 		.4byte	.LASF907
 9717 0045 05       		.byte	0x5
 9718 0046 5C       		.uleb128 0x5c
 9719 0047 60770000 		.4byte	.LASF908
 9720 004b 05       		.byte	0x5
 9721 004c 5D       		.uleb128 0x5d
 9722 004d E20B0000 		.4byte	.LASF909
 9723 0051 05       		.byte	0x5
 9724 0052 5E       		.uleb128 0x5e
 9725 0053 F6520000 		.4byte	.LASF910
 9726 0057 05       		.byte	0x5
 9727 0058 5F       		.uleb128 0x5f
 9728 0059 370C0000 		.4byte	.LASF911
 9729 005d 05       		.byte	0x5
 9730 005e 60       		.uleb128 0x60
 9731 005f 97260000 		.4byte	.LASF912
 9732 0063 05       		.byte	0x5
 9733 0064 65       		.uleb128 0x65
 9734 0065 7C4B0000 		.4byte	.LASF913
 9735 0069 05       		.byte	0x5
 9736 006a 66       		.uleb128 0x66
 9737 006b CE520000 		.4byte	.LASF914
 9738 006f 05       		.byte	0x5
 9739 0070 67       		.uleb128 0x67
 9740 0071 3E410000 		.4byte	.LASF915
 9741 0075 05       		.byte	0x5
 9742 0076 68       		.uleb128 0x68
 9743 0077 B7200000 		.4byte	.LASF916
 9744 007b 05       		.byte	0x5
 9745 007c 69       		.uleb128 0x69
 9746 007d A64C0000 		.4byte	.LASF917
 9747 0081 05       		.byte	0x5
 9748 0082 6E       		.uleb128 0x6e
 9749 0083 F73D0000 		.4byte	.LASF918
ARM GAS  /tmp/ccAFBUIw.s 			page 190


 9750 0087 05       		.byte	0x5
 9751 0088 6F       		.uleb128 0x6f
 9752 0089 9C4F0000 		.4byte	.LASF919
 9753 008d 05       		.byte	0x5
 9754 008e 74       		.uleb128 0x74
 9755 008f CD240000 		.4byte	.LASF920
 9756 0093 05       		.byte	0x5
 9757 0094 75       		.uleb128 0x75
 9758 0095 FA080000 		.4byte	.LASF921
 9759 0099 05       		.byte	0x5
 9760 009a 7A       		.uleb128 0x7a
 9761 009b 6D4A0000 		.4byte	.LASF922
 9762 009f 05       		.byte	0x5
 9763 00a0 7B       		.uleb128 0x7b
 9764 00a1 20190000 		.4byte	.LASF923
 9765 00a5 05       		.byte	0x5
 9766 00a6 7C       		.uleb128 0x7c
 9767 00a7 E4250000 		.4byte	.LASF924
 9768 00ab 05       		.byte	0x5
 9769 00ac 7D       		.uleb128 0x7d
 9770 00ad 77420000 		.4byte	.LASF925
 9771 00b1 05       		.byte	0x5
 9772 00b2 7E       		.uleb128 0x7e
 9773 00b3 AC300000 		.4byte	.LASF926
 9774 00b7 05       		.byte	0x5
 9775 00b8 7F       		.uleb128 0x7f
 9776 00b9 1A510000 		.4byte	.LASF927
 9777 00bd 05       		.byte	0x5
 9778 00be 8001     		.uleb128 0x80
 9779 00c0 041B0000 		.4byte	.LASF928
 9780 00c4 05       		.byte	0x5
 9781 00c5 8501     		.uleb128 0x85
 9782 00c7 36020000 		.4byte	.LASF929
 9783 00cb 05       		.byte	0x5
 9784 00cc 8601     		.uleb128 0x86
 9785 00ce 61510000 		.4byte	.LASF930
 9786 00d2 05       		.byte	0x5
 9787 00d3 8701     		.uleb128 0x87
 9788 00d5 132D0000 		.4byte	.LASF931
 9789 00d9 05       		.byte	0x5
 9790 00da 8801     		.uleb128 0x88
 9791 00dc 41610000 		.4byte	.LASF932
 9792 00e0 05       		.byte	0x5
 9793 00e1 8901     		.uleb128 0x89
 9794 00e3 B9140000 		.4byte	.LASF933
 9795 00e7 05       		.byte	0x5
 9796 00e8 8A01     		.uleb128 0x8a
 9797 00ea A30C0000 		.4byte	.LASF934
 9798 00ee 05       		.byte	0x5
 9799 00ef 8B01     		.uleb128 0x8b
 9800 00f1 52100000 		.4byte	.LASF935
 9801 00f5 05       		.byte	0x5
 9802 00f6 9001     		.uleb128 0x90
 9803 00f8 992E0000 		.4byte	.LASF936
 9804 00fc 05       		.byte	0x5
 9805 00fd 9101     		.uleb128 0x91
 9806 00ff C3750000 		.4byte	.LASF937
ARM GAS  /tmp/ccAFBUIw.s 			page 191


 9807 0103 05       		.byte	0x5
 9808 0104 9301     		.uleb128 0x93
 9809 0106 EA4B0000 		.4byte	.LASF938
 9810 010a 05       		.byte	0x5
 9811 010b 9401     		.uleb128 0x94
 9812 010d E94E0000 		.4byte	.LASF939
 9813 0111 05       		.byte	0x5
 9814 0112 9601     		.uleb128 0x96
 9815 0114 45260000 		.4byte	.LASF940
 9816 0118 05       		.byte	0x5
 9817 0119 9701     		.uleb128 0x97
 9818 011b 790C0000 		.4byte	.LASF941
 9819 011f 05       		.byte	0x5
 9820 0120 9801     		.uleb128 0x98
 9821 0122 3B130000 		.4byte	.LASF942
 9822 0126 05       		.byte	0x5
 9823 0127 9901     		.uleb128 0x99
 9824 0129 37120000 		.4byte	.LASF943
 9825 012d 05       		.byte	0x5
 9826 012e 9A01     		.uleb128 0x9a
 9827 0130 51300000 		.4byte	.LASF944
 9828 0134 05       		.byte	0x5
 9829 0135 A001     		.uleb128 0xa0
 9830 0137 300D0000 		.4byte	.LASF945
 9831 013b 05       		.byte	0x5
 9832 013c A101     		.uleb128 0xa1
 9833 013e C14E0000 		.4byte	.LASF946
 9834 0142 05       		.byte	0x5
 9835 0143 A301     		.uleb128 0xa3
 9836 0145 B0170000 		.4byte	.LASF947
 9837 0149 05       		.byte	0x5
 9838 014a A401     		.uleb128 0xa4
 9839 014c 47500000 		.4byte	.LASF948
 9840 0150 05       		.byte	0x5
 9841 0151 A501     		.uleb128 0xa5
 9842 0153 89700000 		.4byte	.LASF949
 9843 0157 05       		.byte	0x5
 9844 0158 A601     		.uleb128 0xa6
 9845 015a FF300000 		.4byte	.LASF950
 9846 015e 05       		.byte	0x5
 9847 015f AB01     		.uleb128 0xab
 9848 0161 4C330000 		.4byte	.LASF951
 9849 0165 05       		.byte	0x5
 9850 0166 AC01     		.uleb128 0xac
 9851 0168 7D6B0000 		.4byte	.LASF952
 9852 016c 05       		.byte	0x5
 9853 016d B201     		.uleb128 0xb2
 9854 016f 6C000000 		.4byte	.LASF953
 9855 0173 05       		.byte	0x5
 9856 0174 B301     		.uleb128 0xb3
 9857 0176 1E730000 		.4byte	.LASF954
 9858 017a 05       		.byte	0x5
 9859 017b B401     		.uleb128 0xb4
 9860 017d 32440000 		.4byte	.LASF955
 9861 0181 05       		.byte	0x5
 9862 0182 B501     		.uleb128 0xb5
 9863 0184 FF2D0000 		.4byte	.LASF956
ARM GAS  /tmp/ccAFBUIw.s 			page 192


 9864 0188 05       		.byte	0x5
 9865 0189 BA01     		.uleb128 0xba
 9866 018b 11760000 		.4byte	.LASF957
 9867 018f 05       		.byte	0x5
 9868 0190 BF01     		.uleb128 0xbf
 9869 0192 14660000 		.4byte	.LASF958
 9870 0196 05       		.byte	0x5
 9871 0197 C001     		.uleb128 0xc0
 9872 0199 DC350000 		.4byte	.LASF959
 9873 019d 05       		.byte	0x5
 9874 019e C501     		.uleb128 0xc5
 9875 01a0 A4570000 		.4byte	.LASF960
 9876 01a4 05       		.byte	0x5
 9877 01a5 CA01     		.uleb128 0xca
 9878 01a7 52720000 		.4byte	.LASF961
 9879 01ab 05       		.byte	0x5
 9880 01ac CF01     		.uleb128 0xcf
 9881 01ae 0D420000 		.4byte	.LASF962
 9882 01b2 05       		.byte	0x5
 9883 01b3 D401     		.uleb128 0xd4
 9884 01b5 D05A0000 		.4byte	.LASF963
 9885 01b9 05       		.byte	0x5
 9886 01ba D501     		.uleb128 0xd5
 9887 01bc 4D7C0000 		.4byte	.LASF964
 9888 01c0 05       		.byte	0x5
 9889 01c1 D601     		.uleb128 0xd6
 9890 01c3 44400000 		.4byte	.LASF965
 9891 01c7 05       		.byte	0x5
 9892 01c8 DB01     		.uleb128 0xdb
 9893 01ca FA530000 		.4byte	.LASF966
 9894 01ce 05       		.byte	0x5
 9895 01cf DC01     		.uleb128 0xdc
 9896 01d1 CB5B0000 		.4byte	.LASF967
 9897 01d5 05       		.byte	0x5
 9898 01d6 DD01     		.uleb128 0xdd
 9899 01d8 34010000 		.4byte	.LASF968
 9900 01dc 05       		.byte	0x5
 9901 01dd DE01     		.uleb128 0xde
 9902 01df 6F390000 		.4byte	.LASF969
 9903 01e3 05       		.byte	0x5
 9904 01e4 DF01     		.uleb128 0xdf
 9905 01e6 BE5A0000 		.4byte	.LASF970
 9906 01ea 05       		.byte	0x5
 9907 01eb E001     		.uleb128 0xe0
 9908 01ed D5280000 		.4byte	.LASF971
 9909 01f1 05       		.byte	0x5
 9910 01f2 E101     		.uleb128 0xe1
 9911 01f4 9A680000 		.4byte	.LASF902
 9912 01f8 05       		.byte	0x5
 9913 01f9 E301     		.uleb128 0xe3
 9914 01fb 686B0000 		.4byte	.LASF972
 9915 01ff 05       		.byte	0x5
 9916 0200 E401     		.uleb128 0xe4
 9917 0202 EF150000 		.4byte	.LASF973
 9918 0206 05       		.byte	0x5
 9919 0207 E601     		.uleb128 0xe6
 9920 0209 0E2B0000 		.4byte	.LASF974
ARM GAS  /tmp/ccAFBUIw.s 			page 193


 9921 020d 05       		.byte	0x5
 9922 020e EB01     		.uleb128 0xeb
 9923 0210 EA500000 		.4byte	.LASF975
 9924 0214 05       		.byte	0x5
 9925 0215 EC01     		.uleb128 0xec
 9926 0217 53200000 		.4byte	.LASF976
 9927 021b 00       		.byte	0
 9928              		.section	.debug_macro,"G",%progbits,wm4.ccand_11xx.h.33.99627f4b529fecdc77b0877ab6fe5266,comdat
 9929              	.Ldebug_macro26:
 9930 0000 0400     		.2byte	0x4
 9931 0002 00       		.byte	0
 9932 0003 05       		.byte	0x5
 9933 0004 21       		.uleb128 0x21
 9934 0005 9A000000 		.4byte	.LASF977
 9935 0009 05       		.byte	0x5
 9936 000a 6E       		.uleb128 0x6e
 9937 000b D22D0000 		.4byte	.LASF978
 9938 000f 05       		.byte	0x5
 9939 0010 6F       		.uleb128 0x6f
 9940 0011 99250000 		.4byte	.LASF979
 9941 0015 05       		.byte	0x5
 9942 0016 70       		.uleb128 0x70
 9943 0017 9E400000 		.4byte	.LASF980
 9944 001b 05       		.byte	0x5
 9945 001c 71       		.uleb128 0x71
 9946 001d C8780000 		.4byte	.LASF981
 9947 0021 05       		.byte	0x5
 9948 0022 72       		.uleb128 0x72
 9949 0023 15180000 		.4byte	.LASF982
 9950 0027 05       		.byte	0x5
 9951 0028 73       		.uleb128 0x73
 9952 0029 F90E0000 		.4byte	.LASF983
 9953 002d 05       		.byte	0x5
 9954 002e 74       		.uleb128 0x74
 9955 002f 51790000 		.4byte	.LASF984
 9956 0033 05       		.byte	0x5
 9957 0034 75       		.uleb128 0x75
 9958 0035 522F0000 		.4byte	.LASF985
 9959 0039 05       		.byte	0x5
 9960 003a 76       		.uleb128 0x76
 9961 003b E7730000 		.4byte	.LASF986
 9962 003f 05       		.byte	0x5
 9963 0040 77       		.uleb128 0x77
 9964 0041 BB450000 		.4byte	.LASF987
 9965 0045 05       		.byte	0x5
 9966 0046 7C       		.uleb128 0x7c
 9967 0047 CF190000 		.4byte	.LASF988
 9968 004b 05       		.byte	0x5
 9969 004c 7D       		.uleb128 0x7d
 9970 004d 95270000 		.4byte	.LASF989
 9971 0051 05       		.byte	0x5
 9972 0052 7E       		.uleb128 0x7e
 9973 0053 E6660000 		.4byte	.LASF990
 9974 0057 05       		.byte	0x5
 9975 0058 7F       		.uleb128 0x7f
 9976 0059 75790000 		.4byte	.LASF991
 9977 005d 05       		.byte	0x5
ARM GAS  /tmp/ccAFBUIw.s 			page 194


 9978 005e 9101     		.uleb128 0x91
 9979 0060 25210000 		.4byte	.LASF992
 9980 0064 05       		.byte	0x5
 9981 0065 9201     		.uleb128 0x92
 9982 0067 A66F0000 		.4byte	.LASF993
 9983 006b 05       		.byte	0x5
 9984 006c 9301     		.uleb128 0x93
 9985 006e 34040000 		.4byte	.LASF994
 9986 0072 05       		.byte	0x5
 9987 0073 9401     		.uleb128 0x94
 9988 0075 DD0C0000 		.4byte	.LASF995
 9989 0079 05       		.byte	0x5
 9990 007a 9501     		.uleb128 0x95
 9991 007c 0C570000 		.4byte	.LASF996
 9992 0080 05       		.byte	0x5
 9993 0081 9601     		.uleb128 0x96
 9994 0083 F4260000 		.4byte	.LASF997
 9995 0087 05       		.byte	0x5
 9996 0088 9701     		.uleb128 0x97
 9997 008a 93760000 		.4byte	.LASF998
 9998 008e 05       		.byte	0x5
 9999 008f 9801     		.uleb128 0x98
 10000 0091 A22B0000 		.4byte	.LASF999
 10001 0095 05       		.byte	0x5
 10002 0096 9901     		.uleb128 0x99
 10003 0098 8E560000 		.4byte	.LASF1000
 10004 009c 05       		.byte	0x5
 10005 009d 9A01     		.uleb128 0x9a
 10006 009f 7C130000 		.4byte	.LASF1001
 10007 00a3 05       		.byte	0x5
 10008 00a4 9B01     		.uleb128 0x9b
 10009 00a6 FB340000 		.4byte	.LASF1002
 10010 00aa 05       		.byte	0x5
 10011 00ab 9C01     		.uleb128 0x9c
 10012 00ad F91E0000 		.4byte	.LASF1003
 10013 00b1 05       		.byte	0x5
 10014 00b2 9D01     		.uleb128 0x9d
 10015 00b4 48780000 		.4byte	.LASF1004
 10016 00b8 05       		.byte	0x5
 10017 00b9 9E01     		.uleb128 0x9e
 10018 00bb B8510000 		.4byte	.LASF1005
 10019 00bf 05       		.byte	0x5
 10020 00c0 9F01     		.uleb128 0x9f
 10021 00c2 D8460000 		.4byte	.LASF1006
 10022 00c6 05       		.byte	0x5
 10023 00c7 A901     		.uleb128 0xa9
 10024 00c9 545F0000 		.4byte	.LASF1007
 10025 00cd 05       		.byte	0x5
 10026 00ce AA01     		.uleb128 0xaa
 10027 00d0 A0530000 		.4byte	.LASF1008
 10028 00d4 05       		.byte	0x5
 10029 00d5 AB01     		.uleb128 0xab
 10030 00d7 92220000 		.4byte	.LASF1009
 10031 00db 05       		.byte	0x5
 10032 00dc AC01     		.uleb128 0xac
 10033 00de 944E0000 		.4byte	.LASF1010
 10034 00e2 05       		.byte	0x5
ARM GAS  /tmp/ccAFBUIw.s 			page 195


 10035 00e3 AD01     		.uleb128 0xad
 10036 00e5 F3130000 		.4byte	.LASF1011
 10037 00e9 05       		.byte	0x5
 10038 00ea AE01     		.uleb128 0xae
 10039 00ec 753A0000 		.4byte	.LASF1012
 10040 00f0 05       		.byte	0x5
 10041 00f1 AF01     		.uleb128 0xaf
 10042 00f3 5E480000 		.4byte	.LASF1013
 10043 00f7 05       		.byte	0x5
 10044 00f8 C401     		.uleb128 0xc4
 10045 00fa 7D180000 		.4byte	.LASF1014
 10046 00fe 05       		.byte	0x5
 10047 00ff C501     		.uleb128 0xc5
 10048 0101 D4640000 		.4byte	.LASF1015
 10049 0105 05       		.byte	0x5
 10050 0106 C601     		.uleb128 0xc6
 10051 0108 49590000 		.4byte	.LASF1016
 10052 010c 05       		.byte	0x5
 10053 010d C901     		.uleb128 0xc9
 10054 010f BF440000 		.4byte	.LASF1017
 10055 0113 05       		.byte	0x5
 10056 0114 CA01     		.uleb128 0xca
 10057 0116 5E3E0000 		.4byte	.LASF1018
 10058 011a 05       		.byte	0x5
 10059 011b CB01     		.uleb128 0xcb
 10060 011d B5250000 		.4byte	.LASF1019
 10061 0121 05       		.byte	0x5
 10062 0122 E501     		.uleb128 0xe5
 10063 0124 C6270000 		.4byte	.LASF1020
 10064 0128 00       		.byte	0
 10065              		.section	.debug_line,"",%progbits
 10066              	.Ldebug_line0:
 10067 0000 5A060000 		.section	.debug_str,"MS",%progbits,1
 10067      0200CD02 
 10067      00000201 
 10067      FB0E0D00 
 10067      01010101 
 10068              	.LASF905:
 10069 0000 4932435F 		.ascii	"I2C_I2CONSET_STO ((0x10))\000"
 10069      4932434F 
 10069      4E534554 
 10069      5F53544F 
 10069      20282830 
 10070              	.LASF456:
 10071 001a 57494E54 		.ascii	"WINT_MIN (__WINT_MIN__)\000"
 10071      5F4D494E 
 10071      20285F5F 
 10071      57494E54 
 10071      5F4D494E 
 10072              	.LASF859:
 10073 0032 5353505F 		.ascii	"SSP_CR1_SLAVE_EN ((uint32_t) (1 << 2))\000"
 10073      4352315F 
 10073      534C4156 
 10073      455F454E 
 10073      20282875 
 10074              	.LASF159:
 10075 0059 5F5F4445 		.ascii	"__DECIMAL_DIG__ 17\000"
ARM GAS  /tmp/ccAFBUIw.s 			page 196


 10075      43494D41 
 10075      4C5F4449 
 10075      475F5F20 
 10075      313700
 10076              	.LASF953:
 10077 006c 4932435F 		.ascii	"I2C_I2MMCTRL_MM_ENA ((1 << 0))\000"
 10077      49324D4D 
 10077      4354524C 
 10077      5F4D4D5F 
 10077      454E4120 
 10078              	.LASF296:
 10079 008b 5F5F5548 		.ascii	"__UHA_FBIT__ 8\000"
 10079      415F4642 
 10079      49545F5F 
 10079      203800
 10080              	.LASF977:
 10081 009a 5F5F4343 		.ascii	"__CCAND_11XX_H_ \000"
 10081      414E445F 
 10081      31315858 
 10081      5F485F20 
 10081      00
 10082              	.LASF1103:
 10083 00ab 53595343 		.ascii	"SYSCTL_CLOCK_SYS\000"
 10083      544C5F43 
 10083      4C4F434B 
 10083      5F535953 
 10083      00
 10084              	.LASF112:
 10085 00bc 5F5F494E 		.ascii	"__INT_FAST32_MAX__ 2147483647\000"
 10085      545F4641 
 10085      53543332 
 10085      5F4D4158 
 10085      5F5F2032 
 10086              	.LASF602:
 10087 00da 4C50435F 		.ascii	"LPC_IOCON_BASE 0x40044000\000"
 10087      494F434F 
 10087      4E5F4241 
 10087      53452030 
 10087      78343030 
 10088              	.LASF350:
 10089 00f4 5F535953 		.ascii	"_SYS_FEATURES_H \000"
 10089      5F464541 
 10089      54555245 
 10089      535F4820 
 10089      00
 10090              	.LASF312:
 10091 0105 5F5F4743 		.ascii	"__GCC_ATOMIC_WCHAR_T_LOCK_FREE 1\000"
 10091      435F4154 
 10091      4F4D4943 
 10091      5F574348 
 10091      41525F54 
 10092              	.LASF1187:
 10093 0126 69734D61 		.ascii	"isMasterState\000"
 10093      73746572 
 10093      53746174 
 10093      6500
 10094              	.LASF968:
ARM GAS  /tmp/ccAFBUIw.s 			page 197


 10095 0134 4932435F 		.ascii	"I2C_BYTE_RECV 0x02\000"
 10095      42595445 
 10095      5F524543 
 10095      56203078 
 10095      303200
 10096              	.LASF841:
 10097 0147 57574454 		.ascii	"WWDT_WDMOD_WDEN ((uint32_t) (1 << 0))\000"
 10097      5F57444D 
 10097      4F445F57 
 10097      44454E20 
 10097      28287569 
 10098              	.LASF1105:
 10099 016d 53595343 		.ascii	"SYSCTL_CLOCK_RAM\000"
 10099      544C5F43 
 10099      4C4F434B 
 10099      5F52414D 
 10099      00
 10100              	.LASF188:
 10101 017e 5F5F5346 		.ascii	"__SFRACT_FBIT__ 7\000"
 10101      52414354 
 10101      5F464249 
 10101      545F5F20 
 10101      3700
 10102              	.LASF1038:
 10103 0190 73697A65 		.ascii	"sizetype\000"
 10103      74797065 
 10103      00
 10104              	.LASF73:
 10105 0199 5F5F4C4F 		.ascii	"__LONG_LONG_MAX__ 9223372036854775807LL\000"
 10105      4E475F4C 
 10105      4F4E475F 
 10105      4D41585F 
 10105      5F203932 
 10106              	.LASF590:
 10107 01c1 4C50435F 		.ascii	"LPC_WWDT_BASE 0x40004000\000"
 10107      57574454 
 10107      5F424153 
 10107      45203078 
 10107      34303030 
 10108              	.LASF1126:
 10109 01da 53434C48 		.ascii	"SCLH\000"
 10109      00
 10110              	.LASF1127:
 10111 01df 53434C4C 		.ascii	"SCLL\000"
 10111      00
 10112              	.LASF638:
 10113 01e4 53595343 		.ascii	"SYSCTL_RST_POR (1 << 0)\000"
 10113      544C5F52 
 10113      53545F50 
 10113      4F522028 
 10113      31203C3C 
 10114              	.LASF185:
 10115 01fc 5F5F4445 		.ascii	"__DEC128_MAX__ 9.999999999999999999999999999999999E"
 10115      43313238 
 10115      5F4D4158 
 10115      5F5F2039 
 10115      2E393939 
ARM GAS  /tmp/ccAFBUIw.s 			page 198


 10116 022f 36313434 		.ascii	"6144DL\000"
 10116      444C00
 10117              	.LASF929:
 10118 0236 4932435F 		.ascii	"I2C_I2STAT_M_RX_START ((0x08))\000"
 10118      49325354 
 10118      41545F4D 
 10118      5F52585F 
 10118      53544152 
 10119              	.LASF1178:
 10120 0255 67657443 		.ascii	"getCurState\000"
 10120      75725374 
 10120      61746500 
 10121              	.LASF530:
 10122 0261 5343425F 		.ascii	"SCB_ICSR_PENDSTCLR_Msk (1UL << SCB_ICSR_PENDSTCLR_P"
 10122      49435352 
 10122      5F50454E 
 10122      44535443 
 10122      4C525F4D 
 10123 0294 6F732900 		.ascii	"os)\000"
 10124              	.LASF246:
 10125 0298 5F5F5541 		.ascii	"__UACCUM_MAX__ 0XFFFFFFFFP-16UK\000"
 10125      4343554D 
 10125      5F4D4158 
 10125      5F5F2030 
 10125      58464646 
 10126              	.LASF173:
 10127 02b8 5F5F4445 		.ascii	"__DEC32_SUBNORMAL_MIN__ 0.000001E-95DF\000"
 10127      4333325F 
 10127      5355424E 
 10127      4F524D41 
 10127      4C5F4D49 
 10128              	.LASF277:
 10129 02df 5F5F5451 		.ascii	"__TQ_IBIT__ 0\000"
 10129      5F494249 
 10129      545F5F20 
 10129      3000
 10130              	.LASF774:
 10131 02ed 55415254 		.ascii	"UART_LCR_BREAK_EN (1 << 6)\000"
 10131      5F4C4352 
 10131      5F425245 
 10131      414B5F45 
 10131      4E202831 
 10132              	.LASF548:
 10133 0308 5343425F 		.ascii	"SCB_AIRCR_VECTCLRACTIVE_Msk (1UL << SCB_AIRCR_VECTC"
 10133      41495243 
 10133      525F5645 
 10133      4354434C 
 10133      52414354 
 10134 033b 4C524143 		.ascii	"LRACTIVE_Pos)\000"
 10134      54495645 
 10134      5F506F73 
 10134      2900
 10135              	.LASF1185:
 10136 0349 73746172 		.ascii	"startMasterXfer\000"
 10136      744D6173 
 10136      74657258 
 10136      66657200 
ARM GAS  /tmp/ccAFBUIw.s 			page 199


 10137              	.LASF11:
 10138 0359 5F5F4154 		.ascii	"__ATOMIC_CONSUME 1\000"
 10138      4F4D4943 
 10138      5F434F4E 
 10138      53554D45 
 10138      203100
 10139              	.LASF210:
 10140 036c 5F5F4C46 		.ascii	"__LFRACT_MIN__ (-0.5LR-0.5LR)\000"
 10140      52414354 
 10140      5F4D494E 
 10140      5F5F2028 
 10140      2D302E35 
 10141              	.LASF516:
 10142 038a 5343425F 		.ascii	"SCB_CPUID_ARCHITECTURE_Msk (0xFUL << SCB_CPUID_ARCH"
 10142      43505549 
 10142      445F4152 
 10142      43484954 
 10142      45435455 
 10143 03bd 49544543 		.ascii	"ITECTURE_Pos)\000"
 10143      54555245 
 10143      5F506F73 
 10143      2900
 10144              	.LASF240:
 10145 03cb 5F5F4143 		.ascii	"__ACCUM_MIN__ (-0X1P15K-0X1P15K)\000"
 10145      43554D5F 
 10145      4D494E5F 
 10145      5F20282D 
 10145      30583150 
 10146              	.LASF796:
 10147 03ec 55415254 		.ascii	"UART_MSR_LO2HI_RI (1 << 2)\000"
 10147      5F4D5352 
 10147      5F4C4F32 
 10147      48495F52 
 10147      49202831 
 10148              	.LASF781:
 10149 0407 55415254 		.ascii	"UART_MCR_AUTO_CTS_EN (1 << 7)\000"
 10149      5F4D4352 
 10149      5F415554 
 10149      4F5F4354 
 10149      535F454E 
 10150              	.LASF140:
 10151 0425 5F5F4442 		.ascii	"__DBL_DIG__ 15\000"
 10151      4C5F4449 
 10151      475F5F20 
 10151      313500
 10152              	.LASF994:
 10153 0434 53444F5F 		.ascii	"SDO_ABORT_UNKNOWN_COMMAND 0x05040001UL\000"
 10153      41424F52 
 10153      545F554E 
 10153      4B4E4F57 
 10153      4E5F434F 
 10154              	.LASF533:
 10155 045b 5343425F 		.ascii	"SCB_ICSR_ISRPENDING_Pos 22\000"
 10155      49435352 
 10155      5F495352 
 10155      50454E44 
 10155      494E475F 
ARM GAS  /tmp/ccAFBUIw.s 			page 200


 10156              	.LASF17:
 10157 0476 5F5F5349 		.ascii	"__SIZEOF_LONG_LONG__ 8\000"
 10157      5A454F46 
 10157      5F4C4F4E 
 10157      475F4C4F 
 10157      4E475F5F 
 10158              	.LASF144:
 10159 048d 5F5F4442 		.ascii	"__DBL_MAX_10_EXP__ 308\000"
 10159      4C5F4D41 
 10159      585F3130 
 10159      5F455850 
 10159      5F5F2033 
 10160              	.LASF808:
 10161 04a4 55415254 		.ascii	"UART_ACR_BITMASK (0x307)\000"
 10161      5F414352 
 10161      5F424954 
 10161      4D41534B 
 10161      20283078 
 10162              	.LASF777:
 10163 04bd 55415254 		.ascii	"UART_MCR_DTR_CTRL (1 << 0)\000"
 10163      5F4D4352 
 10163      5F445452 
 10163      5F435452 
 10163      4C202831 
 10164              	.LASF200:
 10165 04d8 5F5F4652 		.ascii	"__FRACT_MIN__ (-0.5R-0.5R)\000"
 10165      4143545F 
 10165      4D494E5F 
 10165      5F20282D 
 10165      302E3552 
 10166              	.LASF266:
 10167 04f3 5F5F554C 		.ascii	"__ULLACCUM_MAX__ 0XFFFFFFFFFFFFFFFFP-32ULLK\000"
 10167      4C414343 
 10167      554D5F4D 
 10167      41585F5F 
 10167      20305846 
 10168              	.LASF564:
 10169 051f 53797354 		.ascii	"SysTick_CTRL_CLKSOURCE_Msk (1UL << SysTick_CTRL_CLK"
 10169      69636B5F 
 10169      4354524C 
 10169      5F434C4B 
 10169      534F5552 
 10170 0552 534F5552 		.ascii	"SOURCE_Pos)\000"
 10170      43455F50 
 10170      6F732900 
 10171              	.LASF236:
 10172 055e 5F5F5553 		.ascii	"__USACCUM_MAX__ 0XFFFFP-8UHK\000"
 10172      41434355 
 10172      4D5F4D41 
 10172      585F5F20 
 10172      30584646 
 10173              	.LASF170:
 10174 057b 5F5F4445 		.ascii	"__DEC32_MIN__ 1E-95DF\000"
 10174      4333325F 
 10174      4D494E5F 
 10174      5F203145 
 10174      2D393544 
ARM GAS  /tmp/ccAFBUIw.s 			page 201


 10175              	.LASF337:
 10176 0591 5F5F4152 		.ascii	"__ARM_NEON_FP 4\000"
 10176      4D5F4E45 
 10176      4F4E5F46 
 10176      50203400 
 10177              	.LASF595:
 10178 05a1 4C50435F 		.ascii	"LPC_TIMER32_1_BASE 0x40018000\000"
 10178      54494D45 
 10178      5233325F 
 10178      315F4241 
 10178      53452030 
 10179              	.LASF273:
 10180 05bf 5F5F5351 		.ascii	"__SQ_IBIT__ 0\000"
 10180      5F494249 
 10180      545F5F20 
 10180      3000
 10181              	.LASF27:
 10182 05cd 5F5F4F52 		.ascii	"__ORDER_PDP_ENDIAN__ 3412\000"
 10182      4445525F 
 10182      5044505F 
 10182      454E4449 
 10182      414E5F5F 
 10183              	.LASF1122:
 10184 05e7 43484950 		.ascii	"CHIP_SYSCTL_CLOCK_T\000"
 10184      5F535953 
 10184      43544C5F 
 10184      434C4F43 
 10184      4B5F5400 
 10185              	.LASF176:
 10186 05fb 5F5F4445 		.ascii	"__DEC64_MAX_EXP__ 385\000"
 10186      4336345F 
 10186      4D41585F 
 10186      4558505F 
 10186      5F203338 
 10187              	.LASF1081:
 10188 0611 424F4443 		.ascii	"BODCTRL\000"
 10188      54524C00 
 10189              	.LASF558:
 10190 0619 5343425F 		.ascii	"SCB_CCR_UNALIGN_TRP_Msk (1UL << SCB_CCR_UNALIGN_TRP"
 10190      4343525F 
 10190      554E414C 
 10190      49474E5F 
 10190      5452505F 
 10191 064c 5F506F73 		.ascii	"_Pos)\000"
 10191      2900
 10192              	.LASF136:
 10193 0652 5F5F464C 		.ascii	"__FLT_HAS_DENORM__ 1\000"
 10193      545F4841 
 10193      535F4445 
 10193      4E4F524D 
 10193      5F5F2031 
 10194              	.LASF40:
 10195 0667 5F5F494E 		.ascii	"__INT8_TYPE__ signed char\000"
 10195      54385F54 
 10195      5950455F 
 10195      5F207369 
 10195      676E6564 
ARM GAS  /tmp/ccAFBUIw.s 			page 202


 10196              	.LASF326:
 10197 0681 5F5F4152 		.ascii	"__ARM_ARCH_PROFILE 77\000"
 10197      4D5F4152 
 10197      43485F50 
 10197      524F4649 
 10197      4C452037 
 10198              	.LASF762:
 10199 0697 55415254 		.ascii	"UART_LCR_WLEN6 (1 << 0)\000"
 10199      5F4C4352 
 10199      5F574C45 
 10199      4E362028 
 10199      31203C3C 
 10200              	.LASF528:
 10201 06af 5343425F 		.ascii	"SCB_ICSR_PENDSTSET_Msk (1UL << SCB_ICSR_PENDSTSET_P"
 10201      49435352 
 10201      5F50454E 
 10201      44535453 
 10201      45545F4D 
 10202 06e2 6F732900 		.ascii	"os)\000"
 10203              	.LASF1111:
 10204 06e6 53595343 		.ascii	"SYSCTL_CLOCK_CT16B1\000"
 10204      544C5F43 
 10204      4C4F434B 
 10204      5F435431 
 10204      36423100 
 10205              	.LASF848:
 10206 06fa 5353505F 		.ascii	"SSP_CR0_FRF_SPI ((uint32_t) (0 << 4))\000"
 10206      4352305F 
 10206      4652465F 
 10206      53504920 
 10206      28287569 
 10207              	.LASF791:
 10208 0720 55415254 		.ascii	"UART_LSR_TXFE (1 << 8)\000"
 10208      5F4C5352 
 10208      5F545846 
 10208      45202831 
 10208      203C3C20 
 10209              	.LASF155:
 10210 0737 5F5F4C44 		.ascii	"__LDBL_MIN_EXP__ (-1021)\000"
 10210      424C5F4D 
 10210      494E5F45 
 10210      58505F5F 
 10210      20282D31 
 10211              	.LASF153:
 10212 0750 5F5F4C44 		.ascii	"__LDBL_MANT_DIG__ 53\000"
 10212      424C5F4D 
 10212      414E545F 
 10212      4449475F 
 10212      5F203533 
 10213              	.LASF866:
 10214 0765 5353505F 		.ascii	"SSP_ICR_BITMASK ((uint32_t) (0x03))\000"
 10214      4943525F 
 10214      4249544D 
 10214      41534B20 
 10214      28287569 
 10215              	.LASF639:
 10216 0789 53595343 		.ascii	"SYSCTL_RST_EXTRST (1 << 1)\000"
ARM GAS  /tmp/ccAFBUIw.s 			page 203


 10216      544C5F52 
 10216      53545F45 
 10216      58545253 
 10216      54202831 
 10217              	.LASF103:
 10218 07a4 5F5F5549 		.ascii	"__UINT8_C(c) c\000"
 10218      4E54385F 
 10218      43286329 
 10218      206300
 10219              	.LASF41:
 10220 07b3 5F5F494E 		.ascii	"__INT16_TYPE__ short int\000"
 10220      5431365F 
 10220      54595045 
 10220      5F5F2073 
 10220      686F7274 
 10221              	.LASF370:
 10222 07cc 756E7369 		.ascii	"unsigned\000"
 10222      676E6564 
 10222      00
 10223              	.LASF1171:
 10224 07d5 6D586665 		.ascii	"mXfer\000"
 10224      7200
 10225              	.LASF875:
 10226 07db 434F4D50 		.ascii	"COMPILE_TIME_ASSERT(pred) switch(0){case 0:case pre"
 10226      494C455F 
 10226      54494D45 
 10226      5F415353 
 10226      45525428 
 10227 080e 643A3B7D 		.ascii	"d:;}\000"
 10227      00
 10228              	.LASF473:
 10229 0813 50415241 		.ascii	"PARAM_SETSTATE(State) ((State == RESET) || (State ="
 10229      4D5F5345 
 10229      54535441 
 10229      54452853 
 10229      74617465 
 10230 0846 3D205345 		.ascii	"= SET))\000"
 10230      54292900 
 10231              	.LASF251:
 10232 084e 5F5F4C41 		.ascii	"__LACCUM_MAX__ 0X7FFFFFFFFFFFFFFFP-31LK\000"
 10232      4343554D 
 10232      5F4D4158 
 10232      5F5F2030 
 10232      58374646 
 10233              	.LASF594:
 10234 0876 4C50435F 		.ascii	"LPC_TIMER32_0_BASE 0x40014000\000"
 10234      54494D45 
 10234      5233325F 
 10234      305F4241 
 10234      53452030 
 10235              	.LASF1170:
 10236 0894 73457665 		.ascii	"sEvent\000"
 10236      6E7400
 10237              	.LASF474:
 10238 089b 50415241 		.ascii	"PARAM_FUNCTIONALSTATE(State) ((State == DISABLE) ||"
 10238      4D5F4655 
 10238      4E435449 
ARM GAS  /tmp/ccAFBUIw.s 			page 204


 10238      4F4E414C 
 10238      53544154 
 10239 08ce 20285374 		.ascii	" (State == ENABLE))\000"
 10239      61746520 
 10239      3D3D2045 
 10239      4E41424C 
 10239      45292900 
 10240              	.LASF709:
 10241 08e2 54494D45 		.ascii	"TIMER_IR_CLR(n) _BIT(n)\000"
 10241      525F4952 
 10241      5F434C52 
 10241      286E2920 
 10241      5F424954 
 10242              	.LASF921:
 10243 08fa 4932435F 		.ascii	"I2C_I2STAT_BUS_ERROR ((0x00))\000"
 10243      49325354 
 10243      41545F42 
 10243      55535F45 
 10243      52524F52 
 10244              	.LASF852:
 10245 0918 5353505F 		.ascii	"SSP_CR0_CPOL_HI ((uint32_t) (1 << 6))\000"
 10245      4352305F 
 10245      43504F4C 
 10245      5F484920 
 10245      28287569 
 10246              	.LASF381:
 10247 093e 5F5F494E 		.ascii	"__INT8 \"hh\"\000"
 10247      54382022 
 10247      68682200 
 10248              	.LASF1136:
 10249 094a 4932435F 		.ascii	"I2C_SLAVE_GENERAL\000"
 10249      534C4156 
 10249      455F4745 
 10249      4E455241 
 10249      4C00
 10250              	.LASF666:
 10251 095c 494F434F 		.ascii	"IOCON_FUNC1 0x1\000"
 10251      4E5F4655 
 10251      4E433120 
 10251      30783100 
 10252              	.LASF419:
 10253 096c 494E545F 		.ascii	"INT_LEAST16_MAX (__INT_LEAST16_MAX__)\000"
 10253      4C454153 
 10253      5431365F 
 10253      4D415820 
 10253      285F5F49 
 10254              	.LASF1:
 10255 0992 5F5F5354 		.ascii	"__STDC_HOSTED__ 1\000"
 10255      44435F48 
 10255      4F535445 
 10255      445F5F20 
 10255      3100
 10256              	.LASF223:
 10257 09a4 5F5F554C 		.ascii	"__ULLFRACT_FBIT__ 64\000"
 10257      4C465241 
 10257      43545F46 
 10257      4249545F 
ARM GAS  /tmp/ccAFBUIw.s 			page 205


 10257      5F203634 
 10258              	.LASF738:
 10259 09b9 55415254 		.ascii	"UART2_IER_BITMASK (0x38F)\000"
 10259      325F4945 
 10259      525F4249 
 10259      544D4153 
 10259      4B202830 
 10260              	.LASF1069:
 10261 09d3 55534243 		.ascii	"USBCLKDIV\000"
 10261      4C4B4449 
 10261      5600
 10262              	.LASF437:
 10263 09dd 494E545F 		.ascii	"INT_FAST16_MAX (__INT_FAST16_MAX__)\000"
 10263      46415354 
 10263      31365F4D 
 10263      41582028 
 10263      5F5F494E 
 10264              	.LASF59:
 10265 0a01 5F5F494E 		.ascii	"__INT_FAST64_TYPE__ long long int\000"
 10265      545F4641 
 10265      53543634 
 10265      5F545950 
 10265      455F5F20 
 10266              	.LASF1205:
 10267 0a23 43686970 		.ascii	"Chip_I2C_GetMasterEventHandler\000"
 10267      5F493243 
 10267      5F476574 
 10267      4D617374 
 10267      65724576 
 10268              	.LASF527:
 10269 0a42 5343425F 		.ascii	"SCB_ICSR_PENDSTSET_Pos 26\000"
 10269      49435352 
 10269      5F50454E 
 10269      44535453 
 10269      45545F50 
 10270              	.LASF410:
 10271 0a5c 494E5438 		.ascii	"INT8_MAX (__INT8_MAX__)\000"
 10271      5F4D4158 
 10271      20285F5F 
 10271      494E5438 
 10271      5F4D4158 
 10272              	.LASF659:
 10273 0a74 53595343 		.ascii	"SYSCTL_POWERDOWN_SYSOSC_PD (1 << 5)\000"
 10273      544C5F50 
 10273      4F574552 
 10273      444F574E 
 10273      5F535953 
 10274              	.LASF374:
 10275 0a98 7369676E 		.ascii	"signed +0\000"
 10275      6564202B 
 10275      3000
 10276              	.LASF451:
 10277 0aa2 50545244 		.ascii	"PTRDIFF_MAX (__PTRDIFF_MAX__)\000"
 10277      4946465F 
 10277      4D415820 
 10277      285F5F50 
 10277      54524449 
ARM GAS  /tmp/ccAFBUIw.s 			page 206


 10278              	.LASF904:
 10279 0ac0 4932435F 		.ascii	"I2C_I2CONSET_SI ((0x08))\000"
 10279      4932434F 
 10279      4E534554 
 10279      5F534920 
 10279      28283078 
 10280              	.LASF782:
 10281 0ad9 55415254 		.ascii	"UART_MCR_BITMASK (0xD3)\000"
 10281      5F4D4352 
 10281      5F424954 
 10281      4D41534B 
 10281      20283078 
 10282              	.LASF93:
 10283 0af1 5F5F5549 		.ascii	"__UINT64_MAX__ 18446744073709551615ULL\000"
 10283      4E543634 
 10283      5F4D4158 
 10283      5F5F2031 
 10283      38343436 
 10284              	.LASF485:
 10285 0b18 554E5553 		.ascii	"UNUSED(x) (void)(x)\000"
 10285      45442878 
 10285      29202876 
 10285      6F696429 
 10285      28782900 
 10286              	.LASF196:
 10287 0b2c 5F5F5553 		.ascii	"__USFRACT_MAX__ 0XFFP-8UHR\000"
 10287      46524143 
 10287      545F4D41 
 10287      585F5F20 
 10287      30584646 
 10288              	.LASF563:
 10289 0b47 53797354 		.ascii	"SysTick_CTRL_CLKSOURCE_Pos 2\000"
 10289      69636B5F 
 10289      4354524C 
 10289      5F434C4B 
 10289      534F5552 
 10290              	.LASF686:
 10291 0b64 4D445F50 		.ascii	"MD_PLN (0x0 << 3)\000"
 10291      4C4E2028 
 10291      30783020 
 10291      3C3C2033 
 10291      2900
 10292              	.LASF1195:
 10293 0b76 43686970 		.ascii	"Chip_I2C_EventHandler\000"
 10293      5F493243 
 10293      5F457665 
 10293      6E744861 
 10293      6E646C65 
 10294              	.LASF749:
 10295 0b8c 55415254 		.ascii	"UART_IIR_INTID_MODEM (0 << 1)\000"
 10295      5F494952 
 10295      5F494E54 
 10295      49445F4D 
 10295      4F44454D 
 10296              	.LASF1124:
 10297 0baa 53544154 		.ascii	"STAT\000"
 10297      00
ARM GAS  /tmp/ccAFBUIw.s 			page 207


 10298              	.LASF541:
 10299 0baf 5343425F 		.ascii	"SCB_AIRCR_VECTKEYSTAT_Pos 16\000"
 10299      41495243 
 10299      525F5645 
 10299      43544B45 
 10299      59535441 
 10300              	.LASF756:
 10301 0bcc 55415254 		.ascii	"UART_FCR_TRG_LEV0 (0)\000"
 10301      5F464352 
 10301      5F545247 
 10301      5F4C4556 
 10301      30202830 
 10302              	.LASF909:
 10303 0be2 4932435F 		.ascii	"I2C_I2CONCLR_SIC ((1 << 3))\000"
 10303      4932434F 
 10303      4E434C52 
 10303      5F534943 
 10303      20282831 
 10304              	.LASF537:
 10305 0bfe 5343425F 		.ascii	"SCB_ICSR_VECTACTIVE_Pos 0\000"
 10305      49435352 
 10305      5F564543 
 10305      54414354 
 10305      4956455F 
 10306              	.LASF1188:
 10307 0c18 73746174 		.ascii	"stat\000"
 10307      00
 10308              	.LASF416:
 10309 0c1d 494E5431 		.ascii	"INT16_MAX (__INT16_MAX__)\000"
 10309      365F4D41 
 10309      5820285F 
 10309      5F494E54 
 10309      31365F4D 
 10310              	.LASF911:
 10311 0c37 4932435F 		.ascii	"I2C_I2CONCLR_STAC ((1 << 5))\000"
 10311      4932434F 
 10311      4E434C52 
 10311      5F535441 
 10311      43202828 
 10312              	.LASF901:
 10313 0c54 5245545F 		.ascii	"RET_SLAVE_BUSY 0\000"
 10313      534C4156 
 10313      455F4255 
 10313      53592030 
 10313      00
 10314              	.LASF213:
 10315 0c65 5F5F554C 		.ascii	"__ULFRACT_FBIT__ 32\000"
 10315      46524143 
 10315      545F4642 
 10315      49545F5F 
 10315      20333200 
 10316              	.LASF941:
 10317 0c79 4932435F 		.ascii	"I2C_I2STAT_S_RX_PRE_SLA_DAT_NACK ((0x88))\000"
 10317      49325354 
 10317      41545F53 
 10317      5F52585F 
 10317      5052455F 
ARM GAS  /tmp/ccAFBUIw.s 			page 208


 10318              	.LASF934:
 10319 0ca3 4932435F 		.ascii	"I2C_I2STAT_M_RX_DAT_ACK ((0x50))\000"
 10319      49325354 
 10319      41545F4D 
 10319      5F52585F 
 10319      4441545F 
 10320              	.LASF404:
 10321 0cc4 5F5F696E 		.ascii	"__int_fast32_t_defined 1\000"
 10321      745F6661 
 10321      73743332 
 10321      5F745F64 
 10321      6566696E 
 10322              	.LASF995:
 10323 0cdd 53444F5F 		.ascii	"SDO_ABORT_UNSUPPORTED 0x06010000UL\000"
 10323      41424F52 
 10323      545F554E 
 10323      53555050 
 10323      4F525445 
 10324              	.LASF792:
 10325 0d00 55415254 		.ascii	"UART_LSR_BITMASK (0xFF)\000"
 10325      5F4C5352 
 10325      5F424954 
 10325      4D41534B 
 10325      20283078 
 10326              	.LASF459:
 10327 0d18 494E5431 		.ascii	"INT16_C(x) __INT16_C(x)\000"
 10327      365F4328 
 10327      7829205F 
 10327      5F494E54 
 10327      31365F43 
 10328              	.LASF945:
 10329 0d30 4932435F 		.ascii	"I2C_I2STAT_S_TX_SLAR_ACK ((0xA8))\000"
 10329      49325354 
 10329      41545F53 
 10329      5F54585F 
 10329      534C4152 
 10330              	.LASF192:
 10331 0d52 5F5F5346 		.ascii	"__SFRACT_EPSILON__ 0x1P-7HR\000"
 10331      52414354 
 10331      5F455053 
 10331      494C4F4E 
 10331      5F5F2030 
 10332              	.LASF1141:
 10333 0d6e 4932435F 		.ascii	"I2C_SLAVE_NUM_INTERFACE\000"
 10333      534C4156 
 10333      455F4E55 
 10333      4D5F494E 
 10333      54455246 
 10334              	.LASF282:
 10335 0d86 5F5F5553 		.ascii	"__USQ_FBIT__ 32\000"
 10335      515F4642 
 10335      49545F5F 
 10335      20333200 
 10336              	.LASF26:
 10337 0d96 5F5F4F52 		.ascii	"__ORDER_BIG_ENDIAN__ 4321\000"
 10337      4445525F 
 10337      4249475F 
ARM GAS  /tmp/ccAFBUIw.s 			page 209


 10337      454E4449 
 10337      414E5F5F 
 10338              	.LASF1112:
 10339 0db0 53595343 		.ascii	"SYSCTL_CLOCK_CT32B0\000"
 10339      544C5F43 
 10339      4C4F434B 
 10339      5F435433 
 10339      32423000 
 10340              	.LASF1113:
 10341 0dc4 53595343 		.ascii	"SYSCTL_CLOCK_CT32B1\000"
 10341      544C5F43 
 10341      4C4F434B 
 10341      5F435433 
 10341      32423100 
 10342              	.LASF272:
 10343 0dd8 5F5F5351 		.ascii	"__SQ_FBIT__ 31\000"
 10343      5F464249 
 10343      545F5F20 
 10343      333100
 10344              	.LASF898:
 10345 0de7 5245545F 		.ascii	"RET_SLAVE_TX 6\000"
 10345      534C4156 
 10345      455F5458 
 10345      203600
 10346              	.LASF302:
 10347 0df6 5F5F5554 		.ascii	"__UTA_FBIT__ 64\000"
 10347      415F4642 
 10347      49545F5F 
 10347      20363400 
 10348              	.LASF139:
 10349 0e06 5F5F4442 		.ascii	"__DBL_MANT_DIG__ 53\000"
 10349      4C5F4D41 
 10349      4E545F44 
 10349      49475F5F 
 10349      20353300 
 10350              	.LASF755:
 10351 0e1a 55415254 		.ascii	"UART_TX_FIFO_SIZE (16)\000"
 10351      5F54585F 
 10351      4649464F 
 10351      5F53495A 
 10351      45202831 
 10352              	.LASF280:
 10353 0e31 5F5F5548 		.ascii	"__UHQ_FBIT__ 16\000"
 10353      515F4642 
 10353      49545F5F 
 10353      20313600 
 10354              	.LASF431:
 10355 0e41 494E545F 		.ascii	"INT_LEAST64_MAX (__INT_LEAST64_MAX__)\000"
 10355      4C454153 
 10355      5436345F 
 10355      4D415820 
 10355      285F5F49 
 10356              	.LASF907:
 10357 0e67 4932435F 		.ascii	"I2C_I2CONSET_I2EN ((0x40))\000"
 10357      4932434F 
 10357      4E534554 
 10357      5F493245 
ARM GAS  /tmp/ccAFBUIw.s 			page 210


 10357      4E202828 
 10358              	.LASF575:
 10359 0e82 53797354 		.ascii	"SysTick_CALIB_SKEW_Pos 30\000"
 10359      69636B5F 
 10359      43414C49 
 10359      425F534B 
 10359      45575F50 
 10360              	.LASF820:
 10361 0e9c 55415254 		.ascii	"UART_ICR_BITMASK (0x3F)\000"
 10361      5F494352 
 10361      5F424954 
 10361      4D41534B 
 10361      20283078 
 10362              	.LASF69:
 10363 0eb4 5F5F5343 		.ascii	"__SCHAR_MAX__ 127\000"
 10363      4841525F 
 10363      4D41585F 
 10363      5F203132 
 10363      3700
 10364              	.LASF172:
 10365 0ec6 5F5F4445 		.ascii	"__DEC32_EPSILON__ 1E-6DF\000"
 10365      4333325F 
 10365      45505349 
 10365      4C4F4E5F 
 10365      5F203145 
 10366              	.LASF454:
 10367 0edf 57434841 		.ascii	"WCHAR_MAX (__WCHAR_MAX__)\000"
 10367      525F4D41 
 10367      5820285F 
 10367      5F574348 
 10367      41525F4D 
 10368              	.LASF983:
 10369 0ef9 43414E5F 		.ascii	"CAN_ERROR_FORM 0x00000010UL\000"
 10369      4552524F 
 10369      525F464F 
 10369      524D2030 
 10369      78303030 
 10370              	.LASF1118:
 10371 0f15 53595343 		.ascii	"SYSCTL_CLOCK_WDT\000"
 10371      544C5F43 
 10371      4C4F434B 
 10371      5F574454 
 10371      00
 10372              	.LASF413:
 10373 0f26 494E545F 		.ascii	"INT_LEAST8_MAX (__INT_LEAST8_MAX__)\000"
 10373      4C454153 
 10373      54385F4D 
 10373      41582028 
 10373      5F5F494E 
 10374              	.LASF501:
 10375 0f4a 5F5F4153 		.ascii	"__ASM __asm\000"
 10375      4D205F5F 
 10375      61736D00 
 10376              	.LASF1029:
 10377 0f56 5F5F7569 		.ascii	"__uint8_t\000"
 10377      6E74385F 
 10377      7400
ARM GAS  /tmp/ccAFBUIw.s 			page 211


 10378              	.LASF830:
 10379 0f60 55415254 		.ascii	"UART_TER1_TXEN (1 << 7)\000"
 10379      5F544552 
 10379      315F5458 
 10379      454E2028 
 10379      31203C3C 
 10380              	.LASF649:
 10381 0f78 53595343 		.ascii	"SYSCTL_SLPWAKE_BOD_PD (1 << 3)\000"
 10381      544C5F53 
 10381      4C505741 
 10381      4B455F42 
 10381      4F445F50 
 10382              	.LASF87:
 10383 0f97 5F5F494E 		.ascii	"__INT16_MAX__ 32767\000"
 10383      5431365F 
 10383      4D41585F 
 10383      5F203332 
 10383      37363700 
 10384              	.LASF1102:
 10385 0fab 4C50435F 		.ascii	"LPC_SYSCTL_T\000"
 10385      53595343 
 10385      544C5F54 
 10385      00
 10386              	.LASF712:
 10387 0fb8 54494D45 		.ascii	"TIMER_ENABLE ((uint32_t) (1 << 0))\000"
 10387      525F454E 
 10387      41424C45 
 10387      20282875 
 10387      696E7433 
 10388              	.LASF335:
 10389 0fdb 5F5F5646 		.ascii	"__VFP_FP__ 1\000"
 10389      505F4650 
 10389      5F5F2031 
 10389      00
 10390              	.LASF391:
 10391 0fe8 5F5F4C45 		.ascii	"__LEAST32 \"l\"\000"
 10391      41535433 
 10391      3220226C 
 10391      2200
 10392              	.LASF384:
 10393 0ff6 5F5F494E 		.ascii	"__INT64 \"ll\"\000"
 10393      54363420 
 10393      226C6C22 
 10393      00
 10394              	.LASF681:
 10395 1003 494F434F 		.ascii	"IOCON_SFI2C_EN (0x0 << 8)\000"
 10395      4E5F5346 
 10395      4932435F 
 10395      454E2028 
 10395      30783020 
 10396              	.LASF80:
 10397 101d 5F5F494E 		.ascii	"__INTMAX_MAX__ 9223372036854775807LL\000"
 10397      544D4158 
 10397      5F4D4158 
 10397      5F5F2039 
 10397      32323333 
 10398              	.LASF839:
ARM GAS  /tmp/ccAFBUIw.s 			page 212


 10399 1042 5F5F5757 		.ascii	"__WWDT_11XX_H_ \000"
 10399      44545F31 
 10399      3158585F 
 10399      485F2000 
 10400              	.LASF935:
 10401 1052 4932435F 		.ascii	"I2C_I2STAT_M_RX_DAT_NACK ((0x58))\000"
 10401      49325354 
 10401      41545F4D 
 10401      5F52585F 
 10401      4441545F 
 10402              	.LASF1137:
 10403 1074 4932435F 		.ascii	"I2C_SLAVE_0\000"
 10403      534C4156 
 10403      455F3000 
 10404              	.LASF1138:
 10405 1080 4932435F 		.ascii	"I2C_SLAVE_1\000"
 10405      534C4156 
 10405      455F3100 
 10406              	.LASF1139:
 10407 108c 4932435F 		.ascii	"I2C_SLAVE_2\000"
 10407      534C4156 
 10407      455F3200 
 10408              	.LASF1140:
 10409 1098 4932435F 		.ascii	"I2C_SLAVE_3\000"
 10409      534C4156 
 10409      455F3300 
 10410              	.LASF757:
 10411 10a4 55415254 		.ascii	"UART_FCR_TRG_LEV1 (1 << 6)\000"
 10411      5F464352 
 10411      5F545247 
 10411      5F4C4556 
 10411      31202831 
 10412              	.LASF780:
 10413 10bf 55415254 		.ascii	"UART_MCR_AUTO_RTS_EN (1 << 6)\000"
 10413      5F4D4352 
 10413      5F415554 
 10413      4F5F5254 
 10413      535F454E 
 10414              	.LASF1086:
 10415 10dd 50494E54 		.ascii	"PINTSEL\000"
 10415      53454C00 
 10416              	.LASF121:
 10417 10e5 5F5F4743 		.ascii	"__GCC_IEC_559_COMPLEX 0\000"
 10417      435F4945 
 10417      435F3535 
 10417      395F434F 
 10417      4D504C45 
 10418              	.LASF171:
 10419 10fd 5F5F4445 		.ascii	"__DEC32_MAX__ 9.999999E96DF\000"
 10419      4333325F 
 10419      4D41585F 
 10419      5F20392E 
 10419      39393939 
 10420              	.LASF810:
 10421 1119 55415254 		.ascii	"UART_RS485CTRL_RX_DIS (1 << 1)\000"
 10421      5F525334 
 10421      38354354 
ARM GAS  /tmp/ccAFBUIw.s 			page 213


 10421      524C5F52 
 10421      585F4449 
 10422              	.LASF166:
 10423 1138 5F5F4C44 		.ascii	"__LDBL_HAS_QUIET_NAN__ 1\000"
 10423      424C5F48 
 10423      41535F51 
 10423      55494554 
 10423      5F4E414E 
 10424              	.LASF856:
 10425 1151 5353505F 		.ascii	"SSP_CR0_BITMASK ((uint32_t) (0xFFFF))\000"
 10425      4352305F 
 10425      4249544D 
 10425      41534B20 
 10425      28287569 
 10426              	.LASF556:
 10427 1177 5343425F 		.ascii	"SCB_CCR_STKALIGN_Msk (1UL << SCB_CCR_STKALIGN_Pos)\000"
 10427      4343525F 
 10427      53544B41 
 10427      4C49474E 
 10427      5F4D736B 
 10428              	.LASF672:
 10429 11aa 494F434F 		.ascii	"IOCON_FUNC7 0x7\000"
 10429      4E5F4655 
 10429      4E433720 
 10429      30783700 
 10430              	.LASF439:
 10431 11ba 494E545F 		.ascii	"INT_FAST32_MIN (-__INT_FAST32_MAX__ - 1)\000"
 10431      46415354 
 10431      33325F4D 
 10431      494E2028 
 10431      2D5F5F49 
 10432              	.LASF565:
 10433 11e3 53797354 		.ascii	"SysTick_CTRL_TICKINT_Pos 1\000"
 10433      69636B5F 
 10433      4354524C 
 10433      5F544943 
 10433      4B494E54 
 10434              	.LASF496:
 10435 11fe 5F5F434F 		.ascii	"__CORE_CM0_H_GENERIC \000"
 10435      52455F43 
 10435      4D305F48 
 10435      5F47454E 
 10435      45524943 
 10436              	.LASF52:
 10437 1214 5F5F5549 		.ascii	"__UINT_LEAST8_TYPE__ unsigned char\000"
 10437      4E545F4C 
 10437      45415354 
 10437      385F5459 
 10437      50455F5F 
 10438              	.LASF943:
 10439 1237 4932435F 		.ascii	"I2C_I2STAT_S_RX_PRE_GENCALL_DAT_NACK ((0x98))\000"
 10439      49325354 
 10439      41545F53 
 10439      5F52585F 
 10439      5052455F 
 10440              	.LASF238:
 10441 1265 5F5F4143 		.ascii	"__ACCUM_FBIT__ 15\000"
ARM GAS  /tmp/ccAFBUIw.s 			page 214


 10441      43554D5F 
 10441      46424954 
 10441      5F5F2031 
 10441      3500
 10442              	.LASF353:
 10443 1277 5F5F474E 		.ascii	"__GNUC_PREREQ(maj,min) ((__GNUC__ << 16) + __GNUC_M"
 10443      55435F50 
 10443      52455245 
 10443      51286D61 
 10443      6A2C6D69 
 10444 12aa 494E4F52 		.ascii	"INOR__ >= ((maj) << 16) + (min))\000"
 10444      5F5F203E 
 10444      3D202828 
 10444      6D616A29 
 10444      203C3C20 
 10445              	.LASF627:
 10446 12cb 4C50435F 		.ascii	"LPC_CCAN ((LPC_CCAN_T *) LPC_CAN0_BASE)\000"
 10446      4343414E 
 10446      2028284C 
 10446      50435F43 
 10446      43414E5F 
 10447              	.LASF244:
 10448 12f3 5F5F5541 		.ascii	"__UACCUM_IBIT__ 16\000"
 10448      4343554D 
 10448      5F494249 
 10448      545F5F20 
 10448      313600
 10449              	.LASF1028:
 10450 1306 6C6F6E67 		.ascii	"long int\000"
 10450      20696E74 
 10450      00
 10451              	.LASF117:
 10452 130f 5F5F5549 		.ascii	"__UINT_FAST64_MAX__ 18446744073709551615ULL\000"
 10452      4E545F46 
 10452      41535436 
 10452      345F4D41 
 10452      585F5F20 
 10453              	.LASF942:
 10454 133b 4932435F 		.ascii	"I2C_I2STAT_S_RX_PRE_GENCALL_DAT_ACK ((0x90))\000"
 10454      49325354 
 10454      41545F53 
 10454      5F52585F 
 10454      5052455F 
 10455              	.LASF396:
 10456 1368 5F5F696E 		.ascii	"__int32_t_defined 1\000"
 10456      7433325F 
 10456      745F6465 
 10456      66696E65 
 10456      64203100 
 10457              	.LASF1001:
 10458 137c 53444F5F 		.ascii	"SDO_ABORT_TYPEMISMATCH 0x06070010UL\000"
 10458      41424F52 
 10458      545F5459 
 10458      50454D49 
 10458      534D4154 
 10459              	.LASF147:
 10460 13a0 5F5F4442 		.ascii	"__DBL_MIN__ ((double)2.2250738585072014e-308L)\000"
ARM GAS  /tmp/ccAFBUIw.s 			page 215


 10460      4C5F4D49 
 10460      4E5F5F20 
 10460      2828646F 
 10460      75626C65 
 10461              	.LASF440:
 10462 13cf 494E545F 		.ascii	"INT_FAST32_MAX (__INT_FAST32_MAX__)\000"
 10462      46415354 
 10462      33325F4D 
 10462      41582028 
 10462      5F5F494E 
 10463              	.LASF1011:
 10464 13f3 4F445F53 		.ascii	"OD_SEG_RO 0x40\000"
 10464      45475F52 
 10464      4F203078 
 10464      343000
 10465              	.LASF1079:
 10466 1402 50494F50 		.ascii	"PIOPORCAP\000"
 10466      4F524341 
 10466      5000
 10467              	.LASF361:
 10468 140c 5F5F5F69 		.ascii	"___int_least16_t_defined 1\000"
 10468      6E745F6C 
 10468      65617374 
 10468      31365F74 
 10468      5F646566 
 10469              	.LASF74:
 10470 1427 5F5F5743 		.ascii	"__WCHAR_MAX__ 4294967295U\000"
 10470      4841525F 
 10470      4D41585F 
 10470      5F203432 
 10470      39343936 
 10471              	.LASF182:
 10472 1441 5F5F4445 		.ascii	"__DEC128_MIN_EXP__ (-6142)\000"
 10472      43313238 
 10472      5F4D494E 
 10472      5F455850 
 10472      5F5F2028 
 10473              	.LASF685:
 10474 145c 494F434F 		.ascii	"IOCON_OPENDRAIN_EN (0x1 << 10)\000"
 10474      4E5F4F50 
 10474      454E4452 
 10474      41494E5F 
 10474      454E2028 
 10475              	.LASF56:
 10476 147b 5F5F494E 		.ascii	"__INT_FAST8_TYPE__ int\000"
 10476      545F4641 
 10476      5354385F 
 10476      54595045 
 10476      5F5F2069 
 10477              	.LASF1052:
 10478 1492 53595350 		.ascii	"SYSPLLCLKSEL\000"
 10478      4C4C434C 
 10478      4B53454C 
 10478      00
 10479              	.LASF300:
 10480 149f 5F5F5544 		.ascii	"__UDA_FBIT__ 32\000"
 10480      415F4642 
ARM GAS  /tmp/ccAFBUIw.s 			page 216


 10480      49545F5F 
 10480      20333200 
 10481              	.LASF1072:
 10482 14af 57445443 		.ascii	"WDTCLKUEN\000"
 10482      4C4B5545 
 10482      4E00
 10483              	.LASF933:
 10484 14b9 4932435F 		.ascii	"I2C_I2STAT_M_RX_SLAR_NACK ((0x48))\000"
 10484      49325354 
 10484      41545F4D 
 10484      5F52585F 
 10484      534C4152 
 10485              	.LASF1164:
 10486 14dc 4932435F 		.ascii	"I2C_EVENT_UNLOCK\000"
 10486      4556454E 
 10486      545F554E 
 10486      4C4F434B 
 10486      00
 10487              	.LASF83:
 10488 14ed 5F5F5549 		.ascii	"__UINTMAX_C(c) c ## ULL\000"
 10488      4E544D41 
 10488      585F4328 
 10488      63292063 
 10488      20232320 
 10489              	.LASF30:
 10490 1505 5F5F5349 		.ascii	"__SIZEOF_POINTER__ 4\000"
 10490      5A454F46 
 10490      5F504F49 
 10490      4E544552 
 10490      5F5F2034 
 10491              	.LASF48:
 10492 151a 5F5F494E 		.ascii	"__INT_LEAST8_TYPE__ signed char\000"
 10492      545F4C45 
 10492      41535438 
 10492      5F545950 
 10492      455F5F20 
 10493              	.LASF308:
 10494 153a 5F5F4743 		.ascii	"__GCC_ATOMIC_BOOL_LOCK_FREE 1\000"
 10494      435F4154 
 10494      4F4D4943 
 10494      5F424F4F 
 10494      4C5F4C4F 
 10495              	.LASF598:
 10496 1558 4C50435F 		.ascii	"LPC_ACMP_BASE 0x40028000\000"
 10496      41434D50 
 10496      5F424153 
 10496      45203078 
 10496      34303032 
 10497              	.LASF408:
 10498 1571 55494E54 		.ascii	"UINTPTR_MAX (__UINTPTR_MAX__)\000"
 10498      5054525F 
 10498      4D415820 
 10498      285F5F55 
 10498      494E5450 
 10499              	.LASF111:
 10500 158f 5F5F494E 		.ascii	"__INT_FAST16_MAX__ 2147483647\000"
 10500      545F4641 
ARM GAS  /tmp/ccAFBUIw.s 			page 217


 10500      53543136 
 10500      5F4D4158 
 10500      5F5F2032 
 10501              	.LASF338:
 10502 15ad 5F5F5448 		.ascii	"__THUMB_INTERWORK__ 1\000"
 10502      554D425F 
 10502      494E5445 
 10502      52574F52 
 10502      4B5F5F20 
 10503              	.LASF226:
 10504 15c3 5F5F554C 		.ascii	"__ULLFRACT_MAX__ 0XFFFFFFFFFFFFFFFFP-64ULLR\000"
 10504      4C465241 
 10504      43545F4D 
 10504      41585F5F 
 10504      20305846 
 10505              	.LASF973:
 10506 15ef 4932435F 		.ascii	"I2C_NAK_RECV (0x10000000 | 0x01)\000"
 10506      4E414B5F 
 10506      52454356 
 10506      20283078 
 10506      31303030 
 10507              	.LASF694:
 10508 1610 4D445F44 		.ascii	"MD_DISFIL (0x0 << 8)\000"
 10508      49534649 
 10508      4C202830 
 10508      7830203C 
 10508      3C203829 
 10509              	.LASF86:
 10510 1625 5F5F494E 		.ascii	"__INT8_MAX__ 127\000"
 10510      54385F4D 
 10510      41585F5F 
 10510      20313237 
 10510      00
 10511              	.LASF618:
 10512 1636 4C50435F 		.ascii	"LPC_TIMER32_0 ((LPC_TIMER_T *) LPC_TIMER32_0_BASE)\000"
 10512      54494D45 
 10512      5233325F 
 10512      30202828 
 10512      4C50435F 
 10513              	.LASF890:
 10514 1669 4144435F 		.ascii	"ADC_CR_START_CTOUT8 ((3UL << 24))\000"
 10514      43525F53 
 10514      54415254 
 10514      5F43544F 
 10514      55543820 
 10515              	.LASF38:
 10516 168b 5F5F4348 		.ascii	"__CHAR32_TYPE__ long unsigned int\000"
 10516      41523332 
 10516      5F545950 
 10516      455F5F20 
 10516      6C6F6E67 
 10517              	.LASF430:
 10518 16ad 494E545F 		.ascii	"INT_LEAST64_MIN (-__INT_LEAST64_MAX__ - 1)\000"
 10518      4C454153 
 10518      5436345F 
 10518      4D494E20 
 10518      282D5F5F 
ARM GAS  /tmp/ccAFBUIw.s 			page 218


 10519              	.LASF643:
 10520 16d8 53595343 		.ascii	"SYSCTL_NMISRC_ENABLE ((uint32_t) 1 << 31)\000"
 10520      544C5F4E 
 10520      4D495352 
 10520      435F454E 
 10520      41424C45 
 10521              	.LASF691:
 10522 1702 4D445F49 		.ascii	"MD_INV (0x1 << 6)\000"
 10522      4E562028 
 10522      30783120 
 10522      3C3C2036 
 10522      2900
 10523              	.LASF129:
 10524 1714 5F5F464C 		.ascii	"__FLT_MAX_EXP__ 128\000"
 10524      545F4D41 
 10524      585F4558 
 10524      505F5F20 
 10524      31323800 
 10525              	.LASF16:
 10526 1728 5F5F5349 		.ascii	"__SIZEOF_LONG__ 4\000"
 10526      5A454F46 
 10526      5F4C4F4E 
 10526      475F5F20 
 10526      3400
 10527              	.LASF356:
 10528 173a 5F5F5F69 		.ascii	"___int8_t_defined 1\000"
 10528      6E74385F 
 10528      745F6465 
 10528      66696E65 
 10528      64203100 
 10529              	.LASF352:
 10530 174e 5F5F4E45 		.ascii	"__NEWLIB_MINOR__ 2\000"
 10530      574C4942 
 10530      5F4D494E 
 10530      4F525F5F 
 10530      203200
 10531              	.LASF812:
 10532 1761 55415254 		.ascii	"UART_RS485CTRL_SEL_DTR (1 << 3)\000"
 10532      5F525334 
 10532      38354354 
 10532      524C5F53 
 10532      454C5F44 
 10533              	.LASF20:
 10534 1781 5F5F5349 		.ascii	"__SIZEOF_DOUBLE__ 8\000"
 10534      5A454F46 
 10534      5F444F55 
 10534      424C455F 
 10534      5F203800 
 10535              	.LASF779:
 10536 1795 55415254 		.ascii	"UART_MCR_LOOPB_EN (1 << 4)\000"
 10536      5F4D4352 
 10536      5F4C4F4F 
 10536      50425F45 
 10536      4E202831 
 10537              	.LASF947:
 10538 17b0 4932435F 		.ascii	"I2C_I2STAT_S_TX_DAT_ACK ((0xB8))\000"
 10538      49325354 
ARM GAS  /tmp/ccAFBUIw.s 			page 219


 10538      41545F53 
 10538      5F54585F 
 10538      4441545F 
 10539              	.LASF692:
 10540 17d1 4D445F41 		.ascii	"MD_ADMODE (0x0 << 7)\000"
 10540      444D4F44 
 10540      45202830 
 10540      7830203C 
 10540      3C203729 
 10541              	.LASF689:
 10542 17e6 4D445F42 		.ascii	"MD_BUK (0x3 << 3)\000"
 10542      554B2028 
 10542      30783320 
 10542      3C3C2033 
 10542      2900
 10543              	.LASF1223:
 10544 17f8 43686970 		.ascii	"Chip_I2C_EventHandlerPolling\000"
 10544      5F493243 
 10544      5F457665 
 10544      6E744861 
 10544      6E646C65 
 10545              	.LASF982:
 10546 1815 43414E5F 		.ascii	"CAN_ERROR_STUF 0x00000008UL\000"
 10546      4552524F 
 10546      525F5354 
 10546      55462030 
 10546      78303030 
 10547              	.LASF831:
 10548 1831 55415254 		.ascii	"UART_TER2_TXEN (1 << 0)\000"
 10548      5F544552 
 10548      325F5458 
 10548      454E2028 
 10548      31203C3C 
 10549              	.LASF750:
 10550 1849 55415254 		.ascii	"UART_FCR_FIFO_EN (1 << 0)\000"
 10550      5F464352 
 10550      5F464946 
 10550      4F5F454E 
 10550      20283120 
 10551              	.LASF667:
 10552 1863 494F434F 		.ascii	"IOCON_FUNC2 0x2\000"
 10552      4E5F4655 
 10552      4E433220 
 10552      30783200 
 10553              	.LASF386:
 10554 1873 5F5F4641 		.ascii	"__FAST16 \000"
 10554      53543136 
 10554      2000
 10555              	.LASF1014:
 10556 187d 43414E5F 		.ascii	"CAN_SDOREQ_NOTHANDLED 0\000"
 10556      53444F52 
 10556      45515F4E 
 10556      4F544841 
 10556      4E444C45 
 10557              	.LASF734:
 10558 1895 55415254 		.ascii	"UART_IER_ABEOINT (1 << 8)\000"
 10558      5F494552 
ARM GAS  /tmp/ccAFBUIw.s 			page 220


 10558      5F414245 
 10558      4F494E54 
 10558      20283120 
 10559              	.LASF178:
 10560 18af 5F5F4445 		.ascii	"__DEC64_MAX__ 9.999999999999999E384DD\000"
 10560      4336345F 
 10560      4D41585F 
 10560      5F20392E 
 10560      39393939 
 10561              	.LASF351:
 10562 18d5 5F5F4E45 		.ascii	"__NEWLIB__ 2\000"
 10562      574C4942 
 10562      5F5F2032 
 10562      00
 10563              	.LASF1099:
 10564 18e2 50445255 		.ascii	"PDRUNCFG\000"
 10564      4E434647 
 10564      00
 10565              	.LASF552:
 10566 18eb 5343425F 		.ascii	"SCB_SCR_SLEEPDEEP_Msk (1UL << SCB_SCR_SLEEPDEEP_Pos"
 10566      5343525F 
 10566      534C4545 
 10566      50444545 
 10566      505F4D73 
 10567 191e 2900     		.ascii	")\000"
 10568              	.LASF923:
 10569 1920 4932435F 		.ascii	"I2C_I2STAT_M_TX_RESTART ((0x10))\000"
 10569      49325354 
 10569      41545F4D 
 10569      5F54585F 
 10569      52455354 
 10570              	.LASF869:
 10571 1941 5353505F 		.ascii	"SSP_CPOL_HI SSP_CR0_CPOL_LO\000"
 10571      43504F4C 
 10571      5F484920 
 10571      5353505F 
 10571      4352305F 
 10572              	.LASF128:
 10573 195d 5F5F464C 		.ascii	"__FLT_MIN_10_EXP__ (-37)\000"
 10573      545F4D49 
 10573      4E5F3130 
 10573      5F455850 
 10573      5F5F2028 
 10574              	.LASF737:
 10575 1976 55415254 		.ascii	"UART1_IER_BITMASK (0x30F)\000"
 10575      315F4945 
 10575      525F4249 
 10575      544D4153 
 10575      4B202830 
 10576              	.LASF887:
 10577 1990 4144435F 		.ascii	"ADC_CR_START_MODE_SEL(SEL) ((SEL << 24))\000"
 10577      43525F53 
 10577      54415254 
 10577      5F4D4F44 
 10577      455F5345 
 10578              	.LASF131:
 10579 19b9 5F5F464C 		.ascii	"__FLT_DECIMAL_DIG__ 9\000"
ARM GAS  /tmp/ccAFBUIw.s 			page 221


 10579      545F4445 
 10579      43494D41 
 10579      4C5F4449 
 10579      475F5F20 
 10580              	.LASF988:
 10581 19cf 43414E5F 		.ascii	"CAN_MSGOBJ_STD 0x00000000UL\000"
 10581      4D53474F 
 10581      424A5F53 
 10581      54442030 
 10581      78303030 
 10582              	.LASF518:
 10583 19eb 5343425F 		.ascii	"SCB_CPUID_PARTNO_Msk (0xFFFUL << SCB_CPUID_PARTNO_P"
 10583      43505549 
 10583      445F5041 
 10583      52544E4F 
 10583      5F4D736B 
 10584 1a1e 6F732900 		.ascii	"os)\000"
 10585              	.LASF744:
 10586 1a22 55415254 		.ascii	"UART_IIR_INTID_MASK (7 << 1)\000"
 10586      5F494952 
 10586      5F494E54 
 10586      49445F4D 
 10586      41534B20 
 10587              	.LASF1024:
 10588 1a3f 7369676E 		.ascii	"signed char\000"
 10588      65642063 
 10588      68617200 
 10589              	.LASF855:
 10590 1a4b 5353505F 		.ascii	"SSP_CR0_SCR(n) ((uint32_t) ((n & 0xFF) << 8))\000"
 10590      4352305F 
 10590      53435228 
 10590      6E292028 
 10590      2875696E 
 10591              	.LASF876:
 10592 1a79 5F5F4144 		.ascii	"__ADC_11XX_H_ \000"
 10592      435F3131 
 10592      58585F48 
 10592      5F2000
 10593              	.LASF1035:
 10594 1a88 75696E74 		.ascii	"uint8_t\000"
 10594      385F7400 
 10595              	.LASF656:
 10596 1a90 53595343 		.ascii	"SYSCTL_POWERDOWN_FLASH_PD (1 << 2)\000"
 10596      544C5F50 
 10596      4F574552 
 10596      444F574E 
 10596      5F464C41 
 10597              	.LASF1054:
 10598 1ab3 55534250 		.ascii	"USBPLLCLKSEL\000"
 10598      4C4C434C 
 10598      4B53454C 
 10598      00
 10599              	.LASF490:
 10600 1ac0 43484950 		.ascii	"CHIP_LPC11CXX \000"
 10600      5F4C5043 
 10600      31314358 
 10600      582000
ARM GAS  /tmp/ccAFBUIw.s 			page 222


 10601              	.LASF858:
 10602 1acf 5353505F 		.ascii	"SSP_CR1_SSP_EN ((uint32_t) (1 << 1))\000"
 10602      4352315F 
 10602      5353505F 
 10602      454E2028 
 10602      2875696E 
 10603              	.LASF1199:
 10604 1af4 43686970 		.ascii	"Chip_I2C_DeInit\000"
 10604      5F493243 
 10604      5F446549 
 10604      6E697400 
 10605              	.LASF928:
 10606 1b04 4932435F 		.ascii	"I2C_I2STAT_M_TX_ARB_LOST ((0x38))\000"
 10606      49325354 
 10606      41545F4D 
 10606      5F54585F 
 10606      4152425F 
 10607              	.LASF453:
 10608 1b26 57434841 		.ascii	"WCHAR_MIN (__WCHAR_MIN__)\000"
 10608      525F4D49 
 10608      4E20285F 
 10608      5F574348 
 10608      41525F4D 
 10609              	.LASF900:
 10610 1b40 5245545F 		.ascii	"RET_SLAVE_IDLE 2\000"
 10610      534C4156 
 10610      455F4944 
 10610      4C452032 
 10610      00
 10611              	.LASF198:
 10612 1b51 5F5F4652 		.ascii	"__FRACT_FBIT__ 15\000"
 10612      4143545F 
 10612      46424954 
 10612      5F5F2031 
 10612      3500
 10613              	.LASF1076:
 10614 1b63 434C4B4F 		.ascii	"CLKOUTUEN\000"
 10614      55545545 
 10614      4E00
 10615              	.LASF138:
 10616 1b6d 5F5F464C 		.ascii	"__FLT_HAS_QUIET_NAN__ 1\000"
 10616      545F4841 
 10616      535F5155 
 10616      4945545F 
 10616      4E414E5F 
 10617              	.LASF478:
 10618 1b85 5F534246 		.ascii	"_SBF(f,v) ((v) << (f))\000"
 10618      28662C76 
 10618      29202828 
 10618      7629203C 
 10618      3C202866 
 10619              	.LASF311:
 10620 1b9c 5F5F4743 		.ascii	"__GCC_ATOMIC_CHAR32_T_LOCK_FREE 1\000"
 10620      435F4154 
 10620      4F4D4943 
 10620      5F434841 
 10620      5233325F 
ARM GAS  /tmp/ccAFBUIw.s 			page 223


 10621              	.LASF544:
 10622 1bbe 5343425F 		.ascii	"SCB_AIRCR_ENDIANESS_Msk (1UL << SCB_AIRCR_ENDIANESS"
 10622      41495243 
 10622      525F454E 
 10622      4449414E 
 10622      4553535F 
 10623 1bf1 5F506F73 		.ascii	"_Pos)\000"
 10623      2900
 10624              	.LASF4:
 10625 1bf7 5F5F474E 		.ascii	"__GNUC_PATCHLEVEL__ 3\000"
 10625      55435F50 
 10625      41544348 
 10625      4C455645 
 10625      4C5F5F20 
 10626              	.LASF819:
 10627 1c0d 55415254 		.ascii	"UART_ICR_PULSEDIV(n) ((n & 0x07) << 3)\000"
 10627      5F494352 
 10627      5F50554C 
 10627      53454449 
 10627      56286E29 
 10628              	.LASF785:
 10629 1c34 55415254 		.ascii	"UART_LSR_PE (1 << 2)\000"
 10629      5F4C5352 
 10629      5F504520 
 10629      2831203C 
 10629      3C203229 
 10630              	.LASF870:
 10631 1c49 5353505F 		.ascii	"SSP_CPOL_LO SSP_CR0_CPOL_HI\000"
 10631      43504F4C 
 10631      5F4C4F20 
 10631      5353505F 
 10631      4352305F 
 10632              	.LASF1179:
 10633 1c65 6973536C 		.ascii	"isSlaveAddrMatching\000"
 10633      61766541 
 10633      6464724D 
 10633      61746368 
 10633      696E6700 
 10634              	.LASF348:
 10635 1c79 5F535444 		.ascii	"_STDINT_H \000"
 10635      494E545F 
 10635      482000
 10636              	.LASF622:
 10637 1c84 4C50435F 		.ascii	"LPC_FMC ((LPC_FMC_T *) LPC_FLASH_BASE)\000"
 10637      464D4320 
 10637      28284C50 
 10637      435F464D 
 10637      435F5420 
 10638              	.LASF538:
 10639 1cab 5343425F 		.ascii	"SCB_ICSR_VECTACTIVE_Msk (0x1FFUL << SCB_ICSR_VECTAC"
 10639      49435352 
 10639      5F564543 
 10639      54414354 
 10639      4956455F 
 10640 1cde 54495645 		.ascii	"TIVE_Pos)\000"
 10640      5F506F73 
 10640      2900
ARM GAS  /tmp/ccAFBUIw.s 			page 224


 10641              	.LASF775:
 10642 1ce8 55415254 		.ascii	"UART_LCR_DLAB_EN (1 << 7)\000"
 10642      5F4C4352 
 10642      5F444C41 
 10642      425F454E 
 10642      20283120 
 10643              	.LASF505:
 10644 1d02 5F5F434F 		.ascii	"__CORE_CMINSTR_H \000"
 10644      52455F43 
 10644      4D494E53 
 10644      54525F48 
 10644      2000
 10645              	.LASF436:
 10646 1d14 494E545F 		.ascii	"INT_FAST16_MIN (-__INT_FAST16_MAX__ - 1)\000"
 10646      46415354 
 10646      31365F4D 
 10646      494E2028 
 10646      2D5F5F49 
 10647              	.LASF1160:
 10648 1d3d 4932435F 		.ascii	"I2C_ID_T\000"
 10648      49445F54 
 10648      00
 10649              	.LASF816:
 10650 1d46 55415254 		.ascii	"UART_ICR_IRDAEN (1 << 0)\000"
 10650      5F494352 
 10650      5F495244 
 10650      41454E20 
 10650      2831203C 
 10651              	.LASF358:
 10652 1d5f 5F5F5F69 		.ascii	"___int32_t_defined 1\000"
 10652      6E743332 
 10652      5F745F64 
 10652      6566696E 
 10652      65642031 
 10653              	.LASF1045:
 10654 1d74 52455345 		.ascii	"RESERVED1\000"
 10654      52564544 
 10654      3100
 10655              	.LASF1025:
 10656 1d7e 756E7369 		.ascii	"unsigned char\000"
 10656      676E6564 
 10656      20636861 
 10656      7200
 10657              	.LASF1056:
 10658 1d8c 52455345 		.ascii	"RESERVED3\000"
 10658      52564544 
 10658      3300
 10659              	.LASF1060:
 10660 1d96 52455345 		.ascii	"RESERVED4\000"
 10660      52564544 
 10660      3400
 10661              	.LASF1062:
 10662 1da0 52455345 		.ascii	"RESERVED5\000"
 10662      52564544 
 10662      3500
 10663              	.LASF1066:
 10664 1daa 52455345 		.ascii	"RESERVED6\000"
ARM GAS  /tmp/ccAFBUIw.s 			page 225


 10664      52564544 
 10664      3600
 10665              	.LASF1070:
 10666 1db4 52455345 		.ascii	"RESERVED7\000"
 10666      52564544 
 10666      3700
 10667              	.LASF1074:
 10668 1dbe 52455345 		.ascii	"RESERVED8\000"
 10668      52564544 
 10668      3800
 10669              	.LASF1225:
 10670 1dc8 474E5520 		.ascii	"GNU C 4.9.3 20150529 (release) [ARM/embedded-4_9-br"
 10670      4320342E 
 10670      392E3320 
 10670      32303135 
 10670      30353239 
 10671 1dfb 616E6368 		.ascii	"anch revision 227977] -mcpu=cortex-m0 -mthumb -g -g"
 10671      20726576 
 10671      6973696F 
 10671      6E203232 
 10671      37393737 
 10672 1e2e 67646233 		.ascii	"gdb3 -Os -std=gnu90 -ffunction-sections -fdata-sect"
 10672      202D4F73 
 10672      202D7374 
 10672      643D676E 
 10672      75393020 
 10673 1e61 696F6E73 		.ascii	"ions -fstack-usage\000"
 10673      202D6673 
 10673      7461636B 
 10673      2D757361 
 10673      676500
 10674              	.LASF183:
 10675 1e74 5F5F4445 		.ascii	"__DEC128_MAX_EXP__ 6145\000"
 10675      43313238 
 10675      5F4D4158 
 10675      5F455850 
 10675      5F5F2036 
 10676              	.LASF120:
 10677 1e8c 5F5F4743 		.ascii	"__GCC_IEC_559 0\000"
 10677      435F4945 
 10677      435F3535 
 10677      39203000 
 10678              	.LASF1057:
 10679 1e9c 4D41494E 		.ascii	"MAINCLKSEL\000"
 10679      434C4B53 
 10679      454C00
 10680              	.LASF499:
 10681 1ea7 5F5F434D 		.ascii	"__CM0_CMSIS_VERSION ((__CM0_CMSIS_VERSION_MAIN << 1"
 10681      305F434D 
 10681      5349535F 
 10681      56455253 
 10681      494F4E20 
 10682 1eda 3629207C 		.ascii	"6) | __CM0_CMSIS_VERSION_SUB )\000"
 10682      205F5F43 
 10682      4D305F43 
 10682      4D534953 
 10682      5F564552 
ARM GAS  /tmp/ccAFBUIw.s 			page 226


 10683              	.LASF1003:
 10684 1ef9 53444F5F 		.ascii	"SDO_ABORT_VALUE_RANGE 0x06090030UL\000"
 10684      41424F52 
 10684      545F5641 
 10684      4C55455F 
 10684      52414E47 
 10685              	.LASF834:
 10686 1f1c 55415254 		.ascii	"UART_SYNCCTRL_FES (1 << 2)\000"
 10686      5F53594E 
 10686      43435452 
 10686      4C5F4645 
 10686      53202831 
 10687              	.LASF7:
 10688 1f37 5F5F4154 		.ascii	"__ATOMIC_SEQ_CST 5\000"
 10688      4F4D4943 
 10688      5F534551 
 10688      5F435354 
 10688      203500
 10689              	.LASF554:
 10690 1f4a 5343425F 		.ascii	"SCB_SCR_SLEEPONEXIT_Msk (1UL << SCB_SCR_SLEEPONEXIT"
 10690      5343525F 
 10690      534C4545 
 10690      504F4E45 
 10690      5849545F 
 10691 1f7d 5F506F73 		.ascii	"_Pos)\000"
 10691      2900
 10692              	.LASF690:
 10693 1f83 4D445F48 		.ascii	"MD_HYS (0x1 << 5)\000"
 10693      59532028 
 10693      30783120 
 10693      3C3C2035 
 10693      2900
 10694              	.LASF864:
 10695 1f95 5353505F 		.ascii	"SSP_DR_BITMASK(n) ((n) & 0xFFFF)\000"
 10695      44525F42 
 10695      49544D41 
 10695      534B286E 
 10695      29202828 
 10696              	.LASF773:
 10697 1fb6 55415254 		.ascii	"UART_LCR_PARITY_F_0 (3 << 4)\000"
 10697      5F4C4352 
 10697      5F504152 
 10697      4954595F 
 10697      465F3020 
 10698              	.LASF620:
 10699 1fd3 4C50435F 		.ascii	"LPC_ADC ((LPC_ADC_T *) LPC_ADC_BASE)\000"
 10699      41444320 
 10699      28284C50 
 10699      435F4144 
 10699      435F5420 
 10700              	.LASF574:
 10701 1ff8 53797354 		.ascii	"SysTick_CALIB_NOREF_Msk (1UL << SysTick_CALIB_NOREF"
 10701      69636B5F 
 10701      43414C49 
 10701      425F4E4F 
 10701      5245465F 
 10702 202b 5F506F73 		.ascii	"_Pos)\000"
ARM GAS  /tmp/ccAFBUIw.s 			page 227


 10702      2900
 10703              	.LASF434:
 10704 2031 494E545F 		.ascii	"INT_FAST8_MAX (__INT_FAST8_MAX__)\000"
 10704      46415354 
 10704      385F4D41 
 10704      5820285F 
 10704      5F494E54 
 10705              	.LASF976:
 10706 2053 4932435F 		.ascii	"I2C_MONITOR_CFG_MATCHALL I2C_I2MMCTRL_MATCH_ALL\000"
 10706      4D4F4E49 
 10706      544F525F 
 10706      4346475F 
 10706      4D415443 
 10707              	.LASF143:
 10708 2083 5F5F4442 		.ascii	"__DBL_MAX_EXP__ 1024\000"
 10708      4C5F4D41 
 10708      585F4558 
 10708      505F5F20 
 10708      31303234 
 10709              	.LASF114:
 10710 2098 5F5F5549 		.ascii	"__UINT_FAST8_MAX__ 4294967295U\000"
 10710      4E545F46 
 10710      41535438 
 10710      5F4D4158 
 10710      5F5F2034 
 10711              	.LASF916:
 10712 20b7 4932435F 		.ascii	"I2C_CON_STA (1UL << 5)\000"
 10712      434F4E5F 
 10712      53544120 
 10712      2831554C 
 10712      203C3C20 
 10713              	.LASF276:
 10714 20ce 5F5F5451 		.ascii	"__TQ_FBIT__ 127\000"
 10714      5F464249 
 10714      545F5F20 
 10714      31323700 
 10715              	.LASF888:
 10716 20de 4144435F 		.ascii	"ADC_CR_START_NOW ((1UL << 24))\000"
 10716      43525F53 
 10716      54415254 
 10716      5F4E4F57 
 10716      20282831 
 10717              	.LASF714:
 10718 20fd 54494D45 		.ascii	"TIMER_INT_ON_MATCH(n) (_BIT(((n) * 3)))\000"
 10718      525F494E 
 10718      545F4F4E 
 10718      5F4D4154 
 10718      4348286E 
 10719              	.LASF992:
 10720 2125 53444F5F 		.ascii	"SDO_ABORT_TOGGLE 0x05030000UL\000"
 10720      41424F52 
 10720      545F544F 
 10720      47474C45 
 10720      20307830 
 10721              	.LASF405:
 10722 2143 5F5F696E 		.ascii	"__int_fast64_t_defined 1\000"
 10722      745F6661 
ARM GAS  /tmp/ccAFBUIw.s 			page 228


 10722      73743634 
 10722      5F745F64 
 10722      6566696E 
 10723              	.LASF612:
 10724 215c 4C50435F 		.ascii	"LPC_ROM_API_BASE_LOC 0x1FFF1FF8\000"
 10724      524F4D5F 
 10724      4150495F 
 10724      42415345 
 10724      5F4C4F43 
 10725              	.LASF344:
 10726 217c 5F5F5553 		.ascii	"__USES_INITFINI__ 1\000"
 10726      45535F49 
 10726      4E495446 
 10726      494E495F 
 10726      5F203100 
 10727              	.LASF515:
 10728 2190 5343425F 		.ascii	"SCB_CPUID_ARCHITECTURE_Pos 16\000"
 10728      43505549 
 10728      445F4152 
 10728      43484954 
 10728      45435455 
 10729              	.LASF853:
 10730 21ae 5353505F 		.ascii	"SSP_CR0_CPHA_FIRST ((uint32_t) (0))\000"
 10730      4352305F 
 10730      43504841 
 10730      5F464952 
 10730      53542028 
 10731              	.LASF1145:
 10732 21d2 4932435F 		.ascii	"I2C_STATUS_ARBLOST\000"
 10732      53544154 
 10732      55535F41 
 10732      52424C4F 
 10732      535400
 10733              	.LASF263:
 10734 21e5 5F5F554C 		.ascii	"__ULLACCUM_FBIT__ 32\000"
 10734      4C414343 
 10734      554D5F46 
 10734      4249545F 
 10734      5F203332 
 10735              	.LASF1037:
 10736 21fa 5F426F6F 		.ascii	"_Bool\000"
 10736      6C00
 10737              	.LASF754:
 10738 2200 55415254 		.ascii	"UART_FCR_BITMASK (0xCF)\000"
 10738      5F464352 
 10738      5F424954 
 10738      4D41534B 
 10738      20283078 
 10739              	.LASF582:
 10740 2218 5343425F 		.ascii	"SCB_BASE (SCS_BASE + 0x0D00UL)\000"
 10740      42415345 
 10740      20285343 
 10740      535F4241 
 10740      5345202B 
 10741              	.LASF629:
 10742 2237 4C50435F 		.ascii	"LPC_GPIO ((LPC_GPIO_T *) LPC_GPIO_PORT0_BASE)\000"
 10742      4750494F 
ARM GAS  /tmp/ccAFBUIw.s 			page 229


 10742      2028284C 
 10742      50435F47 
 10742      50494F5F 
 10743              	.LASF347:
 10744 2265 5F5F4C50 		.ascii	"__LPC_TYPES_H_ \000"
 10744      435F5459 
 10744      5045535F 
 10744      485F2000 
 10745              	.LASF252:
 10746 2275 5F5F4C41 		.ascii	"__LACCUM_EPSILON__ 0x1P-31LK\000"
 10746      4343554D 
 10746      5F455053 
 10746      494C4F4E 
 10746      5F5F2030 
 10747              	.LASF1009:
 10748 2292 4F445F45 		.ascii	"OD_EXP_WO 0x20\000"
 10748      58505F57 
 10748      4F203078 
 10748      323000
 10749              	.LASF483:
 10750 22a1 53544154 		.ascii	"STATIC static\000"
 10750      49432073 
 10750      74617469 
 10750      6300
 10751              	.LASF1051:
 10752 22af 52455345 		.ascii	"RESERVED2\000"
 10752      52564544 
 10752      3200
 10753              	.LASF678:
 10754 22b9 494F434F 		.ascii	"IOCON_INV_EN (0x1 << 6)\000"
 10754      4E5F494E 
 10754      565F454E 
 10754      20283078 
 10754      31203C3C 
 10755              	.LASF21:
 10756 22d1 5F5F5349 		.ascii	"__SIZEOF_LONG_DOUBLE__ 8\000"
 10756      5A454F46 
 10756      5F4C4F4E 
 10756      475F444F 
 10756      55424C45 
 10757              	.LASF787:
 10758 22ea 55415254 		.ascii	"UART_LSR_BI (1 << 4)\000"
 10758      5F4C5352 
 10758      5F424920 
 10758      2831203C 
 10758      3C203429 
 10759              	.LASF765:
 10760 22ff 55415254 		.ascii	"UART_LCR_SBS_MASK (1 << 2)\000"
 10760      5F4C4352 
 10760      5F534253 
 10760      5F4D4153 
 10760      4B202831 
 10761              	.LASF320:
 10762 231a 5F5F5052 		.ascii	"__PRAGMA_REDEFINE_EXTNAME 1\000"
 10762      41474D41 
 10762      5F524544 
 10762      4546494E 
ARM GAS  /tmp/ccAFBUIw.s 			page 230


 10762      455F4558 
 10763              	.LASF33:
 10764 2336 5F5F5743 		.ascii	"__WCHAR_TYPE__ unsigned int\000"
 10764      4841525F 
 10764      54595045 
 10764      5F5F2075 
 10764      6E736967 
 10765              	.LASF628:
 10766 2352 4C50435F 		.ascii	"LPC_USB ((LPC_USB_T *) LPC_USB0_BASE)\000"
 10766      55534220 
 10766      28284C50 
 10766      435F5553 
 10766      425F5420 
 10767              	.LASF371:
 10768 2378 63686172 		.ascii	"char\000"
 10768      00
 10769              	.LASF299:
 10770 237d 5F5F5553 		.ascii	"__USA_IBIT__ 16\000"
 10770      415F4942 
 10770      49545F5F 
 10770      20313600 
 10771              	.LASF617:
 10772 238d 4C50435F 		.ascii	"LPC_TIMER16_1 ((LPC_TIMER_T *) LPC_TIMER16_1_BASE)\000"
 10772      54494D45 
 10772      5231365F 
 10772      31202828 
 10772      4C50435F 
 10773              	.LASF465:
 10774 23c0 494E544D 		.ascii	"INTMAX_C(x) __INTMAX_C(x)\000"
 10774      41585F43 
 10774      28782920 
 10774      5F5F494E 
 10774      544D4158 
 10775              	.LASF452:
 10776 23da 50545244 		.ascii	"PTRDIFF_MIN (-PTRDIFF_MAX - 1)\000"
 10776      4946465F 
 10776      4D494E20 
 10776      282D5054 
 10776      52444946 
 10777              	.LASF697:
 10778 23f9 4D445F53 		.ascii	"MD_STDI2C (0x1 << 8)\000"
 10778      54444932 
 10778      43202830 
 10778      7831203C 
 10778      3C203829 
 10779              	.LASF1064:
 10780 240e 55534152 		.ascii	"USARTCLKDIV\000"
 10780      54434C4B 
 10780      44495600 
 10781              	.LASF68:
 10782 241a 5F5F4758 		.ascii	"__GXX_ABI_VERSION 1002\000"
 10782      585F4142 
 10782      495F5645 
 10782      5253494F 
 10782      4E203130 
 10783              	.LASF63:
 10784 2431 5F5F5549 		.ascii	"__UINT_FAST64_TYPE__ long long unsigned int\000"
ARM GAS  /tmp/ccAFBUIw.s 			page 231


 10784      4E545F46 
 10784      41535436 
 10784      345F5459 
 10784      50455F5F 
 10785              	.LASF1114:
 10786 245d 53595343 		.ascii	"SYSCTL_CLOCK_SSP0\000"
 10786      544C5F43 
 10786      4C4F434B 
 10786      5F535350 
 10786      3000
 10787              	.LASF1121:
 10788 246f 53595343 		.ascii	"SYSCTL_CLOCK_SSP1\000"
 10788      544C5F43 
 10788      4C4F434B 
 10788      5F535350 
 10788      3100
 10789              	.LASF684:
 10790 2481 494F434F 		.ascii	"IOCON_FILT_DIS (0x1 << 8)\000"
 10790      4E5F4649 
 10790      4C545F44 
 10790      49532028 
 10790      30783120 
 10791              	.LASF133:
 10792 249b 5F5F464C 		.ascii	"__FLT_MIN__ 1.1754943508222875e-38F\000"
 10792      545F4D49 
 10792      4E5F5F20 
 10792      312E3137 
 10792      35343934 
 10793              	.LASF288:
 10794 24bf 5F5F4841 		.ascii	"__HA_FBIT__ 7\000"
 10794      5F464249 
 10794      545F5F20 
 10794      3700
 10795              	.LASF920:
 10796 24cd 4932435F 		.ascii	"I2C_I2STAT_NO_INF ((0xF8))\000"
 10796      49325354 
 10796      41545F4E 
 10796      4F5F494E 
 10796      46202828 
 10797              	.LASF625:
 10798 24e8 4C50435F 		.ascii	"LPC_SYSCTL ((LPC_SYSCTL_T *) LPC_SYSCTL_BASE)\000"
 10798      53595343 
 10798      544C2028 
 10798      284C5043 
 10798      5F535953 
 10799              	.LASF29:
 10800 2516 5F5F464C 		.ascii	"__FLOAT_WORD_ORDER__ __ORDER_LITTLE_ENDIAN__\000"
 10800      4F41545F 
 10800      574F5244 
 10800      5F4F5244 
 10800      45525F5F 
 10801              	.LASF316:
 10802 2543 5F5F4743 		.ascii	"__GCC_ATOMIC_LLONG_LOCK_FREE 1\000"
 10802      435F4154 
 10802      4F4D4943 
 10802      5F4C4C4F 
 10802      4E475F4C 
ARM GAS  /tmp/ccAFBUIw.s 			page 232


 10803              	.LASF450:
 10804 2562 5349475F 		.ascii	"SIG_ATOMIC_MAX (__STDINT_EXP(INT_MAX))\000"
 10804      41544F4D 
 10804      49435F4D 
 10804      41582028 
 10804      5F5F5354 
 10805              	.LASF720:
 10806 2589 5F5F5541 		.ascii	"__UART_11XX_H_ \000"
 10806      52545F31 
 10806      3158585F 
 10806      485F2000 
 10807              	.LASF979:
 10808 2599 43414E5F 		.ascii	"CAN_ERROR_PASS 0x00000001UL\000"
 10808      4552524F 
 10808      525F5041 
 10808      53532030 
 10808      78303030 
 10809              	.LASF1019:
 10810 25b5 43414E5F 		.ascii	"CAN_SDOSEG_CLOSE 2\000"
 10810      53444F53 
 10810      45475F43 
 10810      4C4F5345 
 10810      203200
 10811              	.LASF673:
 10812 25c8 494F434F 		.ascii	"IOCON_MODE_INACT (0x0 << 3)\000"
 10812      4E5F4D4F 
 10812      44455F49 
 10812      4E414354 
 10812      20283078 
 10813              	.LASF924:
 10814 25e4 4932435F 		.ascii	"I2C_I2STAT_M_TX_SLAW_ACK ((0x18))\000"
 10814      49325354 
 10814      41545F4D 
 10814      5F54585F 
 10814      534C4157 
 10815              	.LASF168:
 10816 2606 5F5F4445 		.ascii	"__DEC32_MIN_EXP__ (-94)\000"
 10816      4333325F 
 10816      4D494E5F 
 10816      4558505F 
 10816      5F20282D 
 10817              	.LASF194:
 10818 261e 5F5F5553 		.ascii	"__USFRACT_IBIT__ 0\000"
 10818      46524143 
 10818      545F4942 
 10818      49545F5F 
 10818      203000
 10819              	.LASF99:
 10820 2631 5F5F494E 		.ascii	"__INT32_C(c) c ## L\000"
 10820      5433325F 
 10820      43286329 
 10820      20632023 
 10820      23204C00 
 10821              	.LASF940:
 10822 2645 4932435F 		.ascii	"I2C_I2STAT_S_RX_PRE_SLA_DAT_ACK ((0x80))\000"
 10822      49325354 
 10822      41545F53 
ARM GAS  /tmp/ccAFBUIw.s 			page 233


 10822      5F52585F 
 10822      5052455F 
 10823              	.LASF162:
 10824 266e 5F5F4C44 		.ascii	"__LDBL_EPSILON__ 2.2204460492503131e-16L\000"
 10824      424C5F45 
 10824      5053494C 
 10824      4F4E5F5F 
 10824      20322E32 
 10825              	.LASF912:
 10826 2697 4932435F 		.ascii	"I2C_I2CONCLR_I2ENC ((1 << 6))\000"
 10826      4932434F 
 10826      4E434C52 
 10826      5F493245 
 10826      4E432028 
 10827              	.LASF195:
 10828 26b5 5F5F5553 		.ascii	"__USFRACT_MIN__ 0.0UHR\000"
 10828      46524143 
 10828      545F4D49 
 10828      4E5F5F20 
 10828      302E3055 
 10829              	.LASF705:
 10830 26cc 46554E43 		.ascii	"FUNC5 0x5\000"
 10830      35203078 
 10830      3500
 10831              	.LASF807:
 10832 26d6 55415254 		.ascii	"UART_ACR_ABTOINT_CLR (1 << 9)\000"
 10832      5F414352 
 10832      5F414254 
 10832      4F494E54 
 10832      5F434C52 
 10833              	.LASF997:
 10834 26f4 53444F5F 		.ascii	"SDO_ABORT_READONLY 0x06010002UL\000"
 10834      41424F52 
 10834      545F5245 
 10834      41444F4E 
 10834      4C592030 
 10835              	.LASF357:
 10836 2714 5F5F5F69 		.ascii	"___int16_t_defined 1\000"
 10836      6E743136 
 10836      5F745F64 
 10836      6566696E 
 10836      65642031 
 10837              	.LASF157:
 10838 2729 5F5F4C44 		.ascii	"__LDBL_MAX_EXP__ 1024\000"
 10838      424C5F4D 
 10838      41585F45 
 10838      58505F5F 
 10838      20313032 
 10839              	.LASF671:
 10840 273f 494F434F 		.ascii	"IOCON_FUNC6 0x6\000"
 10840      4E5F4655 
 10840      4E433620 
 10840      30783600 
 10841              	.LASF553:
 10842 274f 5343425F 		.ascii	"SCB_SCR_SLEEPONEXIT_Pos 1\000"
 10842      5343525F 
 10842      534C4545 
ARM GAS  /tmp/ccAFBUIw.s 			page 234


 10842      504F4E45 
 10842      5849545F 
 10843              	.LASF743:
 10844 2769 55415254 		.ascii	"UART_IIR_BITMASK (0x3CF)\000"
 10844      5F494952 
 10844      5F424954 
 10844      4D41534B 
 10844      20283078 
 10845              	.LASF394:
 10846 2782 5F5F696E 		.ascii	"__int8_t_defined 1\000"
 10846      74385F74 
 10846      5F646566 
 10846      696E6564 
 10846      203100
 10847              	.LASF989:
 10848 2795 43414E5F 		.ascii	"CAN_MSGOBJ_EXT 0x20000000UL\000"
 10848      4D53474F 
 10848      424A5F45 
 10848      58542030 
 10848      78323030 
 10849              	.LASF150:
 10850 27b1 5F5F4442 		.ascii	"__DBL_HAS_DENORM__ 1\000"
 10850      4C5F4841 
 10850      535F4445 
 10850      4E4F524D 
 10850      5F5F2031 
 10851              	.LASF1020:
 10852 27c6 4C50435F 		.ascii	"LPC_CCAN_API ((CCAN_API_T *) (LPC_ROM_API->candApiB"
 10852      4343414E 
 10852      5F415049 
 10852      20282843 
 10852      43414E5F 
 10853 27f9 61736529 		.ascii	"ase))\000"
 10853      2900
 10854              	.LASF850:
 10855 27ff 5353505F 		.ascii	"SSP_CR0_FRF_MICROWIRE ((uint32_t) (2 << 4))\000"
 10855      4352305F 
 10855      4652465F 
 10855      4D494352 
 10855      4F574952 
 10856              	.LASF644:
 10857 282b 53595343 		.ascii	"SYSCTL_DEEPSLP_BOD_PD (1 << 3)\000"
 10857      544C5F44 
 10857      45455053 
 10857      4C505F42 
 10857      4F445F50 
 10858              	.LASF567:
 10859 284a 53797354 		.ascii	"SysTick_CTRL_ENABLE_Pos 0\000"
 10859      69636B5F 
 10859      4354524C 
 10859      5F454E41 
 10859      424C455F 
 10860              	.LASF445:
 10861 2864 494E544D 		.ascii	"INTMAX_MAX (__INTMAX_MAX__)\000"
 10861      41585F4D 
 10861      41582028 
 10861      5F5F494E 
ARM GAS  /tmp/ccAFBUIw.s 			page 235


 10861      544D4158 
 10862              	.LASF422:
 10863 2880 494E5433 		.ascii	"INT32_MAX (__INT32_MAX__)\000"
 10863      325F4D41 
 10863      5820285F 
 10863      5F494E54 
 10863      33325F4D 
 10864              	.LASF760:
 10865 289a 55415254 		.ascii	"UART_LCR_WLEN_MASK (3 << 0)\000"
 10865      5F4C4352 
 10865      5F574C45 
 10865      4E5F4D41 
 10865      534B2028 
 10866              	.LASF1078:
 10867 28b6 52455345 		.ascii	"RESERVED9\000"
 10867      52564544 
 10867      3900
 10868              	.LASF292:
 10869 28c0 5F5F4441 		.ascii	"__DA_FBIT__ 31\000"
 10869      5F464249 
 10869      545F5F20 
 10869      333100
 10870              	.LASF1173:
 10871 28cf 666C6167 		.ascii	"flags\000"
 10871      7300
 10872              	.LASF971:
 10873 28d5 4932435F 		.ascii	"I2C_RECV_END 0x10\000"
 10873      52454356 
 10873      5F454E44 
 10873      20307831 
 10873      3000
 10874              	.LASF551:
 10875 28e7 5343425F 		.ascii	"SCB_SCR_SLEEPDEEP_Pos 2\000"
 10875      5343525F 
 10875      534C4545 
 10875      50444545 
 10875      505F506F 
 10876              	.LASF1123:
 10877 28ff 434F4E53 		.ascii	"CONSET\000"
 10877      455400
 10878              	.LASF526:
 10879 2906 5343425F 		.ascii	"SCB_ICSR_PENDSVCLR_Msk (1UL << SCB_ICSR_PENDSVCLR_P"
 10879      49435352 
 10879      5F50454E 
 10879      44535643 
 10879      4C525F4D 
 10880 2939 6F732900 		.ascii	"os)\000"
 10881              	.LASF135:
 10882 293d 5F5F464C 		.ascii	"__FLT_DENORM_MIN__ 1.4012984643248171e-45F\000"
 10882      545F4445 
 10882      4E4F524D 
 10882      5F4D494E 
 10882      5F5F2031 
 10883              	.LASF389:
 10884 2968 5F5F4C45 		.ascii	"__LEAST8 \"hh\"\000"
 10884      41535438 
 10884      20226868 
ARM GAS  /tmp/ccAFBUIw.s 			page 236


 10884      2200
 10885              	.LASF1125:
 10886 2976 41445230 		.ascii	"ADR0\000"
 10886      00
 10887              	.LASF1130:
 10888 297b 41445231 		.ascii	"ADR1\000"
 10888      00
 10889              	.LASF1131:
 10890 2980 41445232 		.ascii	"ADR2\000"
 10890      00
 10891              	.LASF1132:
 10892 2985 41445233 		.ascii	"ADR3\000"
 10892      00
 10893              	.LASF1220:
 10894 298a 43686970 		.ascii	"Chip_I2C_SlaveStateHandler\000"
 10894      5F493243 
 10894      5F536C61 
 10894      76655374 
 10894      61746548 
 10895              	.LASF67:
 10896 29a5 5F5F6861 		.ascii	"__has_include_next(STR) __has_include_next__(STR)\000"
 10896      735F696E 
 10896      636C7564 
 10896      655F6E65 
 10896      78742853 
 10897              	.LASF849:
 10898 29d7 5353505F 		.ascii	"SSP_CR0_FRF_TI ((uint32_t) (1 << 4))\000"
 10898      4352305F 
 10898      4652465F 
 10898      54492028 
 10898      2875696E 
 10899              	.LASF420:
 10900 29fc 55494E54 		.ascii	"UINT_LEAST16_MAX (__UINT_LEAST16_MAX__)\000"
 10900      5F4C4541 
 10900      53543136 
 10900      5F4D4158 
 10900      20285F5F 
 10901              	.LASF107:
 10902 2a24 5F5F5549 		.ascii	"__UINT32_C(c) c ## UL\000"
 10902      4E543332 
 10902      5F432863 
 10902      29206320 
 10902      23232055 
 10903              	.LASF517:
 10904 2a3a 5343425F 		.ascii	"SCB_CPUID_PARTNO_Pos 4\000"
 10904      43505549 
 10904      445F5041 
 10904      52544E4F 
 10904      5F506F73 
 10905              	.LASF522:
 10906 2a51 5343425F 		.ascii	"SCB_ICSR_NMIPENDSET_Msk (1UL << SCB_ICSR_NMIPENDSET"
 10906      49435352 
 10906      5F4E4D49 
 10906      50454E44 
 10906      5345545F 
 10907 2a84 5F506F73 		.ascii	"_Pos)\000"
 10907      2900
ARM GAS  /tmp/ccAFBUIw.s 			page 237


 10908              	.LASF763:
 10909 2a8a 55415254 		.ascii	"UART_LCR_WLEN7 (2 << 0)\000"
 10909      5F4C4352 
 10909      5F574C45 
 10909      4E372028 
 10909      32203C3C 
 10910              	.LASF477:
 10911 2aa2 5F534246 		.ascii	"_SBF\000"
 10911      00
 10912              	.LASF89:
 10913 2aa7 5F5F494E 		.ascii	"__INT64_MAX__ 9223372036854775807LL\000"
 10913      5436345F 
 10913      4D41585F 
 10913      5F203932 
 10913      32333337 
 10914              	.LASF788:
 10915 2acb 55415254 		.ascii	"UART_LSR_THRE (1 << 5)\000"
 10915      5F4C5352 
 10915      5F544852 
 10915      45202831 
 10915      203C3C20 
 10916              	.LASF134:
 10917 2ae2 5F5F464C 		.ascii	"__FLT_EPSILON__ 1.1920928955078125e-7F\000"
 10917      545F4550 
 10917      53494C4F 
 10917      4E5F5F20 
 10917      312E3139 
 10918              	.LASF1219:
 10919 2b09 73693263 		.ascii	"si2c\000"
 10919      00
 10920              	.LASF974:
 10921 2b0e 4932435F 		.ascii	"I2C_CheckError(ErrorCode) (ErrorCode & 0x10000000)\000"
 10921      43686563 
 10921      6B457272 
 10921      6F722845 
 10921      72726F72 
 10922              	.LASF613:
 10923 2b41 4C50435F 		.ascii	"LPC_I2C ((LPC_I2C_T *) LPC_I2C_BASE)\000"
 10923      49324320 
 10923      28284C50 
 10923      435F4932 
 10923      435F5420 
 10924              	.LASF827:
 10925 2b66 55415254 		.ascii	"UART_FDR_DIVADDVAL(n) (n & 0x0F)\000"
 10925      5F464452 
 10925      5F444956 
 10925      41444456 
 10925      414C286E 
 10926              	.LASF758:
 10927 2b87 55415254 		.ascii	"UART_FCR_TRG_LEV2 (2 << 6)\000"
 10927      5F464352 
 10927      5F545247 
 10927      5F4C4556 
 10927      32202832 
 10928              	.LASF999:
 10929 2ba2 53444F5F 		.ascii	"SDO_ABORT_PARAINCOMP 0x06040043UL\000"
 10929      41424F52 
ARM GAS  /tmp/ccAFBUIw.s 			page 238


 10929      545F5041 
 10929      5241494E 
 10929      434F4D50 
 10930              	.LASF561:
 10931 2bc4 53797354 		.ascii	"SysTick_CTRL_COUNTFLAG_Pos 16\000"
 10931      69636B5F 
 10931      4354524C 
 10931      5F434F55 
 10931      4E54464C 
 10932              	.LASF399:
 10933 2be2 5F5F696E 		.ascii	"__int_least16_t_defined 1\000"
 10933      745F6C65 
 10933      61737431 
 10933      365F745F 
 10933      64656669 
 10934              	.LASF247:
 10935 2bfc 5F5F5541 		.ascii	"__UACCUM_EPSILON__ 0x1P-16UK\000"
 10935      4343554D 
 10935      5F455053 
 10935      494C4F4E 
 10935      5F5F2030 
 10936              	.LASF476:
 10937 2c19 5F424954 		.ascii	"_BIT(n) (1 << (n))\000"
 10937      286E2920 
 10937      2831203C 
 10937      3C20286E 
 10937      292900
 10938              	.LASF425:
 10939 2c2c 494E545F 		.ascii	"INT_LEAST32_MAX (__INT_LEAST32_MAX__)\000"
 10939      4C454153 
 10939      5433325F 
 10939      4D415820 
 10939      285F5F49 
 10940              	.LASF313:
 10941 2c52 5F5F4743 		.ascii	"__GCC_ATOMIC_SHORT_LOCK_FREE 1\000"
 10941      435F4154 
 10941      4F4D4943 
 10941      5F53484F 
 10941      52545F4C 
 10942              	.LASF471:
 10943 2c71 66616C73 		.ascii	"false 0\000"
 10943      65203000 
 10944              	.LASF535:
 10945 2c79 5343425F 		.ascii	"SCB_ICSR_VECTPENDING_Pos 12\000"
 10945      49435352 
 10945      5F564543 
 10945      5450454E 
 10945      44494E47 
 10946              	.LASF728:
 10947 2c95 55415254 		.ascii	"UART_DLM_MASKBIT (0xFF)\000"
 10947      5F444C4D 
 10947      5F4D4153 
 10947      4B424954 
 10947      20283078 
 10948              	.LASF846:
 10949 2cad 5F5F5353 		.ascii	"__SSP_11XX_H_ \000"
 10949      505F3131 
ARM GAS  /tmp/ccAFBUIw.s 			page 239


 10949      58585F48 
 10949      5F2000
 10950              	.LASF271:
 10951 2cbc 5F5F4851 		.ascii	"__HQ_IBIT__ 0\000"
 10951      5F494249 
 10951      545F5F20 
 10951      3000
 10952              	.LASF500:
 10953 2cca 5F5F434F 		.ascii	"__CORTEX_M (0x00)\000"
 10953      52544558 
 10953      5F4D2028 
 10953      30783030 
 10953      2900
 10954              	.LASF233:
 10955 2cdc 5F5F5553 		.ascii	"__USACCUM_FBIT__ 8\000"
 10955      41434355 
 10955      4D5F4642 
 10955      49545F5F 
 10955      203800
 10956              	.LASF317:
 10957 2cef 5F5F4743 		.ascii	"__GCC_ATOMIC_TEST_AND_SET_TRUEVAL 1\000"
 10957      435F4154 
 10957      4F4D4943 
 10957      5F544553 
 10957      545F414E 
 10958              	.LASF931:
 10959 2d13 4932435F 		.ascii	"I2C_I2STAT_M_RX_ARB_LOST ((0x38))\000"
 10959      49325354 
 10959      41545F4D 
 10959      5F52585F 
 10959      4152425F 
 10960              	.LASF536:
 10961 2d35 5343425F 		.ascii	"SCB_ICSR_VECTPENDING_Msk (0x1FFUL << SCB_ICSR_VECTP"
 10961      49435352 
 10961      5F564543 
 10961      5450454E 
 10961      44494E47 
 10962 2d68 454E4449 		.ascii	"ENDING_Pos)\000"
 10962      4E475F50 
 10962      6F732900 
 10963              	.LASF741:
 10964 2d74 55415254 		.ascii	"UART_IIR_ABEO_INT (1 << 8)\000"
 10964      5F494952 
 10964      5F414245 
 10964      4F5F494E 
 10964      54202831 
 10965              	.LASF715:
 10966 2d8f 54494D45 		.ascii	"TIMER_RESET_ON_MATCH(n) (_BIT((((n) * 3) + 1)))\000"
 10966      525F5245 
 10966      5345545F 
 10966      4F4E5F4D 
 10966      41544348 
 10967              	.LASF248:
 10968 2dbf 5F5F4C41 		.ascii	"__LACCUM_FBIT__ 31\000"
 10968      4343554D 
 10968      5F464249 
 10968      545F5F20 
ARM GAS  /tmp/ccAFBUIw.s 			page 240


 10968      333100
 10969              	.LASF978:
 10970 2dd2 43414E5F 		.ascii	"CAN_ERROR_NONE 0x00000000UL\000"
 10970      4552524F 
 10970      525F4E4F 
 10970      4E452030 
 10970      78303030 
 10971              	.LASF664:
 10972 2dee 5F5F494F 		.ascii	"__IOCON_11XX_H_ \000"
 10972      434F4E5F 
 10972      31315858 
 10972      5F485F20 
 10972      00
 10973              	.LASF956:
 10974 2dff 4932435F 		.ascii	"I2C_I2MMCTRL_BITMASK ((0x07))\000"
 10974      49324D4D 
 10974      4354524C 
 10974      5F424954 
 10974      4D41534B 
 10975              	.LASF711:
 10976 2e1d 54494D45 		.ascii	"TIMER_CAP_INT(n) (_BIT((((n) & 0x0F) + 4)))\000"
 10976      525F4341 
 10976      505F494E 
 10976      54286E29 
 10976      20285F42 
 10977              	.LASF873:
 10978 2e49 5F5F524F 		.ascii	"__ROMAPI_11XX_H_ \000"
 10978      4D415049 
 10978      5F313158 
 10978      585F485F 
 10978      2000
 10979              	.LASF1041:
 10980 2e5b 53595350 		.ascii	"SYSPLLCTRL\000"
 10980      4C4C4354 
 10980      524C00
 10981              	.LASF294:
 10982 2e66 5F5F5441 		.ascii	"__TA_FBIT__ 63\000"
 10982      5F464249 
 10982      545F5F20 
 10982      363300
 10983              	.LASF891:
 10984 2e75 4144435F 		.ascii	"ADC_CR_START_ADCTRIG0 ((4UL << 24))\000"
 10984      43525F53 
 10984      54415254 
 10984      5F414443 
 10984      54524947 
 10985              	.LASF936:
 10986 2e99 4932435F 		.ascii	"I2C_I2STAT_S_RX_SLAW_ACK ((0x60))\000"
 10986      49325354 
 10986      41545F53 
 10986      5F52585F 
 10986      534C4157 
 10987              	.LASF406:
 10988 2ebb 494E5450 		.ascii	"INTPTR_MIN (-__INTPTR_MAX__ - 1)\000"
 10988      54525F4D 
 10988      494E2028 
 10988      2D5F5F49 
ARM GAS  /tmp/ccAFBUIw.s 			page 241


 10988      4E545054 
 10989              	.LASF1039:
 10990 2edc 5359534D 		.ascii	"SYSMEMREMAP\000"
 10990      454D5245 
 10990      4D415000 
 10991              	.LASF605:
 10992 2ee8 4C50435F 		.ascii	"LPC_CAN0_BASE 0x40050000\000"
 10992      43414E30 
 10992      5F424153 
 10992      45203078 
 10992      34303035 
 10993              	.LASF724:
 10994 2f01 55415254 		.ascii	"UART_RBR_MASKBIT (0xFF)\000"
 10994      5F524252 
 10994      5F4D4153 
 10994      4B424954 
 10994      20283078 
 10995              	.LASF340:
 10996 2f19 5F5F4152 		.ascii	"__ARM_PCS 1\000"
 10996      4D5F5043 
 10996      53203100 
 10997              	.LASF1165:
 10998 2f25 4932435F 		.ascii	"I2C_EVENT_SLAVE_RX\000"
 10998      4556454E 
 10998      545F534C 
 10998      4156455F 
 10998      525800
 10999              	.LASF906:
 11000 2f38 4932435F 		.ascii	"I2C_I2CONSET_STA ((0x20))\000"
 11000      4932434F 
 11000      4E534554 
 11000      5F535441 
 11000      20282830 
 11001              	.LASF985:
 11002 2f52 43414E5F 		.ascii	"CAN_ERROR_BIT1 0x00000040UL\000"
 11002      4552524F 
 11002      525F4249 
 11002      54312030 
 11002      78303030 
 11003              	.LASF640:
 11004 2f6e 53595343 		.ascii	"SYSCTL_RST_WDT (1 << 2)\000"
 11004      544C5F52 
 11004      53545F57 
 11004      44542028 
 11004      31203C3C 
 11005              	.LASF603:
 11006 2f86 4C50435F 		.ascii	"LPC_SYSCTL_BASE 0x40048000\000"
 11006      53595343 
 11006      544C5F42 
 11006      41534520 
 11006      30783430 
 11007              	.LASF85:
 11008 2fa1 5F5F5349 		.ascii	"__SIG_ATOMIC_MIN__ (-__SIG_ATOMIC_MAX__ - 1)\000"
 11008      475F4154 
 11008      4F4D4943 
 11008      5F4D494E 
 11008      5F5F2028 
ARM GAS  /tmp/ccAFBUIw.s 			page 242


 11009              	.LASF245:
 11010 2fce 5F5F5541 		.ascii	"__UACCUM_MIN__ 0.0UK\000"
 11010      4343554D 
 11010      5F4D494E 
 11010      5F5F2030 
 11010      2E30554B 
 11011              	.LASF523:
 11012 2fe3 5343425F 		.ascii	"SCB_ICSR_PENDSVSET_Pos 28\000"
 11012      49435352 
 11012      5F50454E 
 11012      44535653 
 11012      45545F50 
 11013              	.LASF545:
 11014 2ffd 5343425F 		.ascii	"SCB_AIRCR_SYSRESETREQ_Pos 2\000"
 11014      41495243 
 11014      525F5359 
 11014      53524553 
 11014      45545245 
 11015              	.LASF509:
 11016 3019 5F5F4F20 		.ascii	"__O volatile\000"
 11016      766F6C61 
 11016      74696C65 
 11016      00
 11017              	.LASF624:
 11018 3026 4C50435F 		.ascii	"LPC_IOCON ((LPC_IOCON_T *) LPC_IOCON_BASE)\000"
 11018      494F434F 
 11018      4E202828 
 11018      4C50435F 
 11018      494F434F 
 11019              	.LASF944:
 11020 3051 4932435F 		.ascii	"I2C_I2STAT_S_RX_STA_STO_SLVREC_SLVTRX ((0xA0))\000"
 11020      49325354 
 11020      41545F53 
 11020      5F52585F 
 11020      5354415F 
 11021              	.LASF449:
 11022 3080 5349475F 		.ascii	"SIG_ATOMIC_MIN (-__STDINT_EXP(INT_MAX) - 1)\000"
 11022      41544F4D 
 11022      49435F4D 
 11022      494E2028 
 11022      2D5F5F53 
 11023              	.LASF926:
 11024 30ac 4932435F 		.ascii	"I2C_I2STAT_M_TX_DAT_ACK ((0x28))\000"
 11024      49325354 
 11024      41545F4D 
 11024      5F54585F 
 11024      4441545F 
 11025              	.LASF811:
 11026 30cd 55415254 		.ascii	"UART_RS485CTRL_AADEN (1 << 2)\000"
 11026      5F525334 
 11026      38354354 
 11026      524C5F41 
 11026      4144454E 
 11027              	.LASF1068:
 11028 30eb 55534243 		.ascii	"USBCLKUEN\000"
 11028      4C4B5545 
 11028      4E00
ARM GAS  /tmp/ccAFBUIw.s 			page 243


 11029              	.LASF1201:
 11030 30f5 636C6F63 		.ascii	"clockrate\000"
 11030      6B726174 
 11030      6500
 11031              	.LASF950:
 11032 30ff 4932435F 		.ascii	"I2C_SLAVE_TIME_OUT 0x10000000UL\000"
 11032      534C4156 
 11032      455F5449 
 11032      4D455F4F 
 11032      55542030 
 11033              	.LASF803:
 11034 311f 55415254 		.ascii	"UART_ACR_START (1 << 0)\000"
 11034      5F414352 
 11034      5F535441 
 11034      52542028 
 11034      31203C3C 
 11035              	.LASF824:
 11036 3137 55415254 		.ascii	"UART_SCICTRL_PROTSEL_T1 (1 << 2)\000"
 11036      5F534349 
 11036      4354524C 
 11036      5F50524F 
 11036      5453454C 
 11037              	.LASF94:
 11038 3158 5F5F494E 		.ascii	"__INT_LEAST8_MAX__ 127\000"
 11038      545F4C45 
 11038      41535438 
 11038      5F4D4158 
 11038      5F5F2031 
 11039              	.LASF903:
 11040 316f 4932435F 		.ascii	"I2C_I2CONSET_AA ((0x04))\000"
 11040      4932434F 
 11040      4E534554 
 11040      5F414120 
 11040      28283078 
 11041              	.LASF826:
 11042 3188 55415254 		.ascii	"UART_SCICTRL_GUARDTIME(n) ((n & 0xFF) << 8)\000"
 11042      5F534349 
 11042      4354524C 
 11042      5F475541 
 11042      52445449 
 11043              	.LASF1087:
 11044 31b4 55534243 		.ascii	"USBCLKCTRL\000"
 11044      4C4B4354 
 11044      524C00
 11045              	.LASF180:
 11046 31bf 5F5F4445 		.ascii	"__DEC64_SUBNORMAL_MIN__ 0.000000000000001E-383DD\000"
 11046      4336345F 
 11046      5355424E 
 11046      4F524D41 
 11046      4C5F4D49 
 11047              	.LASF197:
 11048 31f0 5F5F5553 		.ascii	"__USFRACT_EPSILON__ 0x1P-8UHR\000"
 11048      46524143 
 11048      545F4550 
 11048      53494C4F 
 11048      4E5F5F20 
 11049              	.LASF1186:
ARM GAS  /tmp/ccAFBUIw.s 			page 244


 11050 320e 73746172 		.ascii	"startSlaverXfer\000"
 11050      74536C61 
 11050      76657258 
 11050      66657200 
 11051              	.LASF479:
 11052 321e 5F424954 		.ascii	"_BITMASK\000"
 11052      4D41534B 
 11052      00
 11053              	.LASF113:
 11054 3227 5F5F494E 		.ascii	"__INT_FAST64_MAX__ 9223372036854775807LL\000"
 11054      545F4641 
 11054      53543634 
 11054      5F4D4158 
 11054      5F5F2039 
 11055              	.LASF623:
 11056 3250 4C50435F 		.ascii	"LPC_SSP0 ((LPC_SSP_T *) LPC_SSP0_BASE)\000"
 11056      53535030 
 11056      2028284C 
 11056      50435F53 
 11056      53505F54 
 11057              	.LASF193:
 11058 3277 5F5F5553 		.ascii	"__USFRACT_FBIT__ 8\000"
 11058      46524143 
 11058      545F4642 
 11058      49545F5F 
 11058      203800
 11059              	.LASF261:
 11060 328a 5F5F4C4C 		.ascii	"__LLACCUM_MAX__ 0X7FFFFFFFFFFFFFFFP-31LLK\000"
 11060      41434355 
 11060      4D5F4D41 
 11060      585F5F20 
 11060      30583746 
 11061              	.LASF740:
 11062 32b4 55415254 		.ascii	"UART_IIR_FIFO_EN (3 << 6)\000"
 11062      5F494952 
 11062      5F464946 
 11062      4F5F454E 
 11062      20283320 
 11063              	.LASF706:
 11064 32ce 46554E43 		.ascii	"FUNC6 0x6\000"
 11064      36203078 
 11064      3600
 11065              	.LASF400:
 11066 32d8 5F5F696E 		.ascii	"__int_least32_t_defined 1\000"
 11066      745F6C65 
 11066      61737433 
 11066      325F745F 
 11066      64656669 
 11067              	.LASF305:
 11068 32f2 5F5F5553 		.ascii	"__USER_LABEL_PREFIX__ \000"
 11068      45525F4C 
 11068      4142454C 
 11068      5F505245 
 11068      4649585F 
 11069              	.LASF868:
 11070 3309 5353505F 		.ascii	"SSP_CPHA_SECOND SSP_CR0_CPHA_SECOND\000"
 11070      43504841 
ARM GAS  /tmp/ccAFBUIw.s 			page 245


 11070      5F534543 
 11070      4F4E4420 
 11070      5353505F 
 11071              	.LASF610:
 11072 332d 4C50435F 		.ascii	"LPC_GPIO_PORT3_BASE 0x50030000\000"
 11072      4750494F 
 11072      5F504F52 
 11072      54335F42 
 11072      41534520 
 11073              	.LASF951:
 11074 334c 4932435F 		.ascii	"I2C_I2DAT_BITMASK ((0xFF))\000"
 11074      49324441 
 11074      545F4249 
 11074      544D4153 
 11074      4B202828 
 11075              	.LASF764:
 11076 3367 55415254 		.ascii	"UART_LCR_WLEN8 (3 << 0)\000"
 11076      5F4C4352 
 11076      5F574C45 
 11076      4E382028 
 11076      33203C3C 
 11077              	.LASF1107:
 11078 337f 53595343 		.ascii	"SYSCTL_CLOCK_FLASHARRAY\000"
 11078      544C5F43 
 11078      4C4F434B 
 11078      5F464C41 
 11078      53484152 
 11079              	.LASF463:
 11080 3397 494E5436 		.ascii	"INT64_C(x) __INT64_C(x)\000"
 11080      345F4328 
 11080      7829205F 
 11080      5F494E54 
 11080      36345F43 
 11081              	.LASF409:
 11082 33af 494E5438 		.ascii	"INT8_MIN (-__INT8_MAX__ - 1)\000"
 11082      5F4D494E 
 11082      20282D5F 
 11082      5F494E54 
 11082      385F4D41 
 11083              	.LASF1215:
 11084 33cc 696E6465 		.ascii	"index\000"
 11084      7800
 11085              	.LASF1109:
 11086 33d2 53595343 		.ascii	"SYSCTL_CLOCK_GPIO\000"
 11086      544C5F43 
 11086      4C4F434B 
 11086      5F475049 
 11086      4F00
 11087              	.LASF540:
 11088 33e4 5343425F 		.ascii	"SCB_AIRCR_VECTKEY_Msk (0xFFFFUL << SCB_AIRCR_VECTKE"
 11088      41495243 
 11088      525F5645 
 11088      43544B45 
 11088      595F4D73 
 11089 3417 595F506F 		.ascii	"Y_Pos)\000"
 11089      732900
 11090              	.LASF1207:
ARM GAS  /tmp/ccAFBUIw.s 			page 246


 11091 341e 43686970 		.ascii	"Chip_I2C_MasterSend\000"
 11091      5F493243 
 11091      5F4D6173 
 11091      74657253 
 11091      656E6400 
 11092              	.LASF1198:
 11093 3432 43686970 		.ascii	"Chip_Clock_DisablePeriphClock\000"
 11093      5F436C6F 
 11093      636B5F44 
 11093      69736162 
 11093      6C655065 
 11094              	.LASF633:
 11095 3450 504D555F 		.ascii	"PMU_PCON_PM_DEEPPOWERDOWN (0x2)\000"
 11095      50434F4E 
 11095      5F504D5F 
 11095      44454550 
 11095      504F5745 
 11096              	.LASF747:
 11097 3470 55415254 		.ascii	"UART_IIR_INTID_CTI (6 << 1)\000"
 11097      5F494952 
 11097      5F494E54 
 11097      49445F43 
 11097      54492028 
 11098              	.LASF1044:
 11099 348c 55534250 		.ascii	"USBPLLSTAT\000"
 11099      4C4C5354 
 11099      415400
 11100              	.LASF1218:
 11101 3497 61646472 		.ascii	"addrMask\000"
 11101      4D61736B 
 11101      00
 11102              	.LASF325:
 11103 34a0 5F5F4152 		.ascii	"__ARM_SIZEOF_WCHAR_T 4\000"
 11103      4D5F5349 
 11103      5A454F46 
 11103      5F574348 
 11103      41525F54 
 11104              	.LASF417:
 11105 34b7 55494E54 		.ascii	"UINT16_MAX (__UINT16_MAX__)\000"
 11105      31365F4D 
 11105      41582028 
 11105      5F5F5549 
 11105      4E543136 
 11106              	.LASF66:
 11107 34d3 5F5F6861 		.ascii	"__has_include(STR) __has_include__(STR)\000"
 11107      735F696E 
 11107      636C7564 
 11107      65285354 
 11107      5229205F 
 11108              	.LASF1002:
 11109 34fb 53444F5F 		.ascii	"SDO_ABORT_UNKNOWNSUB 0x06090011UL\000"
 11109      41424F52 
 11109      545F554E 
 11109      4B4E4F57 
 11109      4E535542 
 11110              	.LASF520:
 11111 351d 5343425F 		.ascii	"SCB_CPUID_REVISION_Msk (0xFUL << SCB_CPUID_REVISION"
ARM GAS  /tmp/ccAFBUIw.s 			page 247


 11111      43505549 
 11111      445F5245 
 11111      56495349 
 11111      4F4E5F4D 
 11112 3550 5F506F73 		.ascii	"_Pos)\000"
 11112      2900
 11113              	.LASF752:
 11114 3556 55415254 		.ascii	"UART_FCR_TX_RS (1 << 2)\000"
 11114      5F464352 
 11114      5F54585F 
 11114      52532028 
 11114      31203C3C 
 11115              	.LASF665:
 11116 356e 494F434F 		.ascii	"IOCON_FUNC0 0x0\000"
 11116      4E5F4655 
 11116      4E433020 
 11116      30783000 
 11117              	.LASF148:
 11118 357e 5F5F4442 		.ascii	"__DBL_EPSILON__ ((double)2.2204460492503131e-16L)\000"
 11118      4C5F4550 
 11118      53494C4F 
 11118      4E5F5F20 
 11118      2828646F 
 11119              	.LASF786:
 11120 35b0 55415254 		.ascii	"UART_LSR_FE (1 << 3)\000"
 11120      5F4C5352 
 11120      5F464520 
 11120      2831203C 
 11120      3C203329 
 11121              	.LASF137:
 11122 35c5 5F5F464C 		.ascii	"__FLT_HAS_INFINITY__ 1\000"
 11122      545F4841 
 11122      535F494E 
 11122      46494E49 
 11122      54595F5F 
 11123              	.LASF959:
 11124 35dc 4932435F 		.ascii	"I2C_I2ADR_BITMASK ((0xFF))\000"
 11124      49324144 
 11124      525F4249 
 11124      544D4153 
 11124      4B202828 
 11125              	.LASF534:
 11126 35f7 5343425F 		.ascii	"SCB_ICSR_ISRPENDING_Msk (1UL << SCB_ICSR_ISRPENDING"
 11126      49435352 
 11126      5F495352 
 11126      50454E44 
 11126      494E475F 
 11127 362a 5F506F73 		.ascii	"_Pos)\000"
 11127      2900
 11128              	.LASF156:
 11129 3630 5F5F4C44 		.ascii	"__LDBL_MIN_10_EXP__ (-307)\000"
 11129      424C5F4D 
 11129      494E5F31 
 11129      305F4558 
 11129      505F5F20 
 11130              	.LASF817:
 11131 364b 55415254 		.ascii	"UART_ICR_IRDAINV (1 << 1)\000"
ARM GAS  /tmp/ccAFBUIw.s 			page 248


 11131      5F494352 
 11131      5F495244 
 11131      41494E56 
 11131      20283120 
 11132              	.LASF1129:
 11133 3665 4D4D4354 		.ascii	"MMCTRL\000"
 11133      524C00
 11134              	.LASF616:
 11135 366c 4C50435F 		.ascii	"LPC_TIMER16_0 ((LPC_TIMER_T *) LPC_TIMER16_0_BASE)\000"
 11135      54494D45 
 11135      5231365F 
 11135      30202828 
 11135      4C50435F 
 11136              	.LASF319:
 11137 369f 5F5F4743 		.ascii	"__GCC_HAVE_DWARF2_CFI_ASM 1\000"
 11137      435F4841 
 11137      56455F44 
 11137      57415246 
 11137      325F4346 
 11138              	.LASF1193:
 11139 36bb 656E6162 		.ascii	"enableClk\000"
 11139      6C65436C 
 11139      6B00
 11140              	.LASF190:
 11141 36c5 5F5F5346 		.ascii	"__SFRACT_MIN__ (-0.5HR-0.5HR)\000"
 11141      52414354 
 11141      5F4D494E 
 11141      5F5F2028 
 11141      2D302E35 
 11142              	.LASF1031:
 11143 36e3 6C6F6E67 		.ascii	"long unsigned int\000"
 11143      20756E73 
 11143      69676E65 
 11143      6420696E 
 11143      7400
 11144              	.LASF291:
 11145 36f5 5F5F5341 		.ascii	"__SA_IBIT__ 16\000"
 11145      5F494249 
 11145      545F5F20 
 11145      313600
 11146              	.LASF1216:
 11147 3704 61626173 		.ascii	"abase\000"
 11147      6500
 11148              	.LASF2:
 11149 370a 5F5F474E 		.ascii	"__GNUC__ 4\000"
 11149      55435F5F 
 11149      203400
 11150              	.LASF1146:
 11151 3715 4932435F 		.ascii	"I2C_STATUS_BUSERR\000"
 11151      53544154 
 11151      55535F42 
 11151      55534552 
 11151      5200
 11152              	.LASF1155:
 11153 3727 4932435F 		.ascii	"I2C_XFER_T\000"
 11153      58464552 
 11153      5F5400
ARM GAS  /tmp/ccAFBUIw.s 			page 249


 11154              	.LASF1166:
 11155 3732 4932435F 		.ascii	"I2C_EVENT_SLAVE_TX\000"
 11155      4556454E 
 11155      545F534C 
 11155      4156455F 
 11155      545800
 11156              	.LASF710:
 11157 3745 54494D45 		.ascii	"TIMER_MATCH_INT(n) (_BIT((n) & 0x0F))\000"
 11157      525F4D41 
 11157      5443485F 
 11157      494E5428 
 11157      6E292028 
 11158              	.LASF45:
 11159 376b 5F5F5549 		.ascii	"__UINT16_TYPE__ short unsigned int\000"
 11159      4E543136 
 11159      5F545950 
 11159      455F5F20 
 11159      73686F72 
 11160              	.LASF813:
 11161 378e 55415254 		.ascii	"UART_RS485CTRL_DCTRL_EN (1 << 4)\000"
 11161      5F525334 
 11161      38354354 
 11161      524C5F44 
 11161      4354524C 
 11162              	.LASF334:
 11163 37af 5F5F534F 		.ascii	"__SOFTFP__ 1\000"
 11163      46544650 
 11163      5F5F2031 
 11163      00
 11164              	.LASF1154:
 11165 37bc 73746174 		.ascii	"status\000"
 11165      757300
 11166              	.LASF448:
 11167 37c3 53495A45 		.ascii	"SIZE_MAX (__SIZE_MAX__)\000"
 11167      5F4D4158 
 11167      20285F5F 
 11167      53495A45 
 11167      5F4D4158 
 11168              	.LASF169:
 11169 37db 5F5F4445 		.ascii	"__DEC32_MAX_EXP__ 97\000"
 11169      4333325F 
 11169      4D41585F 
 11169      4558505F 
 11169      5F203937 
 11170              	.LASF577:
 11171 37f0 53797354 		.ascii	"SysTick_CALIB_TENMS_Pos 0\000"
 11171      69636B5F 
 11171      43414C49 
 11171      425F5445 
 11171      4E4D535F 
 11172              	.LASF833:
 11173 380a 55415254 		.ascii	"UART_SYNCCTRL_CSRC_MASTER (1 << 1)\000"
 11173      5F53594E 
 11173      43435452 
 11173      4C5F4353 
 11173      52435F4D 
 11174              	.LASF648:
ARM GAS  /tmp/ccAFBUIw.s 			page 250


 11175 382d 53595343 		.ascii	"SYSCTL_SLPWAKE_FLASH_PD (1 << 2)\000"
 11175      544C5F53 
 11175      4C505741 
 11175      4B455F46 
 11175      4C415348 
 11176              	.LASF378:
 11177 384e 696E7420 		.ascii	"int +2\000"
 11177      2B3200
 11178              	.LASF1143:
 11179 3855 4932435F 		.ascii	"I2C_STATUS_DONE\000"
 11179      53544154 
 11179      55535F44 
 11179      4F4E4500 
 11180              	.LASF896:
 11181 3865 5F5F4750 		.ascii	"__GPIO_11XX_2_H_ \000"
 11181      494F5F31 
 11181      3158585F 
 11181      325F485F 
 11181      2000
 11182              	.LASF457:
 11183 3877 494E5438 		.ascii	"INT8_C(x) __INT8_C(x)\000"
 11183      5F432878 
 11183      29205F5F 
 11183      494E5438 
 11183      5F432878 
 11184              	.LASF60:
 11185 388d 5F5F5549 		.ascii	"__UINT_FAST8_TYPE__ unsigned int\000"
 11185      4E545F46 
 11185      41535438 
 11185      5F545950 
 11185      455F5F20 
 11186              	.LASF259:
 11187 38ae 5F5F4C4C 		.ascii	"__LLACCUM_IBIT__ 32\000"
 11187      41434355 
 11187      4D5F4942 
 11187      49545F5F 
 11187      20333200 
 11188              	.LASF1142:
 11189 38c2 4932435F 		.ascii	"I2C_SLAVE_ID\000"
 11189      534C4156 
 11189      455F4944 
 11189      00
 11190              	.LASF202:
 11191 38cf 5F5F4652 		.ascii	"__FRACT_EPSILON__ 0x1P-15R\000"
 11191      4143545F 
 11191      45505349 
 11191      4C4F4E5F 
 11191      5F203078 
 11192              	.LASF484:
 11193 38ea 45585445 		.ascii	"EXTERN extern\000"
 11193      524E2065 
 11193      78746572 
 11193      6E00
 11194              	.LASF532:
 11195 38f8 5343425F 		.ascii	"SCB_ICSR_ISRPREEMPT_Msk (1UL << SCB_ICSR_ISRPREEMPT"
 11195      49435352 
 11195      5F495352 
ARM GAS  /tmp/ccAFBUIw.s 			page 251


 11195      50524545 
 11195      4D50545F 
 11196 392b 5F506F73 		.ascii	"_Pos)\000"
 11196      2900
 11197              	.LASF778:
 11198 3931 55415254 		.ascii	"UART_MCR_RTS_CTRL (1 << 1)\000"
 11198      5F4D4352 
 11198      5F525453 
 11198      5F435452 
 11198      4C202831 
 11199              	.LASF860:
 11200 394c 5353505F 		.ascii	"SSP_CR1_MASTER_EN ((uint32_t) (0))\000"
 11200      4352315F 
 11200      4D415354 
 11200      45525F45 
 11200      4E202828 
 11201              	.LASF969:
 11202 396f 4932435F 		.ascii	"I2C_LAST_BYTE_RECV 0x04\000"
 11202      4C415354 
 11202      5F425954 
 11202      455F5245 
 11202      43562030 
 11203              	.LASF342:
 11204 3987 5F5F4758 		.ascii	"__GXX_TYPEINFO_EQUALITY_INLINE 0\000"
 11204      585F5459 
 11204      5045494E 
 11204      464F5F45 
 11204      5155414C 
 11205              	.LASF493:
 11206 39a8 5F5F4D50 		.ascii	"__MPU_PRESENT 0\000"
 11206      555F5052 
 11206      4553454E 
 11206      54203000 
 11207              	.LASF39:
 11208 39b8 5F5F5349 		.ascii	"__SIG_ATOMIC_TYPE__ int\000"
 11208      475F4154 
 11208      4F4D4943 
 11208      5F545950 
 11208      455F5F20 
 11209              	.LASF393:
 11210 39d0 5F535953 		.ascii	"_SYS__STDINT_H \000"
 11210      5F5F5354 
 11210      44494E54 
 11210      5F482000 
 11211              	.LASF71:
 11212 39e0 5F5F494E 		.ascii	"__INT_MAX__ 2147483647\000"
 11212      545F4D41 
 11212      585F5F20 
 11212      32313437 
 11212      34383336 
 11213              	.LASF55:
 11214 39f7 5F5F5549 		.ascii	"__UINT_LEAST64_TYPE__ long long unsigned int\000"
 11214      4E545F4C 
 11214      45415354 
 11214      36345F54 
 11214      5950455F 
 11215              	.LASF186:
ARM GAS  /tmp/ccAFBUIw.s 			page 252


 11216 3a24 5F5F4445 		.ascii	"__DEC128_EPSILON__ 1E-33DL\000"
 11216      43313238 
 11216      5F455053 
 11216      494C4F4E 
 11216      5F5F2031 
 11217              	.LASF1212:
 11218 3a3f 43686970 		.ascii	"Chip_I2C_MasterStateHandler\000"
 11218      5F493243 
 11218      5F4D6173 
 11218      74657253 
 11218      74617465 
 11219              	.LASF88:
 11220 3a5b 5F5F494E 		.ascii	"__INT32_MAX__ 2147483647L\000"
 11220      5433325F 
 11220      4D41585F 
 11220      5F203231 
 11220      34373438 
 11221              	.LASF1012:
 11222 3a75 4F445F53 		.ascii	"OD_SEG_WO 0x50\000"
 11222      45475F57 
 11222      4F203078 
 11222      353000
 11223              	.LASF670:
 11224 3a84 494F434F 		.ascii	"IOCON_FUNC5 0x5\000"
 11224      4E5F4655 
 11224      4E433520 
 11224      30783500 
 11225              	.LASF310:
 11226 3a94 5F5F4743 		.ascii	"__GCC_ATOMIC_CHAR16_T_LOCK_FREE 1\000"
 11226      435F4154 
 11226      4F4D4943 
 11226      5F434841 
 11226      5231365F 
 11227              	.LASF1172:
 11228 3ab6 73586665 		.ascii	"sXfer\000"
 11228      7200
 11229              	.LASF388:
 11230 3abc 5F5F4641 		.ascii	"__FAST64 \"ll\"\000"
 11230      53543634 
 11230      20226C6C 
 11230      2200
 11231              	.LASF9:
 11232 3aca 5F5F4154 		.ascii	"__ATOMIC_RELEASE 3\000"
 11232      4F4D4943 
 11232      5F52454C 
 11232      45415345 
 11232      203300
 11233              	.LASF375:
 11234 3add 756E7369 		.ascii	"unsigned +0\000"
 11234      676E6564 
 11234      202B3000 
 11235              	.LASF125:
 11236 3ae9 5F5F464C 		.ascii	"__FLT_MANT_DIG__ 24\000"
 11236      545F4D41 
 11236      4E545F44 
 11236      49475F5F 
 11236      20323400 
ARM GAS  /tmp/ccAFBUIw.s 			page 253


 11237              	.LASF1156:
 11238 3afd 43484950 		.ascii	"CHIP_SYSCTL_CLOCK\000"
 11238      5F535953 
 11238      43544C5F 
 11238      434C4F43 
 11238      4B00
 11239              	.LASF1084:
 11240 3b0f 4952514C 		.ascii	"IRQLATENCY\000"
 11240      4154454E 
 11240      435900
 11241              	.LASF58:
 11242 3b1a 5F5F494E 		.ascii	"__INT_FAST32_TYPE__ int\000"
 11242      545F4641 
 11242      53543332 
 11242      5F545950 
 11242      455F5F20 
 11243              	.LASF1119:
 11244 3b32 53595343 		.ascii	"SYSCTL_CLOCK_IOCON\000"
 11244      544C5F43 
 11244      4C4F434B 
 11244      5F494F43 
 11244      4F4E00
 11245              	.LASF447:
 11246 3b45 55494E54 		.ascii	"UINTMAX_MAX (__UINTMAX_MAX__)\000"
 11246      4D41585F 
 11246      4D415820 
 11246      285F5F55 
 11246      494E544D 
 11247              	.LASF882:
 11248 3b63 4144435F 		.ascii	"ADC_CR_CH_SEL(n) ((1UL << (n)))\000"
 11248      43525F43 
 11248      485F5345 
 11248      4C286E29 
 11248      20282831 
 11249              	.LASF1226:
 11250 3b83 2E2E2F2E 		.ascii	"../../lpc11cx4-library/lpc_chip_11cxx_lib/src/i2c_1"
 11250      2E2F6C70 
 11250      63313163 
 11250      78342D6C 
 11250      69627261 
 11251 3bb6 3178782E 		.ascii	"1xx.c\000"
 11251      6300
 11252              	.LASF13:
 11253 3bbc 5F5F4F50 		.ascii	"__OPTIMIZE__ 1\000"
 11253      54494D49 
 11253      5A455F5F 
 11253      203100
 11254              	.LASF1150:
 11255 3bcb 74784275 		.ascii	"txBuff\000"
 11255      666600
 11256              	.LASF1210:
 11257 3bd2 43686970 		.ascii	"Chip_I2C_MasterRead\000"
 11257      5F493243 
 11257      5F4D6173 
 11257      74657252 
 11257      65616400 
 11258              	.LASF630:
ARM GAS  /tmp/ccAFBUIw.s 			page 254


 11259 3be6 4C50435F 		.ascii	"LPC_ROM_API (*((LPC_ROM_API_T * *) LPC_ROM_API_BASE"
 11259      524F4D5F 
 11259      41504920 
 11259      282A2828 
 11259      4C50435F 
 11260 3c19 5F4C4F43 		.ascii	"_LOC))\000"
 11260      292900
 11261              	.LASF387:
 11262 3c20 5F5F4641 		.ascii	"__FAST32 \000"
 11262      53543332 
 11262      2000
 11263              	.LASF508:
 11264 3c2a 5F5F4920 		.ascii	"__I volatile const\000"
 11264      766F6C61 
 11264      74696C65 
 11264      20636F6E 
 11264      737400
 11265              	.LASF843:
 11266 3c3d 57574454 		.ascii	"WWDT_WDMOD_WDTOF ((uint32_t) (1 << 2))\000"
 11266      5F57444D 
 11266      4F445F57 
 11266      44544F46 
 11266      20282875 
 11267              	.LASF892:
 11268 3c64 4144435F 		.ascii	"ADC_CR_START_ADCTRIG1 ((5UL << 24))\000"
 11268      43525F53 
 11268      54415254 
 11268      5F414443 
 11268      54524947 
 11269              	.LASF163:
 11270 3c88 5F5F4C44 		.ascii	"__LDBL_DENORM_MIN__ 4.9406564584124654e-324L\000"
 11270      424C5F44 
 11270      454E4F52 
 11270      4D5F4D49 
 11270      4E5F5F20 
 11271              	.LASF1197:
 11272 3cb5 64697361 		.ascii	"disableClk\000"
 11272      626C6543 
 11272      6C6B00
 11273              	.LASF395:
 11274 3cc0 5F5F696E 		.ascii	"__int16_t_defined 1\000"
 11274      7431365F 
 11274      745F6465 
 11274      66696E65 
 11274      64203100 
 11275              	.LASF224:
 11276 3cd4 5F5F554C 		.ascii	"__ULLFRACT_IBIT__ 0\000"
 11276      4C465241 
 11276      43545F49 
 11276      4249545F 
 11276      5F203000 
 11277              	.LASF1104:
 11278 3ce8 53595343 		.ascii	"SYSCTL_CLOCK_ROM\000"
 11278      544C5F43 
 11278      4C4F434B 
 11278      5F524F4D 
 11278      00
ARM GAS  /tmp/ccAFBUIw.s 			page 255


 11279              	.LASF793:
 11280 3cf9 55415254 		.ascii	"UART1_LSR_BITMASK (0x1FF)\000"
 11280      315F4C53 
 11280      525F4249 
 11280      544D4153 
 11280      4B202830 
 11281              	.LASF759:
 11282 3d13 55415254 		.ascii	"UART_FCR_TRG_LEV3 (3 << 6)\000"
 11282      5F464352 
 11282      5F545247 
 11282      5F4C4556 
 11282      33202833 
 11283              	.LASF809:
 11284 3d2e 55415254 		.ascii	"UART_RS485CTRL_NMM_EN (1 << 0)\000"
 11284      5F525334 
 11284      38354354 
 11284      524C5F4E 
 11284      4D4D5F45 
 11285              	.LASF626:
 11286 3d4d 4C50435F 		.ascii	"LPC_SSP1 ((LPC_SSP_T *) LPC_SSP1_BASE)\000"
 11286      53535031 
 11286      2028284C 
 11286      50435F53 
 11286      53505F54 
 11287              	.LASF821:
 11288 3d74 55415254 		.ascii	"UART_HDEN_HDEN ((1 << 0))\000"
 11288      5F484445 
 11288      4E5F4844 
 11288      454E2028 
 11288      2831203C 
 11289              	.LASF519:
 11290 3d8e 5343425F 		.ascii	"SCB_CPUID_REVISION_Pos 0\000"
 11290      43505549 
 11290      445F5245 
 11290      56495349 
 11290      4F4E5F50 
 11291              	.LASF503:
 11292 3da7 5F5F5354 		.ascii	"__STATIC_INLINE static inline\000"
 11292      41544943 
 11292      5F494E4C 
 11292      494E4520 
 11292      73746174 
 11293              	.LASF599:
 11294 3dc5 4C50435F 		.ascii	"LPC_PMU_BASE 0x40038000\000"
 11294      504D555F 
 11294      42415345 
 11294      20307834 
 11294      30303338 
 11295              	.LASF401:
 11296 3ddd 5F5F696E 		.ascii	"__int_least64_t_defined 1\000"
 11296      745F6C65 
 11296      61737436 
 11296      345F745F 
 11296      64656669 
 11297              	.LASF918:
 11298 3df7 4932435F 		.ascii	"I2C_STAT_CODE_BITMASK ((0xF8))\000"
 11298      53544154 
ARM GAS  /tmp/ccAFBUIw.s 			page 256


 11298      5F434F44 
 11298      455F4249 
 11298      544D4153 
 11299              	.LASF132:
 11300 3e16 5F5F464C 		.ascii	"__FLT_MAX__ 3.4028234663852886e+38F\000"
 11300      545F4D41 
 11300      585F5F20 
 11300      332E3430 
 11300      32383233 
 11301              	.LASF662:
 11302 3e3a 5F5F434C 		.ascii	"__CLOCK_11XX_H_ \000"
 11302      4F434B5F 
 11302      31315858 
 11302      5F485F20 
 11302      00
 11303              	.LASF243:
 11304 3e4b 5F5F5541 		.ascii	"__UACCUM_FBIT__ 16\000"
 11304      4343554D 
 11304      5F464249 
 11304      545F5F20 
 11304      313600
 11305              	.LASF1018:
 11306 3e5e 43414E5F 		.ascii	"CAN_SDOSEG_OPEN 1\000"
 11306      53444F53 
 11306      45475F4F 
 11306      50454E20 
 11306      3100
 11307              	.LASF207:
 11308 3e70 5F5F5546 		.ascii	"__UFRACT_EPSILON__ 0x1P-16UR\000"
 11308      52414354 
 11308      5F455053 
 11308      494C4F4E 
 11308      5F5F2030 
 11309              	.LASF75:
 11310 3e8d 5F5F5743 		.ascii	"__WCHAR_MIN__ 0U\000"
 11310      4841525F 
 11310      4D494E5F 
 11310      5F203055 
 11310      00
 11311              	.LASF92:
 11312 3e9e 5F5F5549 		.ascii	"__UINT32_MAX__ 4294967295UL\000"
 11312      4E543332 
 11312      5F4D4158 
 11312      5F5F2034 
 11312      32393439 
 11313              	.LASF489:
 11314 3eba 5F5F5359 		.ascii	"__SYS_CONFIG_H_ \000"
 11314      535F434F 
 11314      4E464947 
 11314      5F485F20 
 11314      00
 11315              	.LASF279:
 11316 3ecb 5F5F5551 		.ascii	"__UQQ_IBIT__ 0\000"
 11316      515F4942 
 11316      49545F5F 
 11316      203000
 11317              	.LASF315:
ARM GAS  /tmp/ccAFBUIw.s 			page 257


 11318 3eda 5F5F4743 		.ascii	"__GCC_ATOMIC_LONG_LOCK_FREE 1\000"
 11318      435F4154 
 11318      4F4D4943 
 11318      5F4C4F4E 
 11318      475F4C4F 
 11319              	.LASF255:
 11320 3ef8 5F5F554C 		.ascii	"__ULACCUM_MIN__ 0.0ULK\000"
 11320      41434355 
 11320      4D5F4D49 
 11320      4E5F5F20 
 11320      302E3055 
 11321              	.LASF1030:
 11322 3f0f 5F5F7569 		.ascii	"__uint32_t\000"
 11322      6E743332 
 11322      5F7400
 11323              	.LASF160:
 11324 3f1a 5F5F4C44 		.ascii	"__LDBL_MAX__ 1.7976931348623157e+308L\000"
 11324      424C5F4D 
 11324      41585F5F 
 11324      20312E37 
 11324      39373639 
 11325              	.LASF124:
 11326 3f40 5F5F464C 		.ascii	"__FLT_RADIX__ 2\000"
 11326      545F5241 
 11326      4449585F 
 11326      5F203200 
 11327              	.LASF851:
 11328 3f50 5353505F 		.ascii	"SSP_CR0_CPOL_LO ((uint32_t) (0))\000"
 11328      4352305F 
 11328      43504F4C 
 11328      5F4C4F20 
 11328      28287569 
 11329              	.LASF1032:
 11330 3f71 6C6F6E67 		.ascii	"long long int\000"
 11330      206C6F6E 
 11330      6720696E 
 11330      7400
 11331              	.LASF872:
 11332 3f7f 5353505F 		.ascii	"SSP_MASTER_MODE SSP_CR1_MASTER_EN\000"
 11332      4D415354 
 11332      45525F4D 
 11332      4F444520 
 11332      5353505F 
 11333              	.LASF704:
 11334 3fa1 46554E43 		.ascii	"FUNC4 0x4\000"
 11334      34203078 
 11334      3400
 11335              	.LASF423:
 11336 3fab 55494E54 		.ascii	"UINT32_MAX (__UINT32_MAX__)\000"
 11336      33325F4D 
 11336      41582028 
 11336      5F5F5549 
 11336      4E543332 
 11337              	.LASF776:
 11338 3fc7 55415254 		.ascii	"UART_LCR_BITMASK (0xFF)\000"
 11338      5F4C4352 
 11338      5F424954 
ARM GAS  /tmp/ccAFBUIw.s 			page 258


 11338      4D41534B 
 11338      20283078 
 11339              	.LASF1206:
 11340 3fdf 43686970 		.ascii	"Chip_I2C_MasterTransfer\000"
 11340      5F493243 
 11340      5F4D6173 
 11340      74657254 
 11340      72616E73 
 11341              	.LASF767:
 11342 3ff7 55415254 		.ascii	"UART_LCR_SBS_2BIT (1 << 2)\000"
 11342      5F4C4352 
 11342      5F534253 
 11342      5F324249 
 11342      54202831 
 11343              	.LASF723:
 11344 4012 52425F56 		.ascii	"RB_VTAIL(rb) (*(volatile uint32_t *) &(rb)->tail)\000"
 11344      5441494C 
 11344      28726229 
 11344      20282A28 
 11344      766F6C61 
 11345              	.LASF965:
 11346 4044 4932435F 		.ascii	"I2C_SETUP_STATUS_DONE (1 << 10)\000"
 11346      53455455 
 11346      505F5354 
 11346      41545553 
 11346      5F444F4E 
 11347              	.LASF651:
 11348 4064 53595343 		.ascii	"SYSCTL_SLPWAKE_SYSOSC_PD (1 << 5)\000"
 11348      544C5F53 
 11348      4C505741 
 11348      4B455F53 
 11348      59534F53 
 11349              	.LASF455:
 11350 4086 57494E54 		.ascii	"WINT_MAX (__WINT_MAX__)\000"
 11350      5F4D4158 
 11350      20285F5F 
 11350      57494E54 
 11350      5F4D4158 
 11351              	.LASF980:
 11352 409e 43414E5F 		.ascii	"CAN_ERROR_WARN 0x00000002UL\000"
 11352      4552524F 
 11352      525F5741 
 11352      524E2030 
 11352      78303030 
 11353              	.LASF880:
 11354 40ba 4144435F 		.ascii	"ADC_DR_DONE(n) (((n) >> 31))\000"
 11354      44525F44 
 11354      4F4E4528 
 11354      6E292028 
 11354      28286E29 
 11355              	.LASF881:
 11356 40d7 4144435F 		.ascii	"ADC_DR_OVERRUN(n) ((((n) >> 30) & (1UL)))\000"
 11356      44525F4F 
 11356      56455252 
 11356      554E286E 
 11356      29202828 
 11357              	.LASF289:
ARM GAS  /tmp/ccAFBUIw.s 			page 259


 11358 4101 5F5F4841 		.ascii	"__HA_IBIT__ 8\000"
 11358      5F494249 
 11358      545F5F20 
 11358      3800
 11359              	.LASF1227:
 11360 410f 2F686F6D 		.ascii	"/home/evt/opel_EE/opel_user_interface/firmware\000"
 11360      652F6576 
 11360      742F6F70 
 11360      656C5F45 
 11360      452F6F70 
 11361              	.LASF915:
 11362 413e 4932435F 		.ascii	"I2C_CON_STO (1UL << 4)\000"
 11362      434F4E5F 
 11362      53544F20 
 11362      2831554C 
 11362      203C3C20 
 11363              	.LASF1203:
 11364 4155 43686970 		.ascii	"Chip_I2C_GetClockRate\000"
 11364      5F493243 
 11364      5F476574 
 11364      436C6F63 
 11364      6B526174 
 11365              	.LASF586:
 11366 416b 5F424954 		.ascii	"_BIT_SHIFT(IRQn) ( (((uint32_t)(IRQn) ) & 0x03) * 8"
 11366      5F534849 
 11366      46542849 
 11366      52516E29 
 11366      20282028 
 11367 419e 202900   		.ascii	" )\000"
 11368              	.LASF802:
 11369 41a1 55415254 		.ascii	"UART_MSR_BITMASK (0xFF)\000"
 11369      5F4D5352 
 11369      5F424954 
 11369      4D41534B 
 11369      20283078 
 11370              	.LASF1231:
 11371 41b9 43686970 		.ascii	"Chip_Clock_GetMainClockRate\000"
 11371      5F436C6F 
 11371      636B5F47 
 11371      65744D61 
 11371      696E436C 
 11372              	.LASF797:
 11373 41d5 55415254 		.ascii	"UART_MSR_DELTA_DCD (1 << 3)\000"
 11373      5F4D5352 
 11373      5F44454C 
 11373      54415F44 
 11373      43442028 
 11374              	.LASF822:
 11375 41f1 55415254 		.ascii	"UART_SCICTRL_SCIEN (1 << 0)\000"
 11375      5F534349 
 11375      4354524C 
 11375      5F534349 
 11375      454E2028 
 11376              	.LASF962:
 11377 420d 4932435F 		.ascii	"I2C_I2SCLL_BITMASK ((0xFFFF))\000"
 11377      49325343 
 11377      4C4C5F42 
ARM GAS  /tmp/ccAFBUIw.s 			page 260


 11377      49544D41 
 11377      534B2028 
 11378              	.LASF1050:
 11379 422b 53595352 		.ascii	"SYSRSTSTAT\000"
 11379      53545354 
 11379      415400
 11380              	.LASF81:
 11381 4236 5F5F494E 		.ascii	"__INTMAX_C(c) c ## LL\000"
 11381      544D4158 
 11381      5F432863 
 11381      29206320 
 11381      2323204C 
 11382              	.LASF845:
 11383 424c 57574454 		.ascii	"WWDT_WDMOD_WDPROTECT ((uint32_t) (1 << 4))\000"
 11383      5F57444D 
 11383      4F445F57 
 11383      4450524F 
 11383      54454354 
 11384              	.LASF925:
 11385 4277 4932435F 		.ascii	"I2C_I2STAT_M_TX_SLAW_NACK ((0x20))\000"
 11385      49325354 
 11385      41545F4D 
 11385      5F54585F 
 11385      534C4157 
 11386              	.LASF772:
 11387 429a 55415254 		.ascii	"UART_LCR_PARITY_F_1 (2 << 4)\000"
 11387      5F4C4352 
 11387      5F504152 
 11387      4954595F 
 11387      465F3120 
 11388              	.LASF768:
 11389 42b7 55415254 		.ascii	"UART_LCR_PARITY_EN (1 << 3)\000"
 11389      5F4C4352 
 11389      5F504152 
 11389      4954595F 
 11389      454E2028 
 11390              	.LASF43:
 11391 42d3 5F5F494E 		.ascii	"__INT64_TYPE__ long long int\000"
 11391      5436345F 
 11391      54595045 
 11391      5F5F206C 
 11391      6F6E6720 
 11392              	.LASF208:
 11393 42f0 5F5F4C46 		.ascii	"__LFRACT_FBIT__ 31\000"
 11393      52414354 
 11393      5F464249 
 11393      545F5F20 
 11393      333100
 11394              	.LASF23:
 11395 4303 5F5F4348 		.ascii	"__CHAR_BIT__ 8\000"
 11395      41525F42 
 11395      49545F5F 
 11395      203800
 11396              	.LASF321:
 11397 4312 5F5F5349 		.ascii	"__SIZEOF_WCHAR_T__ 4\000"
 11397      5A454F46 
 11397      5F574348 
ARM GAS  /tmp/ccAFBUIw.s 			page 261


 11397      41525F54 
 11397      5F5F2034 
 11398              	.LASF600:
 11399 4327 4C50435F 		.ascii	"LPC_FLASH_BASE 0x4003C000\000"
 11399      464C4153 
 11399      485F4241 
 11399      53452030 
 11399      78343030 
 11400              	.LASF418:
 11401 4341 494E545F 		.ascii	"INT_LEAST16_MIN (-__INT_LEAST16_MAX__ - 1)\000"
 11401      4C454153 
 11401      5431365F 
 11401      4D494E20 
 11401      282D5F5F 
 11402              	.LASF1183:
 11403 436c 6D61736B 		.ascii	"mask\000"
 11403      00
 11404              	.LASF804:
 11405 4371 55415254 		.ascii	"UART_ACR_MODE (1 << 1)\000"
 11405      5F414352 
 11405      5F4D4F44 
 11405      45202831 
 11405      203C3C20 
 11406              	.LASF1161:
 11407 4388 4932435F 		.ascii	"I2C_EVENT_WAIT\000"
 11407      4556454E 
 11407      545F5741 
 11407      495400
 11408              	.LASF28:
 11409 4397 5F5F4259 		.ascii	"__BYTE_ORDER__ __ORDER_LITTLE_ENDIAN__\000"
 11409      54455F4F 
 11409      52444552 
 11409      5F5F205F 
 11409      5F4F5244 
 11410              	.LASF1162:
 11411 43be 4932435F 		.ascii	"I2C_EVENT_DONE\000"
 11411      4556454E 
 11411      545F444F 
 11411      4E4500
 11412              	.LASF1229:
 11413 43cd 67657443 		.ascii	"getClkRate\000"
 11413      6C6B5261 
 11413      746500
 11414              	.LASF889:
 11415 43d8 4144435F 		.ascii	"ADC_CR_START_CTOUT15 ((2UL << 24))\000"
 11415      43525F53 
 11415      54415254 
 11415      5F43544F 
 11415      55543135 
 11416              	.LASF206:
 11417 43fb 5F5F5546 		.ascii	"__UFRACT_MAX__ 0XFFFFP-16UR\000"
 11417      52414354 
 11417      5F4D4158 
 11417      5F5F2030 
 11417      58464646 
 11418              	.LASF363:
 11419 4417 5F5F5F69 		.ascii	"___int_least64_t_defined 1\000"
ARM GAS  /tmp/ccAFBUIw.s 			page 262


 11419      6E745F6C 
 11419      65617374 
 11419      36345F74 
 11419      5F646566 
 11420              	.LASF955:
 11421 4432 4932435F 		.ascii	"I2C_I2MMCTRL_MATCH_ALL ((1 << 2))\000"
 11421      49324D4D 
 11421      4354524C 
 11421      5F4D4154 
 11421      43485F41 
 11422              	.LASF718:
 11423 4454 54494D45 		.ascii	"TIMER_CAP_FALLING(n) (_BIT((((n) * 3) + 1)))\000"
 11423      525F4341 
 11423      505F4641 
 11423      4C4C494E 
 11423      47286E29 
 11424              	.LASF1148:
 11425 4481 4932435F 		.ascii	"I2C_STATUS_T\000"
 11425      53544154 
 11425      55535F54 
 11425      00
 11426              	.LASF1175:
 11427 448e 6932635F 		.ascii	"i2c_slave_interface\000"
 11427      736C6176 
 11427      655F696E 
 11427      74657266 
 11427      61636500 
 11428              	.LASF511:
 11429 44a2 5343425F 		.ascii	"SCB_CPUID_IMPLEMENTER_Pos 24\000"
 11429      43505549 
 11429      445F494D 
 11429      504C454D 
 11429      454E5445 
 11430              	.LASF1017:
 11431 44bf 43414E5F 		.ascii	"CAN_SDOSEG_SEGMENT 0\000"
 11431      53444F53 
 11431      45475F53 
 11431      45474D45 
 11431      4E542030 
 11432              	.LASF441:
 11433 44d4 55494E54 		.ascii	"UINT_FAST32_MAX (__UINT_FAST32_MAX__)\000"
 11433      5F464153 
 11433      5433325F 
 11433      4D415820 
 11433      285F5F55 
 11434              	.LASF366:
 11435 44fa 5F5F5354 		.ascii	"__STDINT_EXP(x) __ ##x ##__\000"
 11435      44494E54 
 11435      5F455850 
 11435      28782920 
 11435      5F5F2023 
 11436              	.LASF355:
 11437 4516 5F5F4558 		.ascii	"__EXP(x) __ ##x ##__\000"
 11437      50287829 
 11437      205F5F20 
 11437      23237820 
 11437      23235F5F 
ARM GAS  /tmp/ccAFBUIw.s 			page 263


 11438              	.LASF12:
 11439 452b 5F5F4F50 		.ascii	"__OPTIMIZE_SIZE__ 1\000"
 11439      54494D49 
 11439      5A455F53 
 11439      495A455F 
 11439      5F203100 
 11440              	.LASF1208:
 11441 453f 62756666 		.ascii	"buff\000"
 11441      00
 11442              	.LASF609:
 11443 4544 4C50435F 		.ascii	"LPC_GPIO_PORT2_BASE 0x50020000\000"
 11443      4750494F 
 11443      5F504F52 
 11443      54325F42 
 11443      41534520 
 11444              	.LASF794:
 11445 4563 55415254 		.ascii	"UART_MSR_DELTA_CTS (1 << 0)\000"
 11445      5F4D5352 
 11445      5F44454C 
 11445      54415F43 
 11445      54532028 
 11446              	.LASF698:
 11447 457f 4D445F46 		.ascii	"MD_FASTI2C (0x2 << 8)\000"
 11447      41535449 
 11447      32432028 
 11447      30783220 
 11447      3C3C2038 
 11448              	.LASF717:
 11449 4595 54494D45 		.ascii	"TIMER_CAP_RISING(n) (_BIT(((n) * 3)))\000"
 11449      525F4341 
 11449      505F5249 
 11449      53494E47 
 11449      286E2920 
 11450              	.LASF987:
 11451 45bb 43414E5F 		.ascii	"CAN_ERROR_CRC 0x00000100UL\000"
 11451      4552524F 
 11451      525F4352 
 11451      43203078 
 11451      30303030 
 11452              	.LASF789:
 11453 45d6 55415254 		.ascii	"UART_LSR_TEMT (1 << 6)\000"
 11453      5F4C5352 
 11453      5F54454D 
 11453      54202831 
 11453      203C3C20 
 11454              	.LASF657:
 11455 45ed 53595343 		.ascii	"SYSCTL_POWERDOWN_BOD_PD (1 << 3)\000"
 11455      544C5F50 
 11455      4F574552 
 11455      444F574E 
 11455      5F424F44 
 11456              	.LASF1177:
 11457 460e 6576656E 		.ascii	"event\000"
 11457      7400
 11458              	.LASF34:
 11459 4614 5F5F5749 		.ascii	"__WINT_TYPE__ unsigned int\000"
 11459      4E545F54 
ARM GAS  /tmp/ccAFBUIw.s 			page 264


 11459      5950455F 
 11459      5F20756E 
 11459      7369676E 
 11460              	.LASF1214:
 11461 462f 61646472 		.ascii	"addr\000"
 11461      00
 11462              	.LASF284:
 11463 4634 5F5F5544 		.ascii	"__UDQ_FBIT__ 64\000"
 11463      515F4642 
 11463      49545F5F 
 11463      20363400 
 11464              	.LASF588:
 11465 4644 5F49505F 		.ascii	"_IP_IDX(IRQn) ( ((uint32_t)(IRQn) >> 2) )\000"
 11465      49445828 
 11465      4952516E 
 11465      29202820 
 11465      28287569 
 11466              	.LASF403:
 11467 466e 5F5F696E 		.ascii	"__int_fast16_t_defined 1\000"
 11467      745F6661 
 11467      73743136 
 11467      5F745F64 
 11467      6566696E 
 11468              	.LASF731:
 11469 4687 55415254 		.ascii	"UART_IER_RLSINT (1 << 2)\000"
 11469      5F494552 
 11469      5F524C53 
 11469      494E5420 
 11469      2831203C 
 11470              	.LASF158:
 11471 46a0 5F5F4C44 		.ascii	"__LDBL_MAX_10_EXP__ 308\000"
 11471      424C5F4D 
 11471      41585F31 
 11471      305F4558 
 11471      505F5F20 
 11472              	.LASF585:
 11473 46b8 4E564943 		.ascii	"NVIC ((NVIC_Type *) NVIC_BASE )\000"
 11473      2028284E 
 11473      5649435F 
 11473      54797065 
 11473      202A2920 
 11474              	.LASF1006:
 11475 46d8 53444F5F 		.ascii	"SDO_ABORT_DEVSTAT 0x08000022UL\000"
 11475      41424F52 
 11475      545F4445 
 11475      56535441 
 11475      54203078 
 11476              	.LASF428:
 11477 46f7 494E5436 		.ascii	"INT64_MAX (__INT64_MAX__)\000"
 11477      345F4D41 
 11477      5820285F 
 11477      5F494E54 
 11477      36345F4D 
 11478              	.LASF660:
 11479 4711 53595343 		.ascii	"SYSCTL_POWERDOWN_WDTOSC_PD (1 << 6)\000"
 11479      544C5F50 
 11479      4F574552 
ARM GAS  /tmp/ccAFBUIw.s 			page 265


 11479      444F574E 
 11479      5F574454 
 11480              	.LASF165:
 11481 4735 5F5F4C44 		.ascii	"__LDBL_HAS_INFINITY__ 1\000"
 11481      424C5F48 
 11481      41535F49 
 11481      4E46494E 
 11481      4954595F 
 11482              	.LASF529:
 11483 474d 5343425F 		.ascii	"SCB_ICSR_PENDSTCLR_Pos 25\000"
 11483      49435352 
 11483      5F50454E 
 11483      44535443 
 11483      4C525F50 
 11484              	.LASF1034:
 11485 4767 756E7369 		.ascii	"unsigned int\000"
 11485      676E6564 
 11485      20696E74 
 11485      00
 11486              	.LASF201:
 11487 4774 5F5F4652 		.ascii	"__FRACT_MAX__ 0X7FFFP-15R\000"
 11487      4143545F 
 11487      4D41585F 
 11487      5F203058 
 11487      37464646 
 11488              	.LASF1053:
 11489 478e 53595350 		.ascii	"SYSPLLCLKUEN\000"
 11489      4C4C434C 
 11489      4B55454E 
 11489      00
 11490              	.LASF127:
 11491 479b 5F5F464C 		.ascii	"__FLT_MIN_EXP__ (-125)\000"
 11491      545F4D49 
 11491      4E5F4558 
 11491      505F5F20 
 11491      282D3132 
 11492              	.LASF123:
 11493 47b2 5F5F4445 		.ascii	"__DEC_EVAL_METHOD__ 2\000"
 11493      435F4556 
 11493      414C5F4D 
 11493      4554484F 
 11493      445F5F20 
 11494              	.LASF462:
 11495 47c8 55494E54 		.ascii	"UINT32_C(x) __UINT32_C(x)\000"
 11495      33325F43 
 11495      28782920 
 11495      5F5F5549 
 11495      4E543332 
 11496              	.LASF514:
 11497 47e2 5343425F 		.ascii	"SCB_CPUID_VARIANT_Msk (0xFUL << SCB_CPUID_VARIANT_P"
 11497      43505549 
 11497      445F5641 
 11497      5249414E 
 11497      545F4D73 
 11498 4815 6F732900 		.ascii	"os)\000"
 11499              	.LASF1022:
 11500 4819 4C50435F 		.ascii	"LPC_I2Cx(id) ((i2c[id].ip))\000"
ARM GAS  /tmp/ccAFBUIw.s 			page 266


 11500      49324378 
 11500      28696429 
 11500      20282869 
 11500      32635B69 
 11501              	.LASF693:
 11502 4835 4D445F44 		.ascii	"MD_DIGMODE (0x1 << 7)\000"
 11502      49474D4F 
 11502      44452028 
 11502      30783120 
 11502      3C3C2037 
 11503              	.LASF234:
 11504 484b 5F5F5553 		.ascii	"__USACCUM_IBIT__ 8\000"
 11504      41434355 
 11504      4D5F4942 
 11504      49545F5F 
 11504      203800
 11505              	.LASF1013:
 11506 485e 4F445F53 		.ascii	"OD_SEG_RW 0x60\000"
 11506      45475F52 
 11506      57203078 
 11506      363000
 11507              	.LASF433:
 11508 486d 494E545F 		.ascii	"INT_FAST8_MIN (-__INT_FAST8_MAX__ - 1)\000"
 11508      46415354 
 11508      385F4D49 
 11508      4E20282D 
 11508      5F5F494E 
 11509              	.LASF119:
 11510 4894 5F5F5549 		.ascii	"__UINTPTR_MAX__ 4294967295U\000"
 11510      4E545054 
 11510      525F4D41 
 11510      585F5F20 
 11510      34323934 
 11511              	.LASF696:
 11512 48b0 4D445F53 		.ascii	"MD_SFI2C (0x0 << 8)\000"
 11512      46493243 
 11512      20283078 
 11512      30203C3C 
 11512      20382900 
 11513              	.LASF126:
 11514 48c4 5F5F464C 		.ascii	"__FLT_DIG__ 6\000"
 11514      545F4449 
 11514      475F5F20 
 11514      3600
 11515              	.LASF36:
 11516 48d2 5F5F5549 		.ascii	"__UINTMAX_TYPE__ long long unsigned int\000"
 11516      4E544D41 
 11516      585F5459 
 11516      50455F5F 
 11516      206C6F6E 
 11517              	.LASF1211:
 11518 48fa 43686970 		.ascii	"Chip_I2C_IsMasterActive\000"
 11518      5F493243 
 11518      5F49734D 
 11518      61737465 
 11518      72416374 
 11519              	.LASF122:
ARM GAS  /tmp/ccAFBUIw.s 			page 267


 11520 4912 5F5F464C 		.ascii	"__FLT_EVAL_METHOD__ 0\000"
 11520      545F4556 
 11520      414C5F4D 
 11520      4554484F 
 11520      445F5F20 
 11521              	.LASF836:
 11522 4928 55415254 		.ascii	"UART_SYNCCTRL_CSCEN (1 << 4)\000"
 11522      5F53594E 
 11522      43435452 
 11522      4C5F4353 
 11522      43454E20 
 11523              	.LASF783:
 11524 4945 55415254 		.ascii	"UART_LSR_RDR (1 << 0)\000"
 11524      5F4C5352 
 11524      5F524452 
 11524      20283120 
 11524      3C3C2030 
 11525              	.LASF806:
 11526 495b 55415254 		.ascii	"UART_ACR_ABEOINT_CLR (1 << 8)\000"
 11526      5F414352 
 11526      5F414245 
 11526      4F494E54 
 11526      5F434C52 
 11527              	.LASF382:
 11528 4979 5F5F494E 		.ascii	"__INT16 \"h\"\000"
 11528      54313620 
 11528      22682200 
 11529              	.LASF118:
 11530 4985 5F5F494E 		.ascii	"__INTPTR_MAX__ 2147483647\000"
 11530      54505452 
 11530      5F4D4158 
 11530      5F5F2032 
 11530      31343734 
 11531              	.LASF1217:
 11532 499f 43686970 		.ascii	"Chip_I2C_SlaveSetup\000"
 11532      5F493243 
 11532      5F536C61 
 11532      76655365 
 11532      74757000 
 11533              	.LASF879:
 11534 49b3 4144435F 		.ascii	"ADC_CR_BITACC(n) ((((n) & 0x7) << 17))\000"
 11534      43525F42 
 11534      49544143 
 11534      43286E29 
 11534      20282828 
 11535              	.LASF278:
 11536 49da 5F5F5551 		.ascii	"__UQQ_FBIT__ 8\000"
 11536      515F4642 
 11536      49545F5F 
 11536      203800
 11537              	.LASF815:
 11538 49e9 55415254 		.ascii	"UART_RS485CTRL_BITMASK (0x3F)\000"
 11538      5F525334 
 11538      38354354 
 11538      524C5F42 
 11538      49544D41 
 11539              	.LASF572:
ARM GAS  /tmp/ccAFBUIw.s 			page 268


 11540 4a07 53797354 		.ascii	"SysTick_VAL_CURRENT_Msk (0xFFFFFFUL << SysTick_VAL_"
 11540      69636B5F 
 11540      56414C5F 
 11540      43555252 
 11540      454E545F 
 11541 4a3a 43555252 		.ascii	"CURRENT_Pos)\000"
 11541      454E545F 
 11541      506F7329 
 11541      00
 11542              	.LASF175:
 11543 4a47 5F5F4445 		.ascii	"__DEC64_MIN_EXP__ (-382)\000"
 11543      4336345F 
 11543      4D494E5F 
 11543      4558505F 
 11543      5F20282D 
 11544              	.LASF1059:
 11545 4a60 53595341 		.ascii	"SYSAHBCLKDIV\000"
 11545      4842434C 
 11545      4B444956 
 11545      00
 11546              	.LASF922:
 11547 4a6d 4932435F 		.ascii	"I2C_I2STAT_M_TX_START ((0x08))\000"
 11547      49325354 
 11547      41545F4D 
 11547      5F54585F 
 11547      53544152 
 11548              	.LASF730:
 11549 4a8c 55415254 		.ascii	"UART_IER_THREINT (1 << 1)\000"
 11549      5F494552 
 11549      5F544852 
 11549      45494E54 
 11549      20283120 
 11550              	.LASF376:
 11551 4aa6 63686172 		.ascii	"char +0\000"
 11551      202B3000 
 11552              	.LASF211:
 11553 4aae 5F5F4C46 		.ascii	"__LFRACT_MAX__ 0X7FFFFFFFP-31LR\000"
 11553      52414354 
 11553      5F4D4158 
 11553      5F5F2030 
 11553      58374646 
 11554              	.LASF1159:
 11555 4ace 4932435F 		.ascii	"I2C_NUM_INTERFACE\000"
 11555      4E554D5F 
 11555      494E5445 
 11555      52464143 
 11555      4500
 11556              	.LASF487:
 11557 4ae0 4D494E28 		.ascii	"MIN(a,b) (((a) < (b)) ? (a) : (b))\000"
 11557      612C6229 
 11557      20282828 
 11557      6129203C 
 11557      20286229 
 11558              	.LASF0:
 11559 4b03 5F5F5354 		.ascii	"__STDC__ 1\000"
 11559      44435F5F 
 11559      203100
ARM GAS  /tmp/ccAFBUIw.s 			page 269


 11560              	.LASF1097:
 11561 4b0e 5044534C 		.ascii	"PDSLEEPCFG\000"
 11561      45455043 
 11561      464700
 11562              	.LASF360:
 11563 4b19 5F5F5F69 		.ascii	"___int_least8_t_defined 1\000"
 11563      6E745F6C 
 11563      65617374 
 11563      385F745F 
 11563      64656669 
 11564              	.LASF1163:
 11565 4b33 4932435F 		.ascii	"I2C_EVENT_LOCK\000"
 11565      4556454E 
 11565      545F4C4F 
 11565      434B00
 11566              	.LASF446:
 11567 4b42 494E544D 		.ascii	"INTMAX_MIN (-INTMAX_MAX - 1)\000"
 11567      41585F4D 
 11567      494E2028 
 11567      2D494E54 
 11567      4D41585F 
 11568              	.LASF44:
 11569 4b5f 5F5F5549 		.ascii	"__UINT8_TYPE__ unsigned char\000"
 11569      4E54385F 
 11569      54595045 
 11569      5F5F2075 
 11569      6E736967 
 11570              	.LASF913:
 11571 4b7c 4932435F 		.ascii	"I2C_CON_AA (1UL << 2)\000"
 11571      434F4E5F 
 11571      41412028 
 11571      31554C20 
 11571      3C3C2032 
 11572              	.LASF847:
 11573 4b92 5353505F 		.ascii	"SSP_CR0_DSS(n) ((uint32_t) ((n) & 0xF))\000"
 11573      4352305F 
 11573      44535328 
 11573      6E292028 
 11573      2875696E 
 11574              	.LASF402:
 11575 4bba 5F5F696E 		.ascii	"__int_fast8_t_defined 1\000"
 11575      745F6661 
 11575      7374385F 
 11575      745F6465 
 11575      66696E65 
 11576              	.LASF1222:
 11577 4bd2 43686970 		.ascii	"Chip_I2C_IsStateChanged\000"
 11577      5F493243 
 11577      5F497353 
 11577      74617465 
 11577      4368616E 
 11578              	.LASF938:
 11579 4bea 4932435F 		.ascii	"I2C_I2STAT_S_RX_GENCALL_ACK ((0x70))\000"
 11579      49325354 
 11579      41545F53 
 11579      5F52585F 
 11579      47454E43 
ARM GAS  /tmp/ccAFBUIw.s 			page 270


 11580              	.LASF703:
 11581 4c0f 46554E43 		.ascii	"FUNC3 0x3\000"
 11581      33203078 
 11581      3300
 11582              	.LASF861:
 11583 4c19 5353505F 		.ascii	"SSP_CR1_SO_DISABLE ((uint32_t) (1 << 3))\000"
 11583      4352315F 
 11583      534F5F44 
 11583      49534142 
 11583      4C452028 
 11584              	.LASF661:
 11585 4c42 53595343 		.ascii	"SYSCTL_POWERDOWN_SYSPLL_PD (1 << 7)\000"
 11585      544C5F50 
 11585      4F574552 
 11585      444F574E 
 11585      5F535953 
 11586              	.LASF1090:
 11587 4c66 53544152 		.ascii	"STARTAPRP0\000"
 11587      54415052 
 11587      503000
 11588              	.LASF181:
 11589 4c71 5F5F4445 		.ascii	"__DEC128_MANT_DIG__ 34\000"
 11589      43313238 
 11589      5F4D414E 
 11589      545F4449 
 11589      475F5F20 
 11590              	.LASF84:
 11591 4c88 5F5F5349 		.ascii	"__SIG_ATOMIC_MAX__ 2147483647\000"
 11591      475F4154 
 11591      4F4D4943 
 11591      5F4D4158 
 11591      5F5F2032 
 11592              	.LASF917:
 11593 4ca6 4932435F 		.ascii	"I2C_CON_I2EN (1UL << 6)\000"
 11593      434F4E5F 
 11593      4932454E 
 11593      20283155 
 11593      4C203C3C 
 11594              	.LASF470:
 11595 4cbe 74727565 		.ascii	"true 1\000"
 11595      203100
 11596              	.LASF669:
 11597 4cc5 494F434F 		.ascii	"IOCON_FUNC4 0x4\000"
 11597      4E5F4655 
 11597      4E433420 
 11597      30783400 
 11598              	.LASF298:
 11599 4cd5 5F5F5553 		.ascii	"__USA_FBIT__ 16\000"
 11599      415F4642 
 11599      49545F5F 
 11599      20313600 
 11600              	.LASF713:
 11601 4ce5 54494D45 		.ascii	"TIMER_RESET ((uint32_t) (1 << 1))\000"
 11601      525F5245 
 11601      53455420 
 11601      28287569 
 11601      6E743332 
ARM GAS  /tmp/ccAFBUIw.s 			page 271


 11602              	.LASF580:
 11603 4d07 53797354 		.ascii	"SysTick_BASE (SCS_BASE + 0x0010UL)\000"
 11603      69636B5F 
 11603      42415345 
 11603      20285343 
 11603      535F4241 
 11604              	.LASF769:
 11605 4d2a 55415254 		.ascii	"UART_LCR_PARITY_DIS (0 << 3)\000"
 11605      5F4C4352 
 11605      5F504152 
 11605      4954595F 
 11605      44495320 
 11606              	.LASF655:
 11607 4d47 53595343 		.ascii	"SYSCTL_POWERDOWN_IRC_PD (1 << 1)\000"
 11607      544C5F50 
 11607      4F574552 
 11607      444F574E 
 11607      5F495243 
 11608              	.LASF1224:
 11609 4d68 6932635F 		.ascii	"i2c_slave\000"
 11609      736C6176 
 11609      6500
 11610              	.LASF814:
 11611 4d72 55415254 		.ascii	"UART_RS485CTRL_OINV_1 (1 << 5)\000"
 11611      5F525334 
 11611      38354354 
 11611      524C5F4F 
 11611      494E565F 
 11612              	.LASF309:
 11613 4d91 5F5F4743 		.ascii	"__GCC_ATOMIC_CHAR_LOCK_FREE 1\000"
 11613      435F4154 
 11613      4F4D4943 
 11613      5F434841 
 11613      525F4C4F 
 11614              	.LASF1055:
 11615 4daf 55534250 		.ascii	"USBPLLCLKUEN\000"
 11615      4C4C434C 
 11615      4B55454E 
 11615      00
 11616              	.LASF631:
 11617 4dbc 5F5F504D 		.ascii	"__PMU_11XX_H_ \000"
 11617      555F3131 
 11617      58585F48 
 11617      5F2000
 11618              	.LASF212:
 11619 4dcb 5F5F4C46 		.ascii	"__LFRACT_EPSILON__ 0x1P-31LR\000"
 11619      52414354 
 11619      5F455053 
 11619      494C4F4E 
 11619      5F5F2030 
 11620              	.LASF619:
 11621 4de8 4C50435F 		.ascii	"LPC_TIMER32_1 ((LPC_TIMER_T *) LPC_TIMER32_1_BASE)\000"
 11621      54494D45 
 11621      5233325F 
 11621      31202828 
 11621      4C50435F 
 11622              	.LASF557:
ARM GAS  /tmp/ccAFBUIw.s 			page 272


 11623 4e1b 5343425F 		.ascii	"SCB_CCR_UNALIGN_TRP_Pos 3\000"
 11623      4343525F 
 11623      554E414C 
 11623      49474E5F 
 11623      5452505F 
 11624              	.LASF324:
 11625 4e35 5F5F4152 		.ascii	"__ARM_SIZEOF_MINIMAL_ENUM 1\000"
 11625      4D5F5349 
 11625      5A454F46 
 11625      5F4D494E 
 11625      494D414C 
 11626              	.LASF1174:
 11627 4e51 6932635F 		.ascii	"i2c_interface\000"
 11627      696E7465 
 11627      72666163 
 11627      6500
 11628              	.LASF1167:
 11629 4e5f 4932435F 		.ascii	"I2C_EVENT_T\000"
 11629      4556454E 
 11629      545F5400 
 11630              	.LASF327:
 11631 4e6b 5F5F6172 		.ascii	"__arm__ 1\000"
 11631      6D5F5F20 
 11631      3100
 11632              	.LASF674:
 11633 4e75 494F434F 		.ascii	"IOCON_MODE_PULLDOWN (0x1 << 3)\000"
 11633      4E5F4D4F 
 11633      44455F50 
 11633      554C4C44 
 11633      4F574E20 
 11634              	.LASF1010:
 11635 4e94 4F445F45 		.ascii	"OD_EXP_RW 0x30\000"
 11635      58505F52 
 11635      57203078 
 11635      333000
 11636              	.LASF601:
 11637 4ea3 4C50435F 		.ascii	"LPC_SSP0_BASE 0x40040000\000"
 11637      53535030 
 11637      5F424153 
 11637      45203078 
 11637      34303034 
 11638              	.LASF1189:
 11639 4ebc 63636C72 		.ascii	"cclr\000"
 11639      00
 11640              	.LASF946:
 11641 4ec1 4932435F 		.ascii	"I2C_I2STAT_S_TX_ARB_LOST_M_SLA ((0xB0))\000"
 11641      49325354 
 11641      41545F53 
 11641      5F54585F 
 11641      4152425F 
 11642              	.LASF939:
 11643 4ee9 4932435F 		.ascii	"I2C_I2STAT_S_RX_ARB_LOST_M_GENCALL ((0x78))\000"
 11643      49325354 
 11643      41545F53 
 11643      5F52585F 
 11643      4152425F 
 11644              	.LASF491:
ARM GAS  /tmp/ccAFBUIw.s 			page 273


 11645 4f15 5F5F434D 		.ascii	"__CMSIS_H_ \000"
 11645      5349535F 
 11645      485F2000 
 11646              	.LASF770:
 11647 4f21 55415254 		.ascii	"UART_LCR_PARITY_ODD (0 << 4)\000"
 11647      5F4C4352 
 11647      5F504152 
 11647      4954595F 
 11647      4F444420 
 11648              	.LASF415:
 11649 4f3e 494E5431 		.ascii	"INT16_MIN (-__INT16_MAX__ - 1)\000"
 11649      365F4D49 
 11649      4E20282D 
 11649      5F5F494E 
 11649      5431365F 
 11650              	.LASF608:
 11651 4f5d 4C50435F 		.ascii	"LPC_GPIO_PORT1_BASE 0x50010000\000"
 11651      4750494F 
 11651      5F504F52 
 11651      54315F42 
 11651      41534520 
 11652              	.LASF581:
 11653 4f7c 4E564943 		.ascii	"NVIC_BASE (SCS_BASE + 0x0100UL)\000"
 11653      5F424153 
 11653      45202853 
 11653      43535F42 
 11653      41534520 
 11654              	.LASF919:
 11655 4f9c 4932435F 		.ascii	"I2C_STAT_CODE_ERROR ((0xFF))\000"
 11655      53544154 
 11655      5F434F44 
 11655      455F4552 
 11655      524F5220 
 11656              	.LASF748:
 11657 4fb9 55415254 		.ascii	"UART_IIR_INTID_THRE (1 << 1)\000"
 11657      5F494952 
 11657      5F494E54 
 11657      49445F54 
 11657      48524520 
 11658              	.LASF167:
 11659 4fd6 5F5F4445 		.ascii	"__DEC32_MANT_DIG__ 7\000"
 11659      4333325F 
 11659      4D414E54 
 11659      5F444947 
 11659      5F5F2037 
 11660              	.LASF442:
 11661 4feb 494E545F 		.ascii	"INT_FAST64_MIN (-__INT_FAST64_MAX__ - 1)\000"
 11661      46415354 
 11661      36345F4D 
 11661      494E2028 
 11661      2D5F5F49 
 11662              	.LASF349:
 11663 5014 5F4D4143 		.ascii	"_MACHINE__DEFAULT_TYPES_H \000"
 11663      48494E45 
 11663      5F5F4445 
 11663      4641554C 
 11663      545F5459 
ARM GAS  /tmp/ccAFBUIw.s 			page 274


 11664              	.LASF24:
 11665 502f 5F5F4249 		.ascii	"__BIGGEST_ALIGNMENT__ 8\000"
 11665      47474553 
 11665      545F414C 
 11665      49474E4D 
 11665      454E545F 
 11666              	.LASF948:
 11667 5047 4932435F 		.ascii	"I2C_I2STAT_S_TX_DAT_NACK ((0xC0))\000"
 11667      49325354 
 11667      41545F53 
 11667      5F54585F 
 11667      4441545F 
 11668              	.LASF235:
 11669 5069 5F5F5553 		.ascii	"__USACCUM_MIN__ 0.0UHK\000"
 11669      41434355 
 11669      4D5F4D49 
 11669      4E5F5F20 
 11669      302E3055 
 11670              	.LASF549:
 11671 5080 5343425F 		.ascii	"SCB_SCR_SEVONPEND_Pos 4\000"
 11671      5343525F 
 11671      5345564F 
 11671      4E50454E 
 11671      445F506F 
 11672              	.LASF677:
 11673 5098 494F434F 		.ascii	"IOCON_HYS_EN (0x1 << 5)\000"
 11673      4E5F4859 
 11673      535F454E 
 11673      20283078 
 11673      31203C3C 
 11674              	.LASF295:
 11675 50b0 5F5F5441 		.ascii	"__TA_IBIT__ 64\000"
 11675      5F494249 
 11675      545F5F20 
 11675      363400
 11676              	.LASF874:
 11677 50bf 5F5F4C50 		.ascii	"__LPC_ERROR_H__ \000"
 11677      435F4552 
 11677      524F525F 
 11677      485F5F20 
 11677      00
 11678              	.LASF392:
 11679 50d0 5F5F4C45 		.ascii	"__LEAST64 \"ll\"\000"
 11679      41535436 
 11679      3420226C 
 11679      6C2200
 11680              	.LASF1058:
 11681 50df 4D41494E 		.ascii	"MAINCLKUEN\000"
 11681      434C4B55 
 11681      454E00
 11682              	.LASF975:
 11683 50ea 4932435F 		.ascii	"I2C_MONITOR_CFG_SCL_OUTPUT I2C_I2MMCTRL_ENA_SCL\000"
 11683      4D4F4E49 
 11683      544F525F 
 11683      4346475F 
 11683      53434C5F 
 11684              	.LASF927:
ARM GAS  /tmp/ccAFBUIw.s 			page 275


 11685 511a 4932435F 		.ascii	"I2C_I2STAT_M_TX_DAT_NACK ((0x30))\000"
 11685      49325354 
 11685      41545F4D 
 11685      5F54585F 
 11685      4441545F 
 11686              	.LASF857:
 11687 513c 5353505F 		.ascii	"SSP_CR1_LBM_EN ((uint32_t) (1 << 0))\000"
 11687      4352315F 
 11687      4C424D5F 
 11687      454E2028 
 11687      2875696E 
 11688              	.LASF930:
 11689 5161 4932435F 		.ascii	"I2C_I2STAT_M_RX_RESTART ((0x10))\000"
 11689      49325354 
 11689      41545F4D 
 11689      5F52585F 
 11689      52455354 
 11690              	.LASF531:
 11691 5182 5343425F 		.ascii	"SCB_ICSR_ISRPREEMPT_Pos 23\000"
 11691      49435352 
 11691      5F495352 
 11691      50524545 
 11691      4D50545F 
 11692              	.LASF521:
 11693 519d 5343425F 		.ascii	"SCB_ICSR_NMIPENDSET_Pos 31\000"
 11693      49435352 
 11693      5F4E4D49 
 11693      50454E44 
 11693      5345545F 
 11694              	.LASF1005:
 11695 51b8 53444F5F 		.ascii	"SDO_ABORT_LOCAL 0x08000021UL\000"
 11695      41424F52 
 11695      545F4C4F 
 11695      43414C20 
 11695      30783038 
 11696              	.LASF721:
 11697 51d5 5F5F5249 		.ascii	"__RING_BUFFER_H_ \000"
 11697      4E475F42 
 11697      55464645 
 11697      525F485F 
 11697      2000
 11698              	.LASF331:
 11699 51e7 5F5F4152 		.ascii	"__ARM_ARCH_ISA_THUMB 1\000"
 11699      4D5F4152 
 11699      43485F49 
 11699      53415F54 
 11699      48554D42 
 11700              	.LASF108:
 11701 51fe 5F5F5549 		.ascii	"__UINT_LEAST64_MAX__ 18446744073709551615ULL\000"
 11701      4E545F4C 
 11701      45415354 
 11701      36345F4D 
 11701      41585F5F 
 11702              	.LASF497:
 11703 522b 5F5F434D 		.ascii	"__CM0_CMSIS_VERSION_MAIN (0x03)\000"
 11703      305F434D 
 11703      5349535F 
ARM GAS  /tmp/ccAFBUIw.s 			page 276


 11703      56455253 
 11703      494F4E5F 
 11704              	.LASF722:
 11705 524b 52425F56 		.ascii	"RB_VHEAD(rb) (*(volatile uint32_t *) &(rb)->head)\000"
 11705      48454144 
 11705      28726229 
 11705      20282A28 
 11705      766F6C61 
 11706              	.LASF110:
 11707 527d 5F5F494E 		.ascii	"__INT_FAST8_MAX__ 2147483647\000"
 11707      545F4641 
 11707      5354385F 
 11707      4D41585F 
 11707      5F203231 
 11708              	.LASF373:
 11709 529a 6C6F6E67 		.ascii	"long\000"
 11709      00
 11710              	.LASF1046:
 11711 529f 5359534F 		.ascii	"SYSOSCCTRL\000"
 11711      53434354 
 11711      524C00
 11712              	.LASF547:
 11713 52aa 5343425F 		.ascii	"SCB_AIRCR_VECTCLRACTIVE_Pos 1\000"
 11713      41495243 
 11713      525F5645 
 11713      4354434C 
 11713      52414354 
 11714              	.LASF372:
 11715 52c8 73686F72 		.ascii	"short\000"
 11715      7400
 11716              	.LASF914:
 11717 52ce 4932435F 		.ascii	"I2C_CON_SI (1UL << 3)\000"
 11717      434F4E5F 
 11717      53492028 
 11717      31554C20 
 11717      3C3C2033 
 11718              	.LASF204:
 11719 52e4 5F5F5546 		.ascii	"__UFRACT_IBIT__ 0\000"
 11719      52414354 
 11719      5F494249 
 11719      545F5F20 
 11719      3000
 11720              	.LASF910:
 11721 52f6 4932435F 		.ascii	"I2C_I2CONCLR_STOC ((1 << 4))\000"
 11721      4932434F 
 11721      4E434C52 
 11721      5F53544F 
 11721      43202828 
 11722              	.LASF579:
 11723 5313 5343535F 		.ascii	"SCS_BASE (0xE000E000UL)\000"
 11723      42415345 
 11723      20283078 
 11723      45303030 
 11723      45303030 
 11724              	.LASF95:
 11725 532b 5F5F494E 		.ascii	"__INT8_C(c) c\000"
 11725      54385F43 
ARM GAS  /tmp/ccAFBUIw.s 			page 277


 11725      28632920 
 11725      6300
 11726              	.LASF209:
 11727 5339 5F5F4C46 		.ascii	"__LFRACT_IBIT__ 0\000"
 11727      52414354 
 11727      5F494249 
 11727      545F5F20 
 11727      3000
 11728              	.LASF894:
 11729 534b 4144435F 		.ascii	"ADC_CR_EDGE ((1UL << 27))\000"
 11729      43525F45 
 11729      44474520 
 11729      28283155 
 11729      4C203C3C 
 11730              	.LASF495:
 11731 5365 5F5F5665 		.ascii	"__Vendor_SysTickConfig 0\000"
 11731      6E646F72 
 11731      5F537973 
 11731      5469636B 
 11731      436F6E66 
 11732              	.LASF725:
 11733 537e 55415254 		.ascii	"UART_LOAD_DLL(div) ((div) & 0xFF)\000"
 11733      5F4C4F41 
 11733      445F444C 
 11733      4C286469 
 11733      76292028 
 11734              	.LASF1008:
 11735 53a0 4F445F45 		.ascii	"OD_EXP_RO 0x10\000"
 11735      58505F52 
 11735      4F203078 
 11735      313000
 11736              	.LASF318:
 11737 53af 5F5F4743 		.ascii	"__GCC_ATOMIC_POINTER_LOCK_FREE 1\000"
 11737      435F4154 
 11737      4F4D4943 
 11737      5F504F49 
 11737      4E544552 
 11738              	.LASF141:
 11739 53d0 5F5F4442 		.ascii	"__DBL_MIN_EXP__ (-1021)\000"
 11739      4C5F4D49 
 11739      4E5F4558 
 11739      505F5F20 
 11739      282D3130 
 11740              	.LASF481:
 11741 53e8 4E554C4C 		.ascii	"NULL ((void *) 0)\000"
 11741      20282876 
 11741      6F696420 
 11741      2A292030 
 11741      2900
 11742              	.LASF966:
 11743 53fa 4932435F 		.ascii	"I2C_OK 0x00\000"
 11743      4F4B2030 
 11743      78303000 
 11744              	.LASF174:
 11745 5406 5F5F4445 		.ascii	"__DEC64_MANT_DIG__ 16\000"
 11745      4336345F 
 11745      4D414E54 
ARM GAS  /tmp/ccAFBUIw.s 			page 278


 11745      5F444947 
 11745      5F5F2031 
 11746              	.LASF1209:
 11747 541c 43686970 		.ascii	"Chip_I2C_MasterCmdRead\000"
 11747      5F493243 
 11747      5F4D6173 
 11747      74657243 
 11747      6D645265 
 11748              	.LASF838:
 11749 5433 55415254 		.ascii	"UART_SYNCCTRL_CCCLR (1 << 6)\000"
 11749      5F53594E 
 11749      43435452 
 11749      4C5F4343 
 11749      434C5220 
 11750              	.LASF1106:
 11751 5450 53595343 		.ascii	"SYSCTL_CLOCK_FLASHREG\000"
 11751      544C5F43 
 11751      4C4F434B 
 11751      5F464C41 
 11751      53485245 
 11752              	.LASF260:
 11753 5466 5F5F4C4C 		.ascii	"__LLACCUM_MIN__ (-0X1P31LLK-0X1P31LLK)\000"
 11753      41434355 
 11753      4D5F4D49 
 11753      4E5F5F20 
 11753      282D3058 
 11754              	.LASF799:
 11755 548d 55415254 		.ascii	"UART_MSR_DSR (1 << 5)\000"
 11755      5F4D5352 
 11755      5F445352 
 11755      20283120 
 11755      3C3C2035 
 11756              	.LASF177:
 11757 54a3 5F5F4445 		.ascii	"__DEC64_MIN__ 1E-383DD\000"
 11757      4336345F 
 11757      4D494E5F 
 11757      5F203145 
 11757      2D333833 
 11758              	.LASF701:
 11759 54ba 46554E43 		.ascii	"FUNC1 0x1\000"
 11759      31203078 
 11759      3100
 11760              	.LASF466:
 11761 54c4 55494E54 		.ascii	"UINTMAX_C(x) __UINTMAX_C(x)\000"
 11761      4D41585F 
 11761      43287829 
 11761      205F5F55 
 11761      494E544D 
 11762              	.LASF1230:
 11763 54e0 4F736352 		.ascii	"OscRateIn\000"
 11763      61746549 
 11763      6E00
 11764              	.LASF364:
 11765 54ea 5F5F4558 		.ascii	"__EXP\000"
 11765      5000
 11766              	.LASF679:
 11767 54f0 494F434F 		.ascii	"IOCON_ADMODE_EN (0x0 << 7)\000"
ARM GAS  /tmp/ccAFBUIw.s 			page 279


 11767      4E5F4144 
 11767      4D4F4445 
 11767      5F454E20 
 11767      28307830 
 11768              	.LASF359:
 11769 550b 5F5F5F69 		.ascii	"___int64_t_defined 1\000"
 11769      6E743634 
 11769      5F745F64 
 11769      6566696E 
 11769      65642031 
 11770              	.LASF164:
 11771 5520 5F5F4C44 		.ascii	"__LDBL_HAS_DENORM__ 1\000"
 11771      424C5F48 
 11771      41535F44 
 11771      454E4F52 
 11771      4D5F5F20 
 11772              	.LASF571:
 11773 5536 53797354 		.ascii	"SysTick_VAL_CURRENT_Pos 0\000"
 11773      69636B5F 
 11773      56414C5F 
 11773      43555252 
 11773      454E545F 
 11774              	.LASF727:
 11775 5550 55415254 		.ascii	"UART_LOAD_DLM(div) (((div) >> 8) & 0xFF)\000"
 11775      5F4C4F41 
 11775      445F444C 
 11775      4D286469 
 11775      76292028 
 11776              	.LASF729:
 11777 5579 55415254 		.ascii	"UART_IER_RBRINT (1 << 0)\000"
 11777      5F494552 
 11777      5F524252 
 11777      494E5420 
 11777      2831203C 
 11778              	.LASF109:
 11779 5592 5F5F5549 		.ascii	"__UINT64_C(c) c ## ULL\000"
 11779      4E543634 
 11779      5F432863 
 11779      29206320 
 11779      23232055 
 11780              	.LASF241:
 11781 55a9 5F5F4143 		.ascii	"__ACCUM_MAX__ 0X7FFFFFFFP-15K\000"
 11781      43554D5F 
 11781      4D41585F 
 11781      5F203058 
 11781      37464646 
 11782              	.LASF578:
 11783 55c7 53797354 		.ascii	"SysTick_CALIB_TENMS_Msk (0xFFFFFFUL << SysTick_VAL_"
 11783      69636B5F 
 11783      43414C49 
 11783      425F5445 
 11783      4E4D535F 
 11784 55fa 43555252 		.ascii	"CURRENT_Pos)\000"
 11784      454E545F 
 11784      506F7329 
 11784      00
 11785              	.LASF50:
ARM GAS  /tmp/ccAFBUIw.s 			page 280


 11786 5607 5F5F494E 		.ascii	"__INT_LEAST32_TYPE__ long int\000"
 11786      545F4C45 
 11786      41535433 
 11786      325F5459 
 11786      50455F5F 
 11787              	.LASF1158:
 11788 5625 49324330 		.ascii	"I2C0\000"
 11788      00
 11789              	.LASF1116:
 11790 562a 53595343 		.ascii	"SYSCTL_CLOCK_ADC\000"
 11790      544C5F43 
 11790      4C4F434B 
 11790      5F414443 
 11790      00
 11791              	.LASF695:
 11792 563b 4D445F45 		.ascii	"MD_ENFIL (0x1 << 8)\000"
 11792      4E46494C 
 11792      20283078 
 11792      31203C3C 
 11792      20382900 
 11793              	.LASF560:
 11794 564f 5343425F 		.ascii	"SCB_SHCSR_SVCALLPENDED_Msk (1UL << SCB_SHCSR_SVCALL"
 11794      53484353 
 11794      525F5356 
 11794      43414C4C 
 11794      50454E44 
 11795 5682 50454E44 		.ascii	"PENDED_Pos)\000"
 11795      45445F50 
 11795      6F732900 
 11796              	.LASF1000:
 11797 568e 53444F5F 		.ascii	"SDO_ABORT_ACCINCOMP 0x06040047UL\000"
 11797      41424F52 
 11797      545F4143 
 11797      43494E43 
 11797      4F4D5020 
 11798              	.LASF825:
 11799 56af 55415254 		.ascii	"UART_SCICTRL_TXRETRY(n) ((n & 0x07) << 5)\000"
 11799      5F534349 
 11799      4354524C 
 11799      5F545852 
 11799      45545259 
 11800              	.LASF199:
 11801 56d9 5F5F4652 		.ascii	"__FRACT_IBIT__ 0\000"
 11801      4143545F 
 11801      49424954 
 11801      5F5F2030 
 11801      00
 11802              	.LASF8:
 11803 56ea 5F5F4154 		.ascii	"__ATOMIC_ACQUIRE 2\000"
 11803      4F4D4943 
 11803      5F414351 
 11803      55495245 
 11803      203200
 11804              	.LASF899:
 11805 56fd 5245545F 		.ascii	"RET_SLAVE_RX 5\000"
 11805      534C4156 
 11805      455F5258 
ARM GAS  /tmp/ccAFBUIw.s 			page 281


 11805      203500
 11806              	.LASF996:
 11807 570c 53444F5F 		.ascii	"SDO_ABORT_WRITEONLY 0x06010001UL\000"
 11807      41424F52 
 11807      545F5752 
 11807      4954454F 
 11807      4E4C5920 
 11808              	.LASF842:
 11809 572d 57574454 		.ascii	"WWDT_WDMOD_WDRESET ((uint32_t) (1 << 1))\000"
 11809      5F57444D 
 11809      4F445F57 
 11809      44524553 
 11809      45542028 
 11810              	.LASF1023:
 11811 5756 534C4156 		.ascii	"SLAVE_ACTIVE(iic) (((iic)->flags & 0xFF00) != 0)\000"
 11811      455F4143 
 11811      54495645 
 11811      28696963 
 11811      29202828 
 11812              	.LASF25:
 11813 5787 5F5F4F52 		.ascii	"__ORDER_LITTLE_ENDIAN__ 1234\000"
 11813      4445525F 
 11813      4C495454 
 11813      4C455F45 
 11813      4E444941 
 11814              	.LASF960:
 11815 57a4 4932435F 		.ascii	"I2C_I2MASK_MASK(n) ((n & 0xFE))\000"
 11815      49324D41 
 11815      534B5F4D 
 11815      41534B28 
 11815      6E292028 
 11816              	.LASF1033:
 11817 57c4 6C6F6E67 		.ascii	"long long unsigned int\000"
 11817      206C6F6E 
 11817      6720756E 
 11817      7369676E 
 11817      65642069 
 11818              	.LASF432:
 11819 57db 55494E54 		.ascii	"UINT_LEAST64_MAX (__UINT_LEAST64_MAX__)\000"
 11819      5F4C4541 
 11819      53543634 
 11819      5F4D4158 
 11819      20285F5F 
 11820              	.LASF254:
 11821 5803 5F5F554C 		.ascii	"__ULACCUM_IBIT__ 32\000"
 11821      41434355 
 11821      4D5F4942 
 11821      49545F5F 
 11821      20333200 
 11822              	.LASF435:
 11823 5817 55494E54 		.ascii	"UINT_FAST8_MAX (__UINT_FAST8_MAX__)\000"
 11823      5F464153 
 11823      54385F4D 
 11823      41582028 
 11823      5F5F5549 
 11824              	.LASF1117:
 11825 583b 53595343 		.ascii	"SYSCTL_CLOCK_RESERVED14\000"
ARM GAS  /tmp/ccAFBUIw.s 			page 282


 11825      544C5F43 
 11825      4C4F434B 
 11825      5F524553 
 11825      45525645 
 11826              	.LASF32:
 11827 5853 5F5F5054 		.ascii	"__PTRDIFF_TYPE__ int\000"
 11827      52444946 
 11827      465F5459 
 11827      50455F5F 
 11827      20696E74 
 11828              	.LASF329:
 11829 5868 5F5F4150 		.ascii	"__APCS_32__ 1\000"
 11829      43535F33 
 11829      325F5F20 
 11829      3100
 11830              	.LASF1194:
 11831 5876 43686970 		.ascii	"Chip_Clock_EnablePeriphClock\000"
 11831      5F436C6F 
 11831      636B5F45 
 11831      6E61626C 
 11831      65506572 
 11832              	.LASF732:
 11833 5893 55415254 		.ascii	"UART_IER_MSINT (1 << 3)\000"
 11833      5F494552 
 11833      5F4D5349 
 11833      4E542028 
 11833      31203C3C 
 11834              	.LASF229:
 11835 58ab 5F5F5341 		.ascii	"__SACCUM_IBIT__ 8\000"
 11835      4343554D 
 11835      5F494249 
 11835      545F5F20 
 11835      3800
 11836              	.LASF274:
 11837 58bd 5F5F4451 		.ascii	"__DQ_FBIT__ 63\000"
 11837      5F464249 
 11837      545F5F20 
 11837      363300
 11838              	.LASF1115:
 11839 58cc 53595343 		.ascii	"SYSCTL_CLOCK_UART0\000"
 11839      544C5F43 
 11839      4C4F434B 
 11839      5F554152 
 11839      543000
 11840              	.LASF1108:
 11841 58df 53595343 		.ascii	"SYSCTL_CLOCK_I2C\000"
 11841      544C5F43 
 11841      4C4F434B 
 11841      5F493243 
 11841      00
 11842              	.LASF62:
 11843 58f0 5F5F5549 		.ascii	"__UINT_FAST32_TYPE__ unsigned int\000"
 11843      4E545F46 
 11843      41535433 
 11843      325F5459 
 11843      50455F5F 
 11844              	.LASF57:
ARM GAS  /tmp/ccAFBUIw.s 			page 283


 11845 5912 5F5F494E 		.ascii	"__INT_FAST16_TYPE__ int\000"
 11845      545F4641 
 11845      53543136 
 11845      5F545950 
 11845      455F5F20 
 11846              	.LASF650:
 11847 592a 53595343 		.ascii	"SYSCTL_SLPWAKE_ADC_PD (1 << 4)\000"
 11847      544C5F53 
 11847      4C505741 
 11847      4B455F41 
 11847      44435F50 
 11848              	.LASF1016:
 11849 5949 43414E5F 		.ascii	"CAN_SDOREQ_HANDLED_NOSEND 2\000"
 11849      53444F52 
 11849      45515F48 
 11849      414E444C 
 11849      45445F4E 
 11850              	.LASF230:
 11851 5965 5F5F5341 		.ascii	"__SACCUM_MIN__ (-0X1P7HK-0X1P7HK)\000"
 11851      4343554D 
 11851      5F4D494E 
 11851      5F5F2028 
 11851      2D305831 
 11852              	.LASF1152:
 11853 5987 72784275 		.ascii	"rxBuff\000"
 11853      666600
 11854              	.LASF53:
 11855 598e 5F5F5549 		.ascii	"__UINT_LEAST16_TYPE__ short unsigned int\000"
 11855      4E545F4C 
 11855      45415354 
 11855      31365F54 
 11855      5950455F 
 11856              	.LASF895:
 11857 59b7 4144435F 		.ascii	"ADC_SAMPLE_RATE_CONFIG_MASK (ADC_CR_CLKDIV(0xFF) | "
 11857      53414D50 
 11857      4C455F52 
 11857      4154455F 
 11857      434F4E46 
 11858 59ea 4144435F 		.ascii	"ADC_CR_BITACC(0x07))\000"
 11858      43525F42 
 11858      49544143 
 11858      43283078 
 11858      30372929 
 11859              	.LASF1080:
 11860 59ff 52455345 		.ascii	"RESERVED10\000"
 11860      52564544 
 11860      313000
 11861              	.LASF1083:
 11862 5a0a 52455345 		.ascii	"RESERVED11\000"
 11862      52564544 
 11862      313100
 11863              	.LASF1089:
 11864 5a15 52455345 		.ascii	"RESERVED12\000"
 11864      52564544 
 11864      313200
 11865              	.LASF1094:
 11866 5a20 52455345 		.ascii	"RESERVED13\000"
ARM GAS  /tmp/ccAFBUIw.s 			page 284


 11866      52564544 
 11866      313300
 11867              	.LASF1096:
 11868 5a2b 52455345 		.ascii	"RESERVED14\000"
 11868      52564544 
 11868      313400
 11869              	.LASF1100:
 11870 5a36 52455345 		.ascii	"RESERVED15\000"
 11870      52564544 
 11870      313500
 11871              	.LASF867:
 11872 5a41 5353505F 		.ascii	"SSP_CPHA_FIRST SSP_CR0_CPHA_FIRST\000"
 11872      43504841 
 11872      5F464952 
 11872      53542053 
 11872      53505F43 
 11873              	.LASF104:
 11874 5a63 5F5F5549 		.ascii	"__UINT_LEAST16_MAX__ 65535\000"
 11874      4E545F4C 
 11874      45415354 
 11874      31365F4D 
 11874      41585F5F 
 11875              	.LASF286:
 11876 5a7e 5F5F5554 		.ascii	"__UTQ_FBIT__ 128\000"
 11876      515F4642 
 11876      49545F5F 
 11876      20313238 
 11876      00
 11877              	.LASF716:
 11878 5a8f 54494D45 		.ascii	"TIMER_STOP_ON_MATCH(n) (_BIT((((n) * 3) + 2)))\000"
 11878      525F5354 
 11878      4F505F4F 
 11878      4E5F4D41 
 11878      54434828 
 11879              	.LASF970:
 11880 5abe 4932435F 		.ascii	"I2C_SEND_END 0x08\000"
 11880      53454E44 
 11880      5F454E44 
 11880      20307830 
 11880      3800
 11881              	.LASF963:
 11882 5ad0 4932435F 		.ascii	"I2C_SETUP_STATUS_ARBF (1 << 8)\000"
 11882      53455455 
 11882      505F5354 
 11882      41545553 
 11882      5F415242 
 11883              	.LASF262:
 11884 5aef 5F5F4C4C 		.ascii	"__LLACCUM_EPSILON__ 0x1P-31LLK\000"
 11884      41434355 
 11884      4D5F4550 
 11884      53494C4F 
 11884      4E5F5F20 
 11885              	.LASF14:
 11886 5b0e 5F5F4649 		.ascii	"__FINITE_MATH_ONLY__ 0\000"
 11886      4E495445 
 11886      5F4D4154 
 11886      485F4F4E 
ARM GAS  /tmp/ccAFBUIw.s 			page 285


 11886      4C595F5F 
 11887              	.LASF736:
 11888 5b25 55415254 		.ascii	"UART_IER_BITMASK (0x307)\000"
 11888      5F494552 
 11888      5F424954 
 11888      4D41534B 
 11888      20283078 
 11889              	.LASF367:
 11890 5b3e 5F5F6861 		.ascii	"__have_longlong64 1\000"
 11890      76655F6C 
 11890      6F6E676C 
 11890      6F6E6736 
 11890      34203100 
 11891              	.LASF1061:
 11892 5b52 53595341 		.ascii	"SYSAHBCLKCTRL\000"
 11892      4842434C 
 11892      4B435452 
 11892      4C00
 11893              	.LASF1169:
 11894 5b60 6D457665 		.ascii	"mEvent\000"
 11894      6E7400
 11895              	.LASF18:
 11896 5b67 5F5F5349 		.ascii	"__SIZEOF_SHORT__ 2\000"
 11896      5A454F46 
 11896      5F53484F 
 11896      52545F5F 
 11896      203200
 11897              	.LASF1048:
 11898 5b7a 49524343 		.ascii	"IRCCTRL\000"
 11898      54524C00 
 11899              	.LASF832:
 11900 5b82 55415254 		.ascii	"UART_SYNCCTRL_SYNC (1 << 0)\000"
 11900      5F53594E 
 11900      43435452 
 11900      4C5F5359 
 11900      4E432028 
 11901              	.LASF328:
 11902 5b9e 5F5F4152 		.ascii	"__ARM_ARCH 6\000"
 11902      4D5F4152 
 11902      43482036 
 11902      00
 11903              	.LASF835:
 11904 5bab 55415254 		.ascii	"UART_SYNCCTRL_TSBYPASS (1 << 3)\000"
 11904      5F53594E 
 11904      43435452 
 11904      4C5F5453 
 11904      42595041 
 11905              	.LASF967:
 11906 5bcb 4932435F 		.ascii	"I2C_BYTE_SENT 0x01\000"
 11906      42595445 
 11906      5F53454E 
 11906      54203078 
 11906      303100
 11907              	.LASF256:
 11908 5bde 5F5F554C 		.ascii	"__ULACCUM_MAX__ 0XFFFFFFFFFFFFFFFFP-32ULK\000"
 11908      41434355 
 11908      4D5F4D41 
ARM GAS  /tmp/ccAFBUIw.s 			page 286


 11908      585F5F20 
 11908      30584646 
 11909              	.LASF1157:
 11910 5c08 4932435F 		.ascii	"I2C_ID\000"
 11910      494400
 11911              	.LASF1200:
 11912 5c0f 43686970 		.ascii	"Chip_I2C_SetClockRate\000"
 11912      5F493243 
 11912      5F536574 
 11912      436C6F63 
 11912      6B526174 
 11913              	.LASF215:
 11914 5c25 5F5F554C 		.ascii	"__ULFRACT_MIN__ 0.0ULR\000"
 11914      46524143 
 11914      545F4D49 
 11914      4E5F5F20 
 11914      302E3055 
 11915              	.LASF1098:
 11916 5c3c 50445741 		.ascii	"PDWAKECFG\000"
 11916      4B454346 
 11916      4700
 11917              	.LASF1135:
 11918 5c46 4C50435F 		.ascii	"LPC_I2C_T\000"
 11918      4932435F 
 11918      5400
 11919              	.LASF275:
 11920 5c50 5F5F4451 		.ascii	"__DQ_IBIT__ 0\000"
 11920      5F494249 
 11920      545F5F20 
 11920      3000
 11921              	.LASF1088:
 11922 5c5e 55534243 		.ascii	"USBCLKST\000"
 11922      4C4B5354 
 11922      00
 11923              	.LASF1040:
 11924 5c67 50524553 		.ascii	"PRESETCTRL\000"
 11924      45544354 
 11924      524C00
 11925              	.LASF653:
 11926 5c72 53595343 		.ascii	"SYSCTL_SLPWAKE_SYSPLL_PD (1 << 7)\000"
 11926      544C5F53 
 11926      4C505741 
 11926      4B455F53 
 11926      5953504C 
 11927              	.LASF680:
 11928 5c94 494F434F 		.ascii	"IOCON_DIGMODE_EN (0x1 << 7)\000"
 11928      4E5F4449 
 11928      474D4F44 
 11928      455F454E 
 11928      20283078 
 11929              	.LASF513:
 11930 5cb0 5343425F 		.ascii	"SCB_CPUID_VARIANT_Pos 20\000"
 11930      43505549 
 11930      445F5641 
 11930      5249414E 
 11930      545F506F 
 11931              	.LASF76:
ARM GAS  /tmp/ccAFBUIw.s 			page 287


 11932 5cc9 5F5F5749 		.ascii	"__WINT_MAX__ 4294967295U\000"
 11932      4E545F4D 
 11932      41585F5F 
 11932      20343239 
 11932      34393637 
 11933              	.LASF645:
 11934 5ce2 53595343 		.ascii	"SYSCTL_DEEPSLP_WDTOSC_PD (1 << 6)\000"
 11934      544C5F44 
 11934      45455053 
 11934      4C505F57 
 11934      44544F53 
 11935              	.LASF745:
 11936 5d04 55415254 		.ascii	"UART_IIR_INTID_RLS (3 << 1)\000"
 11936      5F494952 
 11936      5F494E54 
 11936      49445F52 
 11936      4C532028 
 11937              	.LASF1191:
 11938 5d20 68616E64 		.ascii	"handleMasterXferState\000"
 11938      6C654D61 
 11938      73746572 
 11938      58666572 
 11938      53746174 
 11939              	.LASF100:
 11940 5d36 5F5F494E 		.ascii	"__INT_LEAST64_MAX__ 9223372036854775807LL\000"
 11940      545F4C45 
 11940      41535436 
 11940      345F4D41 
 11940      585F5F20 
 11941              	.LASF739:
 11942 5d60 55415254 		.ascii	"UART_IIR_INTSTAT_PEND (1 << 0)\000"
 11942      5F494952 
 11942      5F494E54 
 11942      53544154 
 11942      5F50454E 
 11943              	.LASF587:
 11944 5d7f 5F534850 		.ascii	"_SHP_IDX(IRQn) ( ((((uint32_t)(IRQn) & 0x0F)-8) >> "
 11944      5F494458 
 11944      28495251 
 11944      6E292028 
 11944      20282828 
 11945 5db2 32292029 		.ascii	"2) )\000"
 11945      00
 11946              	.LASF614:
 11947 5db7 4C50435F 		.ascii	"LPC_WWDT ((LPC_WWDT_T *) LPC_WWDT_BASE)\000"
 11947      57574454 
 11947      2028284C 
 11947      50435F57 
 11947      5744545F 
 11948              	.LASF566:
 11949 5ddf 53797354 		.ascii	"SysTick_CTRL_TICKINT_Msk (1UL << SysTick_CTRL_TICKI"
 11949      69636B5F 
 11949      4354524C 
 11949      5F544943 
 11949      4B494E54 
 11950 5e12 4E545F50 		.ascii	"NT_Pos)\000"
 11950      6F732900 
ARM GAS  /tmp/ccAFBUIw.s 			page 288


 11951              	.LASF800:
 11952 5e1a 55415254 		.ascii	"UART_MSR_RI (1 << 6)\000"
 11952      5F4D5352 
 11952      5F524920 
 11952      2831203C 
 11952      3C203629 
 11953              	.LASF336:
 11954 5e2f 5F5F4152 		.ascii	"__ARM_FP 12\000"
 11954      4D5F4650 
 11954      20313200 
 11955              	.LASF79:
 11956 5e3b 5F5F5349 		.ascii	"__SIZE_MAX__ 4294967295U\000"
 11956      5A455F4D 
 11956      41585F5F 
 11956      20343239 
 11956      34393637 
 11957              	.LASF583:
 11958 5e54 53434220 		.ascii	"SCB ((SCB_Type *) SCB_BASE )\000"
 11958      28285343 
 11958      425F5479 
 11958      7065202A 
 11958      29205343 
 11959              	.LASF287:
 11960 5e71 5F5F5554 		.ascii	"__UTQ_IBIT__ 0\000"
 11960      515F4942 
 11960      49545F5F 
 11960      203000
 11961              	.LASF290:
 11962 5e80 5F5F5341 		.ascii	"__SA_FBIT__ 15\000"
 11962      5F464249 
 11962      545F5F20 
 11962      313500
 11963              	.LASF222:
 11964 5e8f 5F5F4C4C 		.ascii	"__LLFRACT_EPSILON__ 0x1P-63LLR\000"
 11964      46524143 
 11964      545F4550 
 11964      53494C4F 
 11964      4E5F5F20 
 11965              	.LASF1184:
 11966 5eae 69734932 		.ascii	"isI2CBusFree\000"
 11966      43427573 
 11966      46726565 
 11966      00
 11967              	.LASF702:
 11968 5ebb 46554E43 		.ascii	"FUNC2 0x2\000"
 11968      32203078 
 11968      3200
 11969              	.LASF1071:
 11970 5ec5 57445443 		.ascii	"WDTCLKSEL\000"
 11970      4C4B5345 
 11970      4C00
 11971              	.LASF607:
 11972 5ecf 4C50435F 		.ascii	"LPC_GPIO_PORT0_BASE 0x50000000\000"
 11972      4750494F 
 11972      5F504F52 
 11972      54305F42 
 11972      41534520 
ARM GAS  /tmp/ccAFBUIw.s 			page 289


 11973              	.LASF805:
 11974 5eee 55415254 		.ascii	"UART_ACR_AUTO_RESTART (1 << 2)\000"
 11974      5F414352 
 11974      5F415554 
 11974      4F5F5245 
 11974      53544152 
 11975              	.LASF343:
 11976 5f0d 5F5F454C 		.ascii	"__ELF__ 1\000"
 11976      465F5F20 
 11976      3100
 11977              	.LASF421:
 11978 5f17 494E5433 		.ascii	"INT32_MIN (-__INT32_MAX__ - 1)\000"
 11978      325F4D49 
 11978      4E20282D 
 11978      5F5F494E 
 11978      5433325F 
 11979              	.LASF333:
 11980 5f36 5F5F5448 		.ascii	"__THUMBEL__ 1\000"
 11980      554D4245 
 11980      4C5F5F20 
 11980      3100
 11981              	.LASF668:
 11982 5f44 494F434F 		.ascii	"IOCON_FUNC3 0x3\000"
 11982      4E5F4655 
 11982      4E433320 
 11982      30783300 
 11983              	.LASF1007:
 11984 5f54 4F445F4E 		.ascii	"OD_NONE 0x00\000"
 11984      4F4E4520 
 11984      30783030 
 11984      00
 11985              	.LASF269:
 11986 5f61 5F5F5151 		.ascii	"__QQ_IBIT__ 0\000"
 11986      5F494249 
 11986      545F5F20 
 11986      3000
 11987              	.LASF893:
 11988 5f6f 4144435F 		.ascii	"ADC_CR_START_MCOA2 ((6UL << 24))\000"
 11988      43525F53 
 11988      54415254 
 11988      5F4D434F 
 11988      41322028 
 11989              	.LASF886:
 11990 5f90 4144435F 		.ascii	"ADC_CR_START_MASK ((7UL << 24))\000"
 11990      43525F53 
 11990      54415254 
 11990      5F4D4153 
 11990      4B202828 
 11991              	.LASF592:
 11992 5fb0 4C50435F 		.ascii	"LPC_TIMER16_0_BASE 0x4000C000\000"
 11992      54494D45 
 11992      5231365F 
 11992      305F4241 
 11992      53452030 
 11993              	.LASF464:
 11994 5fce 55494E54 		.ascii	"UINT64_C(x) __UINT64_C(x)\000"
 11994      36345F43 
ARM GAS  /tmp/ccAFBUIw.s 			page 290


 11994      28782920 
 11994      5F5F5549 
 11994      4E543634 
 11995              	.LASF258:
 11996 5fe8 5F5F4C4C 		.ascii	"__LLACCUM_FBIT__ 31\000"
 11996      41434355 
 11996      4D5F4642 
 11996      49545F5F 
 11996      20333100 
 11997              	.LASF82:
 11998 5ffc 5F5F5549 		.ascii	"__UINTMAX_MAX__ 18446744073709551615ULL\000"
 11998      4E544D41 
 11998      585F4D41 
 11998      585F5F20 
 11998      31383434 
 11999              	.LASF130:
 12000 6024 5F5F464C 		.ascii	"__FLT_MAX_10_EXP__ 38\000"
 12000      545F4D41 
 12000      585F3130 
 12000      5F455850 
 12000      5F5F2033 
 12001              	.LASF414:
 12002 603a 55494E54 		.ascii	"UINT_LEAST8_MAX (__UINT_LEAST8_MAX__)\000"
 12002      5F4C4541 
 12002      5354385F 
 12002      4D415820 
 12002      285F5F55 
 12003              	.LASF283:
 12004 6060 5F5F5553 		.ascii	"__USQ_IBIT__ 0\000"
 12004      515F4942 
 12004      49545F5F 
 12004      203000
 12005              	.LASF54:
 12006 606f 5F5F5549 		.ascii	"__UINT_LEAST32_TYPE__ long unsigned int\000"
 12006      4E545F4C 
 12006      45415354 
 12006      33325F54 
 12006      5950455F 
 12007              	.LASF281:
 12008 6097 5F5F5548 		.ascii	"__UHQ_IBIT__ 0\000"
 12008      515F4942 
 12008      49545F5F 
 12008      203000
 12009              	.LASF3:
 12010 60a6 5F5F474E 		.ascii	"__GNUC_MINOR__ 9\000"
 12010      55435F4D 
 12010      494E4F52 
 12010      5F5F2039 
 12010      00
 12011              	.LASF35:
 12012 60b7 5F5F494E 		.ascii	"__INTMAX_TYPE__ long long int\000"
 12012      544D4158 
 12012      5F545950 
 12012      455F5F20 
 12012      6C6F6E67 
 12013              	.LASF314:
 12014 60d5 5F5F4743 		.ascii	"__GCC_ATOMIC_INT_LOCK_FREE 1\000"
ARM GAS  /tmp/ccAFBUIw.s 			page 291


 12014      435F4154 
 12014      4F4D4943 
 12014      5F494E54 
 12014      5F4C4F43 
 12015              	.LASF98:
 12016 60f2 5F5F494E 		.ascii	"__INT_LEAST32_MAX__ 2147483647L\000"
 12016      545F4C45 
 12016      41535433 
 12016      325F4D41 
 12016      585F5F20 
 12017              	.LASF307:
 12018 6112 5F5F4348 		.ascii	"__CHAR_UNSIGNED__ 1\000"
 12018      41525F55 
 12018      4E534947 
 12018      4E45445F 
 12018      5F203100 
 12019              	.LASF642:
 12020 6126 53595343 		.ascii	"SYSCTL_RST_SYSRST (1 << 4)\000"
 12020      544C5F52 
 12020      53545F53 
 12020      59535253 
 12020      54202831 
 12021              	.LASF932:
 12022 6141 4932435F 		.ascii	"I2C_I2STAT_M_RX_SLAR_ACK ((0x40))\000"
 12022      49325354 
 12022      41545F4D 
 12022      5F52585F 
 12022      534C4152 
 12023              	.LASF675:
 12024 6163 494F434F 		.ascii	"IOCON_MODE_PULLUP (0x2 << 3)\000"
 12024      4E5F4D4F 
 12024      44455F50 
 12024      554C4C55 
 12024      50202830 
 12025              	.LASF1196:
 12026 6180 43686970 		.ascii	"Chip_I2C_Init\000"
 12026      5F493243 
 12026      5F496E69 
 12026      7400
 12027              	.LASF761:
 12028 618e 55415254 		.ascii	"UART_LCR_WLEN5 (0 << 0)\000"
 12028      5F4C4352 
 12028      5F574C45 
 12028      4E352028 
 12028      30203C3C 
 12029              	.LASF688:
 12030 61a6 4D445F50 		.ascii	"MD_PUP (0x2 << 3)\000"
 12030      55502028 
 12030      30783220 
 12030      3C3C2033 
 12030      2900
 12031              	.LASF362:
 12032 61b8 5F5F5F69 		.ascii	"___int_least32_t_defined 1\000"
 12032      6E745F6C 
 12032      65617374 
 12032      33325F74 
 12032      5F646566 
ARM GAS  /tmp/ccAFBUIw.s 			page 292


 12033              	.LASF237:
 12034 61d3 5F5F5553 		.ascii	"__USACCUM_EPSILON__ 0x1P-8UHK\000"
 12034      41434355 
 12034      4D5F4550 
 12034      53494C4F 
 12034      4E5F5F20 
 12035              	.LASF152:
 12036 61f1 5F5F4442 		.ascii	"__DBL_HAS_QUIET_NAN__ 1\000"
 12036      4C5F4841 
 12036      535F5155 
 12036      4945545F 
 12036      4E414E5F 
 12037              	.LASF475:
 12038 6209 5F424954 		.ascii	"_BIT\000"
 12038      00
 12039              	.LASF461:
 12040 620e 494E5433 		.ascii	"INT32_C(x) __INT32_C(x)\000"
 12040      325F4328 
 12040      7829205F 
 12040      5F494E54 
 12040      33325F43 
 12041              	.LASF438:
 12042 6226 55494E54 		.ascii	"UINT_FAST16_MAX (__UINT_FAST16_MAX__)\000"
 12042      5F464153 
 12042      5431365F 
 12042      4D415820 
 12042      285F5F55 
 12043              	.LASF1149:
 12044 624c 736C6176 		.ascii	"slaveAddr\000"
 12044      65416464 
 12044      7200
 12045              	.LASF221:
 12046 6256 5F5F4C4C 		.ascii	"__LLFRACT_MAX__ 0X7FFFFFFFFFFFFFFFP-63LLR\000"
 12046      46524143 
 12046      545F4D41 
 12046      585F5F20 
 12046      30583746 
 12047              	.LASF570:
 12048 6280 53797354 		.ascii	"SysTick_LOAD_RELOAD_Msk (0xFFFFFFUL << SysTick_LOAD"
 12048      69636B5F 
 12048      4C4F4144 
 12048      5F52454C 
 12048      4F41445F 
 12049 62b3 5F52454C 		.ascii	"_RELOAD_Pos)\000"
 12049      4F41445F 
 12049      506F7329 
 12049      00
 12050              	.LASF426:
 12051 62c0 55494E54 		.ascii	"UINT_LEAST32_MAX (__UINT_LEAST32_MAX__)\000"
 12051      5F4C4541 
 12051      53543332 
 12051      5F4D4158 
 12051      20285F5F 
 12052              	.LASF1168:
 12053 62e8 4932435F 		.ascii	"I2C_EVENTHANDLER_T\000"
 12053      4556454E 
 12053      5448414E 
ARM GAS  /tmp/ccAFBUIw.s 			page 293


 12053      444C4552 
 12053      5F5400
 12054              	.LASF663:
 12055 62fb 53595343 		.ascii	"SYSCTL_IRC_FREQ (12000000)\000"
 12055      544C5F49 
 12055      52435F46 
 12055      52455120 
 12055      28313230 
 12056              	.LASF78:
 12057 6316 5F5F5054 		.ascii	"__PTRDIFF_MAX__ 2147483647\000"
 12057      52444946 
 12057      465F4D41 
 12057      585F5F20 
 12057      32313437 
 12058              	.LASF524:
 12059 6331 5343425F 		.ascii	"SCB_ICSR_PENDSVSET_Msk (1UL << SCB_ICSR_PENDSVSET_P"
 12059      49435352 
 12059      5F50454E 
 12059      44535653 
 12059      45545F4D 
 12060 6364 6F732900 		.ascii	"os)\000"
 12061              	.LASF573:
 12062 6368 53797354 		.ascii	"SysTick_CALIB_NOREF_Pos 31\000"
 12062      69636B5F 
 12062      43414C49 
 12062      425F4E4F 
 12062      5245465F 
 12063              	.LASF231:
 12064 6383 5F5F5341 		.ascii	"__SACCUM_MAX__ 0X7FFFP-7HK\000"
 12064      4343554D 
 12064      5F4D4158 
 12064      5F5F2030 
 12064      58374646 
 12065              	.LASF64:
 12066 639e 5F5F494E 		.ascii	"__INTPTR_TYPE__ int\000"
 12066      54505452 
 12066      5F545950 
 12066      455F5F20 
 12066      696E7400 
 12067              	.LASF37:
 12068 63b2 5F5F4348 		.ascii	"__CHAR16_TYPE__ short unsigned int\000"
 12068      41523136 
 12068      5F545950 
 12068      455F5F20 
 12068      73686F72 
 12069              	.LASF65:
 12070 63d5 5F5F5549 		.ascii	"__UINTPTR_TYPE__ unsigned int\000"
 12070      4E545054 
 12070      525F5459 
 12070      50455F5F 
 12070      20756E73 
 12071              	.LASF828:
 12072 63f3 55415254 		.ascii	"UART_FDR_MULVAL(n) ((n << 4) & 0xF0)\000"
 12072      5F464452 
 12072      5F4D554C 
 12072      56414C28 
 12072      6E292028 
ARM GAS  /tmp/ccAFBUIw.s 			page 294


 12073              	.LASF568:
 12074 6418 53797354 		.ascii	"SysTick_CTRL_ENABLE_Msk (1UL << SysTick_CTRL_ENABLE"
 12074      69636B5F 
 12074      4354524C 
 12074      5F454E41 
 12074      424C455F 
 12075 644b 5F506F73 		.ascii	"_Pos)\000"
 12075      2900
 12076              	.LASF304:
 12077 6451 5F5F5245 		.ascii	"__REGISTER_PREFIX__ \000"
 12077      47495354 
 12077      45525F50 
 12077      52454649 
 12077      585F5F20 
 12078              	.LASF187:
 12079 6466 5F5F4445 		.ascii	"__DEC128_SUBNORMAL_MIN__ 0.000000000000000000000000"
 12079      43313238 
 12079      5F535542 
 12079      4E4F524D 
 12079      414C5F4D 
 12080 6499 30303030 		.ascii	"000000001E-6143DL\000"
 12080      30303030 
 12080      31452D36 
 12080      31343344 
 12080      4C00
 12081              	.LASF1049:
 12082 64ab 4C464F53 		.ascii	"LFOSCCTRL\000"
 12082      43435452 
 12082      4C00
 12083              	.LASF217:
 12084 64b5 5F5F554C 		.ascii	"__ULFRACT_EPSILON__ 0x1P-32ULR\000"
 12084      46524143 
 12084      545F4550 
 12084      53494C4F 
 12084      4E5F5F20 
 12085              	.LASF1015:
 12086 64d4 43414E5F 		.ascii	"CAN_SDOREQ_HANDLED_SEND 1\000"
 12086      53444F52 
 12086      45515F48 
 12086      414E444C 
 12086      45445F53 
 12087              	.LASF339:
 12088 64ee 5F5F4152 		.ascii	"__ARM_ARCH_6M__ 1\000"
 12088      4D5F4152 
 12088      43485F36 
 12088      4D5F5F20 
 12088      3100
 12089              	.LASF22:
 12090 6500 5F5F5349 		.ascii	"__SIZEOF_SIZE_T__ 4\000"
 12090      5A454F46 
 12090      5F53495A 
 12090      455F545F 
 12090      5F203400 
 12091              	.LASF1147:
 12092 6514 4932435F 		.ascii	"I2C_STATUS_BUSY\000"
 12092      53544154 
 12092      55535F42 
ARM GAS  /tmp/ccAFBUIw.s 			page 295


 12092      55535900 
 12093              	.LASF840:
 12094 6524 57574454 		.ascii	"WWDT_WDMOD_BITMASK ((uint32_t) 0x1F)\000"
 12094      5F57444D 
 12094      4F445F42 
 12094      49544D41 
 12094      534B2028 
 12095              	.LASF47:
 12096 6549 5F5F5549 		.ascii	"__UINT64_TYPE__ long long unsigned int\000"
 12096      4E543634 
 12096      5F545950 
 12096      455F5F20 
 12096      6C6F6E67 
 12097              	.LASF184:
 12098 6570 5F5F4445 		.ascii	"__DEC128_MIN__ 1E-6143DL\000"
 12098      43313238 
 12098      5F4D494E 
 12098      5F5F2031 
 12098      452D3631 
 12099              	.LASF101:
 12100 6589 5F5F494E 		.ascii	"__INT64_C(c) c ## LL\000"
 12100      5436345F 
 12100      43286329 
 12100      20632023 
 12100      23204C4C 
 12101              	.LASF249:
 12102 659e 5F5F4C41 		.ascii	"__LACCUM_IBIT__ 32\000"
 12102      4343554D 
 12102      5F494249 
 12102      545F5F20 
 12102      333200
 12103              	.LASF1101:
 12104 65b1 44455649 		.ascii	"DEVICEID\000"
 12104      43454944 
 12104      00
 12105              	.LASF424:
 12106 65ba 494E545F 		.ascii	"INT_LEAST32_MIN (-__INT_LEAST32_MAX__ - 1)\000"
 12106      4C454153 
 12106      5433325F 
 12106      4D494E20 
 12106      282D5F5F 
 12107              	.LASF682:
 12108 65e5 494F434F 		.ascii	"IOCON_STDI2C_EN (0x1 << 8)\000"
 12108      4E5F5354 
 12108      44493243 
 12108      5F454E20 
 12108      28307831 
 12109              	.LASF467:
 12110 6600 5F474343 		.ascii	"_GCC_WRAP_STDINT_H \000"
 12110      5F575241 
 12110      505F5354 
 12110      44494E54 
 12110      5F482000 
 12111              	.LASF958:
 12112 6614 4932435F 		.ascii	"I2C_I2ADR_GC ((1 << 0))\000"
 12112      49324144 
 12112      525F4743 
ARM GAS  /tmp/ccAFBUIw.s 			page 296


 12112      20282831 
 12112      203C3C20 
 12113              	.LASF1075:
 12114 662c 434C4B4F 		.ascii	"CLKOUTSEL\000"
 12114      55545345 
 12114      4C00
 12115              	.LASF161:
 12116 6636 5F5F4C44 		.ascii	"__LDBL_MIN__ 2.2250738585072014e-308L\000"
 12116      424C5F4D 
 12116      494E5F5F 
 12116      20322E32 
 12116      32353037 
 12117              	.LASF239:
 12118 665c 5F5F4143 		.ascii	"__ACCUM_IBIT__ 16\000"
 12118      43554D5F 
 12118      49424954 
 12118      5F5F2031 
 12118      3600
 12119              	.LASF91:
 12120 666e 5F5F5549 		.ascii	"__UINT16_MAX__ 65535\000"
 12120      4E543136 
 12120      5F4D4158 
 12120      5F5F2036 
 12120      35353335 
 12121              	.LASF1134:
 12122 6683 4D41534B 		.ascii	"MASK\000"
 12122      00
 12123              	.LASF96:
 12124 6688 5F5F494E 		.ascii	"__INT_LEAST16_MAX__ 32767\000"
 12124      545F4C45 
 12124      41535431 
 12124      365F4D41 
 12124      585F5F20 
 12125              	.LASF1026:
 12126 66a2 73686F72 		.ascii	"short int\000"
 12126      7420696E 
 12126      7400
 12127              	.LASF683:
 12128 66ac 494F434F 		.ascii	"IOCON_FASTI2C_EN (0x2 << 8)\000"
 12128      4E5F4641 
 12128      53544932 
 12128      435F454E 
 12128      20283078 
 12129              	.LASF559:
 12130 66c8 5343425F 		.ascii	"SCB_SHCSR_SVCALLPENDED_Pos 15\000"
 12130      53484353 
 12130      525F5356 
 12130      43414C4C 
 12130      50454E44 
 12131              	.LASF990:
 12132 66e6 43414E5F 		.ascii	"CAN_MSGOBJ_DAT 0x00000000UL\000"
 12132      4D53474F 
 12132      424A5F44 
 12132      41542030 
 12132      78303030 
 12133              	.LASF753:
 12134 6702 55415254 		.ascii	"UART_FCR_DMAMODE_SEL (1 << 3)\000"
ARM GAS  /tmp/ccAFBUIw.s 			page 297


 12134      5F464352 
 12134      5F444D41 
 12134      4D4F4445 
 12134      5F53454C 
 12135              	.LASF203:
 12136 6720 5F5F5546 		.ascii	"__UFRACT_FBIT__ 16\000"
 12136      52414354 
 12136      5F464249 
 12136      545F5F20 
 12136      313600
 12137              	.LASF105:
 12138 6733 5F5F5549 		.ascii	"__UINT16_C(c) c\000"
 12138      4E543136 
 12138      5F432863 
 12138      29206300 
 12139              	.LASF486:
 12140 6743 4D415828 		.ascii	"MAX(a,b) (((a) > (b)) ? (a) : (b))\000"
 12140      612C6229 
 12140      20282828 
 12140      6129203E 
 12140      20286229 
 12141              	.LASF323:
 12142 6766 5F5F5349 		.ascii	"__SIZEOF_PTRDIFF_T__ 4\000"
 12142      5A454F46 
 12142      5F505452 
 12142      44494646 
 12142      5F545F5F 
 12143              	.LASF301:
 12144 677d 5F5F5544 		.ascii	"__UDA_IBIT__ 32\000"
 12144      415F4942 
 12144      49545F5F 
 12144      20333200 
 12145              	.LASF390:
 12146 678d 5F5F4C45 		.ascii	"__LEAST16 \"h\"\000"
 12146      41535431 
 12146      36202268 
 12146      2200
 12147              	.LASF407:
 12148 679b 494E5450 		.ascii	"INTPTR_MAX (__INTPTR_MAX__)\000"
 12148      54525F4D 
 12148      41582028 
 12148      5F5F494E 
 12148      54505452 
 12149              	.LASF427:
 12150 67b7 494E5436 		.ascii	"INT64_MIN (-__INT64_MAX__ - 1)\000"
 12150      345F4D49 
 12150      4E20282D 
 12150      5F5F494E 
 12150      5436345F 
 12151              	.LASF6:
 12152 67d6 5F5F4154 		.ascii	"__ATOMIC_RELAXED 0\000"
 12152      4F4D4943 
 12152      5F52454C 
 12152      41584544 
 12152      203000
 12153              	.LASF751:
 12154 67e9 55415254 		.ascii	"UART_FCR_RX_RS (1 << 1)\000"
ARM GAS  /tmp/ccAFBUIw.s 			page 298


 12154      5F464352 
 12154      5F52585F 
 12154      52532028 
 12154      31203C3C 
 12155              	.LASF636:
 12156 6801 5F5F464D 		.ascii	"__FMC_11XX_H_ \000"
 12156      435F3131 
 12156      58585F48 
 12156      5F2000
 12157              	.LASF733:
 12158 6810 55415254 		.ascii	"UART_IER_CTSINT (1 << 7)\000"
 12158      5F494552 
 12158      5F435453 
 12158      494E5420 
 12158      2831203C 
 12159              	.LASF151:
 12160 6829 5F5F4442 		.ascii	"__DBL_HAS_INFINITY__ 1\000"
 12160      4C5F4841 
 12160      535F494E 
 12160      46494E49 
 12160      54595F5F 
 12161              	.LASF632:
 12162 6840 504D555F 		.ascii	"PMU_PCON_PM_SLEEP (0x0)\000"
 12162      50434F4E 
 12162      5F504D5F 
 12162      534C4545 
 12162      50202830 
 12163              	.LASF444:
 12164 6858 55494E54 		.ascii	"UINT_FAST64_MAX (__UINT_FAST64_MAX__)\000"
 12164      5F464153 
 12164      5436345F 
 12164      4D415820 
 12164      285F5F55 
 12165              	.LASF429:
 12166 687e 55494E54 		.ascii	"UINT64_MAX (__UINT64_MAX__)\000"
 12166      36345F4D 
 12166      41582028 
 12166      5F5F5549 
 12166      4E543634 
 12167              	.LASF902:
 12168 689a 4932435F 		.ascii	"I2C_STA_STO_RECV 0x20\000"
 12168      5354415F 
 12168      53544F5F 
 12168      52454356 
 12168      20307832 
 12169              	.LASF771:
 12170 68b0 55415254 		.ascii	"UART_LCR_PARITY_EVEN (1 << 4)\000"
 12170      5F4C4352 
 12170      5F504152 
 12170      4954595F 
 12170      4556454E 
 12171              	.LASF1091:
 12172 68ce 53544152 		.ascii	"STARTERP0\000"
 12172      54455250 
 12172      3000
 12173              	.LASF1095:
 12174 68d8 53544152 		.ascii	"STARTERP1\000"
ARM GAS  /tmp/ccAFBUIw.s 			page 299


 12174      54455250 
 12174      3100
 12175              	.LASF510:
 12176 68e2 5F5F494F 		.ascii	"__IO volatile\000"
 12176      20766F6C 
 12176      6174696C 
 12176      6500
 12177              	.LASF687:
 12178 68f0 4D445F50 		.ascii	"MD_PDN (0x1 << 3)\000"
 12178      444E2028 
 12178      30783120 
 12178      3C3C2033 
 12178      2900
 12179              	.LASF735:
 12180 6902 55415254 		.ascii	"UART_IER_ABTOINT (1 << 9)\000"
 12180      5F494552 
 12180      5F414254 
 12180      4F494E54 
 12180      20283120 
 12181              	.LASF19:
 12182 691c 5F5F5349 		.ascii	"__SIZEOF_FLOAT__ 4\000"
 12182      5A454F46 
 12182      5F464C4F 
 12182      41545F5F 
 12182      203400
 12183              	.LASF458:
 12184 692f 55494E54 		.ascii	"UINT8_C(x) __UINT8_C(x)\000"
 12184      385F4328 
 12184      7829205F 
 12184      5F55494E 
 12184      54385F43 
 12185              	.LASF70:
 12186 6947 5F5F5348 		.ascii	"__SHRT_MAX__ 32767\000"
 12186      52545F4D 
 12186      41585F5F 
 12186      20333237 
 12186      363700
 12187              	.LASF584:
 12188 695a 53797354 		.ascii	"SysTick ((SysTick_Type *) SysTick_BASE )\000"
 12188      69636B20 
 12188      28285379 
 12188      73546963 
 12188      6B5F5479 
 12189              	.LASF216:
 12190 6983 5F5F554C 		.ascii	"__ULFRACT_MAX__ 0XFFFFFFFFP-32ULR\000"
 12190      46524143 
 12190      545F4D41 
 12190      585F5F20 
 12190      30584646 
 12191              	.LASF145:
 12192 69a5 5F5F4442 		.ascii	"__DBL_DECIMAL_DIG__ 17\000"
 12192      4C5F4445 
 12192      43494D41 
 12192      4C5F4449 
 12192      475F5F20 
 12193              	.LASF525:
 12194 69bc 5343425F 		.ascii	"SCB_ICSR_PENDSVCLR_Pos 27\000"
ARM GAS  /tmp/ccAFBUIw.s 			page 300


 12194      49435352 
 12194      5F50454E 
 12194      44535643 
 12194      4C525F50 
 12195              	.LASF368:
 12196 69d6 5F5F6861 		.ascii	"__have_long32 1\000"
 12196      76655F6C 
 12196      6F6E6733 
 12196      32203100 
 12197              	.LASF412:
 12198 69e6 494E545F 		.ascii	"INT_LEAST8_MIN (-__INT_LEAST8_MAX__ - 1)\000"
 12198      4C454153 
 12198      54385F4D 
 12198      494E2028 
 12198      2D5F5F49 
 12199              	.LASF106:
 12200 6a0f 5F5F5549 		.ascii	"__UINT_LEAST32_MAX__ 4294967295UL\000"
 12200      4E545F4C 
 12200      45415354 
 12200      33325F4D 
 12200      41585F5F 
 12201              	.LASF253:
 12202 6a31 5F5F554C 		.ascii	"__ULACCUM_FBIT__ 32\000"
 12202      41434355 
 12202      4D5F4642 
 12202      49545F5F 
 12202      20333200 
 12203              	.LASF543:
 12204 6a45 5343425F 		.ascii	"SCB_AIRCR_ENDIANESS_Pos 15\000"
 12204      41495243 
 12204      525F454E 
 12204      4449414E 
 12204      4553535F 
 12205              	.LASF652:
 12206 6a60 53595343 		.ascii	"SYSCTL_SLPWAKE_WDTOSC_PD (1 << 6)\000"
 12206      544C5F53 
 12206      4C505741 
 12206      4B455F57 
 12206      44544F53 
 12207              	.LASF658:
 12208 6a82 53595343 		.ascii	"SYSCTL_POWERDOWN_ADC_PD (1 << 4)\000"
 12208      544C5F50 
 12208      4F574552 
 12208      444F574E 
 12208      5F414443 
 12209              	.LASF397:
 12210 6aa3 5F5F696E 		.ascii	"__int64_t_defined 1\000"
 12210      7436345F 
 12210      745F6465 
 12210      66696E65 
 12210      64203100 
 12211              	.LASF569:
 12212 6ab7 53797354 		.ascii	"SysTick_LOAD_RELOAD_Pos 0\000"
 12212      69636B5F 
 12212      4C4F4144 
 12212      5F52454C 
 12212      4F41445F 
ARM GAS  /tmp/ccAFBUIw.s 			page 301


 12213              	.LASF332:
 12214 6ad1 5F5F4152 		.ascii	"__ARMEL__ 1\000"
 12214      4D454C5F 
 12214      5F203100 
 12215              	.LASF865:
 12216 6add 5353505F 		.ascii	"SSP_SR_BITMASK ((uint32_t) (0x1F))\000"
 12216      53525F42 
 12216      49544D41 
 12216      534B2028 
 12216      2875696E 
 12217              	.LASF829:
 12218 6b00 55415254 		.ascii	"UART_FDR_BITMASK (0xFF)\000"
 12218      5F464452 
 12218      5F424954 
 12218      4D41534B 
 12218      20283078 
 12219              	.LASF606:
 12220 6b18 4C50435F 		.ascii	"LPC_SSP1_BASE 0x40058000\000"
 12220      53535031 
 12220      5F424153 
 12220      45203078 
 12220      34303035 
 12221              	.LASF385:
 12222 6b31 5F5F4641 		.ascii	"__FAST8 \000"
 12222      53543820 
 12222      00
 12223              	.LASF1085:
 12224 6b3a 4E4D4953 		.ascii	"NMISRC\000"
 12224      524300
 12225              	.LASF72:
 12226 6b41 5F5F4C4F 		.ascii	"__LONG_MAX__ 2147483647L\000"
 12226      4E475F4D 
 12226      41585F5F 
 12226      20323134 
 12226      37343833 
 12227              	.LASF268:
 12228 6b5a 5F5F5151 		.ascii	"__QQ_FBIT__ 7\000"
 12228      5F464249 
 12228      545F5F20 
 12228      3700
 12229              	.LASF972:
 12230 6b68 4932435F 		.ascii	"I2C_ERR (0x10000000)\000"
 12230      45525220 
 12230      28307831 
 12230      30303030 
 12230      30303029 
 12231              	.LASF952:
 12232 6b7d 4932435F 		.ascii	"I2C_I2DAT_IDLE_CHAR (0xFF)\000"
 12232      49324441 
 12232      545F4944 
 12232      4C455F43 
 12232      48415220 
 12233              	.LASF488:
 12234 6b98 494E4C49 		.ascii	"INLINE inline\000"
 12234      4E452069 
 12234      6E6C696E 
 12234      6500
ARM GAS  /tmp/ccAFBUIw.s 			page 302


 12235              	.LASF555:
 12236 6ba6 5343425F 		.ascii	"SCB_CCR_STKALIGN_Pos 9\000"
 12236      4343525F 
 12236      53544B41 
 12236      4C49474E 
 12236      5F506F73 
 12237              	.LASF897:
 12238 6bbd 5F5F4932 		.ascii	"__I2C_11XX_H_ \000"
 12238      435F3131 
 12238      58585F48 
 12238      5F2000
 12239              	.LASF790:
 12240 6bcc 55415254 		.ascii	"UART_LSR_RXFE (1 << 7)\000"
 12240      5F4C5352 
 12240      5F525846 
 12240      45202831 
 12240      203C3C20 
 12241              	.LASF354:
 12242 6be3 5F5F474E 		.ascii	"__GNUC_PREREQ__(ma,mi) __GNUC_PREREQ(ma, mi)\000"
 12242      55435F50 
 12242      52455245 
 12242      515F5F28 
 12242      6D612C6D 
 12243              	.LASF591:
 12244 6c10 4C50435F 		.ascii	"LPC_USART_BASE 0x40008000\000"
 12244      55534152 
 12244      545F4241 
 12244      53452030 
 12244      78343030 
 12245              	.LASF1144:
 12246 6c2a 4932435F 		.ascii	"I2C_STATUS_NAK\000"
 12246      53544154 
 12246      55535F4E 
 12246      414B00
 12247              	.LASF303:
 12248 6c39 5F5F5554 		.ascii	"__UTA_IBIT__ 64\000"
 12248      415F4942 
 12248      49545F5F 
 12248      20363400 
 12249              	.LASF264:
 12250 6c49 5F5F554C 		.ascii	"__ULLACCUM_IBIT__ 32\000"
 12250      4C414343 
 12250      554D5F49 
 12250      4249545F 
 12250      5F203332 
 12251              	.LASF504:
 12252 6c5e 5F5F4650 		.ascii	"__FPU_USED 0\000"
 12252      555F5553 
 12252      45442030 
 12252      00
 12253              	.LASF482:
 12254 6c6b 4E454C45 		.ascii	"NELEMENTS(array) (sizeof(array) / sizeof(array[0]))"
 12254      4D454E54 
 12254      53286172 
 12254      72617929 
 12254      20287369 
 12255 6c9e 00       		.ascii	"\000"
ARM GAS  /tmp/ccAFBUIw.s 			page 303


 12256              	.LASF746:
 12257 6c9f 55415254 		.ascii	"UART_IIR_INTID_RDA (2 << 1)\000"
 12257      5F494952 
 12257      5F494E54 
 12257      49445F52 
 12257      44412028 
 12258              	.LASF227:
 12259 6cbb 5F5F554C 		.ascii	"__ULLFRACT_EPSILON__ 0x1P-64ULLR\000"
 12259      4C465241 
 12259      43545F45 
 12259      5053494C 
 12259      4F4E5F5F 
 12260              	.LASF1073:
 12261 6cdc 57445443 		.ascii	"WDTCLKDIV\000"
 12261      4C4B4449 
 12261      5600
 12262              	.LASF498:
 12263 6ce6 5F5F434D 		.ascii	"__CM0_CMSIS_VERSION_SUB (0x01)\000"
 12263      305F434D 
 12263      5349535F 
 12263      56455253 
 12263      494F4E5F 
 12264              	.LASF322:
 12265 6d05 5F5F5349 		.ascii	"__SIZEOF_WINT_T__ 4\000"
 12265      5A454F46 
 12265      5F57494E 
 12265      545F545F 
 12265      5F203400 
 12266              	.LASF635:
 12267 6d19 504D555F 		.ascii	"PMU_PCON_DPDFLAG (1 << 11)\000"
 12267      50434F4E 
 12267      5F445044 
 12267      464C4147 
 12267      20283120 
 12268              	.LASF562:
 12269 6d34 53797354 		.ascii	"SysTick_CTRL_COUNTFLAG_Msk (1UL << SysTick_CTRL_COU"
 12269      69636B5F 
 12269      4354524C 
 12269      5F434F55 
 12269      4E54464C 
 12270 6d67 4E54464C 		.ascii	"NTFLAG_Pos)\000"
 12270      41475F50 
 12270      6F732900 
 12271              	.LASF220:
 12272 6d73 5F5F4C4C 		.ascii	"__LLFRACT_MIN__ (-0.5LLR-0.5LLR)\000"
 12272      46524143 
 12272      545F4D49 
 12272      4E5F5F20 
 12272      282D302E 
 12273              	.LASF1043:
 12274 6d94 55534250 		.ascii	"USBPLLCTRL\000"
 12274      4C4C4354 
 12274      524C00
 12275              	.LASF1092:
 12276 6d9f 53544152 		.ascii	"STARTRSRP0CLR\000"
 12276      54525352 
 12276      5030434C 
ARM GAS  /tmp/ccAFBUIw.s 			page 304


 12276      5200
 12277              	.LASF1042:
 12278 6dad 53595350 		.ascii	"SYSPLLSTAT\000"
 12278      4C4C5354 
 12278      415400
 12279              	.LASF250:
 12280 6db8 5F5F4C41 		.ascii	"__LACCUM_MIN__ (-0X1P31LK-0X1P31LK)\000"
 12280      4343554D 
 12280      5F4D494E 
 12280      5F5F2028 
 12280      2D305831 
 12281              	.LASF611:
 12282 6ddc 4941505F 		.ascii	"IAP_ENTRY_LOCATION 0X1FFF1FF1\000"
 12282      454E5452 
 12282      595F4C4F 
 12282      43415449 
 12282      4F4E2030 
 12283              	.LASF341:
 12284 6dfa 5F5F4152 		.ascii	"__ARM_EABI__ 1\000"
 12284      4D5F4541 
 12284      42495F5F 
 12284      203100
 12285              	.LASF699:
 12286 6e09 4D445F4F 		.ascii	"MD_OPENDRAIN (0x1 << 10)\000"
 12286      50454E44 
 12286      5241494E 
 12286      20283078 
 12286      31203C3C 
 12287              	.LASF149:
 12288 6e22 5F5F4442 		.ascii	"__DBL_DENORM_MIN__ ((double)4.9406564584124654e-324"
 12288      4C5F4445 
 12288      4E4F524D 
 12288      5F4D494E 
 12288      5F5F2028 
 12289 6e55 4C2900   		.ascii	"L)\000"
 12290              	.LASF1063:
 12291 6e58 53535030 		.ascii	"SSP0CLKDIV\000"
 12291      434C4B44 
 12291      495600
 12292              	.LASF597:
 12293 6e63 4C50435F 		.ascii	"LPC_DAC_BASE 0x40024000\000"
 12293      4441435F 
 12293      42415345 
 12293      20307834 
 12293      30303234 
 12294              	.LASF383:
 12295 6e7b 5F5F494E 		.ascii	"__INT32 \"l\"\000"
 12295      54333220 
 12295      226C2200 
 12296              	.LASF539:
 12297 6e87 5343425F 		.ascii	"SCB_AIRCR_VECTKEY_Pos 16\000"
 12297      41495243 
 12297      525F5645 
 12297      43544B45 
 12297      595F506F 
 12298              	.LASF480:
 12299 6ea0 5F424954 		.ascii	"_BITMASK(field_width) ( _BIT(field_width) - 1)\000"
ARM GAS  /tmp/ccAFBUIw.s 			page 305


 12299      4D41534B 
 12299      28666965 
 12299      6C645F77 
 12299      69647468 
 12300              	.LASF641:
 12301 6ecf 53595343 		.ascii	"SYSCTL_RST_BOD (1 << 3)\000"
 12301      544C5F52 
 12301      53545F42 
 12301      4F442028 
 12301      31203C3C 
 12302              	.LASF637:
 12303 6ee7 5F5F5359 		.ascii	"__SYSCTL_11XX_H_ \000"
 12303      5343544C 
 12303      5F313158 
 12303      585F485F 
 12303      2000
 12304              	.LASF46:
 12305 6ef9 5F5F5549 		.ascii	"__UINT32_TYPE__ long unsigned int\000"
 12305      4E543332 
 12305      5F545950 
 12305      455F5F20 
 12305      6C6F6E67 
 12306              	.LASF345:
 12307 6f1b 434F5245 		.ascii	"CORE_M0 1\000"
 12307      5F4D3020 
 12307      3100
 12308              	.LASF854:
 12309 6f25 5353505F 		.ascii	"SSP_CR0_CPHA_SECOND ((uint32_t) (1 << 7))\000"
 12309      4352305F 
 12309      43504841 
 12309      5F534543 
 12309      4F4E4420 
 12310              	.LASF708:
 12311 6f4f 5F5F5449 		.ascii	"__TIMER_11XX_H_ \000"
 12311      4D45525F 
 12311      31315858 
 12311      5F485F20 
 12311      00
 12312              	.LASF596:
 12313 6f60 4C50435F 		.ascii	"LPC_ADC_BASE 0x4001C000\000"
 12313      4144435F 
 12313      42415345 
 12313      20307834 
 12313      30303143 
 12314              	.LASF654:
 12315 6f78 53595343 		.ascii	"SYSCTL_POWERDOWN_IRCOUT_PD (1 << 0)\000"
 12315      544C5F50 
 12315      4F574552 
 12315      444F574E 
 12315      5F495243 
 12316              	.LASF700:
 12317 6f9c 46554E43 		.ascii	"FUNC0 0x0\000"
 12317      30203078 
 12317      3000
 12318              	.LASF993:
 12319 6fa6 53444F5F 		.ascii	"SDO_ABORT_SDOTIMEOUT 0x05040000UL\000"
 12319      41424F52 
ARM GAS  /tmp/ccAFBUIw.s 			page 306


 12319      545F5344 
 12319      4F54494D 
 12319      454F5554 
 12320              	.LASF795:
 12321 6fc8 55415254 		.ascii	"UART_MSR_DELTA_DSR (1 << 1)\000"
 12321      5F4D5352 
 12321      5F44454C 
 12321      54415F44 
 12321      53522028 
 12322              	.LASF225:
 12323 6fe4 5F5F554C 		.ascii	"__ULLFRACT_MIN__ 0.0ULLR\000"
 12323      4C465241 
 12323      43545F4D 
 12323      494E5F5F 
 12323      20302E30 
 12324              	.LASF468:
 12325 6ffd 5F535444 		.ascii	"_STDBOOL_H \000"
 12325      424F4F4C 
 12325      5F482000 
 12326              	.LASF646:
 12327 7009 53595343 		.ascii	"SYSCTL_SLPWAKE_IRCOUT_PD (1 << 0)\000"
 12327      544C5F53 
 12327      4C505741 
 12327      4B455F49 
 12327      52434F55 
 12328              	.LASF506:
 12329 702b 5F5F434F 		.ascii	"__CORE_CMFUNC_H \000"
 12329      52455F43 
 12329      4D46554E 
 12329      435F4820 
 12329      00
 12330              	.LASF285:
 12331 703c 5F5F5544 		.ascii	"__UDQ_IBIT__ 0\000"
 12331      515F4942 
 12331      49545F5F 
 12331      203000
 12332              	.LASF15:
 12333 704b 5F5F5349 		.ascii	"__SIZEOF_INT__ 4\000"
 12333      5A454F46 
 12333      5F494E54 
 12333      5F5F2034 
 12333      00
 12334              	.LASF219:
 12335 705c 5F5F4C4C 		.ascii	"__LLFRACT_IBIT__ 0\000"
 12335      46524143 
 12335      545F4942 
 12335      49545F5F 
 12335      203000
 12336              	.LASF460:
 12337 706f 55494E54 		.ascii	"UINT16_C(x) __UINT16_C(x)\000"
 12337      31365F43 
 12337      28782920 
 12337      5F5F5549 
 12337      4E543136 
 12338              	.LASF949:
 12339 7089 4932435F 		.ascii	"I2C_I2STAT_S_TX_LAST_DAT_ACK ((0xC8))\000"
 12339      49325354 
ARM GAS  /tmp/ccAFBUIw.s 			page 307


 12339      41545F53 
 12339      5F54585F 
 12339      4C415354 
 12340              	.LASF1110:
 12341 70af 53595343 		.ascii	"SYSCTL_CLOCK_CT16B0\000"
 12341      544C5F43 
 12341      4C4F434B 
 12341      5F435431 
 12341      36423000 
 12342              	.LASF1036:
 12343 70c3 75696E74 		.ascii	"uint32_t\000"
 12343      33325F74 
 12343      00
 12344              	.LASF877:
 12345 70cc 4144435F 		.ascii	"ADC_MAX_SAMPLE_RATE 400000\000"
 12345      4D41585F 
 12345      53414D50 
 12345      4C455F52 
 12345      41544520 
 12346              	.LASF823:
 12347 70e7 55415254 		.ascii	"UART_SCICTRL_NACKDIS (1 << 1)\000"
 12347      5F534349 
 12347      4354524C 
 12347      5F4E4143 
 12347      4B444953 
 12348              	.LASF365:
 12349 7105 5F535953 		.ascii	"_SYS__INTSUP_H \000"
 12349      5F5F494E 
 12349      54535550 
 12349      5F482000 
 12350              	.LASF1093:
 12351 7115 53544152 		.ascii	"STARTSRP0\000"
 12351      54535250 
 12351      3000
 12352              	.LASF232:
 12353 711f 5F5F5341 		.ascii	"__SACCUM_EPSILON__ 0x1P-7HK\000"
 12353      4343554D 
 12353      5F455053 
 12353      494C4F4E 
 12353      5F5F2030 
 12354              	.LASF634:
 12355 713b 504D555F 		.ascii	"PMU_PCON_SLEEPFLAG (1 << 8)\000"
 12355      50434F4E 
 12355      5F534C45 
 12355      4550464C 
 12355      41472028 
 12356              	.LASF1202:
 12357 7157 53434C56 		.ascii	"SCLValue\000"
 12357      616C7565 
 12357      00
 12358              	.LASF443:
 12359 7160 494E545F 		.ascii	"INT_FAST64_MAX (__INT_FAST64_MAX__)\000"
 12359      46415354 
 12359      36345F4D 
 12359      41582028 
 12359      5F5F494E 
 12360              	.LASF1128:
ARM GAS  /tmp/ccAFBUIw.s 			page 308


 12361 7184 434F4E43 		.ascii	"CONCLR\000"
 12361      4C5200
 12362              	.LASF726:
 12363 718b 55415254 		.ascii	"UART_DLL_MASKBIT (0xFF)\000"
 12363      5F444C4C 
 12363      5F4D4153 
 12363      4B424954 
 12363      20283078 
 12364              	.LASF1133:
 12365 71a3 44415441 		.ascii	"DATA_BUFFER\000"
 12365      5F425546 
 12365      46455200 
 12366              	.LASF494:
 12367 71af 5F5F4E56 		.ascii	"__NVIC_PRIO_BITS 2\000"
 12367      49435F50 
 12367      52494F5F 
 12367      42495453 
 12367      203200
 12368              	.LASF878:
 12369 71c2 4144435F 		.ascii	"ADC_DR_RESULT(n) ((((n) >> 6) & 0x3FF))\000"
 12369      44525F52 
 12369      4553554C 
 12369      54286E29 
 12369      20282828 
 12370              	.LASF61:
 12371 71ea 5F5F5549 		.ascii	"__UINT_FAST16_TYPE__ unsigned int\000"
 12371      4E545F46 
 12371      41535431 
 12371      365F5459 
 12371      50455F5F 
 12372              	.LASF576:
 12373 720c 53797354 		.ascii	"SysTick_CALIB_SKEW_Msk (1UL << SysTick_CALIB_SKEW_P"
 12373      69636B5F 
 12373      43414C49 
 12373      425F534B 
 12373      45575F4D 
 12374 723f 6F732900 		.ascii	"os)\000"
 12375              	.LASF297:
 12376 7243 5F5F5548 		.ascii	"__UHA_IBIT__ 8\000"
 12376      415F4942 
 12376      49545F5F 
 12376      203800
 12377              	.LASF961:
 12378 7252 4932435F 		.ascii	"I2C_I2SCLH_BITMASK ((0xFFFF))\000"
 12378      49325343 
 12378      4C485F42 
 12378      49544D41 
 12378      534B2028 
 12379              	.LASF242:
 12380 7270 5F5F4143 		.ascii	"__ACCUM_EPSILON__ 0x1P-15K\000"
 12380      43554D5F 
 12380      45505349 
 12380      4C4F4E5F 
 12380      5F203078 
 12381              	.LASF257:
 12382 728b 5F5F554C 		.ascii	"__ULACCUM_EPSILON__ 0x1P-32ULK\000"
 12382      41434355 
ARM GAS  /tmp/ccAFBUIw.s 			page 309


 12382      4D5F4550 
 12382      53494C4F 
 12382      4E5F5F20 
 12383              	.LASF1021:
 12384 72aa 4932435F 		.ascii	"I2C_CON_FLAGS (I2C_CON_AA | I2C_CON_SI | I2C_CON_ST"
 12384      434F4E5F 
 12384      464C4147 
 12384      53202849 
 12384      32435F43 
 12385 72dd 4F207C20 		.ascii	"O | I2C_CON_STA)\000"
 12385      4932435F 
 12385      434F4E5F 
 12385      53544129 
 12385      00
 12386              	.LASF154:
 12387 72ee 5F5F4C44 		.ascii	"__LDBL_DIG__ 15\000"
 12387      424C5F44 
 12387      49475F5F 
 12387      20313500 
 12388              	.LASF1047:
 12389 72fe 5744544F 		.ascii	"WDTOSCCTRL\000"
 12389      53434354 
 12389      524C00
 12390              	.LASF784:
 12391 7309 55415254 		.ascii	"UART_LSR_OE (1 << 1)\000"
 12391      5F4C5352 
 12391      5F4F4520 
 12391      2831203C 
 12391      3C203129 
 12392              	.LASF954:
 12393 731e 4932435F 		.ascii	"I2C_I2MMCTRL_ENA_SCL ((1 << 1))\000"
 12393      49324D4D 
 12393      4354524C 
 12393      5F454E41 
 12393      5F53434C 
 12394              	.LASF398:
 12395 733e 5F5F696E 		.ascii	"__int_least8_t_defined 1\000"
 12395      745F6C65 
 12395      61737438 
 12395      5F745F64 
 12395      6566696E 
 12396              	.LASF1077:
 12397 7357 434C4B4F 		.ascii	"CLKOUTDIV\000"
 12397      55544449 
 12397      5600
 12398              	.LASF77:
 12399 7361 5F5F5749 		.ascii	"__WINT_MIN__ 0U\000"
 12399      4E545F4D 
 12399      494E5F5F 
 12399      20305500 
 12400              	.LASF676:
 12401 7371 494F434F 		.ascii	"IOCON_MODE_REPEATER (0x3 << 3)\000"
 12401      4E5F4D4F 
 12401      44455F52 
 12401      45504541 
 12401      54455220 
 12402              	.LASF179:
ARM GAS  /tmp/ccAFBUIw.s 			page 310


 12403 7390 5F5F4445 		.ascii	"__DEC64_EPSILON__ 1E-15DD\000"
 12403      4336345F 
 12403      45505349 
 12403      4C4F4E5F 
 12403      5F203145 
 12404              	.LASF546:
 12405 73aa 5343425F 		.ascii	"SCB_AIRCR_SYSRESETREQ_Msk (1UL << SCB_AIRCR_SYSRESE"
 12405      41495243 
 12405      525F5359 
 12405      53524553 
 12405      45545245 
 12406 73dd 54524551 		.ascii	"TREQ_Pos)\000"
 12406      5F506F73 
 12406      2900
 12407              	.LASF986:
 12408 73e7 43414E5F 		.ascii	"CAN_ERROR_BIT0 0x00000080UL\000"
 12408      4552524F 
 12408      525F4249 
 12408      54302030 
 12408      78303030 
 12409              	.LASF1176:
 12410 7403 78666572 		.ascii	"xfer\000"
 12410      00
 12411              	.LASF1192:
 12412 7408 68616E64 		.ascii	"handleSlaveXferState\000"
 12412      6C65536C 
 12412      61766558 
 12412      66657253 
 12412      74617465 
 12413              	.LASF49:
 12414 741d 5F5F494E 		.ascii	"__INT_LEAST16_TYPE__ short int\000"
 12414      545F4C45 
 12414      41535431 
 12414      365F5459 
 12414      50455F5F 
 12415              	.LASF1065:
 12416 743c 53535031 		.ascii	"SSP1CLKDIV\000"
 12416      434C4B44 
 12416      495600
 12417              	.LASF267:
 12418 7447 5F5F554C 		.ascii	"__ULLACCUM_EPSILON__ 0x1P-32ULLK\000"
 12418      4C414343 
 12418      554D5F45 
 12418      5053494C 
 12418      4F4E5F5F 
 12419              	.LASF647:
 12420 7468 53595343 		.ascii	"SYSCTL_SLPWAKE_IRC_PD (1 << 1)\000"
 12420      544C5F53 
 12420      4C505741 
 12420      4B455F49 
 12420      52435F50 
 12421              	.LASF146:
 12422 7487 5F5F4442 		.ascii	"__DBL_MAX__ ((double)1.7976931348623157e+308L)\000"
 12422      4C5F4D41 
 12422      585F5F20 
 12422      2828646F 
 12422      75626C65 
ARM GAS  /tmp/ccAFBUIw.s 			page 311


 12423              	.LASF1027:
 12424 74b6 73686F72 		.ascii	"short unsigned int\000"
 12424      7420756E 
 12424      7369676E 
 12424      65642069 
 12424      6E7400
 12425              	.LASF218:
 12426 74c9 5F5F4C4C 		.ascii	"__LLFRACT_FBIT__ 63\000"
 12426      46524143 
 12426      545F4642 
 12426      49545F5F 
 12426      20363300 
 12427              	.LASF512:
 12428 74dd 5343425F 		.ascii	"SCB_CPUID_IMPLEMENTER_Msk (0xFFUL << SCB_CPUID_IMPL"
 12428      43505549 
 12428      445F494D 
 12428      504C454D 
 12428      454E5445 
 12429 7510 454D454E 		.ascii	"EMENTER_Pos)\000"
 12429      5445525F 
 12429      506F7329 
 12429      00
 12430              	.LASF330:
 12431 751d 5F5F7468 		.ascii	"__thumb__ 1\000"
 12431      756D625F 
 12431      5F203100 
 12432              	.LASF885:
 12433 7529 4144435F 		.ascii	"ADC_CR_PDN ((1UL << 21))\000"
 12433      43525F50 
 12433      444E2028 
 12433      2831554C 
 12433      203C3C20 
 12434              	.LASF1204:
 12435 7542 43686970 		.ascii	"Chip_I2C_SetMasterEventHandler\000"
 12435      5F493243 
 12435      5F536574 
 12435      4D617374 
 12435      65724576 
 12436              	.LASF1153:
 12437 7561 7278537A 		.ascii	"rxSz\000"
 12437      00
 12438              	.LASF115:
 12439 7566 5F5F5549 		.ascii	"__UINT_FAST16_MAX__ 4294967295U\000"
 12439      4E545F46 
 12439      41535431 
 12439      365F4D41 
 12439      585F5F20 
 12440              	.LASF1228:
 12441 7586 67657453 		.ascii	"getSlaveIndex\000"
 12441      6C617665 
 12441      496E6465 
 12441      7800
 12442              	.LASF270:
 12443 7594 5F5F4851 		.ascii	"__HQ_FBIT__ 15\000"
 12443      5F464249 
 12443      545F5F20 
 12443      313500
ARM GAS  /tmp/ccAFBUIw.s 			page 312


 12444              	.LASF472:
 12445 75a3 5F5F626F 		.ascii	"__bool_true_false_are_defined 1\000"
 12445      6F6C5F74 
 12445      7275655F 
 12445      66616C73 
 12445      655F6172 
 12446              	.LASF937:
 12447 75c3 4932435F 		.ascii	"I2C_I2STAT_S_RX_ARB_LOST_M_SLA ((0x68))\000"
 12447      49325354 
 12447      41545F53 
 12447      5F52585F 
 12447      4152425F 
 12448              	.LASF380:
 12449 75eb 5F494E54 		.ascii	"_INT32_EQ_LONG \000"
 12449      33325F45 
 12449      515F4C4F 
 12449      4E472000 
 12450              	.LASF306:
 12451 75fb 5F5F474E 		.ascii	"__GNUC_GNU_INLINE__ 1\000"
 12451      55435F47 
 12451      4E555F49 
 12451      4E4C494E 
 12451      455F5F20 
 12452              	.LASF957:
 12453 7611 49324441 		.ascii	"I2DATA_BUFFER_BITMASK ((0xFF))\000"
 12453      54415F42 
 12453      55464645 
 12453      525F4249 
 12453      544D4153 
 12454              	.LASF5:
 12455 7630 5F5F5645 		.ascii	"__VERSION__ \"4.9.3 20150529 (release) [ARM/embedde"
 12455      5253494F 
 12455      4E5F5F20 
 12455      22342E39 
 12455      2E332032 
 12456 7662 642D345F 		.ascii	"d-4_9-branch revision 227977]\"\000"
 12456      392D6272 
 12456      616E6368 
 12456      20726576 
 12456      6973696F 
 12457              	.LASF492:
 12458 7681 5F5F434D 		.ascii	"__CMSIS_11CXX_H_ \000"
 12458      5349535F 
 12458      31314358 
 12458      585F485F 
 12458      2000
 12459              	.LASF998:
 12460 7693 53444F5F 		.ascii	"SDO_ABORT_NOT_EXISTS 0x06020000UL\000"
 12460      41424F52 
 12460      545F4E4F 
 12460      545F4558 
 12460      49535453 
 12461              	.LASF1151:
 12462 76b5 7478537A 		.ascii	"txSz\000"
 12462      00
 12463              	.LASF589:
 12464 76ba 4C50435F 		.ascii	"LPC_I2C_BASE 0x40000000\000"
ARM GAS  /tmp/ccAFBUIw.s 			page 313


 12464      4932435F 
 12464      42415345 
 12464      20307834 
 12464      30303030 
 12465              	.LASF818:
 12466 76d2 55415254 		.ascii	"UART_ICR_FIXPULSE_EN (1 << 2)\000"
 12466      5F494352 
 12466      5F464958 
 12466      50554C53 
 12466      455F454E 
 12467              	.LASF411:
 12468 76f0 55494E54 		.ascii	"UINT8_MAX (__UINT8_MAX__)\000"
 12468      385F4D41 
 12468      5820285F 
 12468      5F55494E 
 12468      54385F4D 
 12469              	.LASF189:
 12470 770a 5F5F5346 		.ascii	"__SFRACT_IBIT__ 0\000"
 12470      52414354 
 12470      5F494249 
 12470      545F5F20 
 12470      3000
 12471              	.LASF507:
 12472 771c 5F5F434F 		.ascii	"__CORE_CM0_H_DEPENDANT \000"
 12472      52455F43 
 12472      4D305F48 
 12472      5F444550 
 12472      454E4441 
 12473              	.LASF1180:
 12474 7734 70493243 		.ascii	"pI2C\000"
 12474      00
 12475              	.LASF844:
 12476 7739 57574454 		.ascii	"WWDT_WDMOD_WDINT ((uint32_t) (1 << 3))\000"
 12476      5F57444D 
 12476      4F445F57 
 12476      44494E54 
 12476      20282875 
 12477              	.LASF908:
 12478 7760 4932435F 		.ascii	"I2C_I2CONCLR_AAC ((1 << 2))\000"
 12478      4932434F 
 12478      4E434C52 
 12478      5F414143 
 12478      20282831 
 12479              	.LASF379:
 12480 777c 6C6F6E67 		.ascii	"long +4\000"
 12480      202B3400 
 12481              	.LASF1190:
 12482 7784 6C6F6F6B 		.ascii	"lookupSlaveIndex\000"
 12482      7570536C 
 12482      61766549 
 12482      6E646578 
 12482      00
 12483              	.LASF593:
 12484 7795 4C50435F 		.ascii	"LPC_TIMER16_1_BASE 0x40010000\000"
 12484      54494D45 
 12484      5231365F 
 12484      315F4241 
ARM GAS  /tmp/ccAFBUIw.s 			page 314


 12484      53452030 
 12485              	.LASF604:
 12486 77b3 4C50435F 		.ascii	"LPC_USB0_BASE 0x40080000\000"
 12486      55534230 
 12486      5F424153 
 12486      45203078 
 12486      34303038 
 12487              	.LASF1082:
 12488 77cc 53595354 		.ascii	"SYSTCKCAL\000"
 12488      434B4341 
 12488      4C00
 12489              	.LASF863:
 12490 77d6 5353505F 		.ascii	"SSP_CPSR_BITMASK ((uint32_t) (0xFF))\000"
 12490      43505352 
 12490      5F424954 
 12490      4D41534B 
 12490      20282875 
 12491              	.LASF31:
 12492 77fb 5F5F5349 		.ascii	"__SIZE_TYPE__ unsigned int\000"
 12492      5A455F54 
 12492      5950455F 
 12492      5F20756E 
 12492      7369676E 
 12493              	.LASF837:
 12494 7816 55415254 		.ascii	"UART_SYNCCTRL_STARTSTOPDISABLE (1 << 5)\000"
 12494      5F53594E 
 12494      43435452 
 12494      4C5F5354 
 12494      41525453 
 12495              	.LASF1067:
 12496 783e 55534243 		.ascii	"USBCLKSEL\000"
 12496      4C4B5345 
 12496      4C00
 12497              	.LASF1004:
 12498 7848 53444F5F 		.ascii	"SDO_ABORT_TRANSFER 0x08000020UL\000"
 12498      41424F52 
 12498      545F5452 
 12498      414E5346 
 12498      45522030 
 12499              	.LASF884:
 12500 7868 4144435F 		.ascii	"ADC_CR_BURST ((1UL << 16))\000"
 12500      43525F42 
 12500      55525354 
 12500      20282831 
 12500      554C203C 
 12501              	.LASF191:
 12502 7883 5F5F5346 		.ascii	"__SFRACT_MAX__ 0X7FP-7HR\000"
 12502      52414354 
 12502      5F4D4158 
 12502      5F5F2030 
 12502      58374650 
 12503              	.LASF719:
 12504 789c 54494D45 		.ascii	"TIMER_INT_ON_CAP(n) (_BIT((((n) * 3) + 2)))\000"
 12504      525F494E 
 12504      545F4F4E 
 12504      5F434150 
 12504      286E2920 
ARM GAS  /tmp/ccAFBUIw.s 			page 315


 12505              	.LASF981:
 12506 78c8 43414E5F 		.ascii	"CAN_ERROR_BOFF 0x00000004UL\000"
 12506      4552524F 
 12506      525F424F 
 12506      46462030 
 12506      78303030 
 12507              	.LASF862:
 12508 78e4 5353505F 		.ascii	"SSP_CR1_BITMASK ((uint32_t) (0x0F))\000"
 12508      4352315F 
 12508      4249544D 
 12508      41534B20 
 12508      28287569 
 12509              	.LASF97:
 12510 7908 5F5F494E 		.ascii	"__INT16_C(c) c\000"
 12510      5431365F 
 12510      43286329 
 12510      206300
 12511              	.LASF615:
 12512 7917 4C50435F 		.ascii	"LPC_USART ((LPC_USART_T *) LPC_USART_BASE)\000"
 12512      55534152 
 12512      54202828 
 12512      4C50435F 
 12512      55534152 
 12513              	.LASF293:
 12514 7942 5F5F4441 		.ascii	"__DA_IBIT__ 32\000"
 12514      5F494249 
 12514      545F5F20 
 12514      333200
 12515              	.LASF984:
 12516 7951 43414E5F 		.ascii	"CAN_ERROR_ACK 0x00000020UL\000"
 12516      4552524F 
 12516      525F4143 
 12516      4B203078 
 12516      30303030 
 12517              	.LASF377:
 12518 796c 73686F72 		.ascii	"short +1\000"
 12518      74202B31 
 12518      00
 12519              	.LASF991:
 12520 7975 43414E5F 		.ascii	"CAN_MSGOBJ_RTR 0x40000000UL\000"
 12520      4D53474F 
 12520      424A5F52 
 12520      54522030 
 12520      78343030 
 12521              	.LASF550:
 12522 7991 5343425F 		.ascii	"SCB_SCR_SEVONPEND_Msk (1UL << SCB_SCR_SEVONPEND_Pos"
 12522      5343525F 
 12522      5345564F 
 12522      4E50454E 
 12522      445F4D73 
 12523 79c4 2900     		.ascii	")\000"
 12524              	.LASF1181:
 12525 79c6 61646472 		.ascii	"addr1\000"
 12525      3100
 12526              	.LASF1182:
 12527 79cc 61646472 		.ascii	"addr2\000"
 12527      3200
ARM GAS  /tmp/ccAFBUIw.s 			page 316


 12528              	.LASF10:
 12529 79d2 5F5F4154 		.ascii	"__ATOMIC_ACQ_REL 4\000"
 12529      4F4D4943 
 12529      5F414351 
 12529      5F52454C 
 12529      203400
 12530              	.LASF42:
 12531 79e5 5F5F494E 		.ascii	"__INT32_TYPE__ long int\000"
 12531      5433325F 
 12531      54595045 
 12531      5F5F206C 
 12531      6F6E6720 
 12532              	.LASF346:
 12533 79fd 5F5F4348 		.ascii	"__CHIP_H_ \000"
 12533      49505F48 
 12533      5F2000
 12534              	.LASF142:
 12535 7a08 5F5F4442 		.ascii	"__DBL_MIN_10_EXP__ (-307)\000"
 12535      4C5F4D49 
 12535      4E5F3130 
 12535      5F455850 
 12535      5F5F2028 
 12536              	.LASF871:
 12537 7a22 5353505F 		.ascii	"SSP_SLAVE_MODE SSP_CR1_SLAVE_EN\000"
 12537      534C4156 
 12537      455F4D4F 
 12537      44452053 
 12537      53505F43 
 12538              	.LASF542:
 12539 7a42 5343425F 		.ascii	"SCB_AIRCR_VECTKEYSTAT_Msk (0xFFFFUL << SCB_AIRCR_VE"
 12539      41495243 
 12539      525F5645 
 12539      43544B45 
 12539      59535441 
 12540 7a75 43544B45 		.ascii	"CTKEYSTAT_Pos)\000"
 12540      59535441 
 12540      545F506F 
 12540      732900
 12541              	.LASF1213:
 12542 7a84 73657453 		.ascii	"setSlaveAddr\000"
 12542      6C617665 
 12542      41646472 
 12542      00
 12543              	.LASF707:
 12544 7a91 46554E43 		.ascii	"FUNC7 0x7\000"
 12544      37203078 
 12544      3700
 12545              	.LASF621:
 12546 7a9b 4C50435F 		.ascii	"LPC_PMU ((LPC_PMU_T *) LPC_PMU_BASE)\000"
 12546      504D5520 
 12546      28284C50 
 12546      435F504D 
 12546      555F5420 
 12547              	.LASF502:
 12548 7ac0 5F5F494E 		.ascii	"__INLINE inline\000"
 12548      4C494E45 
 12548      20696E6C 
ARM GAS  /tmp/ccAFBUIw.s 			page 317


 12548      696E6500 
 12549              	.LASF90:
 12550 7ad0 5F5F5549 		.ascii	"__UINT8_MAX__ 255\000"
 12550      4E54385F 
 12550      4D41585F 
 12550      5F203235 
 12550      3500
 12551              	.LASF801:
 12552 7ae2 55415254 		.ascii	"UART_MSR_DCD (1 << 7)\000"
 12552      5F4D5352 
 12552      5F444344 
 12552      20283120 
 12552      3C3C2037 
 12553              	.LASF469:
 12554 7af8 626F6F6C 		.ascii	"bool _Bool\000"
 12554      205F426F 
 12554      6F6C00
 12555              	.LASF116:
 12556 7b03 5F5F5549 		.ascii	"__UINT_FAST32_MAX__ 4294967295U\000"
 12556      4E545F46 
 12556      41535433 
 12556      325F4D41 
 12556      585F5F20 
 12557              	.LASF102:
 12558 7b23 5F5F5549 		.ascii	"__UINT_LEAST8_MAX__ 255\000"
 12558      4E545F4C 
 12558      45415354 
 12558      385F4D41 
 12558      585F5F20 
 12559              	.LASF1120:
 12560 7b3b 53595343 		.ascii	"SYSCTL_CLOCK_CAN\000"
 12560      544C5F43 
 12560      4C4F434B 
 12560      5F43414E 
 12560      00
 12561              	.LASF214:
 12562 7b4c 5F5F554C 		.ascii	"__ULFRACT_IBIT__ 0\000"
 12562      46524143 
 12562      545F4942 
 12562      49545F5F 
 12562      203000
 12563              	.LASF1221:
 12564 7b5f 43686970 		.ascii	"Chip_I2C_Disable\000"
 12564      5F493243 
 12564      5F446973 
 12564      61626C65 
 12564      00
 12565              	.LASF766:
 12566 7b70 55415254 		.ascii	"UART_LCR_SBS_1BIT (0 << 2)\000"
 12566      5F4C4352 
 12566      5F534253 
 12566      5F314249 
 12566      54202830 
 12567              	.LASF205:
 12568 7b8b 5F5F5546 		.ascii	"__UFRACT_MIN__ 0.0UR\000"
 12568      52414354 
 12568      5F4D494E 
ARM GAS  /tmp/ccAFBUIw.s 			page 318


 12568      5F5F2030 
 12568      2E305552 
 12569              	.LASF51:
 12570 7ba0 5F5F494E 		.ascii	"__INT_LEAST64_TYPE__ long long int\000"
 12570      545F4C45 
 12570      41535436 
 12570      345F5459 
 12570      50455F5F 
 12571              	.LASF742:
 12572 7bc3 55415254 		.ascii	"UART_IIR_ABTO_INT (1 << 9)\000"
 12572      5F494952 
 12572      5F414254 
 12572      4F5F494E 
 12572      54202831 
 12573              	.LASF883:
 12574 7bde 4144435F 		.ascii	"ADC_CR_CLKDIV(n) ((((n) & 0xFF) << 8))\000"
 12574      43525F43 
 12574      4C4B4449 
 12574      56286E29 
 12574      20282828 
 12575              	.LASF369:
 12576 7c05 7369676E 		.ascii	"signed\000"
 12576      656400
 12577              	.LASF228:
 12578 7c0c 5F5F5341 		.ascii	"__SACCUM_FBIT__ 7\000"
 12578      4343554D 
 12578      5F464249 
 12578      545F5F20 
 12578      3700
 12579              	.LASF265:
 12580 7c1e 5F5F554C 		.ascii	"__ULLACCUM_MIN__ 0.0ULLK\000"
 12580      4C414343 
 12580      554D5F4D 
 12580      494E5F5F 
 12580      20302E30 
 12581              	.LASF798:
 12582 7c37 55415254 		.ascii	"UART_MSR_CTS (1 << 4)\000"
 12582      5F4D5352 
 12582      5F435453 
 12582      20283120 
 12582      3C3C2034 
 12583              	.LASF964:
 12584 7c4d 4932435F 		.ascii	"I2C_SETUP_STATUS_NOACKF (1 << 9)\000"
 12584      53455455 
 12584      505F5354 
 12584      41545553 
 12584      5F4E4F41 
 12585              		.ident	"GCC: (GNU Tools for ARM Embedded Processors) 4.9.3 20150529 (release) [ARM/embedded-4_9-br
ARM GAS  /tmp/ccAFBUIw.s 			page 319


DEFINED SYMBOLS
                            *ABS*:00000000 i2c_11xx.c
     /tmp/ccAFBUIw.s:67     .text.Chip_I2C_EventHandler:00000000 $t
     /tmp/ccAFBUIw.s:72     .text.Chip_I2C_EventHandler:00000000 Chip_I2C_EventHandler
     /tmp/ccAFBUIw.s:102    .text.Chip_I2C_EventHandler:00000018 $d
     /tmp/ccAFBUIw.s:107    .text.handleMasterXferState:00000000 $t
     /tmp/ccAFBUIw.s:112    .text.handleMasterXferState:00000000 handleMasterXferState
     /tmp/ccAFBUIw.s:302    .text.getSlaveIndex:00000000 $t
     /tmp/ccAFBUIw.s:307    .text.getSlaveIndex:00000000 getSlaveIndex
     /tmp/ccAFBUIw.s:478    .text.handleSlaveXferState:00000000 $t
     /tmp/ccAFBUIw.s:483    .text.handleSlaveXferState:00000000 handleSlaveXferState
     /tmp/ccAFBUIw.s:649    .text.Chip_I2C_Init:00000000 $t
     /tmp/ccAFBUIw.s:654    .text.Chip_I2C_Init:00000000 Chip_I2C_Init
     /tmp/ccAFBUIw.s:729    .text.Chip_I2C_Init:00000020 $d
     /tmp/ccAFBUIw.s:735    .text.Chip_I2C_DeInit:00000000 $t
     /tmp/ccAFBUIw.s:740    .text.Chip_I2C_DeInit:00000000 Chip_I2C_DeInit
     /tmp/ccAFBUIw.s:790    .text.Chip_I2C_DeInit:00000020 $d
     /tmp/ccAFBUIw.s:797    .text.Chip_I2C_SetClockRate:00000000 $t
     /tmp/ccAFBUIw.s:802    .text.Chip_I2C_SetClockRate:00000000 Chip_I2C_SetClockRate
     /tmp/ccAFBUIw.s:848    .text.Chip_I2C_SetClockRate:00000024 $d
     /tmp/ccAFBUIw.s:853    .text.Chip_I2C_GetClockRate:00000000 $t
     /tmp/ccAFBUIw.s:858    .text.Chip_I2C_GetClockRate:00000000 Chip_I2C_GetClockRate
     /tmp/ccAFBUIw.s:894    .text.Chip_I2C_GetClockRate:0000001c $d
     /tmp/ccAFBUIw.s:899    .text.Chip_I2C_SetMasterEventHandler:00000000 $t
     /tmp/ccAFBUIw.s:904    .text.Chip_I2C_SetMasterEventHandler:00000000 Chip_I2C_SetMasterEventHandler
     /tmp/ccAFBUIw.s:946    .text.Chip_I2C_SetMasterEventHandler:00000024 $d
     /tmp/ccAFBUIw.s:951    .text.Chip_I2C_GetMasterEventHandler:00000000 $t
     /tmp/ccAFBUIw.s:956    .text.Chip_I2C_GetMasterEventHandler:00000000 Chip_I2C_GetMasterEventHandler
     /tmp/ccAFBUIw.s:976    .text.Chip_I2C_GetMasterEventHandler:0000000c $d
     /tmp/ccAFBUIw.s:981    .text.Chip_I2C_MasterTransfer:00000000 $t
     /tmp/ccAFBUIw.s:986    .text.Chip_I2C_MasterTransfer:00000000 Chip_I2C_MasterTransfer
     /tmp/ccAFBUIw.s:1120   .text.Chip_I2C_MasterTransfer:00000078 $d
     /tmp/ccAFBUIw.s:1125   .text.Chip_I2C_MasterSend:00000000 $t
     /tmp/ccAFBUIw.s:1130   .text.Chip_I2C_MasterSend:00000000 Chip_I2C_MasterSend
     /tmp/ccAFBUIw.s:1175   .text.Chip_I2C_MasterCmdRead:00000000 $t
     /tmp/ccAFBUIw.s:1180   .text.Chip_I2C_MasterCmdRead:00000000 Chip_I2C_MasterCmdRead
     /tmp/ccAFBUIw.s:1239   .text.Chip_I2C_MasterRead:00000000 $t
     /tmp/ccAFBUIw.s:1244   .text.Chip_I2C_MasterRead:00000000 Chip_I2C_MasterRead
     /tmp/ccAFBUIw.s:1290   .text.Chip_I2C_IsMasterActive:00000000 $t
     /tmp/ccAFBUIw.s:1295   .text.Chip_I2C_IsMasterActive:00000000 Chip_I2C_IsMasterActive
     /tmp/ccAFBUIw.s:1340   .text.Chip_I2C_IsMasterActive:0000001c $d
     /tmp/ccAFBUIw.s:1345   .text.Chip_I2C_MasterStateHandler:00000000 $t
     /tmp/ccAFBUIw.s:1350   .text.Chip_I2C_MasterStateHandler:00000000 Chip_I2C_MasterStateHandler
     /tmp/ccAFBUIw.s:1389   .text.Chip_I2C_MasterStateHandler:00000024 $d
     /tmp/ccAFBUIw.s:1394   .text.Chip_I2C_SlaveSetup:00000000 $t
     /tmp/ccAFBUIw.s:1399   .text.Chip_I2C_SlaveSetup:00000000 Chip_I2C_SlaveSetup
     /tmp/ccAFBUIw.s:1533   .text.Chip_I2C_SlaveSetup:00000074 $d
     /tmp/ccAFBUIw.s:1540   .text.Chip_I2C_SlaveStateHandler:00000000 $t
     /tmp/ccAFBUIw.s:1545   .text.Chip_I2C_SlaveStateHandler:00000000 Chip_I2C_SlaveStateHandler
     /tmp/ccAFBUIw.s:1645   .text.Chip_I2C_SlaveStateHandler:0000006c $d
     /tmp/ccAFBUIw.s:1651   .text.Chip_I2C_Disable:00000000 $t
     /tmp/ccAFBUIw.s:1656   .text.Chip_I2C_Disable:00000000 Chip_I2C_Disable
     /tmp/ccAFBUIw.s:1677   .text.Chip_I2C_Disable:00000010 $d
     /tmp/ccAFBUIw.s:1682   .text.Chip_I2C_IsStateChanged:00000000 $t
     /tmp/ccAFBUIw.s:1687   .text.Chip_I2C_IsStateChanged:00000000 Chip_I2C_IsStateChanged
     /tmp/ccAFBUIw.s:1709   .text.Chip_I2C_IsStateChanged:00000010 $d
     /tmp/ccAFBUIw.s:1714   .text.Chip_I2C_EventHandlerPolling:00000000 $t
ARM GAS  /tmp/ccAFBUIw.s 			page 320


     /tmp/ccAFBUIw.s:1719   .text.Chip_I2C_EventHandlerPolling:00000000 Chip_I2C_EventHandlerPolling
     /tmp/ccAFBUIw.s:1765   .text.Chip_I2C_EventHandlerPolling:0000002c $d
     /tmp/ccAFBUIw.s:1770   .data.i2c:00000000 $d
     /tmp/ccAFBUIw.s:1774   .data.i2c:00000000 i2c
     /tmp/ccAFBUIw.s:1791   .bss.i2c_slave:00000000 $d
     /tmp/ccAFBUIw.s:1795   .bss.i2c_slave:00000000 i2c_slave
                     .debug_frame:00000010 $d
                           .group:00000000 wm4.0.d60539c8b2f01ca1b851fc35675107cd
                           .group:00000000 wm4.features.h.22.2e382148a0560adabf236cddd4e880f4
                           .group:00000000 wm4._default_types.h.15.933e8edd27a65e0b69af4a865eb623d2
                           .group:00000000 wm4._intsup.h.10.35a45952db64d30146faa63a55c20c1c
                           .group:00000000 wm4._stdint.h.10.f76354baea1c7088202064e6f3d4f5e3
                           .group:00000000 wm4.stdint.h.23.373a9d32a9e4c2e88fd347156532d281
                           .group:00000000 wm4.stdbool.h.29.1c9ee6859ce8145f7838a4f2549ccec2
                           .group:00000000 wm4.lpc_types.h.63.860ba57581a002825766a7c2ac00d549
                           .group:00000000 wm4.sys_config.h.31.9f234e9c90333d233c7e647ebe63e928
                           .group:00000000 wm4.cmsis_11cxx.h.33.407e9bbb5d170cd1552d3f7dc3fd5c42
                           .group:00000000 wm4.core_cm0.h.32.192d13cfa8b31e63c86621de62eb153f
                           .group:00000000 wm4.core_cm0.h.120.f4257ea7d0bce0cbabffe223e23b2fd4
                           .group:00000000 wm4.chip.h.116.857da603c399e979152c31968de4baae
                           .group:00000000 wm4.pmu_11xx.h.33.1d6b708881441cb98d19b8bab3caa180
                           .group:00000000 wm4.sysctl_11xx.h.33.ae61a1181e608f8409883008e291930c
                           .group:00000000 wm4.clock_11xx.h.33.23290a9e2ed919e3a6958d25130bc848
                           .group:00000000 wm4.iocon_11xx.h.33.25e2b3cde122df23fb07b984cb4f3a93
                           .group:00000000 wm4.timer_11xx.h.33.c92f50a9325789ee6a8ffd6248980d70
                           .group:00000000 wm4.ring_buffer.h.33.ffd8153954783612f9c626df1ed9e770
                           .group:00000000 wm4.uart_11xx.h.98.fe68b709973730a4fba3f3ce60c5c312
                           .group:00000000 wm4.wwdt_11xx.h.33.5768344983cb842df69cc91ea86cabb0
                           .group:00000000 wm4.ssp_11xx.h.33.af054d3d65f4cb0c078be40bb872ec37
                           .group:00000000 wm4.error.h.38.ae74fe1dd9d19c80c505f1fda144fce8
                           .group:00000000 wm4.adc_11xx.h.33.6ce7433ac6b30df70a6993d01dbd513f
                           .group:00000000 wm4.i2c_11xx.h.33.2b506d1350e00a8c26e8bf006a5f9390
                           .group:00000000 wm4.ccand_11xx.h.33.99627f4b529fecdc77b0877ab6fe5266

UNDEFINED SYMBOLS
__aeabi_uidiv
Chip_Clock_GetMainClockRate
