ARM GAS  /tmp/ccAFBUIw.s 			page 1


   1              		.cpu cortex-m0
   2              		.fpu softvfp
   3              		.eabi_attribute 20, 1	@ Tag_ABI_FP_denormal
   4              		.eabi_attribute 21, 1	@ Tag_ABI_FP_exceptions
   5              		.eabi_attribute 23, 3	@ Tag_ABI_FP_number_model
   6              		.eabi_attribute 24, 1	@ Tag_ABI_align8_needed
   7              		.eabi_attribute 25, 1	@ Tag_ABI_align8_preserved
   8              		.eabi_attribute 26, 1	@ Tag_ABI_enum_size
   9              		.eabi_attribute 30, 4	@ Tag_ABI_optimization_goals
  10              		.eabi_attribute 34, 0	@ Tag_CPU_unaligned_access
  11              		.eabi_attribute 18, 4	@ Tag_ABI_PCS_wchar_t
  12              		.file	"i2c_11xx.c"
  13              	@ GNU C (GNU Tools for ARM Embedded Processors) version 4.9.3 20150529 (release) [ARM/embedded-4_9-
  14              	@	compiled by GNU C version 4.8.4, GMP version 5.1.3, MPFR version 3.1.2-p3, MPC version 1.0.1
  15              	@ GGC heuristics: --param ggc-min-expand=98 --param ggc-min-heapsize=128397
  16              	@ options passed:  -I . -I ../../lpc11cx4-library/lpc_chip_11cxx_lib/inc
  17              	@ -I ../../lpc11cx4-library/evt_lib/inc -I inc -imultilib armv6-m
  18              	@ -iprefix /usr/bin/../lib/gcc/arm-none-eabi/4.9.3/
  19              	@ -isysroot /usr/bin/../arm-none-eabi -MD bin/i2c_11xx.d -MF bin/i2c_11xx.d
  20              	@ -MP -MQ bin/i2c_11xx.o -D__USES_INITFINI__ -D CORE_M0
  21              	@ ../../lpc11cx4-library/lpc_chip_11cxx_lib/src/i2c_11xx.c -mcpu=cortex-m0
  22              	@ -mthumb -auxbase-strip bin/i2c_11xx.o -g -ggdb3 -Os -Wall
  23              	@ -Wstrict-prototypes -Wextra -std=gnu90 -ffunction-sections
  24              	@ -fdata-sections -fverbose-asm -fstack-usage
  25              	@ options enabled:  -faggressive-loop-optimizations -fauto-inc-dec
  26              	@ -fbranch-count-reg -fcaller-saves -fcombine-stack-adjustments -fcommon
  27              	@ -fcompare-elim -fcprop-registers -fcrossjumping -fcse-follow-jumps
  28              	@ -fdata-sections -fdefer-pop -fdelete-null-pointer-checks -fdevirtualize
  29              	@ -fdevirtualize-speculatively -fdwarf2-cfi-asm -fearly-inlining
  30              	@ -feliminate-unused-debug-types -fexpensive-optimizations
  31              	@ -fforward-propagate -ffunction-cse -ffunction-sections -fgcse -fgcse-lm
  32              	@ -fgnu-runtime -fgnu-unique -fguess-branch-probability
  33              	@ -fhoist-adjacent-loads -fident -fif-conversion -fif-conversion2
  34              	@ -findirect-inlining -finline -finline-atomics -finline-functions
  35              	@ -finline-functions-called-once -finline-small-functions -fipa-cp
  36              	@ -fipa-profile -fipa-pure-const -fipa-reference -fipa-sra
  37              	@ -fira-hoist-pressure -fira-share-save-slots -fira-share-spill-slots
  38              	@ -fisolate-erroneous-paths-dereference -fivopts -fkeep-static-consts
  39              	@ -fleading-underscore -flifetime-dse -fmath-errno -fmerge-constants
  40              	@ -fmerge-debug-strings -fomit-frame-pointer -foptimize-sibling-calls
  41              	@ -fpartial-inlining -fpeephole -fpeephole2 -fprefetch-loop-arrays
  42              	@ -freg-struct-return -freorder-blocks -freorder-functions
  43              	@ -frerun-cse-after-loop -fsched-critical-path-heuristic
  44              	@ -fsched-dep-count-heuristic -fsched-group-heuristic -fsched-interblock
  45              	@ -fsched-last-insn-heuristic -fsched-pressure -fsched-rank-heuristic
  46              	@ -fsched-spec -fsched-spec-insn-heuristic -fsched-stalled-insns-dep
  47              	@ -fschedule-insns2 -fsection-anchors -fshow-column -fshrink-wrap
  48              	@ -fsigned-zeros -fsplit-ivs-in-unroller -fsplit-wide-types
  49              	@ -fstrict-aliasing -fstrict-overflow -fstrict-volatile-bitfields
  50              	@ -fsync-libcalls -fthread-jumps -ftoplevel-reorder -ftrapping-math
  51              	@ -ftree-bit-ccp -ftree-builtin-call-dce -ftree-ccp -ftree-ch
  52              	@ -ftree-coalesce-vars -ftree-copy-prop -ftree-copyrename -ftree-cselim
  53              	@ -ftree-dce -ftree-dominator-opts -ftree-dse -ftree-forwprop -ftree-fre
  54              	@ -ftree-loop-if-convert -ftree-loop-im -ftree-loop-ivcanon
  55              	@ -ftree-loop-optimize -ftree-parallelize-loops= -ftree-phiprop -ftree-pre
  56              	@ -ftree-pta -ftree-reassoc -ftree-scev-cprop -ftree-sink -ftree-slsr
  57              	@ -ftree-sra -ftree-switch-conversion -ftree-tail-merge -ftree-ter
ARM GAS  /tmp/ccAFBUIw.s 			page 2


  58              	@ -ftree-vrp -funit-at-a-time -fvar-tracking -fvar-tracking-assignments
  59              	@ -fverbose-asm -fzero-initialized-in-bss -mlittle-endian -mlra
  60              	@ -mpic-data-is-text-relative -msched-prolog -mthumb
  61              	@ -mvectorize-with-neon-quad
  62              	
  63              		.text
  64              	.Ltext0:
  65              		.cfi_sections	.debug_frame
  66              		.section	.text.Chip_I2C_EventHandler,"ax",%progbits
  67              		.align	1
  68              		.global	Chip_I2C_EventHandler
  69              		.code	16
  70              		.thumb_func
  71              		.type	Chip_I2C_EventHandler, %function
  72              	Chip_I2C_EventHandler:
  73              	.LFB212:
  74              		.file 1 "../../lpc11cx4-library/lpc_chip_11cxx_lib/src/i2c_11xx.c"
   1:../../lpc11cx4-library/lpc_chip_11cxx_lib/src/i2c_11xx.c **** /*
   2:../../lpc11cx4-library/lpc_chip_11cxx_lib/src/i2c_11xx.c ****  * @brief LPC11xx I2C driver
   3:../../lpc11cx4-library/lpc_chip_11cxx_lib/src/i2c_11xx.c ****  *
   4:../../lpc11cx4-library/lpc_chip_11cxx_lib/src/i2c_11xx.c ****  * @note
   5:../../lpc11cx4-library/lpc_chip_11cxx_lib/src/i2c_11xx.c ****  * Copyright(C) NXP Semiconductors, 2012
   6:../../lpc11cx4-library/lpc_chip_11cxx_lib/src/i2c_11xx.c ****  * All rights reserved.
   7:../../lpc11cx4-library/lpc_chip_11cxx_lib/src/i2c_11xx.c ****  *
   8:../../lpc11cx4-library/lpc_chip_11cxx_lib/src/i2c_11xx.c ****  * @par
   9:../../lpc11cx4-library/lpc_chip_11cxx_lib/src/i2c_11xx.c ****  * Software that is described herein is for illustrative purposes only
  10:../../lpc11cx4-library/lpc_chip_11cxx_lib/src/i2c_11xx.c ****  * which provides customers with programming information regarding the
  11:../../lpc11cx4-library/lpc_chip_11cxx_lib/src/i2c_11xx.c ****  * LPC products.  This software is supplied "AS IS" without any warranties of
  12:../../lpc11cx4-library/lpc_chip_11cxx_lib/src/i2c_11xx.c ****  * any kind, and NXP Semiconductors and its licensor disclaim any and
  13:../../lpc11cx4-library/lpc_chip_11cxx_lib/src/i2c_11xx.c ****  * all warranties, express or implied, including all implied warranties of
  14:../../lpc11cx4-library/lpc_chip_11cxx_lib/src/i2c_11xx.c ****  * merchantability, fitness for a particular purpose and non-infringement of
  15:../../lpc11cx4-library/lpc_chip_11cxx_lib/src/i2c_11xx.c ****  * intellectual property rights.  NXP Semiconductors assumes no responsibility
  16:../../lpc11cx4-library/lpc_chip_11cxx_lib/src/i2c_11xx.c ****  * or liability for the use of the software, conveys no license or rights under any
  17:../../lpc11cx4-library/lpc_chip_11cxx_lib/src/i2c_11xx.c ****  * patent, copyright, mask work right, or any other intellectual property rights in
  18:../../lpc11cx4-library/lpc_chip_11cxx_lib/src/i2c_11xx.c ****  * or to any products. NXP Semiconductors reserves the right to make changes
  19:../../lpc11cx4-library/lpc_chip_11cxx_lib/src/i2c_11xx.c ****  * in the software without notification. NXP Semiconductors also makes no
  20:../../lpc11cx4-library/lpc_chip_11cxx_lib/src/i2c_11xx.c ****  * representation or warranty that such application will be suitable for the
  21:../../lpc11cx4-library/lpc_chip_11cxx_lib/src/i2c_11xx.c ****  * specified use without further testing or modification.
  22:../../lpc11cx4-library/lpc_chip_11cxx_lib/src/i2c_11xx.c ****  *
  23:../../lpc11cx4-library/lpc_chip_11cxx_lib/src/i2c_11xx.c ****  * @par
  24:../../lpc11cx4-library/lpc_chip_11cxx_lib/src/i2c_11xx.c ****  * Permission to use, copy, modify, and distribute this software and its
  25:../../lpc11cx4-library/lpc_chip_11cxx_lib/src/i2c_11xx.c ****  * documentation is hereby granted, under NXP Semiconductors' and its
  26:../../lpc11cx4-library/lpc_chip_11cxx_lib/src/i2c_11xx.c ****  * licensor's relevant copyrights in the software, without fee, provided that it
  27:../../lpc11cx4-library/lpc_chip_11cxx_lib/src/i2c_11xx.c ****  * is used in conjunction with NXP Semiconductors microcontrollers.  This
  28:../../lpc11cx4-library/lpc_chip_11cxx_lib/src/i2c_11xx.c ****  * copyright, permission, and disclaimer notice must appear in all copies of
  29:../../lpc11cx4-library/lpc_chip_11cxx_lib/src/i2c_11xx.c ****  * this code.
  30:../../lpc11cx4-library/lpc_chip_11cxx_lib/src/i2c_11xx.c ****  */
  31:../../lpc11cx4-library/lpc_chip_11cxx_lib/src/i2c_11xx.c **** 
  32:../../lpc11cx4-library/lpc_chip_11cxx_lib/src/i2c_11xx.c **** #include "chip.h"
  33:../../lpc11cx4-library/lpc_chip_11cxx_lib/src/i2c_11xx.c **** 
  34:../../lpc11cx4-library/lpc_chip_11cxx_lib/src/i2c_11xx.c **** #if !defined(CHIP_LPC110X)
  35:../../lpc11cx4-library/lpc_chip_11cxx_lib/src/i2c_11xx.c **** 
  36:../../lpc11cx4-library/lpc_chip_11cxx_lib/src/i2c_11xx.c **** /*****************************************************************************
  37:../../lpc11cx4-library/lpc_chip_11cxx_lib/src/i2c_11xx.c ****  * Private types/enumerations/variables
  38:../../lpc11cx4-library/lpc_chip_11cxx_lib/src/i2c_11xx.c ****  ****************************************************************************/
  39:../../lpc11cx4-library/lpc_chip_11cxx_lib/src/i2c_11xx.c **** 
  40:../../lpc11cx4-library/lpc_chip_11cxx_lib/src/i2c_11xx.c **** /* Control flags */
ARM GAS  /tmp/ccAFBUIw.s 			page 3


  41:../../lpc11cx4-library/lpc_chip_11cxx_lib/src/i2c_11xx.c **** #define I2C_CON_FLAGS (I2C_CON_AA | I2C_CON_SI | I2C_CON_STO | I2C_CON_STA)
  42:../../lpc11cx4-library/lpc_chip_11cxx_lib/src/i2c_11xx.c **** #define LPC_I2Cx(id)      ((i2c[id].ip))
  43:../../lpc11cx4-library/lpc_chip_11cxx_lib/src/i2c_11xx.c **** #define SLAVE_ACTIVE(iic) (((iic)->flags & 0xFF00) != 0)
  44:../../lpc11cx4-library/lpc_chip_11cxx_lib/src/i2c_11xx.c **** 
  45:../../lpc11cx4-library/lpc_chip_11cxx_lib/src/i2c_11xx.c **** /* I2C common interface structure */
  46:../../lpc11cx4-library/lpc_chip_11cxx_lib/src/i2c_11xx.c **** struct i2c_interface {
  47:../../lpc11cx4-library/lpc_chip_11cxx_lib/src/i2c_11xx.c **** 	LPC_I2C_T *ip;		/* IP base address of the I2C device */
  48:../../lpc11cx4-library/lpc_chip_11cxx_lib/src/i2c_11xx.c **** 	CHIP_SYSCTL_CLOCK_T clk;	/* Clock used by I2C */
  49:../../lpc11cx4-library/lpc_chip_11cxx_lib/src/i2c_11xx.c **** 	I2C_EVENTHANDLER_T mEvent;	/* Current active Master event handler */
  50:../../lpc11cx4-library/lpc_chip_11cxx_lib/src/i2c_11xx.c **** 	I2C_EVENTHANDLER_T sEvent;	/* Slave transfer events */
  51:../../lpc11cx4-library/lpc_chip_11cxx_lib/src/i2c_11xx.c **** 	I2C_XFER_T *mXfer;	/* Current active xfer pointer */
  52:../../lpc11cx4-library/lpc_chip_11cxx_lib/src/i2c_11xx.c **** 	I2C_XFER_T *sXfer;	/* Pointer to store xfer when bus is busy */
  53:../../lpc11cx4-library/lpc_chip_11cxx_lib/src/i2c_11xx.c **** 	uint32_t flags;		/* Flags used by I2C master and slave */
  54:../../lpc11cx4-library/lpc_chip_11cxx_lib/src/i2c_11xx.c **** };
  55:../../lpc11cx4-library/lpc_chip_11cxx_lib/src/i2c_11xx.c **** 
  56:../../lpc11cx4-library/lpc_chip_11cxx_lib/src/i2c_11xx.c **** /* Slave interface structure */
  57:../../lpc11cx4-library/lpc_chip_11cxx_lib/src/i2c_11xx.c **** struct i2c_slave_interface {
  58:../../lpc11cx4-library/lpc_chip_11cxx_lib/src/i2c_11xx.c **** 	I2C_XFER_T *xfer;
  59:../../lpc11cx4-library/lpc_chip_11cxx_lib/src/i2c_11xx.c **** 	I2C_EVENTHANDLER_T event;
  60:../../lpc11cx4-library/lpc_chip_11cxx_lib/src/i2c_11xx.c **** };
  61:../../lpc11cx4-library/lpc_chip_11cxx_lib/src/i2c_11xx.c **** 
  62:../../lpc11cx4-library/lpc_chip_11cxx_lib/src/i2c_11xx.c **** /* I2C interfaces */
  63:../../lpc11cx4-library/lpc_chip_11cxx_lib/src/i2c_11xx.c **** static struct i2c_interface i2c[I2C_NUM_INTERFACE] = {
  64:../../lpc11cx4-library/lpc_chip_11cxx_lib/src/i2c_11xx.c **** 	{LPC_I2C, SYSCTL_CLOCK_I2C, Chip_I2C_EventHandler, NULL, NULL, NULL, 0}
  65:../../lpc11cx4-library/lpc_chip_11cxx_lib/src/i2c_11xx.c **** };
  66:../../lpc11cx4-library/lpc_chip_11cxx_lib/src/i2c_11xx.c **** 
  67:../../lpc11cx4-library/lpc_chip_11cxx_lib/src/i2c_11xx.c **** static struct i2c_slave_interface i2c_slave[I2C_NUM_INTERFACE][I2C_SLAVE_NUM_INTERFACE];
  68:../../lpc11cx4-library/lpc_chip_11cxx_lib/src/i2c_11xx.c **** 
  69:../../lpc11cx4-library/lpc_chip_11cxx_lib/src/i2c_11xx.c **** /*****************************************************************************
  70:../../lpc11cx4-library/lpc_chip_11cxx_lib/src/i2c_11xx.c ****  * Public types/enumerations/variables
  71:../../lpc11cx4-library/lpc_chip_11cxx_lib/src/i2c_11xx.c ****  ****************************************************************************/
  72:../../lpc11cx4-library/lpc_chip_11cxx_lib/src/i2c_11xx.c **** 
  73:../../lpc11cx4-library/lpc_chip_11cxx_lib/src/i2c_11xx.c **** /*****************************************************************************
  74:../../lpc11cx4-library/lpc_chip_11cxx_lib/src/i2c_11xx.c ****  * Private functions
  75:../../lpc11cx4-library/lpc_chip_11cxx_lib/src/i2c_11xx.c ****  ****************************************************************************/
  76:../../lpc11cx4-library/lpc_chip_11cxx_lib/src/i2c_11xx.c ****  
  77:../../lpc11cx4-library/lpc_chip_11cxx_lib/src/i2c_11xx.c **** STATIC INLINE void enableClk(I2C_ID_T id)
  78:../../lpc11cx4-library/lpc_chip_11cxx_lib/src/i2c_11xx.c **** {
  79:../../lpc11cx4-library/lpc_chip_11cxx_lib/src/i2c_11xx.c **** 	Chip_Clock_EnablePeriphClock(i2c[id].clk);
  80:../../lpc11cx4-library/lpc_chip_11cxx_lib/src/i2c_11xx.c **** }
  81:../../lpc11cx4-library/lpc_chip_11cxx_lib/src/i2c_11xx.c **** 
  82:../../lpc11cx4-library/lpc_chip_11cxx_lib/src/i2c_11xx.c **** STATIC INLINE void disableClk(I2C_ID_T id)
  83:../../lpc11cx4-library/lpc_chip_11cxx_lib/src/i2c_11xx.c **** {
  84:../../lpc11cx4-library/lpc_chip_11cxx_lib/src/i2c_11xx.c **** 	Chip_Clock_DisablePeriphClock(i2c[id].clk);
  85:../../lpc11cx4-library/lpc_chip_11cxx_lib/src/i2c_11xx.c **** }
  86:../../lpc11cx4-library/lpc_chip_11cxx_lib/src/i2c_11xx.c **** 
  87:../../lpc11cx4-library/lpc_chip_11cxx_lib/src/i2c_11xx.c **** /* Get the ADC Clock Rate */
  88:../../lpc11cx4-library/lpc_chip_11cxx_lib/src/i2c_11xx.c **** STATIC INLINE uint32_t getClkRate(void)
  89:../../lpc11cx4-library/lpc_chip_11cxx_lib/src/i2c_11xx.c **** {
  90:../../lpc11cx4-library/lpc_chip_11cxx_lib/src/i2c_11xx.c **** 	return Chip_Clock_GetMainClockRate();
  91:../../lpc11cx4-library/lpc_chip_11cxx_lib/src/i2c_11xx.c **** }
  92:../../lpc11cx4-library/lpc_chip_11cxx_lib/src/i2c_11xx.c **** 
  93:../../lpc11cx4-library/lpc_chip_11cxx_lib/src/i2c_11xx.c **** /* Enable I2C and start master transfer */
  94:../../lpc11cx4-library/lpc_chip_11cxx_lib/src/i2c_11xx.c **** STATIC INLINE void startMasterXfer(LPC_I2C_T *pI2C)
  95:../../lpc11cx4-library/lpc_chip_11cxx_lib/src/i2c_11xx.c **** {
  96:../../lpc11cx4-library/lpc_chip_11cxx_lib/src/i2c_11xx.c **** 	/* Reset STA, STO, SI */
  97:../../lpc11cx4-library/lpc_chip_11cxx_lib/src/i2c_11xx.c **** 	pI2C->CONCLR = I2C_CON_SI | I2C_CON_STO | I2C_CON_STA | I2C_CON_AA;
ARM GAS  /tmp/ccAFBUIw.s 			page 4


  98:../../lpc11cx4-library/lpc_chip_11cxx_lib/src/i2c_11xx.c **** 
  99:../../lpc11cx4-library/lpc_chip_11cxx_lib/src/i2c_11xx.c **** 	/* Enter to Master Transmitter mode */
 100:../../lpc11cx4-library/lpc_chip_11cxx_lib/src/i2c_11xx.c **** 	pI2C->CONSET = I2C_CON_I2EN | I2C_CON_STA;
 101:../../lpc11cx4-library/lpc_chip_11cxx_lib/src/i2c_11xx.c **** }
 102:../../lpc11cx4-library/lpc_chip_11cxx_lib/src/i2c_11xx.c **** 
 103:../../lpc11cx4-library/lpc_chip_11cxx_lib/src/i2c_11xx.c **** /* Enable I2C and enable slave transfers */
 104:../../lpc11cx4-library/lpc_chip_11cxx_lib/src/i2c_11xx.c **** STATIC INLINE void startSlaverXfer(LPC_I2C_T *pI2C)
 105:../../lpc11cx4-library/lpc_chip_11cxx_lib/src/i2c_11xx.c **** {
 106:../../lpc11cx4-library/lpc_chip_11cxx_lib/src/i2c_11xx.c **** 	/* Reset STA, STO, SI */
 107:../../lpc11cx4-library/lpc_chip_11cxx_lib/src/i2c_11xx.c **** 	pI2C->CONCLR = I2C_CON_SI | I2C_CON_STO | I2C_CON_STA;
 108:../../lpc11cx4-library/lpc_chip_11cxx_lib/src/i2c_11xx.c **** 
 109:../../lpc11cx4-library/lpc_chip_11cxx_lib/src/i2c_11xx.c **** 	/* Enter to Master Transmitter mode */
 110:../../lpc11cx4-library/lpc_chip_11cxx_lib/src/i2c_11xx.c **** 	pI2C->CONSET = I2C_CON_I2EN | I2C_CON_AA;
 111:../../lpc11cx4-library/lpc_chip_11cxx_lib/src/i2c_11xx.c **** }
 112:../../lpc11cx4-library/lpc_chip_11cxx_lib/src/i2c_11xx.c **** 
 113:../../lpc11cx4-library/lpc_chip_11cxx_lib/src/i2c_11xx.c **** /* Check if I2C bus is free */
 114:../../lpc11cx4-library/lpc_chip_11cxx_lib/src/i2c_11xx.c **** STATIC INLINE int isI2CBusFree(LPC_I2C_T *pI2C)
 115:../../lpc11cx4-library/lpc_chip_11cxx_lib/src/i2c_11xx.c **** {
 116:../../lpc11cx4-library/lpc_chip_11cxx_lib/src/i2c_11xx.c **** 	return !(pI2C->CONSET & I2C_CON_STO);
 117:../../lpc11cx4-library/lpc_chip_11cxx_lib/src/i2c_11xx.c **** }
 118:../../lpc11cx4-library/lpc_chip_11cxx_lib/src/i2c_11xx.c **** 
 119:../../lpc11cx4-library/lpc_chip_11cxx_lib/src/i2c_11xx.c **** /* Get current state of the I2C peripheral */
 120:../../lpc11cx4-library/lpc_chip_11cxx_lib/src/i2c_11xx.c **** STATIC INLINE int getCurState(LPC_I2C_T *pI2C)
 121:../../lpc11cx4-library/lpc_chip_11cxx_lib/src/i2c_11xx.c **** {
 122:../../lpc11cx4-library/lpc_chip_11cxx_lib/src/i2c_11xx.c **** 	return (int) (pI2C->STAT & I2C_STAT_CODE_BITMASK);
 123:../../lpc11cx4-library/lpc_chip_11cxx_lib/src/i2c_11xx.c **** }
 124:../../lpc11cx4-library/lpc_chip_11cxx_lib/src/i2c_11xx.c **** 
 125:../../lpc11cx4-library/lpc_chip_11cxx_lib/src/i2c_11xx.c **** /* Check if the active state belongs to master mode*/
 126:../../lpc11cx4-library/lpc_chip_11cxx_lib/src/i2c_11xx.c **** STATIC INLINE int isMasterState(LPC_I2C_T *pI2C)
 127:../../lpc11cx4-library/lpc_chip_11cxx_lib/src/i2c_11xx.c **** {
 128:../../lpc11cx4-library/lpc_chip_11cxx_lib/src/i2c_11xx.c **** 	return getCurState(pI2C) < 0x60;
 129:../../lpc11cx4-library/lpc_chip_11cxx_lib/src/i2c_11xx.c **** }
 130:../../lpc11cx4-library/lpc_chip_11cxx_lib/src/i2c_11xx.c **** 
 131:../../lpc11cx4-library/lpc_chip_11cxx_lib/src/i2c_11xx.c **** /* Set OWN slave address for specific slave ID */
 132:../../lpc11cx4-library/lpc_chip_11cxx_lib/src/i2c_11xx.c **** STATIC void setSlaveAddr(LPC_I2C_T *pI2C, I2C_SLAVE_ID sid, uint8_t addr, uint8_t mask)
 133:../../lpc11cx4-library/lpc_chip_11cxx_lib/src/i2c_11xx.c **** {
 134:../../lpc11cx4-library/lpc_chip_11cxx_lib/src/i2c_11xx.c **** 	uint32_t index = (uint32_t) sid - 1;
 135:../../lpc11cx4-library/lpc_chip_11cxx_lib/src/i2c_11xx.c **** 	pI2C->MASK[index] = mask;
 136:../../lpc11cx4-library/lpc_chip_11cxx_lib/src/i2c_11xx.c **** 	if (sid == I2C_SLAVE_0) {
 137:../../lpc11cx4-library/lpc_chip_11cxx_lib/src/i2c_11xx.c **** 		pI2C->ADR0 = addr;
 138:../../lpc11cx4-library/lpc_chip_11cxx_lib/src/i2c_11xx.c **** 	}
 139:../../lpc11cx4-library/lpc_chip_11cxx_lib/src/i2c_11xx.c **** 	else {
 140:../../lpc11cx4-library/lpc_chip_11cxx_lib/src/i2c_11xx.c **** 		volatile uint32_t *abase = &pI2C->ADR1;
 141:../../lpc11cx4-library/lpc_chip_11cxx_lib/src/i2c_11xx.c **** 		abase[index - 1] = addr;
 142:../../lpc11cx4-library/lpc_chip_11cxx_lib/src/i2c_11xx.c **** 	}
 143:../../lpc11cx4-library/lpc_chip_11cxx_lib/src/i2c_11xx.c **** }
 144:../../lpc11cx4-library/lpc_chip_11cxx_lib/src/i2c_11xx.c **** 
 145:../../lpc11cx4-library/lpc_chip_11cxx_lib/src/i2c_11xx.c **** /* Match the slave address */
 146:../../lpc11cx4-library/lpc_chip_11cxx_lib/src/i2c_11xx.c **** STATIC int isSlaveAddrMatching(uint8_t addr1, uint8_t addr2, uint8_t mask)
 147:../../lpc11cx4-library/lpc_chip_11cxx_lib/src/i2c_11xx.c **** {
 148:../../lpc11cx4-library/lpc_chip_11cxx_lib/src/i2c_11xx.c **** 	mask |= 1;
 149:../../lpc11cx4-library/lpc_chip_11cxx_lib/src/i2c_11xx.c **** 	return (addr1 & ~mask) == (addr2 & ~mask);
 150:../../lpc11cx4-library/lpc_chip_11cxx_lib/src/i2c_11xx.c **** }
 151:../../lpc11cx4-library/lpc_chip_11cxx_lib/src/i2c_11xx.c **** 
 152:../../lpc11cx4-library/lpc_chip_11cxx_lib/src/i2c_11xx.c **** /* Get the index of the active slave */
 153:../../lpc11cx4-library/lpc_chip_11cxx_lib/src/i2c_11xx.c **** STATIC I2C_SLAVE_ID lookupSlaveIndex(LPC_I2C_T *pI2C, uint8_t slaveAddr)
 154:../../lpc11cx4-library/lpc_chip_11cxx_lib/src/i2c_11xx.c **** {
ARM GAS  /tmp/ccAFBUIw.s 			page 5


 155:../../lpc11cx4-library/lpc_chip_11cxx_lib/src/i2c_11xx.c **** 	if (!(slaveAddr >> 1)) {
 156:../../lpc11cx4-library/lpc_chip_11cxx_lib/src/i2c_11xx.c **** 		return I2C_SLAVE_GENERAL;					/* General call address */
 157:../../lpc11cx4-library/lpc_chip_11cxx_lib/src/i2c_11xx.c **** 	}
 158:../../lpc11cx4-library/lpc_chip_11cxx_lib/src/i2c_11xx.c **** 	if (isSlaveAddrMatching(pI2C->ADR0, slaveAddr, pI2C->MASK[0])) {
 159:../../lpc11cx4-library/lpc_chip_11cxx_lib/src/i2c_11xx.c **** 		return I2C_SLAVE_0;
 160:../../lpc11cx4-library/lpc_chip_11cxx_lib/src/i2c_11xx.c **** 	}
 161:../../lpc11cx4-library/lpc_chip_11cxx_lib/src/i2c_11xx.c **** 	if (isSlaveAddrMatching(pI2C->ADR1, slaveAddr, pI2C->MASK[1])) {
 162:../../lpc11cx4-library/lpc_chip_11cxx_lib/src/i2c_11xx.c **** 		return I2C_SLAVE_1;
 163:../../lpc11cx4-library/lpc_chip_11cxx_lib/src/i2c_11xx.c **** 	}
 164:../../lpc11cx4-library/lpc_chip_11cxx_lib/src/i2c_11xx.c **** 	if (isSlaveAddrMatching(pI2C->ADR2, slaveAddr, pI2C->MASK[2])) {
 165:../../lpc11cx4-library/lpc_chip_11cxx_lib/src/i2c_11xx.c **** 		return I2C_SLAVE_2;
 166:../../lpc11cx4-library/lpc_chip_11cxx_lib/src/i2c_11xx.c **** 	}
 167:../../lpc11cx4-library/lpc_chip_11cxx_lib/src/i2c_11xx.c **** 	if (isSlaveAddrMatching(pI2C->ADR3, slaveAddr, pI2C->MASK[3])) {
 168:../../lpc11cx4-library/lpc_chip_11cxx_lib/src/i2c_11xx.c **** 		return I2C_SLAVE_3;
 169:../../lpc11cx4-library/lpc_chip_11cxx_lib/src/i2c_11xx.c **** 	}
 170:../../lpc11cx4-library/lpc_chip_11cxx_lib/src/i2c_11xx.c **** 
 171:../../lpc11cx4-library/lpc_chip_11cxx_lib/src/i2c_11xx.c **** 	/* If everything is fine the code should never come here */
 172:../../lpc11cx4-library/lpc_chip_11cxx_lib/src/i2c_11xx.c **** 	return I2C_SLAVE_GENERAL;
 173:../../lpc11cx4-library/lpc_chip_11cxx_lib/src/i2c_11xx.c **** }
 174:../../lpc11cx4-library/lpc_chip_11cxx_lib/src/i2c_11xx.c **** 
 175:../../lpc11cx4-library/lpc_chip_11cxx_lib/src/i2c_11xx.c **** /* Master transfer state change handler handler */
 176:../../lpc11cx4-library/lpc_chip_11cxx_lib/src/i2c_11xx.c **** int handleMasterXferState(LPC_I2C_T *pI2C, I2C_XFER_T  *xfer)
 177:../../lpc11cx4-library/lpc_chip_11cxx_lib/src/i2c_11xx.c **** {
 178:../../lpc11cx4-library/lpc_chip_11cxx_lib/src/i2c_11xx.c **** 	uint32_t cclr = I2C_CON_FLAGS;
 179:../../lpc11cx4-library/lpc_chip_11cxx_lib/src/i2c_11xx.c **** 
 180:../../lpc11cx4-library/lpc_chip_11cxx_lib/src/i2c_11xx.c **** 	switch (getCurState(pI2C)) {
 181:../../lpc11cx4-library/lpc_chip_11cxx_lib/src/i2c_11xx.c **** 	case 0x08:		/* Start condition on bus */
 182:../../lpc11cx4-library/lpc_chip_11cxx_lib/src/i2c_11xx.c **** 	case 0x10:		/* Repeated start condition */
 183:../../lpc11cx4-library/lpc_chip_11cxx_lib/src/i2c_11xx.c **** 		pI2C->DAT = (xfer->slaveAddr << 1) | (xfer->txSz == 0);
 184:../../lpc11cx4-library/lpc_chip_11cxx_lib/src/i2c_11xx.c **** 		break;
 185:../../lpc11cx4-library/lpc_chip_11cxx_lib/src/i2c_11xx.c **** 
 186:../../lpc11cx4-library/lpc_chip_11cxx_lib/src/i2c_11xx.c **** 	/* Tx handling */
 187:../../lpc11cx4-library/lpc_chip_11cxx_lib/src/i2c_11xx.c **** 	case 0x18:		/* SLA+W sent and ACK received */
 188:../../lpc11cx4-library/lpc_chip_11cxx_lib/src/i2c_11xx.c **** 	case 0x28:		/* DATA sent and ACK received */
 189:../../lpc11cx4-library/lpc_chip_11cxx_lib/src/i2c_11xx.c **** 		if (!xfer->txSz) {
 190:../../lpc11cx4-library/lpc_chip_11cxx_lib/src/i2c_11xx.c **** 			cclr &= ~(xfer->rxSz ? I2C_CON_STA : I2C_CON_STO);
 191:../../lpc11cx4-library/lpc_chip_11cxx_lib/src/i2c_11xx.c **** 		}
 192:../../lpc11cx4-library/lpc_chip_11cxx_lib/src/i2c_11xx.c **** 		else {
 193:../../lpc11cx4-library/lpc_chip_11cxx_lib/src/i2c_11xx.c **** 			pI2C->DAT = *xfer->txBuff++;
 194:../../lpc11cx4-library/lpc_chip_11cxx_lib/src/i2c_11xx.c **** 			xfer->txSz--;
 195:../../lpc11cx4-library/lpc_chip_11cxx_lib/src/i2c_11xx.c **** 		}
 196:../../lpc11cx4-library/lpc_chip_11cxx_lib/src/i2c_11xx.c **** 		break;
 197:../../lpc11cx4-library/lpc_chip_11cxx_lib/src/i2c_11xx.c **** 
 198:../../lpc11cx4-library/lpc_chip_11cxx_lib/src/i2c_11xx.c **** 	/* Rx handling */
 199:../../lpc11cx4-library/lpc_chip_11cxx_lib/src/i2c_11xx.c **** 	case 0x58:		/* Data Received and NACK sent */
 200:../../lpc11cx4-library/lpc_chip_11cxx_lib/src/i2c_11xx.c **** 		cclr &= ~I2C_CON_STO;
 201:../../lpc11cx4-library/lpc_chip_11cxx_lib/src/i2c_11xx.c **** 
 202:../../lpc11cx4-library/lpc_chip_11cxx_lib/src/i2c_11xx.c **** 	case 0x50:		/* Data Received and ACK sent */
 203:../../lpc11cx4-library/lpc_chip_11cxx_lib/src/i2c_11xx.c **** 		*xfer->rxBuff++ = pI2C->DAT;
 204:../../lpc11cx4-library/lpc_chip_11cxx_lib/src/i2c_11xx.c **** 		xfer->rxSz--;
 205:../../lpc11cx4-library/lpc_chip_11cxx_lib/src/i2c_11xx.c **** 
 206:../../lpc11cx4-library/lpc_chip_11cxx_lib/src/i2c_11xx.c **** 	case 0x40:		/* SLA+R sent and ACK received */
 207:../../lpc11cx4-library/lpc_chip_11cxx_lib/src/i2c_11xx.c **** 		if (xfer->rxSz > 1) {
 208:../../lpc11cx4-library/lpc_chip_11cxx_lib/src/i2c_11xx.c **** 			cclr &= ~I2C_CON_AA;
 209:../../lpc11cx4-library/lpc_chip_11cxx_lib/src/i2c_11xx.c **** 		}
 210:../../lpc11cx4-library/lpc_chip_11cxx_lib/src/i2c_11xx.c **** 		break;
 211:../../lpc11cx4-library/lpc_chip_11cxx_lib/src/i2c_11xx.c **** 
ARM GAS  /tmp/ccAFBUIw.s 			page 6


 212:../../lpc11cx4-library/lpc_chip_11cxx_lib/src/i2c_11xx.c **** 	/* NAK Handling */
 213:../../lpc11cx4-library/lpc_chip_11cxx_lib/src/i2c_11xx.c **** 	case 0x20:		/* SLA+W sent NAK received */
 214:../../lpc11cx4-library/lpc_chip_11cxx_lib/src/i2c_11xx.c **** 	case 0x30:		/* DATA sent NAK received */
 215:../../lpc11cx4-library/lpc_chip_11cxx_lib/src/i2c_11xx.c **** 	case 0x48:		/* SLA+R sent NAK received */
 216:../../lpc11cx4-library/lpc_chip_11cxx_lib/src/i2c_11xx.c **** 		xfer->status = I2C_STATUS_NAK;
 217:../../lpc11cx4-library/lpc_chip_11cxx_lib/src/i2c_11xx.c **** 		cclr &= ~I2C_CON_STO;
 218:../../lpc11cx4-library/lpc_chip_11cxx_lib/src/i2c_11xx.c **** 		break;
 219:../../lpc11cx4-library/lpc_chip_11cxx_lib/src/i2c_11xx.c **** 
 220:../../lpc11cx4-library/lpc_chip_11cxx_lib/src/i2c_11xx.c **** 	case 0x38:		/* Arbitration lost */
 221:../../lpc11cx4-library/lpc_chip_11cxx_lib/src/i2c_11xx.c **** 		xfer->status = I2C_STATUS_ARBLOST;
 222:../../lpc11cx4-library/lpc_chip_11cxx_lib/src/i2c_11xx.c **** 		break;
 223:../../lpc11cx4-library/lpc_chip_11cxx_lib/src/i2c_11xx.c **** 
 224:../../lpc11cx4-library/lpc_chip_11cxx_lib/src/i2c_11xx.c **** 	/* Bus Error */
 225:../../lpc11cx4-library/lpc_chip_11cxx_lib/src/i2c_11xx.c **** 	case 0x00:
 226:../../lpc11cx4-library/lpc_chip_11cxx_lib/src/i2c_11xx.c **** 		xfer->status = I2C_STATUS_BUSERR;
 227:../../lpc11cx4-library/lpc_chip_11cxx_lib/src/i2c_11xx.c **** 		cclr &= ~I2C_CON_STO;
 228:../../lpc11cx4-library/lpc_chip_11cxx_lib/src/i2c_11xx.c **** 	}
 229:../../lpc11cx4-library/lpc_chip_11cxx_lib/src/i2c_11xx.c **** 
 230:../../lpc11cx4-library/lpc_chip_11cxx_lib/src/i2c_11xx.c **** 	/* Set clear control flags */
 231:../../lpc11cx4-library/lpc_chip_11cxx_lib/src/i2c_11xx.c **** 	pI2C->CONSET = cclr ^ I2C_CON_FLAGS;
 232:../../lpc11cx4-library/lpc_chip_11cxx_lib/src/i2c_11xx.c **** 	pI2C->CONCLR = cclr;
 233:../../lpc11cx4-library/lpc_chip_11cxx_lib/src/i2c_11xx.c **** 
 234:../../lpc11cx4-library/lpc_chip_11cxx_lib/src/i2c_11xx.c **** 	/* If stopped return 0 */
 235:../../lpc11cx4-library/lpc_chip_11cxx_lib/src/i2c_11xx.c **** 	if (!(cclr & I2C_CON_STO) || (xfer->status == I2C_STATUS_ARBLOST)) {
 236:../../lpc11cx4-library/lpc_chip_11cxx_lib/src/i2c_11xx.c **** 		if (xfer->status == I2C_STATUS_BUSY) {
 237:../../lpc11cx4-library/lpc_chip_11cxx_lib/src/i2c_11xx.c **** 			xfer->status = I2C_STATUS_DONE;
 238:../../lpc11cx4-library/lpc_chip_11cxx_lib/src/i2c_11xx.c **** 		}
 239:../../lpc11cx4-library/lpc_chip_11cxx_lib/src/i2c_11xx.c **** 		return 0;
 240:../../lpc11cx4-library/lpc_chip_11cxx_lib/src/i2c_11xx.c **** 	}
 241:../../lpc11cx4-library/lpc_chip_11cxx_lib/src/i2c_11xx.c **** 	return 1;
 242:../../lpc11cx4-library/lpc_chip_11cxx_lib/src/i2c_11xx.c **** }
 243:../../lpc11cx4-library/lpc_chip_11cxx_lib/src/i2c_11xx.c **** 
 244:../../lpc11cx4-library/lpc_chip_11cxx_lib/src/i2c_11xx.c **** /* Find the slave address of SLA+W or SLA+R */
 245:../../lpc11cx4-library/lpc_chip_11cxx_lib/src/i2c_11xx.c **** I2C_SLAVE_ID getSlaveIndex(LPC_I2C_T *pI2C)
 246:../../lpc11cx4-library/lpc_chip_11cxx_lib/src/i2c_11xx.c **** {
 247:../../lpc11cx4-library/lpc_chip_11cxx_lib/src/i2c_11xx.c **** 	switch (getCurState(pI2C)) {
 248:../../lpc11cx4-library/lpc_chip_11cxx_lib/src/i2c_11xx.c **** 	case 0x60:
 249:../../lpc11cx4-library/lpc_chip_11cxx_lib/src/i2c_11xx.c **** 	case 0x68:
 250:../../lpc11cx4-library/lpc_chip_11cxx_lib/src/i2c_11xx.c **** 	case 0x70:
 251:../../lpc11cx4-library/lpc_chip_11cxx_lib/src/i2c_11xx.c **** 	case 0x78:
 252:../../lpc11cx4-library/lpc_chip_11cxx_lib/src/i2c_11xx.c **** 	case 0xA8:
 253:../../lpc11cx4-library/lpc_chip_11cxx_lib/src/i2c_11xx.c **** 	case 0xB0:
 254:../../lpc11cx4-library/lpc_chip_11cxx_lib/src/i2c_11xx.c **** 		return lookupSlaveIndex(pI2C, pI2C->DAT);
 255:../../lpc11cx4-library/lpc_chip_11cxx_lib/src/i2c_11xx.c **** 	}
 256:../../lpc11cx4-library/lpc_chip_11cxx_lib/src/i2c_11xx.c **** 
 257:../../lpc11cx4-library/lpc_chip_11cxx_lib/src/i2c_11xx.c **** 	/* If everything is fine code should never come here */
 258:../../lpc11cx4-library/lpc_chip_11cxx_lib/src/i2c_11xx.c **** 	return I2C_SLAVE_GENERAL;
 259:../../lpc11cx4-library/lpc_chip_11cxx_lib/src/i2c_11xx.c **** }
 260:../../lpc11cx4-library/lpc_chip_11cxx_lib/src/i2c_11xx.c **** 
 261:../../lpc11cx4-library/lpc_chip_11cxx_lib/src/i2c_11xx.c **** /* Slave state machine handler */
 262:../../lpc11cx4-library/lpc_chip_11cxx_lib/src/i2c_11xx.c **** int handleSlaveXferState(LPC_I2C_T *pI2C, I2C_XFER_T *xfer)
 263:../../lpc11cx4-library/lpc_chip_11cxx_lib/src/i2c_11xx.c **** {
 264:../../lpc11cx4-library/lpc_chip_11cxx_lib/src/i2c_11xx.c **** 	uint32_t cclr = I2C_CON_FLAGS;
 265:../../lpc11cx4-library/lpc_chip_11cxx_lib/src/i2c_11xx.c **** 	int ret = RET_SLAVE_BUSY;
 266:../../lpc11cx4-library/lpc_chip_11cxx_lib/src/i2c_11xx.c **** 
 267:../../lpc11cx4-library/lpc_chip_11cxx_lib/src/i2c_11xx.c **** 	xfer->status = I2C_STATUS_BUSY;
 268:../../lpc11cx4-library/lpc_chip_11cxx_lib/src/i2c_11xx.c **** 	switch (getCurState(pI2C)) {
ARM GAS  /tmp/ccAFBUIw.s 			page 7


 269:../../lpc11cx4-library/lpc_chip_11cxx_lib/src/i2c_11xx.c **** 	case 0x80:		/* SLA: Data received + ACK sent */
 270:../../lpc11cx4-library/lpc_chip_11cxx_lib/src/i2c_11xx.c **** 	case 0x90:		/* GC: Data received + ACK sent */
 271:../../lpc11cx4-library/lpc_chip_11cxx_lib/src/i2c_11xx.c **** 		*xfer->rxBuff++ = pI2C->DAT;
 272:../../lpc11cx4-library/lpc_chip_11cxx_lib/src/i2c_11xx.c **** 		xfer->rxSz--;
 273:../../lpc11cx4-library/lpc_chip_11cxx_lib/src/i2c_11xx.c **** 		ret = RET_SLAVE_RX;
 274:../../lpc11cx4-library/lpc_chip_11cxx_lib/src/i2c_11xx.c **** 		if (xfer->rxSz > 1) {
 275:../../lpc11cx4-library/lpc_chip_11cxx_lib/src/i2c_11xx.c **** 			cclr &= ~I2C_CON_AA;
 276:../../lpc11cx4-library/lpc_chip_11cxx_lib/src/i2c_11xx.c **** 		}
 277:../../lpc11cx4-library/lpc_chip_11cxx_lib/src/i2c_11xx.c **** 		break;
 278:../../lpc11cx4-library/lpc_chip_11cxx_lib/src/i2c_11xx.c **** 
 279:../../lpc11cx4-library/lpc_chip_11cxx_lib/src/i2c_11xx.c **** 	case 0x60:		/* Own SLA+W received */
 280:../../lpc11cx4-library/lpc_chip_11cxx_lib/src/i2c_11xx.c **** 	case 0x68:		/* Own SLA+W received after losing arbitration */
 281:../../lpc11cx4-library/lpc_chip_11cxx_lib/src/i2c_11xx.c **** 	case 0x70:		/* GC+W received */
 282:../../lpc11cx4-library/lpc_chip_11cxx_lib/src/i2c_11xx.c **** 	case 0x78:		/* GC+W received after losing arbitration */
 283:../../lpc11cx4-library/lpc_chip_11cxx_lib/src/i2c_11xx.c **** 		xfer->slaveAddr = pI2C->DAT & ~1;
 284:../../lpc11cx4-library/lpc_chip_11cxx_lib/src/i2c_11xx.c **** 		if (xfer->rxSz > 1) {
 285:../../lpc11cx4-library/lpc_chip_11cxx_lib/src/i2c_11xx.c **** 			cclr &= ~I2C_CON_AA;
 286:../../lpc11cx4-library/lpc_chip_11cxx_lib/src/i2c_11xx.c **** 		}
 287:../../lpc11cx4-library/lpc_chip_11cxx_lib/src/i2c_11xx.c **** 		break;
 288:../../lpc11cx4-library/lpc_chip_11cxx_lib/src/i2c_11xx.c **** 
 289:../../lpc11cx4-library/lpc_chip_11cxx_lib/src/i2c_11xx.c **** 	case 0xA8:		/* SLA+R received */
 290:../../lpc11cx4-library/lpc_chip_11cxx_lib/src/i2c_11xx.c **** 	case 0xB0:		/* SLA+R received after losing arbitration */
 291:../../lpc11cx4-library/lpc_chip_11cxx_lib/src/i2c_11xx.c **** 		xfer->slaveAddr = pI2C->DAT & ~1;
 292:../../lpc11cx4-library/lpc_chip_11cxx_lib/src/i2c_11xx.c **** 
 293:../../lpc11cx4-library/lpc_chip_11cxx_lib/src/i2c_11xx.c **** 	case 0xB8:		/* DATA sent and ACK received */
 294:../../lpc11cx4-library/lpc_chip_11cxx_lib/src/i2c_11xx.c **** 		pI2C->DAT = *xfer->txBuff++;
 295:../../lpc11cx4-library/lpc_chip_11cxx_lib/src/i2c_11xx.c **** 		xfer->txSz--;
 296:../../lpc11cx4-library/lpc_chip_11cxx_lib/src/i2c_11xx.c **** 		if (xfer->txSz > 0) {
 297:../../lpc11cx4-library/lpc_chip_11cxx_lib/src/i2c_11xx.c **** 			cclr &= ~I2C_CON_AA;
 298:../../lpc11cx4-library/lpc_chip_11cxx_lib/src/i2c_11xx.c **** 		}
 299:../../lpc11cx4-library/lpc_chip_11cxx_lib/src/i2c_11xx.c **** 		ret = RET_SLAVE_TX;
 300:../../lpc11cx4-library/lpc_chip_11cxx_lib/src/i2c_11xx.c **** 		break;
 301:../../lpc11cx4-library/lpc_chip_11cxx_lib/src/i2c_11xx.c **** 
 302:../../lpc11cx4-library/lpc_chip_11cxx_lib/src/i2c_11xx.c **** 	case 0xC0:		/* Data transmitted and NAK received */
 303:../../lpc11cx4-library/lpc_chip_11cxx_lib/src/i2c_11xx.c **** 	case 0xC8:		/* Last data transmitted and ACK received */
 304:../../lpc11cx4-library/lpc_chip_11cxx_lib/src/i2c_11xx.c **** 	case 0x88:		/* SLA: Data received + NAK sent */
 305:../../lpc11cx4-library/lpc_chip_11cxx_lib/src/i2c_11xx.c **** 	case 0x98:		/* GC: Data received + NAK sent */
 306:../../lpc11cx4-library/lpc_chip_11cxx_lib/src/i2c_11xx.c **** 	case 0xA0:		/* STOP/Repeated START condition received */
 307:../../lpc11cx4-library/lpc_chip_11cxx_lib/src/i2c_11xx.c **** 		ret = RET_SLAVE_IDLE;
 308:../../lpc11cx4-library/lpc_chip_11cxx_lib/src/i2c_11xx.c **** 		cclr &= ~I2C_CON_AA;
 309:../../lpc11cx4-library/lpc_chip_11cxx_lib/src/i2c_11xx.c **** 		xfer->status = I2C_STATUS_DONE;
 310:../../lpc11cx4-library/lpc_chip_11cxx_lib/src/i2c_11xx.c **** 		if (xfer->slaveAddr & 1) {
 311:../../lpc11cx4-library/lpc_chip_11cxx_lib/src/i2c_11xx.c **** 			cclr &= ~I2C_CON_STA;
 312:../../lpc11cx4-library/lpc_chip_11cxx_lib/src/i2c_11xx.c **** 		}
 313:../../lpc11cx4-library/lpc_chip_11cxx_lib/src/i2c_11xx.c **** 		break;
 314:../../lpc11cx4-library/lpc_chip_11cxx_lib/src/i2c_11xx.c **** 	}
 315:../../lpc11cx4-library/lpc_chip_11cxx_lib/src/i2c_11xx.c **** 
 316:../../lpc11cx4-library/lpc_chip_11cxx_lib/src/i2c_11xx.c **** 	/* Set clear control flags */
 317:../../lpc11cx4-library/lpc_chip_11cxx_lib/src/i2c_11xx.c **** 	pI2C->CONSET = cclr ^ I2C_CON_FLAGS;
 318:../../lpc11cx4-library/lpc_chip_11cxx_lib/src/i2c_11xx.c **** 	pI2C->CONCLR = cclr;
 319:../../lpc11cx4-library/lpc_chip_11cxx_lib/src/i2c_11xx.c **** 
 320:../../lpc11cx4-library/lpc_chip_11cxx_lib/src/i2c_11xx.c **** 	return ret;
 321:../../lpc11cx4-library/lpc_chip_11cxx_lib/src/i2c_11xx.c **** }
 322:../../lpc11cx4-library/lpc_chip_11cxx_lib/src/i2c_11xx.c **** 
 323:../../lpc11cx4-library/lpc_chip_11cxx_lib/src/i2c_11xx.c **** /*****************************************************************************
 324:../../lpc11cx4-library/lpc_chip_11cxx_lib/src/i2c_11xx.c ****  * Public functions
 325:../../lpc11cx4-library/lpc_chip_11cxx_lib/src/i2c_11xx.c ****  ****************************************************************************/
ARM GAS  /tmp/ccAFBUIw.s 			page 8


 326:../../lpc11cx4-library/lpc_chip_11cxx_lib/src/i2c_11xx.c **** 
 327:../../lpc11cx4-library/lpc_chip_11cxx_lib/src/i2c_11xx.c **** /* Chip event handler interrupt based */
 328:../../lpc11cx4-library/lpc_chip_11cxx_lib/src/i2c_11xx.c **** void Chip_I2C_EventHandler(I2C_ID_T id, I2C_EVENT_T event)
 329:../../lpc11cx4-library/lpc_chip_11cxx_lib/src/i2c_11xx.c **** {
  75              		.loc 1 329 0
  76              		.cfi_startproc
  77              	.LVL0:
 330:../../lpc11cx4-library/lpc_chip_11cxx_lib/src/i2c_11xx.c **** 	struct i2c_interface *iic = &i2c[id];
 331:../../lpc11cx4-library/lpc_chip_11cxx_lib/src/i2c_11xx.c **** 	volatile I2C_STATUS_T *stat;
 332:../../lpc11cx4-library/lpc_chip_11cxx_lib/src/i2c_11xx.c **** 
 333:../../lpc11cx4-library/lpc_chip_11cxx_lib/src/i2c_11xx.c **** 	/* Only WAIT event needs to be handled */
 334:../../lpc11cx4-library/lpc_chip_11cxx_lib/src/i2c_11xx.c **** 	if (event != I2C_EVENT_WAIT) {
  78              		.loc 1 334 0
  79 0000 0129     		cmp	r1, #1	@ event,
  80 0002 07D1     		bne	.L1	@,
 335:../../lpc11cx4-library/lpc_chip_11cxx_lib/src/i2c_11xx.c **** 		return;
 336:../../lpc11cx4-library/lpc_chip_11cxx_lib/src/i2c_11xx.c **** 	}
 337:../../lpc11cx4-library/lpc_chip_11cxx_lib/src/i2c_11xx.c **** 
 338:../../lpc11cx4-library/lpc_chip_11cxx_lib/src/i2c_11xx.c **** 	stat = &iic->mXfer->status;
  81              		.loc 1 338 0
  82 0004 1C23     		mov	r3, #28	@ tmp116,
  83 0006 5843     		mul	r0, r3	@ tmp117, tmp116
  84              	.LVL1:
  85 0008 034B     		ldr	r3, .L6	@ tmp115,
  86 000a 1818     		add	r0, r3, r0	@ tmp118, tmp115, tmp117
  87 000c 0269     		ldr	r2, [r0, #16]	@ D.6683, MEM[(struct i2c_interface *)&i2c][_2].mXfer
  88              	.LVL2:
  89              	.L3:
 339:../../lpc11cx4-library/lpc_chip_11cxx_lib/src/i2c_11xx.c **** 	/* Wait for the status to change */
 340:../../lpc11cx4-library/lpc_chip_11cxx_lib/src/i2c_11xx.c **** 	while (*stat == I2C_STATUS_BUSY) {}
  90              		.loc 1 340 0 discriminator 1
  91 000e 137D     		ldrb	r3, [r2, #20]	@ MEM[(volatile I2C_STATUS_T *)_5 + 20B], MEM[(volatile I2C_STATUS_T *)_5 + 20B
  92 0010 042B     		cmp	r3, #4	@ MEM[(volatile I2C_STATUS_T *)_5 + 20B],
  93 0012 FCD0     		beq	.L3	@,
  94              	.LVL3:
  95              	.L1:
 341:../../lpc11cx4-library/lpc_chip_11cxx_lib/src/i2c_11xx.c **** }
  96              		.loc 1 341 0
  97              		@ sp needed	@
  98 0014 7047     		bx	lr
  99              	.L7:
 100 0016 C046     		.align	2
 101              	.L6:
 102 0018 00000000 		.word	.LANCHOR0
 103              		.cfi_endproc
 104              	.LFE212:
 105              		.size	Chip_I2C_EventHandler, .-Chip_I2C_EventHandler
 106              		.section	.text.handleMasterXferState,"ax",%progbits
 107              		.align	1
 108              		.global	handleMasterXferState
 109              		.code	16
 110              		.thumb_func
 111              		.type	handleMasterXferState, %function
 112              	handleMasterXferState:
 113              	.LFB209:
 177:../../lpc11cx4-library/lpc_chip_11cxx_lib/src/i2c_11xx.c **** 	uint32_t cclr = I2C_CON_FLAGS;
 114              		.loc 1 177 0
ARM GAS  /tmp/ccAFBUIw.s 			page 9


 115              		.cfi_startproc
 116              	.LVL4:
 117              	.LBB36:
 118              	.LBB37:
 122:../../lpc11cx4-library/lpc_chip_11cxx_lib/src/i2c_11xx.c **** }
 119              		.loc 1 122 0
 120 0000 F823     		mov	r3, #248	@ tmp146,
 121 0002 4268     		ldr	r2, [r0, #4]	@ D.6694, pI2C_10(D)->STAT
 122              	.LBE37:
 123              	.LBE36:
 177:../../lpc11cx4-library/lpc_chip_11cxx_lib/src/i2c_11xx.c **** 	uint32_t cclr = I2C_CON_FLAGS;
 124              		.loc 1 177 0
 125 0004 10B5     		push	{r4, lr}	@
 126              		.cfi_def_cfa_offset 8
 127              		.cfi_offset 4, -8
 128              		.cfi_offset 14, -4
 129              	.LBB39:
 130              	.LBB38:
 122:../../lpc11cx4-library/lpc_chip_11cxx_lib/src/i2c_11xx.c **** }
 131              		.loc 1 122 0
 132 0006 1340     		and	r3, r2	@ D.6695, D.6694
 133              	.LBE38:
 134              	.LBE39:
 180:../../lpc11cx4-library/lpc_chip_11cxx_lib/src/i2c_11xx.c **** 	case 0x08:		/* Start condition on bus */
 135              		.loc 1 180 0
 136 0008 282B     		cmp	r3, #40	@ D.6695,
 137 000a 27D0     		beq	.L10	@,
 138 000c 0CDC     		bgt	.L11	@,
 139 000e 102B     		cmp	r3, #16	@ D.6695,
 140 0010 1CD0     		beq	.L12	@,
 141 0012 04DC     		bgt	.L13	@,
 142 0014 002B     		cmp	r3, #0	@ D.6695,
 143 0016 49D0     		beq	.L14	@,
 144 0018 082B     		cmp	r3, #8	@ D.6695,
 145 001a 17D0     		beq	.L12	@,
 146 001c 4AE0     		b	.L25	@
 147              	.L13:
 148 001e 182B     		cmp	r3, #24	@ D.6695,
 149 0020 1CD0     		beq	.L10	@,
 150 0022 202B     		cmp	r3, #32	@ D.6695,
 151 0024 40D0     		beq	.L15	@,
 152 0026 45E0     		b	.L25	@
 153              	.L11:
 154 0028 402B     		cmp	r3, #64	@ D.6695,
 155 002a 36D0     		beq	.L26	@,
 156 002c 06DC     		bgt	.L17	@,
 157 002e 302B     		cmp	r3, #48	@ D.6695,
 158 0030 3AD0     		beq	.L15	@,
 159 0032 382B     		cmp	r3, #56	@ D.6695,
 160 0034 3ED1     		bne	.L25	@,
 221:../../lpc11cx4-library/lpc_chip_11cxx_lib/src/i2c_11xx.c **** 		break;
 161              		.loc 1 221 0
 162 0036 0223     		mov	r3, #2	@ tmp167,
 163 0038 0B75     		strb	r3, [r1, #20]	@ tmp167, xfer_11(D)->status
 164 003a 3BE0     		b	.L25	@
 165              	.L17:
 180:../../lpc11cx4-library/lpc_chip_11cxx_lib/src/i2c_11xx.c **** 	case 0x08:		/* Start condition on bus */
ARM GAS  /tmp/ccAFBUIw.s 			page 10


 166              		.loc 1 180 0
 167 003c 502B     		cmp	r3, #80	@ D.6695,
 168 003e 22D0     		beq	.L27	@,
 200:../../lpc11cx4-library/lpc_chip_11cxx_lib/src/i2c_11xx.c **** 
 169              		.loc 1 200 0
 170 0040 2C22     		mov	r2, #44	@ cclr,
 180:../../lpc11cx4-library/lpc_chip_11cxx_lib/src/i2c_11xx.c **** 	case 0x08:		/* Start condition on bus */
 171              		.loc 1 180 0
 172 0042 582B     		cmp	r3, #88	@ D.6695,
 173 0044 20D0     		beq	.L19	@,
 174 0046 482B     		cmp	r3, #72	@ D.6695,
 175 0048 34D1     		bne	.L25	@,
 176 004a 2DE0     		b	.L15	@
 177              	.L12:
 183:../../lpc11cx4-library/lpc_chip_11cxx_lib/src/i2c_11xx.c **** 		break;
 178              		.loc 1 183 0
 179 004c 8A68     		ldr	r2, [r1, #8]	@ D.6697, xfer_11(D)->txSz
 180 004e 5342     		neg	r3, r2	@ tmp150, D.6697
 181 0050 5A41     		adc	r2, r2, r3	@ D.6697, D.6697, tmp150
 182 0052 0B78     		ldrb	r3, [r1]	@ D.6695, *xfer_11(D)
 183 0054 5B00     		lsl	r3, r3, #1	@ D.6695, D.6695,
 184 0056 1343     		orr	r3, r2	@ D.6694, D.6697
 185 0058 8360     		str	r3, [r0, #8]	@ D.6694, pI2C_10(D)->DAT
 186 005a 2BE0     		b	.L25	@
 187              	.L10:
 189:../../lpc11cx4-library/lpc_chip_11cxx_lib/src/i2c_11xx.c **** 			cclr &= ~(xfer->rxSz ? I2C_CON_STA : I2C_CON_STO);
 188              		.loc 1 189 0
 189 005c 8B68     		ldr	r3, [r1, #8]	@ D.6695, xfer_11(D)->txSz
 190 005e 002B     		cmp	r3, #0	@ D.6695,
 191 0060 09D1     		bne	.L21	@,
 190:../../lpc11cx4-library/lpc_chip_11cxx_lib/src/i2c_11xx.c **** 		}
 192              		.loc 1 190 0
 193 0062 0B69     		ldr	r3, [r1, #16]	@ tmp187, xfer_11(D)->rxSz
 194 0064 002B     		cmp	r3, #0	@ tmp187,
 195 0066 01D1     		bne	.L28	@,
 196 0068 113B     		sub	r3, r3, #17	@ D.6694,
 197 006a 01E0     		b	.L22	@
 198              	.L28:
 199 006c 2123     		mov	r3, #33	@ D.6694,
 200 006e 5B42     		neg	r3, r3	@ D.6694, D.6694
 201              	.L22:
 190:../../lpc11cx4-library/lpc_chip_11cxx_lib/src/i2c_11xx.c **** 		}
 202              		.loc 1 190 0 is_stmt 0 discriminator 4
 203 0070 3C22     		mov	r2, #60	@ tmp154,
 204 0072 1A40     		and	r2, r3	@ cclr, D.6694
 205              	.LVL5:
 206 0074 1FE0     		b	.L9	@
 207              	.LVL6:
 208              	.L21:
 193:../../lpc11cx4-library/lpc_chip_11cxx_lib/src/i2c_11xx.c **** 			xfer->txSz--;
 209              		.loc 1 193 0 is_stmt 1
 210 0076 4A68     		ldr	r2, [r1, #4]	@ D.6698, xfer_11(D)->txBuff
 194:../../lpc11cx4-library/lpc_chip_11cxx_lib/src/i2c_11xx.c **** 		}
 211              		.loc 1 194 0
 212 0078 013B     		sub	r3, r3, #1	@ D.6695,
 193:../../lpc11cx4-library/lpc_chip_11cxx_lib/src/i2c_11xx.c **** 			xfer->txSz--;
 213              		.loc 1 193 0
ARM GAS  /tmp/ccAFBUIw.s 			page 11


 214 007a 541C     		add	r4, r2, #1	@ D.6698, D.6698,
 215 007c 4C60     		str	r4, [r1, #4]	@ D.6698, xfer_11(D)->txBuff
 216 007e 1278     		ldrb	r2, [r2]	@ D.6694, *_22
 217 0080 8260     		str	r2, [r0, #8]	@ D.6694, pI2C_10(D)->DAT
 194:../../lpc11cx4-library/lpc_chip_11cxx_lib/src/i2c_11xx.c **** 		}
 218              		.loc 1 194 0
 219 0082 8B60     		str	r3, [r1, #8]	@ D.6695, xfer_11(D)->txSz
 220 0084 16E0     		b	.L25	@
 221              	.L27:
 178:../../lpc11cx4-library/lpc_chip_11cxx_lib/src/i2c_11xx.c **** 
 222              		.loc 1 178 0
 223 0086 3C22     		mov	r2, #60	@ cclr,
 224              	.L19:
 225              	.LVL7:
 203:../../lpc11cx4-library/lpc_chip_11cxx_lib/src/i2c_11xx.c **** 		xfer->rxSz--;
 226              		.loc 1 203 0
 227 0088 CB68     		ldr	r3, [r1, #12]	@ D.6699, xfer_11(D)->rxBuff
 228 008a 5C1C     		add	r4, r3, #1	@ D.6699, D.6699,
 229 008c CC60     		str	r4, [r1, #12]	@ D.6699, xfer_11(D)->rxBuff
 230 008e 8468     		ldr	r4, [r0, #8]	@ D.6694, pI2C_10(D)->DAT
 231 0090 1C70     		strb	r4, [r3]	@ D.6694, *_32
 204:../../lpc11cx4-library/lpc_chip_11cxx_lib/src/i2c_11xx.c **** 
 232              		.loc 1 204 0
 233 0092 0B69     		ldr	r3, [r1, #16]	@ tmp188, xfer_11(D)->rxSz
 234 0094 013B     		sub	r3, r3, #1	@ D.6695,
 235 0096 0B61     		str	r3, [r1, #16]	@ D.6695, xfer_11(D)->rxSz
 236 0098 00E0     		b	.L16	@
 237              	.LVL8:
 238              	.L26:
 178:../../lpc11cx4-library/lpc_chip_11cxx_lib/src/i2c_11xx.c **** 
 239              		.loc 1 178 0
 240 009a 3C22     		mov	r2, #60	@ cclr,
 241              	.LVL9:
 242              	.L16:
 207:../../lpc11cx4-library/lpc_chip_11cxx_lib/src/i2c_11xx.c **** 			cclr &= ~I2C_CON_AA;
 243              		.loc 1 207 0
 244 009c 0B69     		ldr	r3, [r1, #16]	@ tmp189, xfer_11(D)->rxSz
 245 009e 012B     		cmp	r3, #1	@ tmp189,
 246 00a0 09DD     		ble	.L9	@,
 208:../../lpc11cx4-library/lpc_chip_11cxx_lib/src/i2c_11xx.c **** 		}
 247              		.loc 1 208 0
 248 00a2 0423     		mov	r3, #4	@ tmp164,
 249 00a4 9A43     		bic	r2, r3	@ cclr, tmp164
 250 00a6 06E0     		b	.L9	@
 251              	.LVL10:
 252              	.L15:
 216:../../lpc11cx4-library/lpc_chip_11cxx_lib/src/i2c_11xx.c **** 		cclr &= ~I2C_CON_STO;
 253              		.loc 1 216 0
 254 00a8 0123     		mov	r3, #1	@ tmp165,
 255 00aa 00E0     		b	.L56	@
 256              	.L14:
 226:../../lpc11cx4-library/lpc_chip_11cxx_lib/src/i2c_11xx.c **** 		cclr &= ~I2C_CON_STO;
 257              		.loc 1 226 0
 258 00ac 0323     		mov	r3, #3	@ tmp169,
 259              	.L56:
 260 00ae 0B75     		strb	r3, [r1, #20]	@ tmp169, xfer_11(D)->status
 261              	.LVL11:
ARM GAS  /tmp/ccAFBUIw.s 			page 12


 227:../../lpc11cx4-library/lpc_chip_11cxx_lib/src/i2c_11xx.c **** 	}
 262              		.loc 1 227 0
 263 00b0 2C22     		mov	r2, #44	@ cclr,
 264 00b2 00E0     		b	.L9	@
 265              	.LVL12:
 266              	.L25:
 178:../../lpc11cx4-library/lpc_chip_11cxx_lib/src/i2c_11xx.c **** 
 267              		.loc 1 178 0
 268 00b4 3C22     		mov	r2, #60	@ cclr,
 269              	.LVL13:
 270              	.L9:
 231:../../lpc11cx4-library/lpc_chip_11cxx_lib/src/i2c_11xx.c **** 	pI2C->CONCLR = cclr;
 271              		.loc 1 231 0
 272 00b6 3C23     		mov	r3, #60	@ tmp171,
 273 00b8 5340     		eor	r3, r2	@ D.6694, cclr
 274 00ba 0360     		str	r3, [r0]	@ D.6694, pI2C_10(D)->CONSET
 232:../../lpc11cx4-library/lpc_chip_11cxx_lib/src/i2c_11xx.c **** 
 275              		.loc 1 232 0
 276 00bc 8261     		str	r2, [r0, #24]	@ cclr, pI2C_10(D)->CONCLR
 277 00be 0B7D     		ldrb	r3, [r1, #20]	@ tmp179,
 235:../../lpc11cx4-library/lpc_chip_11cxx_lib/src/i2c_11xx.c **** 		if (xfer->status == I2C_STATUS_BUSY) {
 278              		.loc 1 235 0
 279 00c0 D206     		lsl	r2, r2, #27	@ tmp185, cclr,
 280 00c2 02D5     		bpl	.L23	@,
 241:../../lpc11cx4-library/lpc_chip_11cxx_lib/src/i2c_11xx.c **** }
 281              		.loc 1 241 0 discriminator 1
 282 00c4 0120     		mov	r0, #1	@ D.6695,
 283              	.LVL14:
 235:../../lpc11cx4-library/lpc_chip_11cxx_lib/src/i2c_11xx.c **** 		if (xfer->status == I2C_STATUS_BUSY) {
 284              		.loc 1 235 0 discriminator 1
 285 00c6 022B     		cmp	r3, #2	@ tmp179,
 286 00c8 03D1     		bne	.L24	@,
 287              	.L23:
 288 00ca 0020     		mov	r0, #0	@ D.6695,
 236:../../lpc11cx4-library/lpc_chip_11cxx_lib/src/i2c_11xx.c **** 			xfer->status = I2C_STATUS_DONE;
 289              		.loc 1 236 0
 290 00cc 042B     		cmp	r3, #4	@ tmp179,
 291 00ce 00D1     		bne	.L24	@,
 237:../../lpc11cx4-library/lpc_chip_11cxx_lib/src/i2c_11xx.c **** 		}
 292              		.loc 1 237 0
 293 00d0 0875     		strb	r0, [r1, #20]	@ D.6695, xfer_11(D)->status
 294              	.L24:
 242:../../lpc11cx4-library/lpc_chip_11cxx_lib/src/i2c_11xx.c **** 
 295              		.loc 1 242 0
 296              		@ sp needed	@
 297 00d2 10BD     		pop	{r4, pc}
 298              		.cfi_endproc
 299              	.LFE209:
 300              		.size	handleMasterXferState, .-handleMasterXferState
 301              		.section	.text.getSlaveIndex,"ax",%progbits
 302              		.align	1
 303              		.global	getSlaveIndex
 304              		.code	16
 305              		.thumb_func
 306              		.type	getSlaveIndex, %function
 307              	getSlaveIndex:
 308              	.LFB210:
ARM GAS  /tmp/ccAFBUIw.s 			page 13


 246:../../lpc11cx4-library/lpc_chip_11cxx_lib/src/i2c_11xx.c **** 	switch (getCurState(pI2C)) {
 309              		.loc 1 246 0
 310              		.cfi_startproc
 311              	.LVL15:
 312              	.LBB56:
 313              	.LBB57:
 122:../../lpc11cx4-library/lpc_chip_11cxx_lib/src/i2c_11xx.c **** }
 314              		.loc 1 122 0
 315 0000 F823     		mov	r3, #248	@ tmp160,
 316 0002 4268     		ldr	r2, [r0, #4]	@ D.6732, pI2C_4(D)->STAT
 317              	.LBE57:
 318              	.LBE56:
 246:../../lpc11cx4-library/lpc_chip_11cxx_lib/src/i2c_11xx.c **** 	switch (getCurState(pI2C)) {
 319              		.loc 1 246 0
 320 0004 30B5     		push	{r4, r5, lr}	@
 321              		.cfi_def_cfa_offset 12
 322              		.cfi_offset 4, -12
 323              		.cfi_offset 5, -8
 324              		.cfi_offset 14, -4
 325              	.LBB59:
 326              	.LBB58:
 122:../../lpc11cx4-library/lpc_chip_11cxx_lib/src/i2c_11xx.c **** }
 327              		.loc 1 122 0
 328 0006 1340     		and	r3, r2	@ D.6733, D.6732
 329              	.LBE58:
 330              	.LBE59:
 247:../../lpc11cx4-library/lpc_chip_11cxx_lib/src/i2c_11xx.c **** 	case 0x60:
 331              		.loc 1 247 0
 332 0008 702B     		cmp	r3, #112	@ D.6733,
 333 000a 0BD0     		beq	.L59	@,
 334 000c 04DC     		bgt	.L60	@,
 335 000e 602B     		cmp	r3, #96	@ D.6733,
 336 0010 08D0     		beq	.L59	@,
 337 0012 682B     		cmp	r3, #104	@ D.6733,
 338 0014 37D1     		bne	.L61	@,
 339 0016 05E0     		b	.L59	@
 340              	.L60:
 341 0018 A82B     		cmp	r3, #168	@ D.6733,
 342 001a 03D0     		beq	.L59	@,
 343 001c B02B     		cmp	r3, #176	@ D.6733,
 344 001e 01D0     		beq	.L59	@,
 345 0020 782B     		cmp	r3, #120	@ D.6733,
 346 0022 30D1     		bne	.L61	@,
 347              	.L59:
 348              	.LVL16:
 349              	.LBB60:
 350              	.LBB61:
 254:../../lpc11cx4-library/lpc_chip_11cxx_lib/src/i2c_11xx.c **** 	}
 351              		.loc 1 254 0
 352 0024 8368     		ldr	r3, [r0, #8]	@ D.6732, pI2C_4(D)->DAT
 353 0026 D9B2     		uxtb	r1, r3	@ D.6731, D.6732
 354              	.LVL17:
 355              	.LBB62:
 356              	.LBB63:
 156:../../lpc11cx4-library/lpc_chip_11cxx_lib/src/i2c_11xx.c **** 	}
 357              		.loc 1 156 0
 358 0028 0023     		mov	r3, #0	@ D.6730,
ARM GAS  /tmp/ccAFBUIw.s 			page 14


 155:../../lpc11cx4-library/lpc_chip_11cxx_lib/src/i2c_11xx.c **** 		return I2C_SLAVE_GENERAL;					/* General call address */
 359              		.loc 1 155 0
 360 002a 4A08     		lsr	r2, r1, #1	@ tmp163, D.6731,
 361 002c 9A42     		cmp	r2, r3	@ tmp163,
 362 002e 2BD0     		beq	.L58	@,
 363              	.LBB64:
 364              	.LBB65:
 148:../../lpc11cx4-library/lpc_chip_11cxx_lib/src/i2c_11xx.c **** 	return (addr1 & ~mask) == (addr2 & ~mask);
 365              		.loc 1 148 0
 366 0030 0124     		mov	r4, #1	@ tmp166,
 367              	.LBE65:
 368              	.LBE64:
 158:../../lpc11cx4-library/lpc_chip_11cxx_lib/src/i2c_11xx.c **** 		return I2C_SLAVE_0;
 369              		.loc 1 158 0
 370 0032 C268     		ldr	r2, [r0, #12]	@ D.6732, pI2C_4(D)->ADR0
 371 0034 036B     		ldr	r3, [r0, #48]	@ D.6732, pI2C_4(D)->MASK
 372              	.LVL18:
 373              	.LBB67:
 374              	.LBB66:
 149:../../lpc11cx4-library/lpc_chip_11cxx_lib/src/i2c_11xx.c **** }
 375              		.loc 1 149 0
 376 0036 4A40     		eor	r2, r1	@ tmp170, D.6731
 377              	.LVL19:
 148:../../lpc11cx4-library/lpc_chip_11cxx_lib/src/i2c_11xx.c **** 	return (addr1 & ~mask) == (addr2 & ~mask);
 378              		.loc 1 148 0
 379 0038 2343     		orr	r3, r4	@ tmp165, tmp166
 380              	.LVL20:
 149:../../lpc11cx4-library/lpc_chip_11cxx_lib/src/i2c_11xx.c **** }
 381              		.loc 1 149 0
 382 003a DBB2     		uxtb	r3, r3	@ D.6733, tmp165
 383 003c D2B2     		uxtb	r2, r2	@ D.6733, tmp170
 384 003e 9A43     		bic	r2, r3	@ D.6733, D.6733
 385              	.LBE66:
 386              	.LBE67:
 159:../../lpc11cx4-library/lpc_chip_11cxx_lib/src/i2c_11xx.c **** 	}
 387              		.loc 1 159 0
 388 0040 231C     		mov	r3, r4	@ D.6730, tmp166
 158:../../lpc11cx4-library/lpc_chip_11cxx_lib/src/i2c_11xx.c **** 		return I2C_SLAVE_0;
 389              		.loc 1 158 0
 390 0042 002A     		cmp	r2, #0	@ D.6733,
 391 0044 20D0     		beq	.L58	@,
 161:../../lpc11cx4-library/lpc_chip_11cxx_lib/src/i2c_11xx.c **** 		return I2C_SLAVE_1;
 392              		.loc 1 161 0
 393 0046 026A     		ldr	r2, [r0, #32]	@ D.6732, pI2C_4(D)->ADR1
 394 0048 456B     		ldr	r5, [r0, #52]	@ D.6732, pI2C_4(D)->MASK
 395              	.LVL21:
 396              	.LBB68:
 397              	.LBB69:
 149:../../lpc11cx4-library/lpc_chip_11cxx_lib/src/i2c_11xx.c **** }
 398              		.loc 1 149 0
 399 004a 4A40     		eor	r2, r1	@ tmp179, D.6731
 400              	.LVL22:
 148:../../lpc11cx4-library/lpc_chip_11cxx_lib/src/i2c_11xx.c **** 	return (addr1 & ~mask) == (addr2 & ~mask);
 401              		.loc 1 148 0
 402 004c 2B43     		orr	r3, r5	@ tmp174, D.6732
 149:../../lpc11cx4-library/lpc_chip_11cxx_lib/src/i2c_11xx.c **** }
 403              		.loc 1 149 0
ARM GAS  /tmp/ccAFBUIw.s 			page 15


 404 004e DBB2     		uxtb	r3, r3	@ D.6733, tmp174
 405 0050 D2B2     		uxtb	r2, r2	@ D.6733, tmp179
 406 0052 9A43     		bic	r2, r3	@ D.6733, D.6733
 407              	.LBE69:
 408              	.LBE68:
 162:../../lpc11cx4-library/lpc_chip_11cxx_lib/src/i2c_11xx.c **** 	}
 409              		.loc 1 162 0
 410 0054 0223     		mov	r3, #2	@ D.6730,
 161:../../lpc11cx4-library/lpc_chip_11cxx_lib/src/i2c_11xx.c **** 		return I2C_SLAVE_1;
 411              		.loc 1 161 0
 412 0056 002A     		cmp	r2, #0	@ D.6733,
 413 0058 16D0     		beq	.L58	@,
 164:../../lpc11cx4-library/lpc_chip_11cxx_lib/src/i2c_11xx.c **** 		return I2C_SLAVE_2;
 414              		.loc 1 164 0
 415 005a 426A     		ldr	r2, [r0, #36]	@ D.6732, pI2C_4(D)->ADR2
 416 005c 836B     		ldr	r3, [r0, #56]	@ D.6732, pI2C_4(D)->MASK
 417              	.LVL23:
 418              	.LBB70:
 419              	.LBB71:
 149:../../lpc11cx4-library/lpc_chip_11cxx_lib/src/i2c_11xx.c **** }
 420              		.loc 1 149 0
 421 005e 4A40     		eor	r2, r1	@ tmp188, D.6731
 422              	.LVL24:
 148:../../lpc11cx4-library/lpc_chip_11cxx_lib/src/i2c_11xx.c **** 	return (addr1 & ~mask) == (addr2 & ~mask);
 423              		.loc 1 148 0
 424 0060 2343     		orr	r3, r4	@ tmp183, tmp166
 425              	.LVL25:
 149:../../lpc11cx4-library/lpc_chip_11cxx_lib/src/i2c_11xx.c **** }
 426              		.loc 1 149 0
 427 0062 DBB2     		uxtb	r3, r3	@ D.6733, tmp183
 428 0064 D2B2     		uxtb	r2, r2	@ D.6733, tmp188
 429 0066 9A43     		bic	r2, r3	@ D.6733, D.6733
 430              	.LBE71:
 431              	.LBE70:
 165:../../lpc11cx4-library/lpc_chip_11cxx_lib/src/i2c_11xx.c **** 	}
 432              		.loc 1 165 0
 433 0068 0323     		mov	r3, #3	@ D.6730,
 164:../../lpc11cx4-library/lpc_chip_11cxx_lib/src/i2c_11xx.c **** 		return I2C_SLAVE_2;
 434              		.loc 1 164 0
 435 006a 002A     		cmp	r2, #0	@ D.6733,
 436 006c 0CD0     		beq	.L58	@,
 167:../../lpc11cx4-library/lpc_chip_11cxx_lib/src/i2c_11xx.c **** 		return I2C_SLAVE_3;
 437              		.loc 1 167 0
 438 006e 826A     		ldr	r2, [r0, #40]	@ D.6732, pI2C_4(D)->ADR3
 439 0070 C36B     		ldr	r3, [r0, #60]	@ D.6732, pI2C_4(D)->MASK
 440              	.LVL26:
 441              	.LBB72:
 442              	.LBB73:
 148:../../lpc11cx4-library/lpc_chip_11cxx_lib/src/i2c_11xx.c **** 	return (addr1 & ~mask) == (addr2 & ~mask);
 443              		.loc 1 148 0
 444 0072 1C43     		orr	r4, r3	@ tmp192, D.6732
 149:../../lpc11cx4-library/lpc_chip_11cxx_lib/src/i2c_11xx.c **** }
 445              		.loc 1 149 0
 446 0074 0B1C     		mov	r3, r1	@ tmp197, D.6731
 447              	.LVL27:
 448 0076 5340     		eor	r3, r2	@ tmp197, D.6732
 449 0078 E4B2     		uxtb	r4, r4	@ D.6733, tmp192
ARM GAS  /tmp/ccAFBUIw.s 			page 16


 450 007a DBB2     		uxtb	r3, r3	@ D.6733, tmp197
 451 007c A343     		bic	r3, r4	@ D.6733, D.6733
 452              	.LBE73:
 453              	.LBE72:
 172:../../lpc11cx4-library/lpc_chip_11cxx_lib/src/i2c_11xx.c **** }
 454              		.loc 1 172 0
 455 007e 5842     		neg	r0, r3	@ tmp203, D.6733
 456 0080 4341     		adc	r3, r3, r0	@ tmp202, D.6733, tmp203
 457              	.LVL28:
 458 0082 9B00     		lsl	r3, r3, #2	@ D.6730, tmp202,
 459 0084 00E0     		b	.L58	@
 460              	.LVL29:
 461              	.L61:
 462              	.LBE63:
 463              	.LBE62:
 464              	.LBE61:
 465              	.LBE60:
 258:../../lpc11cx4-library/lpc_chip_11cxx_lib/src/i2c_11xx.c **** }
 466              		.loc 1 258 0
 467 0086 0023     		mov	r3, #0	@ D.6730,
 468              	.LVL30:
 469              	.L58:
 259:../../lpc11cx4-library/lpc_chip_11cxx_lib/src/i2c_11xx.c **** 
 470              		.loc 1 259 0
 471 0088 181C     		mov	r0, r3	@, D.6730
 472              		@ sp needed	@
 473 008a 30BD     		pop	{r4, r5, pc}
 474              		.cfi_endproc
 475              	.LFE210:
 476              		.size	getSlaveIndex, .-getSlaveIndex
 477              		.section	.text.handleSlaveXferState,"ax",%progbits
 478              		.align	1
 479              		.global	handleSlaveXferState
 480              		.code	16
 481              		.thumb_func
 482              		.type	handleSlaveXferState, %function
 483              	handleSlaveXferState:
 484              	.LFB211:
 263:../../lpc11cx4-library/lpc_chip_11cxx_lib/src/i2c_11xx.c **** 	uint32_t cclr = I2C_CON_FLAGS;
 485              		.loc 1 263 0
 486              		.cfi_startproc
 487              	.LVL31:
 267:../../lpc11cx4-library/lpc_chip_11cxx_lib/src/i2c_11xx.c **** 	switch (getCurState(pI2C)) {
 488              		.loc 1 267 0
 489 0000 0423     		mov	r3, #4	@ tmp140,
 490              	.LBB74:
 491              	.LBB75:
 122:../../lpc11cx4-library/lpc_chip_11cxx_lib/src/i2c_11xx.c **** }
 492              		.loc 1 122 0
 493 0002 4268     		ldr	r2, [r0, #4]	@ D.6743, pI2C_8(D)->STAT
 494              	.LBE75:
 495              	.LBE74:
 267:../../lpc11cx4-library/lpc_chip_11cxx_lib/src/i2c_11xx.c **** 	switch (getCurState(pI2C)) {
 496              		.loc 1 267 0
 497 0004 0B75     		strb	r3, [r1, #20]	@ tmp140, xfer_6(D)->status
 498              	.LVL32:
 499              	.LBB77:
ARM GAS  /tmp/ccAFBUIw.s 			page 17


 500              	.LBB76:
 122:../../lpc11cx4-library/lpc_chip_11cxx_lib/src/i2c_11xx.c **** }
 501              		.loc 1 122 0
 502 0006 F433     		add	r3, r3, #244	@ tmp143,
 503 0008 1340     		and	r3, r2	@ D.6745, D.6743
 504              	.LBE76:
 505              	.LBE77:
 268:../../lpc11cx4-library/lpc_chip_11cxx_lib/src/i2c_11xx.c **** 	case 0x80:		/* SLA: Data received + ACK sent */
 506              		.loc 1 268 0
 507 000a 902B     		cmp	r3, #144	@ D.6745,
 508 000c 20D0     		beq	.L91	@,
 509 000e 0EDC     		bgt	.L92	@,
 510 0010 702B     		cmp	r3, #112	@ D.6745,
 511 0012 29D0     		beq	.L93	@,
 512 0014 04DC     		bgt	.L94	@,
 513 0016 602B     		cmp	r3, #96	@ D.6745,
 514 0018 26D0     		beq	.L93	@,
 515 001a 682B     		cmp	r3, #104	@ D.6745,
 516 001c 24D0     		beq	.L93	@,
 517 001e 44E0     		b	.L101	@
 518              	.L94:
 519 0020 802B     		cmp	r3, #128	@ D.6745,
 520 0022 15D0     		beq	.L91	@,
 521 0024 882B     		cmp	r3, #136	@ D.6745,
 522 0026 38D0     		beq	.L95	@,
 523 0028 782B     		cmp	r3, #120	@ D.6745,
 524 002a 3ED1     		bne	.L101	@,
 525 002c 1CE0     		b	.L93	@
 526              	.L92:
 527 002e B02B     		cmp	r3, #176	@ D.6745,
 528 0030 23D0     		beq	.L96	@,
 529 0032 06DC     		bgt	.L97	@,
 530 0034 A02B     		cmp	r3, #160	@ D.6745,
 531 0036 30D0     		beq	.L95	@,
 532 0038 A82B     		cmp	r3, #168	@ D.6745,
 533 003a 1ED0     		beq	.L96	@,
 534 003c 982B     		cmp	r3, #152	@ D.6745,
 535 003e 34D1     		bne	.L101	@,
 536 0040 2BE0     		b	.L95	@
 537              	.L97:
 538 0042 C02B     		cmp	r3, #192	@ D.6745,
 539 0044 29D0     		beq	.L95	@,
 540 0046 C82B     		cmp	r3, #200	@ D.6745,
 541 0048 27D0     		beq	.L95	@,
 542 004a B82B     		cmp	r3, #184	@ D.6745,
 543 004c 19D0     		beq	.L98	@,
 544 004e 2CE0     		b	.L101	@
 545              	.L91:
 271:../../lpc11cx4-library/lpc_chip_11cxx_lib/src/i2c_11xx.c **** 		xfer->rxSz--;
 546              		.loc 1 271 0
 547 0050 CB68     		ldr	r3, [r1, #12]	@ D.6742, xfer_6(D)->rxBuff
 548 0052 5A1C     		add	r2, r3, #1	@ D.6742, D.6742,
 549 0054 CA60     		str	r2, [r1, #12]	@ D.6742, xfer_6(D)->rxBuff
 550 0056 8268     		ldr	r2, [r0, #8]	@ D.6743, pI2C_8(D)->DAT
 551 0058 1A70     		strb	r2, [r3]	@ D.6743, *_9
 272:../../lpc11cx4-library/lpc_chip_11cxx_lib/src/i2c_11xx.c **** 		ret = RET_SLAVE_RX;
 552              		.loc 1 272 0
ARM GAS  /tmp/ccAFBUIw.s 			page 18


 553 005a 0B69     		ldr	r3, [r1, #16]	@ tmp173, xfer_6(D)->rxSz
 273:../../lpc11cx4-library/lpc_chip_11cxx_lib/src/i2c_11xx.c **** 		if (xfer->rxSz > 1) {
 554              		.loc 1 273 0
 555 005c 0522     		mov	r2, #5	@ ret,
 272:../../lpc11cx4-library/lpc_chip_11cxx_lib/src/i2c_11xx.c **** 		ret = RET_SLAVE_RX;
 556              		.loc 1 272 0
 557 005e 013B     		sub	r3, r3, #1	@ D.6745,
 558 0060 0B61     		str	r3, [r1, #16]	@ D.6745, xfer_6(D)->rxSz
 559              	.LVL33:
 274:../../lpc11cx4-library/lpc_chip_11cxx_lib/src/i2c_11xx.c **** 			cclr &= ~I2C_CON_AA;
 560              		.loc 1 274 0
 561 0062 012B     		cmp	r3, #1	@ D.6745,
 562 0064 24DC     		bgt	.L103	@,
 563 0066 21E0     		b	.L102	@
 564              	.LVL34:
 565              	.L93:
 283:../../lpc11cx4-library/lpc_chip_11cxx_lib/src/i2c_11xx.c **** 		if (xfer->rxSz > 1) {
 566              		.loc 1 283 0
 567 0068 0122     		mov	r2, #1	@ tmp149,
 568 006a 8368     		ldr	r3, [r0, #8]	@ D.6743, pI2C_8(D)->DAT
 569 006c 9343     		bic	r3, r2	@ tmp148, tmp149
 570 006e 0B70     		strb	r3, [r1]	@ tmp148, xfer_6(D)->slaveAddr
 284:../../lpc11cx4-library/lpc_chip_11cxx_lib/src/i2c_11xx.c **** 			cclr &= ~I2C_CON_AA;
 571              		.loc 1 284 0
 572 0070 0B69     		ldr	r3, [r1, #16]	@ xfer_6(D)->rxSz, xfer_6(D)->rxSz
 573 0072 9342     		cmp	r3, r2	@ xfer_6(D)->rxSz,
 574 0074 19DD     		ble	.L101	@,
 265:../../lpc11cx4-library/lpc_chip_11cxx_lib/src/i2c_11xx.c **** 
 575              		.loc 1 265 0
 576 0076 0022     		mov	r2, #0	@ ret,
 577 0078 1AE0     		b	.L103	@
 578              	.L96:
 291:../../lpc11cx4-library/lpc_chip_11cxx_lib/src/i2c_11xx.c **** 
 579              		.loc 1 291 0
 580 007a 0122     		mov	r2, #1	@ tmp154,
 581 007c 8368     		ldr	r3, [r0, #8]	@ D.6743, pI2C_8(D)->DAT
 582 007e 9343     		bic	r3, r2	@ tmp153, tmp154
 583 0080 0B70     		strb	r3, [r1]	@ tmp153, xfer_6(D)->slaveAddr
 584              	.L98:
 294:../../lpc11cx4-library/lpc_chip_11cxx_lib/src/i2c_11xx.c **** 		xfer->txSz--;
 585              		.loc 1 294 0
 586 0082 4B68     		ldr	r3, [r1, #4]	@ D.6746, xfer_6(D)->txBuff
 587 0084 5A1C     		add	r2, r3, #1	@ D.6746, D.6746,
 588 0086 4A60     		str	r2, [r1, #4]	@ D.6746, xfer_6(D)->txBuff
 589 0088 1B78     		ldrb	r3, [r3]	@ D.6743, *_27
 299:../../lpc11cx4-library/lpc_chip_11cxx_lib/src/i2c_11xx.c **** 		break;
 590              		.loc 1 299 0
 591 008a 0622     		mov	r2, #6	@ ret,
 294:../../lpc11cx4-library/lpc_chip_11cxx_lib/src/i2c_11xx.c **** 		xfer->txSz--;
 592              		.loc 1 294 0
 593 008c 8360     		str	r3, [r0, #8]	@ D.6743, pI2C_8(D)->DAT
 295:../../lpc11cx4-library/lpc_chip_11cxx_lib/src/i2c_11xx.c **** 		if (xfer->txSz > 0) {
 594              		.loc 1 295 0
 595 008e 8B68     		ldr	r3, [r1, #8]	@ tmp174, xfer_6(D)->txSz
 596 0090 013B     		sub	r3, r3, #1	@ D.6745,
 597 0092 8B60     		str	r3, [r1, #8]	@ D.6745, xfer_6(D)->txSz
 296:../../lpc11cx4-library/lpc_chip_11cxx_lib/src/i2c_11xx.c **** 			cclr &= ~I2C_CON_AA;
ARM GAS  /tmp/ccAFBUIw.s 			page 19


 598              		.loc 1 296 0
 599 0094 002B     		cmp	r3, #0	@ D.6745,
 600 0096 0BDC     		bgt	.L103	@,
 601 0098 08E0     		b	.L102	@
 602              	.L95:
 603              	.LVL35:
 309:../../lpc11cx4-library/lpc_chip_11cxx_lib/src/i2c_11xx.c **** 		if (xfer->slaveAddr & 1) {
 604              		.loc 1 309 0
 605 009a 0023     		mov	r3, #0	@ tmp158,
 606 009c 0B75     		strb	r3, [r1, #20]	@ tmp158, xfer_6(D)->status
 310:../../lpc11cx4-library/lpc_chip_11cxx_lib/src/i2c_11xx.c **** 			cclr &= ~I2C_CON_STA;
 607              		.loc 1 310 0
 608 009e 0B78     		ldrb	r3, [r1]	@ *xfer_6(D), *xfer_6(D)
 307:../../lpc11cx4-library/lpc_chip_11cxx_lib/src/i2c_11xx.c **** 		cclr &= ~I2C_CON_AA;
 609              		.loc 1 307 0
 610 00a0 0222     		mov	r2, #2	@ ret,
 310:../../lpc11cx4-library/lpc_chip_11cxx_lib/src/i2c_11xx.c **** 			cclr &= ~I2C_CON_STA;
 611              		.loc 1 310 0
 612 00a2 DB07     		lsl	r3, r3, #31	@ tmp172, *xfer_6(D),
 613 00a4 04D5     		bpl	.L103	@,
 311:../../lpc11cx4-library/lpc_chip_11cxx_lib/src/i2c_11xx.c **** 		}
 614              		.loc 1 311 0
 615 00a6 1823     		mov	r3, #24	@ cclr,
 616 00a8 03E0     		b	.L90	@
 617              	.LVL36:
 618              	.L101:
 265:../../lpc11cx4-library/lpc_chip_11cxx_lib/src/i2c_11xx.c **** 
 619              		.loc 1 265 0
 620 00aa 0022     		mov	r2, #0	@ ret,
 621              	.LVL37:
 622              	.L102:
 264:../../lpc11cx4-library/lpc_chip_11cxx_lib/src/i2c_11xx.c **** 	int ret = RET_SLAVE_BUSY;
 623              		.loc 1 264 0
 624 00ac 3C23     		mov	r3, #60	@ cclr,
 625 00ae 00E0     		b	.L90	@
 626              	.LVL38:
 627              	.L103:
 308:../../lpc11cx4-library/lpc_chip_11cxx_lib/src/i2c_11xx.c **** 		xfer->status = I2C_STATUS_DONE;
 628              		.loc 1 308 0
 629 00b0 3823     		mov	r3, #56	@ cclr,
 630              	.L90:
 631              	.LVL39:
 317:../../lpc11cx4-library/lpc_chip_11cxx_lib/src/i2c_11xx.c **** 	pI2C->CONCLR = cclr;
 632              		.loc 1 317 0
 633 00b2 3C21     		mov	r1, #60	@ tmp166,
 634              	.LVL40:
 635 00b4 5940     		eor	r1, r3	@ D.6743, cclr
 636 00b6 0160     		str	r1, [r0]	@ D.6743, pI2C_8(D)->CONSET
 321:../../lpc11cx4-library/lpc_chip_11cxx_lib/src/i2c_11xx.c **** 
 637              		.loc 1 321 0
 638              		@ sp needed	@
 318:../../lpc11cx4-library/lpc_chip_11cxx_lib/src/i2c_11xx.c **** 
 639              		.loc 1 318 0
 640 00b8 8361     		str	r3, [r0, #24]	@ cclr, pI2C_8(D)->CONCLR
 321:../../lpc11cx4-library/lpc_chip_11cxx_lib/src/i2c_11xx.c **** 
 641              		.loc 1 321 0
 642 00ba 101C     		mov	r0, r2	@, ret
ARM GAS  /tmp/ccAFBUIw.s 			page 20


 643              	.LVL41:
 644 00bc 7047     		bx	lr
 645              		.cfi_endproc
 646              	.LFE211:
 647              		.size	handleSlaveXferState, .-handleSlaveXferState
 648              		.section	.text.Chip_I2C_Init,"ax",%progbits
 649              		.align	1
 650              		.global	Chip_I2C_Init
 651              		.code	16
 652              		.thumb_func
 653              		.type	Chip_I2C_Init, %function
 654              	Chip_I2C_Init:
 655              	.LFB214:
 342:../../lpc11cx4-library/lpc_chip_11cxx_lib/src/i2c_11xx.c **** 
 343:../../lpc11cx4-library/lpc_chip_11cxx_lib/src/i2c_11xx.c **** /* Chip polling event handler */
 344:../../lpc11cx4-library/lpc_chip_11cxx_lib/src/i2c_11xx.c **** void Chip_I2C_EventHandlerPolling(I2C_ID_T id, I2C_EVENT_T event)
 345:../../lpc11cx4-library/lpc_chip_11cxx_lib/src/i2c_11xx.c **** {
 346:../../lpc11cx4-library/lpc_chip_11cxx_lib/src/i2c_11xx.c **** 	struct i2c_interface *iic = &i2c[id];
 347:../../lpc11cx4-library/lpc_chip_11cxx_lib/src/i2c_11xx.c **** 	volatile I2C_STATUS_T *stat;
 348:../../lpc11cx4-library/lpc_chip_11cxx_lib/src/i2c_11xx.c **** 
 349:../../lpc11cx4-library/lpc_chip_11cxx_lib/src/i2c_11xx.c **** 	/* Only WAIT event needs to be handled */
 350:../../lpc11cx4-library/lpc_chip_11cxx_lib/src/i2c_11xx.c **** 	if (event != I2C_EVENT_WAIT) {
 351:../../lpc11cx4-library/lpc_chip_11cxx_lib/src/i2c_11xx.c **** 		return;
 352:../../lpc11cx4-library/lpc_chip_11cxx_lib/src/i2c_11xx.c **** 	}
 353:../../lpc11cx4-library/lpc_chip_11cxx_lib/src/i2c_11xx.c **** 
 354:../../lpc11cx4-library/lpc_chip_11cxx_lib/src/i2c_11xx.c **** 	stat = &iic->mXfer->status;
 355:../../lpc11cx4-library/lpc_chip_11cxx_lib/src/i2c_11xx.c **** 	/* Call the state change handler till xfer is done */
 356:../../lpc11cx4-library/lpc_chip_11cxx_lib/src/i2c_11xx.c **** 	while (*stat == I2C_STATUS_BUSY) {
 357:../../lpc11cx4-library/lpc_chip_11cxx_lib/src/i2c_11xx.c **** 		if (Chip_I2C_IsStateChanged(id)) {
 358:../../lpc11cx4-library/lpc_chip_11cxx_lib/src/i2c_11xx.c **** 			Chip_I2C_MasterStateHandler(id);
 359:../../lpc11cx4-library/lpc_chip_11cxx_lib/src/i2c_11xx.c **** 		}
 360:../../lpc11cx4-library/lpc_chip_11cxx_lib/src/i2c_11xx.c **** 	}
 361:../../lpc11cx4-library/lpc_chip_11cxx_lib/src/i2c_11xx.c **** }
 362:../../lpc11cx4-library/lpc_chip_11cxx_lib/src/i2c_11xx.c **** 
 363:../../lpc11cx4-library/lpc_chip_11cxx_lib/src/i2c_11xx.c **** /* Initializes the LPC_I2C peripheral with specified parameter */
 364:../../lpc11cx4-library/lpc_chip_11cxx_lib/src/i2c_11xx.c **** void Chip_I2C_Init(I2C_ID_T id)
 365:../../lpc11cx4-library/lpc_chip_11cxx_lib/src/i2c_11xx.c **** {
 656              		.loc 1 365 0
 657              		.cfi_startproc
 658              	.LVL42:
 659              	.LBB82:
 660              	.LBB83:
  79:../../lpc11cx4-library/lpc_chip_11cxx_lib/src/i2c_11xx.c **** }
 661              		.loc 1 79 0
 662 0000 1C23     		mov	r3, #28	@ tmp122,
 663              	.LBE83:
 664              	.LBE82:
 665              		.loc 1 365 0
 666 0002 30B5     		push	{r4, r5, lr}	@
 667              		.cfi_def_cfa_offset 12
 668              		.cfi_offset 4, -12
 669              		.cfi_offset 5, -8
 670              		.cfi_offset 14, -4
 671              	.LBB95:
 672              	.LBB92:
  79:../../lpc11cx4-library/lpc_chip_11cxx_lib/src/i2c_11xx.c **** }
 673              		.loc 1 79 0
ARM GAS  /tmp/ccAFBUIw.s 			page 21


 674 0004 5843     		mul	r0, r3	@ tmp123, tmp122
 675              	.LVL43:
 676 0006 0649     		ldr	r1, .L147	@ tmp121,
 677              	.LBB84:
 678              	.LBB85:
 679              		.file 2 "../../lpc11cx4-library/lpc_chip_11cxx_lib/inc/clock_11xx.h"
   1:../../lpc11cx4-library/lpc_chip_11cxx_lib/inc/clock_11xx.h **** /*
   2:../../lpc11cx4-library/lpc_chip_11cxx_lib/inc/clock_11xx.h ****  * @brief LPC11XX Clock control functions
   3:../../lpc11cx4-library/lpc_chip_11cxx_lib/inc/clock_11xx.h ****  *
   4:../../lpc11cx4-library/lpc_chip_11cxx_lib/inc/clock_11xx.h ****  * @note
   5:../../lpc11cx4-library/lpc_chip_11cxx_lib/inc/clock_11xx.h ****  * Copyright(C) NXP Semiconductors, 2012
   6:../../lpc11cx4-library/lpc_chip_11cxx_lib/inc/clock_11xx.h ****  * All rights reserved.
   7:../../lpc11cx4-library/lpc_chip_11cxx_lib/inc/clock_11xx.h ****  *
   8:../../lpc11cx4-library/lpc_chip_11cxx_lib/inc/clock_11xx.h ****  * @par
   9:../../lpc11cx4-library/lpc_chip_11cxx_lib/inc/clock_11xx.h ****  * Software that is described herein is for illustrative purposes only
  10:../../lpc11cx4-library/lpc_chip_11cxx_lib/inc/clock_11xx.h ****  * which provides customers with programming information regarding the
  11:../../lpc11cx4-library/lpc_chip_11cxx_lib/inc/clock_11xx.h ****  * LPC products.  This software is supplied "AS IS" without any warranties of
  12:../../lpc11cx4-library/lpc_chip_11cxx_lib/inc/clock_11xx.h ****  * any kind, and NXP Semiconductors and its licensor disclaim any and
  13:../../lpc11cx4-library/lpc_chip_11cxx_lib/inc/clock_11xx.h ****  * all warranties, express or implied, including all implied warranties of
  14:../../lpc11cx4-library/lpc_chip_11cxx_lib/inc/clock_11xx.h ****  * merchantability, fitness for a particular purpose and non-infringement of
  15:../../lpc11cx4-library/lpc_chip_11cxx_lib/inc/clock_11xx.h ****  * intellectual property rights.  NXP Semiconductors assumes no responsibility
  16:../../lpc11cx4-library/lpc_chip_11cxx_lib/inc/clock_11xx.h ****  * or liability for the use of the software, conveys no license or rights under any
  17:../../lpc11cx4-library/lpc_chip_11cxx_lib/inc/clock_11xx.h ****  * patent, copyright, mask work right, or any other intellectual property rights in
  18:../../lpc11cx4-library/lpc_chip_11cxx_lib/inc/clock_11xx.h ****  * or to any products. NXP Semiconductors reserves the right to make changes
  19:../../lpc11cx4-library/lpc_chip_11cxx_lib/inc/clock_11xx.h ****  * in the software without notification. NXP Semiconductors also makes no
  20:../../lpc11cx4-library/lpc_chip_11cxx_lib/inc/clock_11xx.h ****  * representation or warranty that such application will be suitable for the
  21:../../lpc11cx4-library/lpc_chip_11cxx_lib/inc/clock_11xx.h ****  * specified use without further testing or modification.
  22:../../lpc11cx4-library/lpc_chip_11cxx_lib/inc/clock_11xx.h ****  *
  23:../../lpc11cx4-library/lpc_chip_11cxx_lib/inc/clock_11xx.h ****  * @par
  24:../../lpc11cx4-library/lpc_chip_11cxx_lib/inc/clock_11xx.h ****  * Permission to use, copy, modify, and distribute this software and its
  25:../../lpc11cx4-library/lpc_chip_11cxx_lib/inc/clock_11xx.h ****  * documentation is hereby granted, under NXP Semiconductors' and its
  26:../../lpc11cx4-library/lpc_chip_11cxx_lib/inc/clock_11xx.h ****  * licensor's relevant copyrights in the software, without fee, provided that it
  27:../../lpc11cx4-library/lpc_chip_11cxx_lib/inc/clock_11xx.h ****  * is used in conjunction with NXP Semiconductors microcontrollers.  This
  28:../../lpc11cx4-library/lpc_chip_11cxx_lib/inc/clock_11xx.h ****  * copyright, permission, and disclaimer notice must appear in all copies of
  29:../../lpc11cx4-library/lpc_chip_11cxx_lib/inc/clock_11xx.h ****  * this code.
  30:../../lpc11cx4-library/lpc_chip_11cxx_lib/inc/clock_11xx.h ****  */
  31:../../lpc11cx4-library/lpc_chip_11cxx_lib/inc/clock_11xx.h **** 
  32:../../lpc11cx4-library/lpc_chip_11cxx_lib/inc/clock_11xx.h **** #ifndef __CLOCK_11XX_H_
  33:../../lpc11cx4-library/lpc_chip_11cxx_lib/inc/clock_11xx.h **** #define __CLOCK_11XX_H_
  34:../../lpc11cx4-library/lpc_chip_11cxx_lib/inc/clock_11xx.h **** 
  35:../../lpc11cx4-library/lpc_chip_11cxx_lib/inc/clock_11xx.h **** #ifdef __cplusplus
  36:../../lpc11cx4-library/lpc_chip_11cxx_lib/inc/clock_11xx.h **** extern "C" {
  37:../../lpc11cx4-library/lpc_chip_11cxx_lib/inc/clock_11xx.h **** #endif
  38:../../lpc11cx4-library/lpc_chip_11cxx_lib/inc/clock_11xx.h **** 
  39:../../lpc11cx4-library/lpc_chip_11cxx_lib/inc/clock_11xx.h **** /** @defgroup CLOCK_11XX CHIP: LPC11xx Clock Control block driver
  40:../../lpc11cx4-library/lpc_chip_11cxx_lib/inc/clock_11xx.h ****  * @ingroup CHIP_11XX_Drivers
  41:../../lpc11cx4-library/lpc_chip_11cxx_lib/inc/clock_11xx.h ****  * @{
  42:../../lpc11cx4-library/lpc_chip_11cxx_lib/inc/clock_11xx.h ****  */
  43:../../lpc11cx4-library/lpc_chip_11cxx_lib/inc/clock_11xx.h **** 
  44:../../lpc11cx4-library/lpc_chip_11cxx_lib/inc/clock_11xx.h **** /** Internal oscillator frequency */
  45:../../lpc11cx4-library/lpc_chip_11cxx_lib/inc/clock_11xx.h **** #define SYSCTL_IRC_FREQ (12000000)
  46:../../lpc11cx4-library/lpc_chip_11cxx_lib/inc/clock_11xx.h **** 
  47:../../lpc11cx4-library/lpc_chip_11cxx_lib/inc/clock_11xx.h **** /**
  48:../../lpc11cx4-library/lpc_chip_11cxx_lib/inc/clock_11xx.h ****  * @brief	Set System PLL divider values
  49:../../lpc11cx4-library/lpc_chip_11cxx_lib/inc/clock_11xx.h ****  * @param	msel    : PLL feedback divider value. M = msel + 1.
  50:../../lpc11cx4-library/lpc_chip_11cxx_lib/inc/clock_11xx.h ****  * @param	psel    : PLL post divider value. P =  (1<<psel).
  51:../../lpc11cx4-library/lpc_chip_11cxx_lib/inc/clock_11xx.h ****  * @return	Nothing
ARM GAS  /tmp/ccAFBUIw.s 			page 22


  52:../../lpc11cx4-library/lpc_chip_11cxx_lib/inc/clock_11xx.h ****  * @note	See the user manual for how to setup the PLL.
  53:../../lpc11cx4-library/lpc_chip_11cxx_lib/inc/clock_11xx.h ****  */
  54:../../lpc11cx4-library/lpc_chip_11cxx_lib/inc/clock_11xx.h **** STATIC INLINE void Chip_Clock_SetupSystemPLL(uint8_t msel, uint8_t psel)
  55:../../lpc11cx4-library/lpc_chip_11cxx_lib/inc/clock_11xx.h **** {
  56:../../lpc11cx4-library/lpc_chip_11cxx_lib/inc/clock_11xx.h **** 	LPC_SYSCTL->SYSPLLCTRL = (msel & 0x1F) | ((psel & 0x3) << 5);
  57:../../lpc11cx4-library/lpc_chip_11cxx_lib/inc/clock_11xx.h **** }
  58:../../lpc11cx4-library/lpc_chip_11cxx_lib/inc/clock_11xx.h **** 
  59:../../lpc11cx4-library/lpc_chip_11cxx_lib/inc/clock_11xx.h **** /**
  60:../../lpc11cx4-library/lpc_chip_11cxx_lib/inc/clock_11xx.h ****  * @brief	Read System PLL lock status
  61:../../lpc11cx4-library/lpc_chip_11cxx_lib/inc/clock_11xx.h ****  * @return	true of the PLL is locked. false if not locked
  62:../../lpc11cx4-library/lpc_chip_11cxx_lib/inc/clock_11xx.h ****  */
  63:../../lpc11cx4-library/lpc_chip_11cxx_lib/inc/clock_11xx.h **** STATIC INLINE bool Chip_Clock_IsSystemPLLLocked(void)
  64:../../lpc11cx4-library/lpc_chip_11cxx_lib/inc/clock_11xx.h **** {
  65:../../lpc11cx4-library/lpc_chip_11cxx_lib/inc/clock_11xx.h **** 	return (bool) ((LPC_SYSCTL->SYSPLLSTAT & 1) != 0);
  66:../../lpc11cx4-library/lpc_chip_11cxx_lib/inc/clock_11xx.h **** }
  67:../../lpc11cx4-library/lpc_chip_11cxx_lib/inc/clock_11xx.h **** 
  68:../../lpc11cx4-library/lpc_chip_11cxx_lib/inc/clock_11xx.h **** /**
  69:../../lpc11cx4-library/lpc_chip_11cxx_lib/inc/clock_11xx.h ****  * Clock sources for system and USB PLLs
  70:../../lpc11cx4-library/lpc_chip_11cxx_lib/inc/clock_11xx.h ****  */
  71:../../lpc11cx4-library/lpc_chip_11cxx_lib/inc/clock_11xx.h **** typedef enum CHIP_SYSCTL_PLLCLKSRC {
  72:../../lpc11cx4-library/lpc_chip_11cxx_lib/inc/clock_11xx.h **** 	SYSCTL_PLLCLKSRC_IRC = 0,		/*!< Internal oscillator in */
  73:../../lpc11cx4-library/lpc_chip_11cxx_lib/inc/clock_11xx.h **** 	SYSCTL_PLLCLKSRC_MAINOSC,		/*!< Crystal (main) oscillator in */
  74:../../lpc11cx4-library/lpc_chip_11cxx_lib/inc/clock_11xx.h **** #if defined(CHIP_LPC11AXX)
  75:../../lpc11cx4-library/lpc_chip_11cxx_lib/inc/clock_11xx.h **** 	SYSCTL_PLLCLKSRC_EXT_CLKIN,	/*!< External clock in (11Axx only) */
  76:../../lpc11cx4-library/lpc_chip_11cxx_lib/inc/clock_11xx.h **** #else
  77:../../lpc11cx4-library/lpc_chip_11cxx_lib/inc/clock_11xx.h **** 	SYSCTL_PLLCLKSRC_RESERVED1,	/*!< Reserved */
  78:../../lpc11cx4-library/lpc_chip_11cxx_lib/inc/clock_11xx.h **** #endif
  79:../../lpc11cx4-library/lpc_chip_11cxx_lib/inc/clock_11xx.h **** 	SYSCTL_PLLCLKSRC_RESERVED2,	/*!< Reserved */
  80:../../lpc11cx4-library/lpc_chip_11cxx_lib/inc/clock_11xx.h **** } CHIP_SYSCTL_PLLCLKSRC_T;
  81:../../lpc11cx4-library/lpc_chip_11cxx_lib/inc/clock_11xx.h **** 
  82:../../lpc11cx4-library/lpc_chip_11cxx_lib/inc/clock_11xx.h **** /**
  83:../../lpc11cx4-library/lpc_chip_11cxx_lib/inc/clock_11xx.h ****  * @brief	Set System PLL clock source
  84:../../lpc11cx4-library/lpc_chip_11cxx_lib/inc/clock_11xx.h ****  * @param	src	: Clock source for system PLL
  85:../../lpc11cx4-library/lpc_chip_11cxx_lib/inc/clock_11xx.h ****  * @return	Nothing
  86:../../lpc11cx4-library/lpc_chip_11cxx_lib/inc/clock_11xx.h ****  * @note	This function will also toggle the clock source update register
  87:../../lpc11cx4-library/lpc_chip_11cxx_lib/inc/clock_11xx.h ****  * to update the clock source.
  88:../../lpc11cx4-library/lpc_chip_11cxx_lib/inc/clock_11xx.h ****  */
  89:../../lpc11cx4-library/lpc_chip_11cxx_lib/inc/clock_11xx.h **** void Chip_Clock_SetSystemPLLSource(CHIP_SYSCTL_PLLCLKSRC_T src);
  90:../../lpc11cx4-library/lpc_chip_11cxx_lib/inc/clock_11xx.h **** 
  91:../../lpc11cx4-library/lpc_chip_11cxx_lib/inc/clock_11xx.h **** #if defined(CHIP_LPC11UXX)
  92:../../lpc11cx4-library/lpc_chip_11cxx_lib/inc/clock_11xx.h **** /**
  93:../../lpc11cx4-library/lpc_chip_11cxx_lib/inc/clock_11xx.h ****  * @brief	Set USB PLL divider values
  94:../../lpc11cx4-library/lpc_chip_11cxx_lib/inc/clock_11xx.h ****  * @param	msel    : PLL feedback divider value. M = msel + 1.
  95:../../lpc11cx4-library/lpc_chip_11cxx_lib/inc/clock_11xx.h ****  * @param	psel    : PLL post divider value. P = (1<<psel).
  96:../../lpc11cx4-library/lpc_chip_11cxx_lib/inc/clock_11xx.h ****  * @return	Nothing
  97:../../lpc11cx4-library/lpc_chip_11cxx_lib/inc/clock_11xx.h ****  * @note	See the user manual for how to setup the PLL.
  98:../../lpc11cx4-library/lpc_chip_11cxx_lib/inc/clock_11xx.h ****  */
  99:../../lpc11cx4-library/lpc_chip_11cxx_lib/inc/clock_11xx.h **** STATIC INLINE void Chip_Clock_SetupUSBPLL(uint8_t msel, uint8_t psel)
 100:../../lpc11cx4-library/lpc_chip_11cxx_lib/inc/clock_11xx.h **** {
 101:../../lpc11cx4-library/lpc_chip_11cxx_lib/inc/clock_11xx.h **** 	LPC_SYSCTL->USBPLLCTRL = (msel & 0x1F) | ((psel & 0x3) << 5);
 102:../../lpc11cx4-library/lpc_chip_11cxx_lib/inc/clock_11xx.h **** }
 103:../../lpc11cx4-library/lpc_chip_11cxx_lib/inc/clock_11xx.h **** 
 104:../../lpc11cx4-library/lpc_chip_11cxx_lib/inc/clock_11xx.h **** /**
 105:../../lpc11cx4-library/lpc_chip_11cxx_lib/inc/clock_11xx.h ****  * @brief	Read USB PLL lock status
 106:../../lpc11cx4-library/lpc_chip_11cxx_lib/inc/clock_11xx.h ****  * @return	true of the PLL is locked. false if not locked
 107:../../lpc11cx4-library/lpc_chip_11cxx_lib/inc/clock_11xx.h ****  */
 108:../../lpc11cx4-library/lpc_chip_11cxx_lib/inc/clock_11xx.h **** STATIC INLINE bool Chip_Clock_IsUSBPLLLocked(void)
ARM GAS  /tmp/ccAFBUIw.s 			page 23


 109:../../lpc11cx4-library/lpc_chip_11cxx_lib/inc/clock_11xx.h **** {
 110:../../lpc11cx4-library/lpc_chip_11cxx_lib/inc/clock_11xx.h **** 	return (bool) ((LPC_SYSCTL->USBPLLSTAT & 1) != 0);
 111:../../lpc11cx4-library/lpc_chip_11cxx_lib/inc/clock_11xx.h **** }
 112:../../lpc11cx4-library/lpc_chip_11cxx_lib/inc/clock_11xx.h **** 
 113:../../lpc11cx4-library/lpc_chip_11cxx_lib/inc/clock_11xx.h **** /**
 114:../../lpc11cx4-library/lpc_chip_11cxx_lib/inc/clock_11xx.h ****  * @brief	Set USB PLL clock source
 115:../../lpc11cx4-library/lpc_chip_11cxx_lib/inc/clock_11xx.h ****  * @param	src	: Clock source for USB PLL
 116:../../lpc11cx4-library/lpc_chip_11cxx_lib/inc/clock_11xx.h ****  * @return	Nothing
 117:../../lpc11cx4-library/lpc_chip_11cxx_lib/inc/clock_11xx.h ****  * @note	This function will also toggle the clock source update register
 118:../../lpc11cx4-library/lpc_chip_11cxx_lib/inc/clock_11xx.h ****  * to update the clock source.
 119:../../lpc11cx4-library/lpc_chip_11cxx_lib/inc/clock_11xx.h ****  */
 120:../../lpc11cx4-library/lpc_chip_11cxx_lib/inc/clock_11xx.h **** void Chip_Clock_SetUSBPLLSource(CHIP_SYSCTL_PLLCLKSRC_T src);
 121:../../lpc11cx4-library/lpc_chip_11cxx_lib/inc/clock_11xx.h **** 
 122:../../lpc11cx4-library/lpc_chip_11cxx_lib/inc/clock_11xx.h **** #endif /*defined(CHIP_LPC11UXX)*/
 123:../../lpc11cx4-library/lpc_chip_11cxx_lib/inc/clock_11xx.h **** 
 124:../../lpc11cx4-library/lpc_chip_11cxx_lib/inc/clock_11xx.h **** /**
 125:../../lpc11cx4-library/lpc_chip_11cxx_lib/inc/clock_11xx.h ****  * @brief	Bypass System Oscillator and set oscillator frequency range
 126:../../lpc11cx4-library/lpc_chip_11cxx_lib/inc/clock_11xx.h ****  * @param	bypass	: Flag to bypass oscillator
 127:../../lpc11cx4-library/lpc_chip_11cxx_lib/inc/clock_11xx.h ****  * @param	highfr	: Flag to set oscillator range from 15-25 MHz
 128:../../lpc11cx4-library/lpc_chip_11cxx_lib/inc/clock_11xx.h ****  * @return	Nothing
 129:../../lpc11cx4-library/lpc_chip_11cxx_lib/inc/clock_11xx.h ****  * @note	Sets the PLL input to bypass the oscillator. This would be
 130:../../lpc11cx4-library/lpc_chip_11cxx_lib/inc/clock_11xx.h ****  * used if an external clock that is not an oscillator is attached
 131:../../lpc11cx4-library/lpc_chip_11cxx_lib/inc/clock_11xx.h ****  * to the XTALIN pin.
 132:../../lpc11cx4-library/lpc_chip_11cxx_lib/inc/clock_11xx.h ****  */
 133:../../lpc11cx4-library/lpc_chip_11cxx_lib/inc/clock_11xx.h **** void Chip_Clock_SetPLLBypass(bool bypass, bool highfr);
 134:../../lpc11cx4-library/lpc_chip_11cxx_lib/inc/clock_11xx.h **** 
 135:../../lpc11cx4-library/lpc_chip_11cxx_lib/inc/clock_11xx.h **** /**
 136:../../lpc11cx4-library/lpc_chip_11cxx_lib/inc/clock_11xx.h ****  * Watchdog and low frequency oscillator frequencies plus or minus 40%
 137:../../lpc11cx4-library/lpc_chip_11cxx_lib/inc/clock_11xx.h ****  */
 138:../../lpc11cx4-library/lpc_chip_11cxx_lib/inc/clock_11xx.h **** typedef enum CHIP_WDTLFO_OSC {
 139:../../lpc11cx4-library/lpc_chip_11cxx_lib/inc/clock_11xx.h **** 	WDTLFO_OSC_ILLEGAL,
 140:../../lpc11cx4-library/lpc_chip_11cxx_lib/inc/clock_11xx.h **** 	WDTLFO_OSC_0_60,	/*!< 0.6 MHz watchdog/LFO rate */
 141:../../lpc11cx4-library/lpc_chip_11cxx_lib/inc/clock_11xx.h **** 	WDTLFO_OSC_1_05,	/*!< 1.05 MHz watchdog/LFO rate */
 142:../../lpc11cx4-library/lpc_chip_11cxx_lib/inc/clock_11xx.h **** 	WDTLFO_OSC_1_40,	/*!< 1.4 MHz watchdog/LFO rate */
 143:../../lpc11cx4-library/lpc_chip_11cxx_lib/inc/clock_11xx.h **** 	WDTLFO_OSC_1_75,	/*!< 1.75 MHz watchdog/LFO rate */
 144:../../lpc11cx4-library/lpc_chip_11cxx_lib/inc/clock_11xx.h **** 	WDTLFO_OSC_2_10,	/*!< 2.1 MHz watchdog/LFO rate */
 145:../../lpc11cx4-library/lpc_chip_11cxx_lib/inc/clock_11xx.h **** 	WDTLFO_OSC_2_40,	/*!< 2.4 MHz watchdog/LFO rate */
 146:../../lpc11cx4-library/lpc_chip_11cxx_lib/inc/clock_11xx.h **** 	WDTLFO_OSC_2_70,	/*!< 2.7 MHz watchdog/LFO rate */
 147:../../lpc11cx4-library/lpc_chip_11cxx_lib/inc/clock_11xx.h **** 	WDTLFO_OSC_3_00,	/*!< 3.0 MHz watchdog/LFO rate */
 148:../../lpc11cx4-library/lpc_chip_11cxx_lib/inc/clock_11xx.h **** 	WDTLFO_OSC_3_25,	/*!< 3.25 MHz watchdog/LFO rate */
 149:../../lpc11cx4-library/lpc_chip_11cxx_lib/inc/clock_11xx.h **** 	WDTLFO_OSC_3_50,	/*!< 3.5 MHz watchdog/LFO rate */
 150:../../lpc11cx4-library/lpc_chip_11cxx_lib/inc/clock_11xx.h **** 	WDTLFO_OSC_3_75,	/*!< 3.75 MHz watchdog/LFO rate */
 151:../../lpc11cx4-library/lpc_chip_11cxx_lib/inc/clock_11xx.h **** 	WDTLFO_OSC_4_00,	/*!< 4.0 MHz watchdog/LFO rate */
 152:../../lpc11cx4-library/lpc_chip_11cxx_lib/inc/clock_11xx.h **** 	WDTLFO_OSC_4_20,	/*!< 4.2 MHz watchdog/LFO rate */
 153:../../lpc11cx4-library/lpc_chip_11cxx_lib/inc/clock_11xx.h **** 	WDTLFO_OSC_4_40,	/*!< 4.4 MHz watchdog/LFO rate */
 154:../../lpc11cx4-library/lpc_chip_11cxx_lib/inc/clock_11xx.h **** 	WDTLFO_OSC_4_60		/*!< 4.6 MHz watchdog/LFO rate */
 155:../../lpc11cx4-library/lpc_chip_11cxx_lib/inc/clock_11xx.h **** } CHIP_WDTLFO_OSC_T;
 156:../../lpc11cx4-library/lpc_chip_11cxx_lib/inc/clock_11xx.h **** 
 157:../../lpc11cx4-library/lpc_chip_11cxx_lib/inc/clock_11xx.h **** /**
 158:../../lpc11cx4-library/lpc_chip_11cxx_lib/inc/clock_11xx.h ****  * @brief	Setup Watchdog oscillator rate and divider
 159:../../lpc11cx4-library/lpc_chip_11cxx_lib/inc/clock_11xx.h ****  * @param	wdtclk	: Selected watchdog clock rate
 160:../../lpc11cx4-library/lpc_chip_11cxx_lib/inc/clock_11xx.h ****  * @param	div		: Watchdog divider value, even value between 2 and 64
 161:../../lpc11cx4-library/lpc_chip_11cxx_lib/inc/clock_11xx.h ****  * @return	Nothing
 162:../../lpc11cx4-library/lpc_chip_11cxx_lib/inc/clock_11xx.h ****  * @note	Watchdog rate = selected rate divided by divider rate
 163:../../lpc11cx4-library/lpc_chip_11cxx_lib/inc/clock_11xx.h ****  */
 164:../../lpc11cx4-library/lpc_chip_11cxx_lib/inc/clock_11xx.h **** STATIC INLINE void Chip_Clock_SetWDTOSC(CHIP_WDTLFO_OSC_T wdtclk, uint8_t div)
 165:../../lpc11cx4-library/lpc_chip_11cxx_lib/inc/clock_11xx.h **** {
ARM GAS  /tmp/ccAFBUIw.s 			page 24


 166:../../lpc11cx4-library/lpc_chip_11cxx_lib/inc/clock_11xx.h **** 	LPC_SYSCTL->WDTOSCCTRL  = (((uint32_t) wdtclk) << 5) | ((div >> 1) - 1);
 167:../../lpc11cx4-library/lpc_chip_11cxx_lib/inc/clock_11xx.h **** }
 168:../../lpc11cx4-library/lpc_chip_11cxx_lib/inc/clock_11xx.h **** 
 169:../../lpc11cx4-library/lpc_chip_11cxx_lib/inc/clock_11xx.h **** #if defined(CHIP_LPC11AXX)
 170:../../lpc11cx4-library/lpc_chip_11cxx_lib/inc/clock_11xx.h **** /**
 171:../../lpc11cx4-library/lpc_chip_11cxx_lib/inc/clock_11xx.h ****  * @brief	Setup low frequency oscillator rate and divider
 172:../../lpc11cx4-library/lpc_chip_11cxx_lib/inc/clock_11xx.h ****  * @param	lfoclk	: Selected low frequency clock rate
 173:../../lpc11cx4-library/lpc_chip_11cxx_lib/inc/clock_11xx.h ****  * @param	div		: Low frequency divider value, even value between 2 and 64
 174:../../lpc11cx4-library/lpc_chip_11cxx_lib/inc/clock_11xx.h ****  * @return	Nothing
 175:../../lpc11cx4-library/lpc_chip_11cxx_lib/inc/clock_11xx.h ****  * @note	Low frequency oscillator rate = selected rate divided by divider rate
 176:../../lpc11cx4-library/lpc_chip_11cxx_lib/inc/clock_11xx.h ****  */
 177:../../lpc11cx4-library/lpc_chip_11cxx_lib/inc/clock_11xx.h **** STATIC INLINE void Chip_Clock_SetLFOSC(CHIP_WDTLFO_OSC_T lfoclk, uint8_t div)
 178:../../lpc11cx4-library/lpc_chip_11cxx_lib/inc/clock_11xx.h **** {
 179:../../lpc11cx4-library/lpc_chip_11cxx_lib/inc/clock_11xx.h **** 	LPC_SYSCTL->LFOSCCTRL  = (((uint32_t) lfoclk) << 5) | ((div >> 1) - 1);
 180:../../lpc11cx4-library/lpc_chip_11cxx_lib/inc/clock_11xx.h **** }
 181:../../lpc11cx4-library/lpc_chip_11cxx_lib/inc/clock_11xx.h **** 
 182:../../lpc11cx4-library/lpc_chip_11cxx_lib/inc/clock_11xx.h **** #endif /*CHIP_LPC11AXX*/
 183:../../lpc11cx4-library/lpc_chip_11cxx_lib/inc/clock_11xx.h **** 
 184:../../lpc11cx4-library/lpc_chip_11cxx_lib/inc/clock_11xx.h **** /**
 185:../../lpc11cx4-library/lpc_chip_11cxx_lib/inc/clock_11xx.h ****  * Clock sources for main system clock
 186:../../lpc11cx4-library/lpc_chip_11cxx_lib/inc/clock_11xx.h ****  */
 187:../../lpc11cx4-library/lpc_chip_11cxx_lib/inc/clock_11xx.h **** typedef enum CHIP_SYSCTL_MAINCLKSRC {
 188:../../lpc11cx4-library/lpc_chip_11cxx_lib/inc/clock_11xx.h **** 	SYSCTL_MAINCLKSRC_IRC = 0,		/*!< Internal oscillator */
 189:../../lpc11cx4-library/lpc_chip_11cxx_lib/inc/clock_11xx.h **** 	SYSCTL_MAINCLKSRC_PLLIN,		/*!< System PLL input */
 190:../../lpc11cx4-library/lpc_chip_11cxx_lib/inc/clock_11xx.h **** 	SYSCTL_MAINCLKSRC_LFOSC,		/*!< LF oscillator rate (11Axx only) */
 191:../../lpc11cx4-library/lpc_chip_11cxx_lib/inc/clock_11xx.h **** 	SYSCTL_MAINCLKSRC_WDTOSC = SYSCTL_MAINCLKSRC_LFOSC,	/*!< Watchdog oscillator rate */
 192:../../lpc11cx4-library/lpc_chip_11cxx_lib/inc/clock_11xx.h **** 	SYSCTL_MAINCLKSRC_PLLOUT,		/*!< System PLL output */
 193:../../lpc11cx4-library/lpc_chip_11cxx_lib/inc/clock_11xx.h **** } CHIP_SYSCTL_MAINCLKSRC_T;
 194:../../lpc11cx4-library/lpc_chip_11cxx_lib/inc/clock_11xx.h **** 
 195:../../lpc11cx4-library/lpc_chip_11cxx_lib/inc/clock_11xx.h **** /**
 196:../../lpc11cx4-library/lpc_chip_11cxx_lib/inc/clock_11xx.h ****  * @brief	Set main system clock source
 197:../../lpc11cx4-library/lpc_chip_11cxx_lib/inc/clock_11xx.h ****  * @param	src	: Clock source for main system
 198:../../lpc11cx4-library/lpc_chip_11cxx_lib/inc/clock_11xx.h ****  * @return	Nothing
 199:../../lpc11cx4-library/lpc_chip_11cxx_lib/inc/clock_11xx.h ****  * @note	This function will also toggle the clock source update register
 200:../../lpc11cx4-library/lpc_chip_11cxx_lib/inc/clock_11xx.h ****  * to update the clock source.
 201:../../lpc11cx4-library/lpc_chip_11cxx_lib/inc/clock_11xx.h ****  */
 202:../../lpc11cx4-library/lpc_chip_11cxx_lib/inc/clock_11xx.h **** void Chip_Clock_SetMainClockSource(CHIP_SYSCTL_MAINCLKSRC_T src);
 203:../../lpc11cx4-library/lpc_chip_11cxx_lib/inc/clock_11xx.h **** 
 204:../../lpc11cx4-library/lpc_chip_11cxx_lib/inc/clock_11xx.h **** /**
 205:../../lpc11cx4-library/lpc_chip_11cxx_lib/inc/clock_11xx.h ****  * @brief   Returns the main clock source
 206:../../lpc11cx4-library/lpc_chip_11cxx_lib/inc/clock_11xx.h ****  * @return	Which clock is used for the core clock source?
 207:../../lpc11cx4-library/lpc_chip_11cxx_lib/inc/clock_11xx.h ****  */
 208:../../lpc11cx4-library/lpc_chip_11cxx_lib/inc/clock_11xx.h **** STATIC INLINE CHIP_SYSCTL_MAINCLKSRC_T Chip_Clock_GetMainClockSource(void)
 209:../../lpc11cx4-library/lpc_chip_11cxx_lib/inc/clock_11xx.h **** {
 210:../../lpc11cx4-library/lpc_chip_11cxx_lib/inc/clock_11xx.h **** 	return (CHIP_SYSCTL_MAINCLKSRC_T) (LPC_SYSCTL->MAINCLKSEL);
 211:../../lpc11cx4-library/lpc_chip_11cxx_lib/inc/clock_11xx.h **** }
 212:../../lpc11cx4-library/lpc_chip_11cxx_lib/inc/clock_11xx.h **** 
 213:../../lpc11cx4-library/lpc_chip_11cxx_lib/inc/clock_11xx.h **** /**
 214:../../lpc11cx4-library/lpc_chip_11cxx_lib/inc/clock_11xx.h ****  * @brief	Set system clock divider
 215:../../lpc11cx4-library/lpc_chip_11cxx_lib/inc/clock_11xx.h ****  * @param	div	: divider for system clock
 216:../../lpc11cx4-library/lpc_chip_11cxx_lib/inc/clock_11xx.h ****  * @return	Nothing
 217:../../lpc11cx4-library/lpc_chip_11cxx_lib/inc/clock_11xx.h ****  * @note	Use 0 to disable, or a divider value of 1 to 255. The system clock
 218:../../lpc11cx4-library/lpc_chip_11cxx_lib/inc/clock_11xx.h ****  * rate is the main system clock divided by this value.
 219:../../lpc11cx4-library/lpc_chip_11cxx_lib/inc/clock_11xx.h ****  */
 220:../../lpc11cx4-library/lpc_chip_11cxx_lib/inc/clock_11xx.h **** STATIC INLINE void Chip_Clock_SetSysClockDiv(uint32_t div)
 221:../../lpc11cx4-library/lpc_chip_11cxx_lib/inc/clock_11xx.h **** {
 222:../../lpc11cx4-library/lpc_chip_11cxx_lib/inc/clock_11xx.h **** 	LPC_SYSCTL->SYSAHBCLKDIV  = div;
ARM GAS  /tmp/ccAFBUIw.s 			page 25


 223:../../lpc11cx4-library/lpc_chip_11cxx_lib/inc/clock_11xx.h **** }
 224:../../lpc11cx4-library/lpc_chip_11cxx_lib/inc/clock_11xx.h **** 
 225:../../lpc11cx4-library/lpc_chip_11cxx_lib/inc/clock_11xx.h **** /**
 226:../../lpc11cx4-library/lpc_chip_11cxx_lib/inc/clock_11xx.h ****  * System and peripheral clocks
 227:../../lpc11cx4-library/lpc_chip_11cxx_lib/inc/clock_11xx.h ****  */
 228:../../lpc11cx4-library/lpc_chip_11cxx_lib/inc/clock_11xx.h **** typedef enum CHIP_SYSCTL_CLOCK {
 229:../../lpc11cx4-library/lpc_chip_11cxx_lib/inc/clock_11xx.h **** 	SYSCTL_CLOCK_SYS = 0,				/*!< 0: System clock */
 230:../../lpc11cx4-library/lpc_chip_11cxx_lib/inc/clock_11xx.h **** 	SYSCTL_CLOCK_ROM,					/*!<1:  ROM clock */
 231:../../lpc11cx4-library/lpc_chip_11cxx_lib/inc/clock_11xx.h **** 	SYSCTL_CLOCK_RAM,					/*!< 2: RAM clock */
 232:../../lpc11cx4-library/lpc_chip_11cxx_lib/inc/clock_11xx.h **** 	SYSCTL_CLOCK_FLASHREG,				/*!< 3: FLASH register interface clock */
 233:../../lpc11cx4-library/lpc_chip_11cxx_lib/inc/clock_11xx.h **** 	SYSCTL_CLOCK_FLASHARRAY,			/*!< 4: FLASH array access clock */
 234:../../lpc11cx4-library/lpc_chip_11cxx_lib/inc/clock_11xx.h **** #if defined(CHIP_LPC110X)
 235:../../lpc11cx4-library/lpc_chip_11cxx_lib/inc/clock_11xx.h **** 	SYSCTL_CLOCK_RESERVED5,				/*!< 5: Reserved */
 236:../../lpc11cx4-library/lpc_chip_11cxx_lib/inc/clock_11xx.h **** #else
 237:../../lpc11cx4-library/lpc_chip_11cxx_lib/inc/clock_11xx.h **** 	SYSCTL_CLOCK_I2C,					/*!< 5: I2C clock, not on LPC110x */
 238:../../lpc11cx4-library/lpc_chip_11cxx_lib/inc/clock_11xx.h **** #endif
 239:../../lpc11cx4-library/lpc_chip_11cxx_lib/inc/clock_11xx.h **** 	SYSCTL_CLOCK_GPIO,					/*!< 6: GPIO clock */
 240:../../lpc11cx4-library/lpc_chip_11cxx_lib/inc/clock_11xx.h **** 	SYSCTL_CLOCK_CT16B0,				/*!< 7: 16-bit Counter/timer 0 clock */
 241:../../lpc11cx4-library/lpc_chip_11cxx_lib/inc/clock_11xx.h **** 	SYSCTL_CLOCK_CT16B1,				/*!< 8: 16-bit Counter/timer 1 clock */
 242:../../lpc11cx4-library/lpc_chip_11cxx_lib/inc/clock_11xx.h **** 	SYSCTL_CLOCK_CT32B0,				/*!< 9: 32-bit Counter/timer 0 clock */
 243:../../lpc11cx4-library/lpc_chip_11cxx_lib/inc/clock_11xx.h **** 	SYSCTL_CLOCK_CT32B1,				/*!< 10: 32-bit Counter/timer 1 clock */
 244:../../lpc11cx4-library/lpc_chip_11cxx_lib/inc/clock_11xx.h **** 	SYSCTL_CLOCK_SSP0,					/*!< 11: SSP0 clock */
 245:../../lpc11cx4-library/lpc_chip_11cxx_lib/inc/clock_11xx.h **** 	SYSCTL_CLOCK_UART0,					/*!< 12: UART0 clock */
 246:../../lpc11cx4-library/lpc_chip_11cxx_lib/inc/clock_11xx.h **** 	SYSCTL_CLOCK_ADC,					/*!< 13: ADC clock */
 247:../../lpc11cx4-library/lpc_chip_11cxx_lib/inc/clock_11xx.h **** #if defined(CHIP_LPC11UXX)
 248:../../lpc11cx4-library/lpc_chip_11cxx_lib/inc/clock_11xx.h **** 	SYSCTL_CLOCK_USB,					/*!< 14: USB clock, LPC11Uxx only */
 249:../../lpc11cx4-library/lpc_chip_11cxx_lib/inc/clock_11xx.h **** #else
 250:../../lpc11cx4-library/lpc_chip_11cxx_lib/inc/clock_11xx.h **** 	SYSCTL_CLOCK_RESERVED14,			/*!< 14: Reserved */
 251:../../lpc11cx4-library/lpc_chip_11cxx_lib/inc/clock_11xx.h **** #endif
 252:../../lpc11cx4-library/lpc_chip_11cxx_lib/inc/clock_11xx.h **** 	SYSCTL_CLOCK_WDT,					/*!< 15: Watchdog timer clock */
 253:../../lpc11cx4-library/lpc_chip_11cxx_lib/inc/clock_11xx.h **** 	SYSCTL_CLOCK_IOCON,					/*!< 16: IOCON block clock */
 254:../../lpc11cx4-library/lpc_chip_11cxx_lib/inc/clock_11xx.h **** #if defined(CHIP_LPC11CXX)
 255:../../lpc11cx4-library/lpc_chip_11cxx_lib/inc/clock_11xx.h **** 	SYSCTL_CLOCK_CAN,					/*!< 17: CAN clock, LPC11Cxx only */
 256:../../lpc11cx4-library/lpc_chip_11cxx_lib/inc/clock_11xx.h **** #else
 257:../../lpc11cx4-library/lpc_chip_11cxx_lib/inc/clock_11xx.h **** 	SYSCTL_CLOCK_RESERVED17,			/*!< 17: Reserved */
 258:../../lpc11cx4-library/lpc_chip_11cxx_lib/inc/clock_11xx.h **** #endif
 259:../../lpc11cx4-library/lpc_chip_11cxx_lib/inc/clock_11xx.h **** #if !(defined(CHIP_LPC110X) || defined(CHIP_LPC11XXLV))  
 260:../../lpc11cx4-library/lpc_chip_11cxx_lib/inc/clock_11xx.h **** 	SYSCTL_CLOCK_SSP1,					/*!< 18: SSP1 clock, LPC11A/C/E/Uxx//1125 only */
 261:../../lpc11cx4-library/lpc_chip_11cxx_lib/inc/clock_11xx.h **** #if !defined(CHIP_LPC11CXX)
 262:../../lpc11cx4-library/lpc_chip_11cxx_lib/inc/clock_11xx.h **** 	SYSCTL_CLOCK_PINT,					/*!< 19: GPIO Pin int register interface clock, LPC11A/E/Uxx only */
 263:../../lpc11cx4-library/lpc_chip_11cxx_lib/inc/clock_11xx.h **** #if defined(CHIP_LPC11AXX)
 264:../../lpc11cx4-library/lpc_chip_11cxx_lib/inc/clock_11xx.h **** 	SYSCTL_CLOCK_ACOMP,					/*!< 20: Analog comparator clock, LPC11Axx only */
 265:../../lpc11cx4-library/lpc_chip_11cxx_lib/inc/clock_11xx.h **** 	SYSCTL_CLOCK_DAC,					/*!< 21: DAC clock, LPC11Axx only */
 266:../../lpc11cx4-library/lpc_chip_11cxx_lib/inc/clock_11xx.h **** #else
 267:../../lpc11cx4-library/lpc_chip_11cxx_lib/inc/clock_11xx.h **** 	SYSCTL_CLOCK_RESERVED20,			/*!< 20: Reserved */
 268:../../lpc11cx4-library/lpc_chip_11cxx_lib/inc/clock_11xx.h **** 	SYSCTL_CLOCK_RESERVED21,			/*!< 21: Reserved */
 269:../../lpc11cx4-library/lpc_chip_11cxx_lib/inc/clock_11xx.h **** #endif
 270:../../lpc11cx4-library/lpc_chip_11cxx_lib/inc/clock_11xx.h **** 	SYSCTL_CLOCK_RESERVED22,			/*!< 22: Reserved */
 271:../../lpc11cx4-library/lpc_chip_11cxx_lib/inc/clock_11xx.h **** 	SYSCTL_CLOCK_P0INT,					/*!< 23: GPIO GROUP1 interrupt register clock, LPC11Axx only */
 272:../../lpc11cx4-library/lpc_chip_11cxx_lib/inc/clock_11xx.h **** 	SYSCTL_CLOCK_GROUP0INT = SYSCTL_CLOCK_P0INT,/*!< 23: GPIO GROUP0 interrupt register interface cloc
 273:../../lpc11cx4-library/lpc_chip_11cxx_lib/inc/clock_11xx.h **** 	SYSCTL_CLOCK_P1INT,					/*!< 24: GPIO GROUP1 interrupt register clock, LPC11Axx only */
 274:../../lpc11cx4-library/lpc_chip_11cxx_lib/inc/clock_11xx.h **** 	SYSCTL_CLOCK_GROUP1INT = SYSCTL_CLOCK_P1INT,/*!< 24: GPIO GROUP1 interrupt register interface cloc
 275:../../lpc11cx4-library/lpc_chip_11cxx_lib/inc/clock_11xx.h **** 	SYSCTL_CLOCK_RESERVED25,			/*!< 25: Reserved */
 276:../../lpc11cx4-library/lpc_chip_11cxx_lib/inc/clock_11xx.h **** #if defined(CHIP_LPC11EXX)  || defined(CHIP_LPC11UXX)
 277:../../lpc11cx4-library/lpc_chip_11cxx_lib/inc/clock_11xx.h **** 	SYSCTL_CLOCK_RAM1,					/*!< 26: SRAM block (0x20000000) clock, LPC11E/Uxx only */
 278:../../lpc11cx4-library/lpc_chip_11cxx_lib/inc/clock_11xx.h **** #else
 279:../../lpc11cx4-library/lpc_chip_11cxx_lib/inc/clock_11xx.h **** 	SYSCTL_CLOCK_RESERVED26,			/*!< 26: Reserved */
ARM GAS  /tmp/ccAFBUIw.s 			page 26


 280:../../lpc11cx4-library/lpc_chip_11cxx_lib/inc/clock_11xx.h **** #endif
 281:../../lpc11cx4-library/lpc_chip_11cxx_lib/inc/clock_11xx.h **** #if defined(CHIP_LPC11UXX)
 282:../../lpc11cx4-library/lpc_chip_11cxx_lib/inc/clock_11xx.h **** 	SYSCTL_CLOCK_USBRAM,				/*!< 27: USB SRAM block clock, LPC11Uxx only */
 283:../../lpc11cx4-library/lpc_chip_11cxx_lib/inc/clock_11xx.h **** #else
 284:../../lpc11cx4-library/lpc_chip_11cxx_lib/inc/clock_11xx.h **** 	SYSCTL_CLOCK_RESERVED27,			/*!< 27: Reserved */
 285:../../lpc11cx4-library/lpc_chip_11cxx_lib/inc/clock_11xx.h **** #endif
 286:../../lpc11cx4-library/lpc_chip_11cxx_lib/inc/clock_11xx.h **** #endif /* !defined(CHIP_LPC11CXX) */
 287:../../lpc11cx4-library/lpc_chip_11cxx_lib/inc/clock_11xx.h **** #endif /* !(defined(CHIP_LPC110X) || defined(CHIP_LPC11XXLV)) */
 288:../../lpc11cx4-library/lpc_chip_11cxx_lib/inc/clock_11xx.h **** } CHIP_SYSCTL_CLOCK_T;
 289:../../lpc11cx4-library/lpc_chip_11cxx_lib/inc/clock_11xx.h **** 
 290:../../lpc11cx4-library/lpc_chip_11cxx_lib/inc/clock_11xx.h **** /**
 291:../../lpc11cx4-library/lpc_chip_11cxx_lib/inc/clock_11xx.h ****  * @brief	Enable a system or peripheral clock
 292:../../lpc11cx4-library/lpc_chip_11cxx_lib/inc/clock_11xx.h ****  * @param	clk	: Clock to enable
 293:../../lpc11cx4-library/lpc_chip_11cxx_lib/inc/clock_11xx.h ****  * @return	Nothing
 294:../../lpc11cx4-library/lpc_chip_11cxx_lib/inc/clock_11xx.h ****  */
 295:../../lpc11cx4-library/lpc_chip_11cxx_lib/inc/clock_11xx.h **** STATIC INLINE void Chip_Clock_EnablePeriphClock(CHIP_SYSCTL_CLOCK_T clk)
 296:../../lpc11cx4-library/lpc_chip_11cxx_lib/inc/clock_11xx.h **** {
 297:../../lpc11cx4-library/lpc_chip_11cxx_lib/inc/clock_11xx.h **** 	LPC_SYSCTL->SYSAHBCLKCTRL |= (1 << clk);
 680              		.loc 2 297 0
 681 0008 064C     		ldr	r4, .L147+4	@ tmp120,
 682              	.LBE85:
 683              	.LBE84:
  79:../../lpc11cx4-library/lpc_chip_11cxx_lib/src/i2c_11xx.c **** }
 684              		.loc 1 79 0
 685 000a 0B18     		add	r3, r1, r0	@ tmp124, tmp121, tmp123
 686              	.LBB89:
 687              	.LBB86:
 688              		.loc 2 297 0
 689 000c 1D79     		ldrb	r5, [r3, #4]	@ D.6756,
 690 000e 0123     		mov	r3, #1	@ tmp127,
 691 0010 AB40     		lsl	r3, r3, r5	@ D.6756, tmp127, D.6756
 692 0012 E26F     		ldr	r2, [r4, #124]	@ D.6754, MEM[(struct LPC_SYSCTL_T *)1074036736B].SYSAHBCLKCTRL
 693              	.LBE86:
 694              	.LBE89:
 695              	.LBE92:
 696              	.LBE95:
 366:../../lpc11cx4-library/lpc_chip_11cxx_lib/src/i2c_11xx.c **** 	enableClk(id);
 367:../../lpc11cx4-library/lpc_chip_11cxx_lib/src/i2c_11xx.c **** 
 368:../../lpc11cx4-library/lpc_chip_11cxx_lib/src/i2c_11xx.c **** 	/* Set I2C operation to default */
 369:../../lpc11cx4-library/lpc_chip_11cxx_lib/src/i2c_11xx.c **** 	LPC_I2Cx(id)->CONCLR = (I2C_CON_AA | I2C_CON_SI | I2C_CON_STA | I2C_CON_I2EN);
 370:../../lpc11cx4-library/lpc_chip_11cxx_lib/src/i2c_11xx.c **** }
 697              		.loc 1 370 0
 698              		@ sp needed	@
 699              	.LBB96:
 700              	.LBB93:
 701              	.LBB90:
 702              	.LBB87:
 703              		.loc 2 297 0
 704 0014 1343     		orr	r3, r2	@ D.6754, D.6754
 705              	.LBE87:
 706              	.LBE90:
 707              	.LBE93:
 708              	.LBE96:
 369:../../lpc11cx4-library/lpc_chip_11cxx_lib/src/i2c_11xx.c **** }
 709              		.loc 1 369 0
 710 0016 6C22     		mov	r2, #108	@ tmp133,
 711              	.LBB97:
ARM GAS  /tmp/ccAFBUIw.s 			page 27


 712              	.LBB94:
 713              	.LBB91:
 714              	.LBB88:
 715              		.loc 2 297 0
 716 0018 E367     		str	r3, [r4, #124]	@ D.6754, MEM[(struct LPC_SYSCTL_T *)1074036736B].SYSAHBCLKCTRL
 717              	.LBE88:
 718              	.LBE91:
 719              	.LBE94:
 720              	.LBE97:
 369:../../lpc11cx4-library/lpc_chip_11cxx_lib/src/i2c_11xx.c **** }
 721              		.loc 1 369 0
 722 001a 4358     		ldr	r3, [r0, r1]	@ D.6755, i2c[_7].ip
 723 001c 9A61     		str	r2, [r3, #24]	@ tmp133, _5->CONCLR
 724              		.loc 1 370 0
 725 001e 30BD     		pop	{r4, r5, pc}
 726              	.L148:
 727              		.align	2
 728              	.L147:
 729 0020 00000000 		.word	.LANCHOR0
 730 0024 04800440 		.word	1074036740
 731              		.cfi_endproc
 732              	.LFE214:
 733              		.size	Chip_I2C_Init, .-Chip_I2C_Init
 734              		.section	.text.Chip_I2C_DeInit,"ax",%progbits
 735              		.align	1
 736              		.global	Chip_I2C_DeInit
 737              		.code	16
 738              		.thumb_func
 739              		.type	Chip_I2C_DeInit, %function
 740              	Chip_I2C_DeInit:
 741              	.LFB215:
 371:../../lpc11cx4-library/lpc_chip_11cxx_lib/src/i2c_11xx.c **** 
 372:../../lpc11cx4-library/lpc_chip_11cxx_lib/src/i2c_11xx.c **** /* De-initializes the I2C peripheral registers to their default reset values */
 373:../../lpc11cx4-library/lpc_chip_11cxx_lib/src/i2c_11xx.c **** void Chip_I2C_DeInit(I2C_ID_T id)
 374:../../lpc11cx4-library/lpc_chip_11cxx_lib/src/i2c_11xx.c **** {
 742              		.loc 1 374 0
 743              		.cfi_startproc
 744              	.LVL44:
 375:../../lpc11cx4-library/lpc_chip_11cxx_lib/src/i2c_11xx.c **** 	/* Disable I2C control */
 376:../../lpc11cx4-library/lpc_chip_11cxx_lib/src/i2c_11xx.c **** 	LPC_I2Cx(id)->CONCLR = I2C_CON_I2EN | I2C_CON_SI | I2C_CON_STO | I2C_CON_STA | I2C_CON_AA;
 745              		.loc 1 376 0
 746 0000 1C23     		mov	r3, #28	@ tmp121,
 747 0002 5843     		mul	r0, r3	@ tmp122, tmp121
 748              	.LVL45:
 749 0004 7C21     		mov	r1, #124	@ tmp123,
 750 0006 064A     		ldr	r2, .L150	@ tmp120,
 377:../../lpc11cx4-library/lpc_chip_11cxx_lib/src/i2c_11xx.c **** 
 378:../../lpc11cx4-library/lpc_chip_11cxx_lib/src/i2c_11xx.c **** 	disableClk(id);
 379:../../lpc11cx4-library/lpc_chip_11cxx_lib/src/i2c_11xx.c **** }
 751              		.loc 1 379 0
 752              		@ sp needed	@
 376:../../lpc11cx4-library/lpc_chip_11cxx_lib/src/i2c_11xx.c **** 
 753              		.loc 1 376 0
 754 0008 8358     		ldr	r3, [r0, r2]	@ D.6764, i2c[_2].ip
 755              	.LBB102:
 756              	.LBB103:
  84:../../lpc11cx4-library/lpc_chip_11cxx_lib/src/i2c_11xx.c **** }
ARM GAS  /tmp/ccAFBUIw.s 			page 28


 757              		.loc 1 84 0
 758 000a 1018     		add	r0, r2, r0	@ tmp129, tmp120, tmp122
 759              	.LBB104:
 760              	.LBB105:
 298:../../lpc11cx4-library/lpc_chip_11cxx_lib/inc/clock_11xx.h **** }
 299:../../lpc11cx4-library/lpc_chip_11cxx_lib/inc/clock_11xx.h **** 
 300:../../lpc11cx4-library/lpc_chip_11cxx_lib/inc/clock_11xx.h **** /**
 301:../../lpc11cx4-library/lpc_chip_11cxx_lib/inc/clock_11xx.h ****  * @brief	Disable a system or peripheral clock
 302:../../lpc11cx4-library/lpc_chip_11cxx_lib/inc/clock_11xx.h ****  * @param	clk	: Clock to disable
 303:../../lpc11cx4-library/lpc_chip_11cxx_lib/inc/clock_11xx.h ****  * @return	Nothing
 304:../../lpc11cx4-library/lpc_chip_11cxx_lib/inc/clock_11xx.h ****  */
 305:../../lpc11cx4-library/lpc_chip_11cxx_lib/inc/clock_11xx.h **** STATIC INLINE void Chip_Clock_DisablePeriphClock(CHIP_SYSCTL_CLOCK_T clk)
 306:../../lpc11cx4-library/lpc_chip_11cxx_lib/inc/clock_11xx.h **** {
 307:../../lpc11cx4-library/lpc_chip_11cxx_lib/inc/clock_11xx.h **** 	LPC_SYSCTL->SYSAHBCLKCTRL &= ~(1 << clk);
 761              		.loc 2 307 0
 762 000c 0122     		mov	r2, #1	@ tmp132,
 763              	.LBE105:
 764              	.LBE104:
 765              	.LBE103:
 766              	.LBE102:
 376:../../lpc11cx4-library/lpc_chip_11cxx_lib/src/i2c_11xx.c **** 
 767              		.loc 1 376 0
 768 000e 9961     		str	r1, [r3, #24]	@ tmp123, _4->CONCLR
 769              	.LVL46:
 770              	.LBB109:
 771              	.LBB108:
 772              	.LBB107:
 773              	.LBB106:
 774              		.loc 2 307 0
 775 0010 0079     		ldrb	r0, [r0, #4]	@ D.6763,
 776 0012 0449     		ldr	r1, .L150+4	@ tmp125,
 777 0014 8240     		lsl	r2, r2, r0	@ D.6763, tmp132, D.6763
 778 0016 CB6F     		ldr	r3, [r1, #124]	@ D.6765, MEM[(struct LPC_SYSCTL_T *)1074036736B].SYSAHBCLKCTRL
 779 0018 9343     		bic	r3, r2	@ D.6765, D.6763
 780 001a CB67     		str	r3, [r1, #124]	@ D.6765, MEM[(struct LPC_SYSCTL_T *)1074036736B].SYSAHBCLKCTRL
 781              	.LBE106:
 782              	.LBE107:
 783              	.LBE108:
 784              	.LBE109:
 785              		.loc 1 379 0
 786 001c 7047     		bx	lr
 787              	.L151:
 788 001e C046     		.align	2
 789              	.L150:
 790 0020 00000000 		.word	.LANCHOR0
 791 0024 04800440 		.word	1074036740
 792              		.cfi_endproc
 793              	.LFE215:
 794              		.size	Chip_I2C_DeInit, .-Chip_I2C_DeInit
 795              		.global	__aeabi_uidiv
 796              		.section	.text.Chip_I2C_SetClockRate,"ax",%progbits
 797              		.align	1
 798              		.global	Chip_I2C_SetClockRate
 799              		.code	16
 800              		.thumb_func
 801              		.type	Chip_I2C_SetClockRate, %function
 802              	Chip_I2C_SetClockRate:
ARM GAS  /tmp/ccAFBUIw.s 			page 29


 803              	.LFB216:
 380:../../lpc11cx4-library/lpc_chip_11cxx_lib/src/i2c_11xx.c **** 
 381:../../lpc11cx4-library/lpc_chip_11cxx_lib/src/i2c_11xx.c **** /* Set up clock rate for LPC_I2C peripheral */
 382:../../lpc11cx4-library/lpc_chip_11cxx_lib/src/i2c_11xx.c **** void Chip_I2C_SetClockRate(I2C_ID_T id, uint32_t clockrate)
 383:../../lpc11cx4-library/lpc_chip_11cxx_lib/src/i2c_11xx.c **** {
 804              		.loc 1 383 0
 805              		.cfi_startproc
 806              	.LVL47:
 807 0000 38B5     		push	{r3, r4, r5, lr}	@
 808              		.cfi_def_cfa_offset 16
 809              		.cfi_offset 3, -16
 810              		.cfi_offset 4, -12
 811              		.cfi_offset 5, -8
 812              		.cfi_offset 14, -4
 813              		.loc 1 383 0
 814 0002 0D1C     		mov	r5, r1	@ clockrate, clockrate
 815 0004 041C     		mov	r4, r0	@ id, id
 816              	.LBB110:
 817              	.LBB111:
  90:../../lpc11cx4-library/lpc_chip_11cxx_lib/src/i2c_11xx.c **** }
 818              		.loc 1 90 0
 819 0006 FFF7FEFF 		bl	Chip_Clock_GetMainClockRate	@
 820              	.LVL48:
 821              	.LBE111:
 822              	.LBE110:
 384:../../lpc11cx4-library/lpc_chip_11cxx_lib/src/i2c_11xx.c **** 	uint32_t SCLValue;
 385:../../lpc11cx4-library/lpc_chip_11cxx_lib/src/i2c_11xx.c **** 
 386:../../lpc11cx4-library/lpc_chip_11cxx_lib/src/i2c_11xx.c **** 	SCLValue = (getClkRate() / clockrate);
 823              		.loc 1 386 0
 824 000a 291C     		mov	r1, r5	@, clockrate
 825 000c FFF7FEFF 		bl	__aeabi_uidiv	@
 826              	.LVL49:
 387:../../lpc11cx4-library/lpc_chip_11cxx_lib/src/i2c_11xx.c **** 	LPC_I2Cx(id)->SCLH = (uint32_t) (SCLValue >> 1);
 827              		.loc 1 387 0
 828 0010 1C23     		mov	r3, #28	@ tmp123,
 829 0012 6343     		mul	r3, r4	@ tmp124, id
 830 0014 034A     		ldr	r2, .L153	@ tmp122,
 388:../../lpc11cx4-library/lpc_chip_11cxx_lib/src/i2c_11xx.c **** 	LPC_I2Cx(id)->SCLL = (uint32_t) (SCLValue - LPC_I2Cx(id)->SCLH);
 389:../../lpc11cx4-library/lpc_chip_11cxx_lib/src/i2c_11xx.c **** }
 831              		.loc 1 389 0
 832              		@ sp needed	@
 387:../../lpc11cx4-library/lpc_chip_11cxx_lib/src/i2c_11xx.c **** 	LPC_I2Cx(id)->SCLH = (uint32_t) (SCLValue >> 1);
 833              		.loc 1 387 0
 834 0016 9B58     		ldr	r3, [r3, r2]	@ D.6771, i2c[_6].ip
 835 0018 4208     		lsr	r2, r0, #1	@ D.6772, tmp121,
 836 001a 1A61     		str	r2, [r3, #16]	@ D.6772, _7->SCLH
 388:../../lpc11cx4-library/lpc_chip_11cxx_lib/src/i2c_11xx.c **** 	LPC_I2Cx(id)->SCLL = (uint32_t) (SCLValue - LPC_I2Cx(id)->SCLH);
 837              		.loc 1 388 0
 838 001c 1A69     		ldr	r2, [r3, #16]	@ D.6772, _7->SCLH
 839 001e 801A     		sub	r0, r0, r2	@ D.6772, tmp121, D.6772
 840              	.LVL50:
 841 0020 5861     		str	r0, [r3, #20]	@ D.6772, _7->SCLL
 842              	.LVL51:
 843              		.loc 1 389 0
 844 0022 38BD     		pop	{r3, r4, r5, pc}
 845              	.L154:
 846              		.align	2
ARM GAS  /tmp/ccAFBUIw.s 			page 30


 847              	.L153:
 848 0024 00000000 		.word	.LANCHOR0
 849              		.cfi_endproc
 850              	.LFE216:
 851              		.size	Chip_I2C_SetClockRate, .-Chip_I2C_SetClockRate
 852              		.section	.text.Chip_I2C_GetClockRate,"ax",%progbits
 853              		.align	1
 854              		.global	Chip_I2C_GetClockRate
 855              		.code	16
 856              		.thumb_func
 857              		.type	Chip_I2C_GetClockRate, %function
 858              	Chip_I2C_GetClockRate:
 859              	.LFB217:
 390:../../lpc11cx4-library/lpc_chip_11cxx_lib/src/i2c_11xx.c **** 
 391:../../lpc11cx4-library/lpc_chip_11cxx_lib/src/i2c_11xx.c **** /* Get current clock rate for LPC_I2C peripheral */
 392:../../lpc11cx4-library/lpc_chip_11cxx_lib/src/i2c_11xx.c **** uint32_t Chip_I2C_GetClockRate(I2C_ID_T id)
 393:../../lpc11cx4-library/lpc_chip_11cxx_lib/src/i2c_11xx.c **** {
 860              		.loc 1 393 0
 861              		.cfi_startproc
 862              	.LVL52:
 863 0000 10B5     		push	{r4, lr}	@
 864              		.cfi_def_cfa_offset 8
 865              		.cfi_offset 4, -8
 866              		.cfi_offset 14, -4
 867              		.loc 1 393 0
 868 0002 041C     		mov	r4, r0	@ id, id
 869              	.LBB112:
 870              	.LBB113:
  90:../../lpc11cx4-library/lpc_chip_11cxx_lib/src/i2c_11xx.c **** }
 871              		.loc 1 90 0
 872 0004 FFF7FEFF 		bl	Chip_Clock_GetMainClockRate	@
 873              	.LVL53:
 874              	.LBE113:
 875              	.LBE112:
 394:../../lpc11cx4-library/lpc_chip_11cxx_lib/src/i2c_11xx.c **** 	return getClkRate() / (LPC_I2Cx(id)->SCLH + LPC_I2Cx(id)->SCLL);
 876              		.loc 1 394 0
 877 0008 1C23     		mov	r3, #28	@ tmp120,
 878 000a 6343     		mul	r3, r4	@ tmp121, id
 879 000c 034A     		ldr	r2, .L156	@ tmp119,
 395:../../lpc11cx4-library/lpc_chip_11cxx_lib/src/i2c_11xx.c **** }
 880              		.loc 1 395 0
 881              		@ sp needed	@
 394:../../lpc11cx4-library/lpc_chip_11cxx_lib/src/i2c_11xx.c **** 	return getClkRate() / (LPC_I2Cx(id)->SCLH + LPC_I2Cx(id)->SCLL);
 882              		.loc 1 394 0
 883 000e 9A58     		ldr	r2, [r3, r2]	@ D.6778, i2c[_4].ip
 884 0010 1369     		ldr	r3, [r2, #16]	@ D.6779, _5->SCLH
 885 0012 5169     		ldr	r1, [r2, #20]	@ D.6779, _5->SCLL
 886 0014 C918     		add	r1, r1, r3	@ D.6779, D.6779, D.6779
 887 0016 FFF7FEFF 		bl	__aeabi_uidiv	@
 888              	.LVL54:
 889              		.loc 1 395 0
 890 001a 10BD     		pop	{r4, pc}
 891              	.L157:
 892              		.align	2
 893              	.L156:
 894 001c 00000000 		.word	.LANCHOR0
 895              		.cfi_endproc
ARM GAS  /tmp/ccAFBUIw.s 			page 31


 896              	.LFE217:
 897              		.size	Chip_I2C_GetClockRate, .-Chip_I2C_GetClockRate
 898              		.section	.text.Chip_I2C_SetMasterEventHandler,"ax",%progbits
 899              		.align	1
 900              		.global	Chip_I2C_SetMasterEventHandler
 901              		.code	16
 902              		.thumb_func
 903              		.type	Chip_I2C_SetMasterEventHandler, %function
 904              	Chip_I2C_SetMasterEventHandler:
 905              	.LFB218:
 396:../../lpc11cx4-library/lpc_chip_11cxx_lib/src/i2c_11xx.c **** 
 397:../../lpc11cx4-library/lpc_chip_11cxx_lib/src/i2c_11xx.c **** /* Set the master event handler */
 398:../../lpc11cx4-library/lpc_chip_11cxx_lib/src/i2c_11xx.c **** int Chip_I2C_SetMasterEventHandler(I2C_ID_T id, I2C_EVENTHANDLER_T event)
 399:../../lpc11cx4-library/lpc_chip_11cxx_lib/src/i2c_11xx.c **** {
 906              		.loc 1 399 0
 907              		.cfi_startproc
 908              	.LVL55:
 400:../../lpc11cx4-library/lpc_chip_11cxx_lib/src/i2c_11xx.c **** 	struct i2c_interface *iic = &i2c[id];
 401:../../lpc11cx4-library/lpc_chip_11cxx_lib/src/i2c_11xx.c **** 	if (!iic->mXfer) {
 909              		.loc 1 401 0
 910 0000 1C23     		mov	r3, #28	@ tmp119,
 399:../../lpc11cx4-library/lpc_chip_11cxx_lib/src/i2c_11xx.c **** 	struct i2c_interface *iic = &i2c[id];
 911              		.loc 1 399 0
 912 0002 30B5     		push	{r4, r5, lr}	@
 913              		.cfi_def_cfa_offset 12
 914              		.cfi_offset 4, -12
 915              		.cfi_offset 5, -8
 916              		.cfi_offset 14, -4
 917              		.loc 1 401 0
 918 0004 1C1C     		mov	r4, r3	@ tmp120, tmp119
 919 0006 4443     		mul	r4, r0	@ tmp120, id
 920 0008 064A     		ldr	r2, .L160	@ tmp118,
 921 000a 1419     		add	r4, r2, r4	@ tmp121, tmp118, tmp120
 922 000c 2569     		ldr	r5, [r4, #16]	@ tmp145, MEM[(struct i2c_interface *)&i2c][_3].mXfer
 923 000e 002D     		cmp	r5, #0	@ tmp145,
 924 0010 00D1     		bne	.L159	@,
 402:../../lpc11cx4-library/lpc_chip_11cxx_lib/src/i2c_11xx.c **** 		iic->mEvent = event;
 925              		.loc 1 402 0
 926 0012 A160     		str	r1, [r4, #8]	@ event, MEM[(struct i2c_interface *)&i2c][_3].mEvent
 927              	.L159:
 403:../../lpc11cx4-library/lpc_chip_11cxx_lib/src/i2c_11xx.c **** 	}
 404:../../lpc11cx4-library/lpc_chip_11cxx_lib/src/i2c_11xx.c **** 	return iic->mEvent == event;
 928              		.loc 1 404 0
 929 0014 5843     		mul	r0, r3	@ tmp132, tmp141
 930              	.LVL56:
 931 0016 1318     		add	r3, r2, r0	@ tmp133, tmp140, tmp132
 932 0018 9B68     		ldr	r3, [r3, #8]	@ MEM[(struct i2c_interface *)&i2c][_3].mEvent, MEM[(struct i2c_interface *)&i2c]
 405:../../lpc11cx4-library/lpc_chip_11cxx_lib/src/i2c_11xx.c **** }
 933              		.loc 1 405 0
 934              		@ sp needed	@
 404:../../lpc11cx4-library/lpc_chip_11cxx_lib/src/i2c_11xx.c **** }
 935              		.loc 1 404 0
 936 001a 581A     		sub	r0, r3, r1	@ tmp138, MEM[(struct i2c_interface *)&i2c][_3].mEvent, event
 937 001c 4342     		neg	r3, r0	@ D.6787, tmp138
 938 001e 4341     		adc	r3, r3, r0	@ D.6787, tmp138
 939              	.LVL57:
 940              		.loc 1 405 0
ARM GAS  /tmp/ccAFBUIw.s 			page 32


 941 0020 181C     		mov	r0, r3	@, D.6787
 942 0022 30BD     		pop	{r4, r5, pc}
 943              	.L161:
 944              		.align	2
 945              	.L160:
 946 0024 00000000 		.word	.LANCHOR0
 947              		.cfi_endproc
 948              	.LFE218:
 949              		.size	Chip_I2C_SetMasterEventHandler, .-Chip_I2C_SetMasterEventHandler
 950              		.section	.text.Chip_I2C_GetMasterEventHandler,"ax",%progbits
 951              		.align	1
 952              		.global	Chip_I2C_GetMasterEventHandler
 953              		.code	16
 954              		.thumb_func
 955              		.type	Chip_I2C_GetMasterEventHandler, %function
 956              	Chip_I2C_GetMasterEventHandler:
 957              	.LFB219:
 406:../../lpc11cx4-library/lpc_chip_11cxx_lib/src/i2c_11xx.c **** 
 407:../../lpc11cx4-library/lpc_chip_11cxx_lib/src/i2c_11xx.c **** /* Get the master event handler */
 408:../../lpc11cx4-library/lpc_chip_11cxx_lib/src/i2c_11xx.c **** I2C_EVENTHANDLER_T Chip_I2C_GetMasterEventHandler(I2C_ID_T id)
 409:../../lpc11cx4-library/lpc_chip_11cxx_lib/src/i2c_11xx.c **** {
 958              		.loc 1 409 0
 959              		.cfi_startproc
 960              	.LVL58:
 410:../../lpc11cx4-library/lpc_chip_11cxx_lib/src/i2c_11xx.c **** 	return i2c[id].mEvent;
 961              		.loc 1 410 0
 962 0000 1C23     		mov	r3, #28	@ tmp116,
 963 0002 5843     		mul	r0, r3	@ tmp117, tmp116
 964              	.LVL59:
 965 0004 014B     		ldr	r3, .L163	@ tmp115,
 411:../../lpc11cx4-library/lpc_chip_11cxx_lib/src/i2c_11xx.c **** }
 966              		.loc 1 411 0
 967              		@ sp needed	@
 410:../../lpc11cx4-library/lpc_chip_11cxx_lib/src/i2c_11xx.c **** 	return i2c[id].mEvent;
 968              		.loc 1 410 0
 969 0006 1818     		add	r0, r3, r0	@ tmp118, tmp115, tmp117
 970 0008 8068     		ldr	r0, [r0, #8]	@ i2c[_2].mEvent, i2c[_2].mEvent
 971              		.loc 1 411 0
 972 000a 7047     		bx	lr
 973              	.L164:
 974              		.align	2
 975              	.L163:
 976 000c 00000000 		.word	.LANCHOR0
 977              		.cfi_endproc
 978              	.LFE219:
 979              		.size	Chip_I2C_GetMasterEventHandler, .-Chip_I2C_GetMasterEventHandler
 980              		.section	.text.Chip_I2C_MasterTransfer,"ax",%progbits
 981              		.align	1
 982              		.global	Chip_I2C_MasterTransfer
 983              		.code	16
 984              		.thumb_func
 985              		.type	Chip_I2C_MasterTransfer, %function
 986              	Chip_I2C_MasterTransfer:
 987              	.LFB220:
 412:../../lpc11cx4-library/lpc_chip_11cxx_lib/src/i2c_11xx.c **** 
 413:../../lpc11cx4-library/lpc_chip_11cxx_lib/src/i2c_11xx.c **** /* Transmit and Receive data in master mode */
 414:../../lpc11cx4-library/lpc_chip_11cxx_lib/src/i2c_11xx.c **** int Chip_I2C_MasterTransfer(I2C_ID_T id, I2C_XFER_T *xfer)
ARM GAS  /tmp/ccAFBUIw.s 			page 33


 415:../../lpc11cx4-library/lpc_chip_11cxx_lib/src/i2c_11xx.c **** {
 988              		.loc 1 415 0
 989              		.cfi_startproc
 990              	.LVL60:
 416:../../lpc11cx4-library/lpc_chip_11cxx_lib/src/i2c_11xx.c **** 	struct i2c_interface *iic = &i2c[id];
 417:../../lpc11cx4-library/lpc_chip_11cxx_lib/src/i2c_11xx.c **** 
 418:../../lpc11cx4-library/lpc_chip_11cxx_lib/src/i2c_11xx.c **** 	iic->mEvent(id, I2C_EVENT_LOCK);
 991              		.loc 1 418 0
 992 0000 1C23     		mov	r3, #28	@ tmp127,
 415:../../lpc11cx4-library/lpc_chip_11cxx_lib/src/i2c_11xx.c **** 	struct i2c_interface *iic = &i2c[id];
 993              		.loc 1 415 0
 994 0002 F7B5     		push	{r0, r1, r2, r4, r5, r6, r7, lr}	@
 995              		.cfi_def_cfa_offset 32
 996              		.cfi_offset 0, -32
 997              		.cfi_offset 1, -28
 998              		.cfi_offset 2, -24
 999              		.cfi_offset 4, -20
 1000              		.cfi_offset 5, -16
 1001              		.cfi_offset 6, -12
 1002              		.cfi_offset 7, -8
 1003              		.cfi_offset 14, -4
 1004              		.loc 1 418 0
 1005 0004 4343     		mul	r3, r0	@ tmp128, id
 1006 0006 1C4C     		ldr	r4, .L172	@ tmp126,
 415:../../lpc11cx4-library/lpc_chip_11cxx_lib/src/i2c_11xx.c **** 	struct i2c_interface *iic = &i2c[id];
 1007              		.loc 1 415 0
 1008 0008 0E1C     		mov	r6, r1	@ xfer, xfer
 1009              		.loc 1 418 0
 1010 000a E718     		add	r7, r4, r3	@ tmp129, tmp126, tmp128
 1011 000c 0193     		str	r3, [sp, #4]	@ tmp128, %sfp
 1012 000e 0321     		mov	r1, #3	@,
 1013              	.LVL61:
 1014 0010 BB68     		ldr	r3, [r7, #8]	@ tmp189, MEM[(struct i2c_interface *)&i2c][_5].mEvent
 415:../../lpc11cx4-library/lpc_chip_11cxx_lib/src/i2c_11xx.c **** 	struct i2c_interface *iic = &i2c[id];
 1015              		.loc 1 415 0
 1016 0012 051C     		mov	r5, r0	@ id, id
 1017              		.loc 1 418 0
 1018 0014 9847     		blx	r3	@ tmp189
 1019              	.LVL62:
 419:../../lpc11cx4-library/lpc_chip_11cxx_lib/src/i2c_11xx.c **** 	xfer->status = I2C_STATUS_BUSY;
 1020              		.loc 1 419 0
 1021 0016 0423     		mov	r3, #4	@ tmp132,
 1022 0018 3375     		strb	r3, [r6, #20]	@ tmp132, xfer_9(D)->status
 420:../../lpc11cx4-library/lpc_chip_11cxx_lib/src/i2c_11xx.c **** 	iic->mXfer = xfer;
 421:../../lpc11cx4-library/lpc_chip_11cxx_lib/src/i2c_11xx.c **** 
 422:../../lpc11cx4-library/lpc_chip_11cxx_lib/src/i2c_11xx.c **** 	/* If slave xfer not in progress */
 423:../../lpc11cx4-library/lpc_chip_11cxx_lib/src/i2c_11xx.c **** 	if (!iic->sXfer) {
 1023              		.loc 1 423 0
 1024 001a 7B69     		ldr	r3, [r7, #20]	@ MEM[(struct i2c_interface *)&i2c][_5].sXfer, MEM[(struct i2c_interface *)&i2c]
 420:../../lpc11cx4-library/lpc_chip_11cxx_lib/src/i2c_11xx.c **** 	iic->mXfer = xfer;
 1025              		.loc 1 420 0
 1026 001c 3E61     		str	r6, [r7, #16]	@ xfer, MEM[(struct i2c_interface *)&i2c][_5].mXfer
 1027              		.loc 1 423 0
 1028 001e 002B     		cmp	r3, #0	@ MEM[(struct i2c_interface *)&i2c][_5].sXfer,
 1029 0020 05D1     		bne	.L166	@,
 1030              	.LBB114:
 1031              	.LBB115:
ARM GAS  /tmp/ccAFBUIw.s 			page 34


  97:../../lpc11cx4-library/lpc_chip_11cxx_lib/src/i2c_11xx.c **** 
 1032              		.loc 1 97 0
 1033 0022 3C22     		mov	r2, #60	@ tmp148,
 1034              	.LBE115:
 1035              	.LBE114:
 424:../../lpc11cx4-library/lpc_chip_11cxx_lib/src/i2c_11xx.c **** 		startMasterXfer(iic->ip);
 1036              		.loc 1 424 0
 1037 0024 019B     		ldr	r3, [sp, #4]	@ tmp128, %sfp
 1038 0026 1B59     		ldr	r3, [r3, r4]	@ D.6799, MEM[(struct i2c_interface *)&i2c][_5].ip
 1039              	.LVL63:
 1040              	.LBB117:
 1041              	.LBB116:
  97:../../lpc11cx4-library/lpc_chip_11cxx_lib/src/i2c_11xx.c **** 
 1042              		.loc 1 97 0
 1043 0028 9A61     		str	r2, [r3, #24]	@ tmp148, _13->CONCLR
 100:../../lpc11cx4-library/lpc_chip_11cxx_lib/src/i2c_11xx.c **** }
 1044              		.loc 1 100 0
 1045 002a 2432     		add	r2, r2, #36	@ tmp149,
 1046 002c 1A60     		str	r2, [r3]	@ tmp149, _13->CONSET
 1047              	.LVL64:
 1048              	.L166:
 1049              	.LBE116:
 1050              	.LBE117:
 425:../../lpc11cx4-library/lpc_chip_11cxx_lib/src/i2c_11xx.c **** 	}
 426:../../lpc11cx4-library/lpc_chip_11cxx_lib/src/i2c_11xx.c **** 	iic->mEvent(id, I2C_EVENT_WAIT);
 1051              		.loc 1 426 0
 1052 002e 1C23     		mov	r3, #28	@ tmp151,
 1053 0030 6B43     		mul	r3, r5	@ tmp152, id
 1054 0032 E718     		add	r7, r4, r3	@ tmp153, tmp184, tmp152
 1055 0034 0193     		str	r3, [sp, #4]	@ tmp152, %sfp
 1056 0036 281C     		mov	r0, r5	@, id
 1057 0038 BB68     		ldr	r3, [r7, #8]	@ tmp194, MEM[(struct i2c_interface *)&i2c][_5].mEvent
 1058 003a 0121     		mov	r1, #1	@,
 1059 003c 9847     		blx	r3	@ tmp194
 1060              	.LVL65:
 427:../../lpc11cx4-library/lpc_chip_11cxx_lib/src/i2c_11xx.c **** 	iic->mXfer = 0;
 1061              		.loc 1 427 0
 1062 003e 0023     		mov	r3, #0	@ tmp161,
 1063 0040 3B61     		str	r3, [r7, #16]	@ tmp161, MEM[(struct i2c_interface *)&i2c][_5].mXfer
 428:../../lpc11cx4-library/lpc_chip_11cxx_lib/src/i2c_11xx.c **** 
 429:../../lpc11cx4-library/lpc_chip_11cxx_lib/src/i2c_11xx.c **** 	/* Wait for stop condition to appear on bus */
 430:../../lpc11cx4-library/lpc_chip_11cxx_lib/src/i2c_11xx.c **** 	while (!isI2CBusFree(iic->ip)) {}
 1064              		.loc 1 430 0
 1065 0042 019B     		ldr	r3, [sp, #4]	@ tmp152, %sfp
 1066 0044 E258     		ldr	r2, [r4, r3]	@ D.6799, MEM[(struct i2c_interface *)&i2c][_5].ip
 1067              	.L167:
 1068              	.LVL66:
 1069              	.LBB118:
 1070              	.LBB119:
 116:../../lpc11cx4-library/lpc_chip_11cxx_lib/src/i2c_11xx.c **** }
 1071              		.loc 1 116 0 discriminator 1
 1072 0046 1368     		ldr	r3, [r2]	@ D.6800, _18->CONSET
 1073              	.LBE119:
 1074              	.LBE118:
 1075              		.loc 1 430 0 discriminator 1
 1076 0048 DB06     		lsl	r3, r3, #27	@ tmp186, D.6800,
 1077 004a FCD4     		bmi	.L167	@,
ARM GAS  /tmp/ccAFBUIw.s 			page 35


 431:../../lpc11cx4-library/lpc_chip_11cxx_lib/src/i2c_11xx.c **** 
 432:../../lpc11cx4-library/lpc_chip_11cxx_lib/src/i2c_11xx.c **** 	/* Start slave if one is active */
 433:../../lpc11cx4-library/lpc_chip_11cxx_lib/src/i2c_11xx.c **** 	if (SLAVE_ACTIVE(iic)) {
 1078              		.loc 1 433 0
 1079 004c 1C23     		mov	r3, #28	@ tmp168,
 1080 004e 6B43     		mul	r3, r5	@ tmp169, id
 1081 0050 E318     		add	r3, r4, r3	@ tmp170, tmp184, tmp169
 1082 0052 9969     		ldr	r1, [r3, #24]	@ MEM[(struct i2c_interface *)&i2c][_5].flags, MEM[(struct i2c_interface *)&i2c]
 1083 0054 FF23     		mov	r3, #255	@ tmp174,
 1084 0056 1B02     		lsl	r3, r3, #8	@ tmp174, tmp174,
 1085 0058 1942     		tst	r1, r3	@ MEM[(struct i2c_interface *)&i2c][_5].flags, tmp174
 1086 005a 03D0     		beq	.L168	@,
 1087              	.LVL67:
 1088              	.LBB120:
 1089              	.LBB121:
 107:../../lpc11cx4-library/lpc_chip_11cxx_lib/src/i2c_11xx.c **** 
 1090              		.loc 1 107 0
 1091 005c 3823     		mov	r3, #56	@ tmp175,
 1092 005e 9361     		str	r3, [r2, #24]	@ tmp175, _18->CONCLR
 110:../../lpc11cx4-library/lpc_chip_11cxx_lib/src/i2c_11xx.c **** }
 1093              		.loc 1 110 0
 1094 0060 0C33     		add	r3, r3, #12	@ tmp176,
 1095 0062 1360     		str	r3, [r2]	@ tmp176, _18->CONSET
 1096              	.LVL68:
 1097              	.L168:
 1098              	.LBE121:
 1099              	.LBE120:
 434:../../lpc11cx4-library/lpc_chip_11cxx_lib/src/i2c_11xx.c **** 		startSlaverXfer(iic->ip);
 435:../../lpc11cx4-library/lpc_chip_11cxx_lib/src/i2c_11xx.c **** 	}
 436:../../lpc11cx4-library/lpc_chip_11cxx_lib/src/i2c_11xx.c **** 
 437:../../lpc11cx4-library/lpc_chip_11cxx_lib/src/i2c_11xx.c **** 	iic->mEvent(id, I2C_EVENT_UNLOCK);
 1100              		.loc 1 437 0
 1101 0064 1C23     		mov	r3, #28	@ tmp178,
 1102 0066 6B43     		mul	r3, r5	@ tmp179, id
 1103 0068 E418     		add	r4, r4, r3	@ tmp180, tmp184, tmp179
 1104 006a 281C     		mov	r0, r5	@, id
 1105 006c A368     		ldr	r3, [r4, #8]	@ MEM[(struct i2c_interface *)&i2c][_5].mEvent, MEM[(struct i2c_interface *)&i2c]
 1106 006e 0421     		mov	r1, #4	@,
 1107 0070 9847     		blx	r3	@ MEM[(struct i2c_interface *)&i2c][_5].mEvent
 1108              	.LVL69:
 438:../../lpc11cx4-library/lpc_chip_11cxx_lib/src/i2c_11xx.c **** 	return (int) xfer->status;
 439:../../lpc11cx4-library/lpc_chip_11cxx_lib/src/i2c_11xx.c **** }
 1109              		.loc 1 439 0
 1110              		@ sp needed	@
 438:../../lpc11cx4-library/lpc_chip_11cxx_lib/src/i2c_11xx.c **** 	return (int) xfer->status;
 1111              		.loc 1 438 0
 1112 0072 307D     		ldrb	r0, [r6, #20]	@ D.6796,
 1113              	.LVL70:
 1114              	.LVL71:
 1115              		.loc 1 439 0
 1116 0074 FEBD     		pop	{r1, r2, r3, r4, r5, r6, r7, pc}
 1117              	.L173:
 1118 0076 C046     		.align	2
 1119              	.L172:
 1120 0078 00000000 		.word	.LANCHOR0
 1121              		.cfi_endproc
 1122              	.LFE220:
ARM GAS  /tmp/ccAFBUIw.s 			page 36


 1123              		.size	Chip_I2C_MasterTransfer, .-Chip_I2C_MasterTransfer
 1124              		.section	.text.Chip_I2C_MasterSend,"ax",%progbits
 1125              		.align	1
 1126              		.global	Chip_I2C_MasterSend
 1127              		.code	16
 1128              		.thumb_func
 1129              		.type	Chip_I2C_MasterSend, %function
 1130              	Chip_I2C_MasterSend:
 1131              	.LFB221:
 440:../../lpc11cx4-library/lpc_chip_11cxx_lib/src/i2c_11xx.c **** 
 441:../../lpc11cx4-library/lpc_chip_11cxx_lib/src/i2c_11xx.c **** /* Master tx only */
 442:../../lpc11cx4-library/lpc_chip_11cxx_lib/src/i2c_11xx.c **** int Chip_I2C_MasterSend(I2C_ID_T id, uint8_t slaveAddr, const uint8_t *buff, uint8_t len)
 443:../../lpc11cx4-library/lpc_chip_11cxx_lib/src/i2c_11xx.c **** {
 1132              		.loc 1 443 0
 1133              		.cfi_startproc
 1134              	.LVL72:
 1135 0000 30B5     		push	{r4, r5, lr}	@
 1136              		.cfi_def_cfa_offset 12
 1137              		.cfi_offset 4, -12
 1138              		.cfi_offset 5, -8
 1139              		.cfi_offset 14, -4
 1140 0002 87B0     		sub	sp, sp, #28	@,,
 1141              		.cfi_def_cfa_offset 40
 1142              		.loc 1 443 0
 1143 0004 1C1C     		mov	r4, r3	@ len, len
 444:../../lpc11cx4-library/lpc_chip_11cxx_lib/src/i2c_11xx.c **** 	I2C_XFER_T xfer;
 445:../../lpc11cx4-library/lpc_chip_11cxx_lib/src/i2c_11xx.c **** 	xfer.slaveAddr = slaveAddr;
 1144              		.loc 1 445 0
 1145 0006 6B46     		mov	r3, sp	@ tmp128,
 1146              	.LVL73:
 443:../../lpc11cx4-library/lpc_chip_11cxx_lib/src/i2c_11xx.c **** 	I2C_XFER_T xfer;
 1147              		.loc 1 443 0
 1148 0008 051C     		mov	r5, r0	@ id, id
 1149              		.loc 1 445 0
 1150 000a 1970     		strb	r1, [r3]	@ slaveAddr, xfer.slaveAddr
 446:../../lpc11cx4-library/lpc_chip_11cxx_lib/src/i2c_11xx.c **** 	xfer.txBuff = buff;
 1151              		.loc 1 446 0
 1152 000c 0192     		str	r2, [sp, #4]	@ buff, xfer.txBuff
 447:../../lpc11cx4-library/lpc_chip_11cxx_lib/src/i2c_11xx.c **** 	xfer.txSz = len;
 1153              		.loc 1 447 0
 1154 000e 0294     		str	r4, [sp, #8]	@ len, xfer.txSz
 1155              	.LVL74:
 1156              	.L175:
 448:../../lpc11cx4-library/lpc_chip_11cxx_lib/src/i2c_11xx.c **** 	while (Chip_I2C_MasterTransfer(id, &xfer) == I2C_STATUS_ARBLOST) {}
 1157              		.loc 1 448 0 discriminator 1
 1158 0010 281C     		mov	r0, r5	@, id
 1159 0012 6946     		mov	r1, sp	@,
 1160 0014 FFF7FEFF 		bl	Chip_I2C_MasterTransfer	@
 1161              	.LVL75:
 1162 0018 0228     		cmp	r0, #2	@ D.6806,
 1163 001a F9D0     		beq	.L175	@,
 449:../../lpc11cx4-library/lpc_chip_11cxx_lib/src/i2c_11xx.c **** 	return len - xfer.txSz;
 1164              		.loc 1 449 0
 1165 001c 0298     		ldr	r0, [sp, #8]	@ xfer.txSz, xfer.txSz
 1166 001e 201A     		sub	r0, r4, r0	@ D.6806, len, xfer.txSz
 450:../../lpc11cx4-library/lpc_chip_11cxx_lib/src/i2c_11xx.c **** }
 1167              		.loc 1 450 0
ARM GAS  /tmp/ccAFBUIw.s 			page 37


 1168 0020 07B0     		add	sp, sp, #28	@,,
 1169              		@ sp needed	@
 1170 0022 30BD     		pop	{r4, r5, pc}
 1171              		.cfi_endproc
 1172              	.LFE221:
 1173              		.size	Chip_I2C_MasterSend, .-Chip_I2C_MasterSend
 1174              		.section	.text.Chip_I2C_MasterCmdRead,"ax",%progbits
 1175              		.align	1
 1176              		.global	Chip_I2C_MasterCmdRead
 1177              		.code	16
 1178              		.thumb_func
 1179              		.type	Chip_I2C_MasterCmdRead, %function
 1180              	Chip_I2C_MasterCmdRead:
 1181              	.LFB222:
 451:../../lpc11cx4-library/lpc_chip_11cxx_lib/src/i2c_11xx.c **** 
 452:../../lpc11cx4-library/lpc_chip_11cxx_lib/src/i2c_11xx.c **** /* Transmit one byte and receive an array of bytes after a repeated start condition is generated in
 453:../../lpc11cx4-library/lpc_chip_11cxx_lib/src/i2c_11xx.c ****  * This function is useful for communicating with the I2C slave registers
 454:../../lpc11cx4-library/lpc_chip_11cxx_lib/src/i2c_11xx.c ****  */
 455:../../lpc11cx4-library/lpc_chip_11cxx_lib/src/i2c_11xx.c **** int Chip_I2C_MasterCmdRead(I2C_ID_T id, uint8_t slaveAddr, uint8_t cmd, uint8_t *buff, int len)
 456:../../lpc11cx4-library/lpc_chip_11cxx_lib/src/i2c_11xx.c **** {
 1182              		.loc 1 456 0
 1183              		.cfi_startproc
 1184              	.LVL76:
 1185 0000 70B5     		push	{r4, r5, r6, lr}	@
 1186              		.cfi_def_cfa_offset 16
 1187              		.cfi_offset 4, -16
 1188              		.cfi_offset 5, -12
 1189              		.cfi_offset 6, -8
 1190              		.cfi_offset 14, -4
 1191 0002 88B0     		sub	sp, sp, #32	@,,
 1192              		.cfi_def_cfa_offset 48
 1193              		.loc 1 456 0
 1194 0004 061C     		mov	r6, r0	@ id, id
 1195 0006 6846     		mov	r0, sp	@ tmp134,
 1196              	.LVL77:
 1197 0008 C271     		strb	r2, [r0, #7]	@ cmd, cmd
 457:../../lpc11cx4-library/lpc_chip_11cxx_lib/src/i2c_11xx.c **** 	I2C_XFER_T xfer;
 458:../../lpc11cx4-library/lpc_chip_11cxx_lib/src/i2c_11xx.c **** 	xfer.slaveAddr = slaveAddr;
 459:../../lpc11cx4-library/lpc_chip_11cxx_lib/src/i2c_11xx.c **** 	xfer.txBuff = &cmd;
 460:../../lpc11cx4-library/lpc_chip_11cxx_lib/src/i2c_11xx.c **** 	xfer.txSz = 1;
 1198              		.loc 1 460 0
 1199 000a 0122     		mov	r2, #1	@ tmp126,
 1200              	.LVL78:
 456:../../lpc11cx4-library/lpc_chip_11cxx_lib/src/i2c_11xx.c **** 	I2C_XFER_T xfer;
 1201              		.loc 1 456 0
 1202 000c 0C9D     		ldr	r5, [sp, #48]	@ len, len
 458:../../lpc11cx4-library/lpc_chip_11cxx_lib/src/i2c_11xx.c **** 	xfer.txBuff = &cmd;
 1203              		.loc 1 458 0
 1204 000e 02AC     		add	r4, sp, #8	@ tmp121,,
 456:../../lpc11cx4-library/lpc_chip_11cxx_lib/src/i2c_11xx.c **** 	I2C_XFER_T xfer;
 1205              		.loc 1 456 0
 1206 0010 0730     		add	r0, r0, #7	@ tmp117,
 1207              	.LVL79:
 458:../../lpc11cx4-library/lpc_chip_11cxx_lib/src/i2c_11xx.c **** 	xfer.txBuff = &cmd;
 1208              		.loc 1 458 0
 1209 0012 2170     		strb	r1, [r4]	@ slaveAddr, xfer.slaveAddr
 459:../../lpc11cx4-library/lpc_chip_11cxx_lib/src/i2c_11xx.c **** 	xfer.txSz = 1;
ARM GAS  /tmp/ccAFBUIw.s 			page 38


 1210              		.loc 1 459 0
 1211 0014 6060     		str	r0, [r4, #4]	@ tmp117, xfer.txBuff
 1212              		.loc 1 460 0
 1213 0016 A260     		str	r2, [r4, #8]	@ tmp126, xfer.txSz
 461:../../lpc11cx4-library/lpc_chip_11cxx_lib/src/i2c_11xx.c **** 	xfer.rxBuff = buff;
 1214              		.loc 1 461 0
 1215 0018 E360     		str	r3, [r4, #12]	@ buff, xfer.rxBuff
 462:../../lpc11cx4-library/lpc_chip_11cxx_lib/src/i2c_11xx.c **** 	xfer.rxSz = len;
 1216              		.loc 1 462 0
 1217 001a 2561     		str	r5, [r4, #16]	@ len, xfer.rxSz
 1218              	.LVL80:
 1219              	.L178:
 463:../../lpc11cx4-library/lpc_chip_11cxx_lib/src/i2c_11xx.c **** 	while (Chip_I2C_MasterTransfer(id, &xfer) == I2C_STATUS_ARBLOST) {}
 1220              		.loc 1 463 0 discriminator 1
 1221 001c 301C     		mov	r0, r6	@, id
 1222 001e 211C     		mov	r1, r4	@, tmp121
 1223 0020 FFF7FEFF 		bl	Chip_I2C_MasterTransfer	@
 1224              	.LVL81:
 1225 0024 0228     		cmp	r0, #2	@ D.6809,
 1226 0026 F9D0     		beq	.L178	@,
 464:../../lpc11cx4-library/lpc_chip_11cxx_lib/src/i2c_11xx.c **** 	return len - xfer.rxSz;
 1227              		.loc 1 464 0
 1228 0028 2069     		ldr	r0, [r4, #16]	@ xfer.rxSz, xfer.rxSz
 1229 002a 281A     		sub	r0, r5, r0	@ D.6809, len, xfer.rxSz
 465:../../lpc11cx4-library/lpc_chip_11cxx_lib/src/i2c_11xx.c **** }
 1230              		.loc 1 465 0
 1231 002c 08B0     		add	sp, sp, #32	@,,
 1232              	.LVL82:
 1233              		@ sp needed	@
 1234 002e 70BD     		pop	{r4, r5, r6, pc}
 1235              		.cfi_endproc
 1236              	.LFE222:
 1237              		.size	Chip_I2C_MasterCmdRead, .-Chip_I2C_MasterCmdRead
 1238              		.section	.text.Chip_I2C_MasterRead,"ax",%progbits
 1239              		.align	1
 1240              		.global	Chip_I2C_MasterRead
 1241              		.code	16
 1242              		.thumb_func
 1243              		.type	Chip_I2C_MasterRead, %function
 1244              	Chip_I2C_MasterRead:
 1245              	.LFB223:
 466:../../lpc11cx4-library/lpc_chip_11cxx_lib/src/i2c_11xx.c **** 
 467:../../lpc11cx4-library/lpc_chip_11cxx_lib/src/i2c_11xx.c **** /* Sequential master read */
 468:../../lpc11cx4-library/lpc_chip_11cxx_lib/src/i2c_11xx.c **** int Chip_I2C_MasterRead(I2C_ID_T id, uint8_t slaveAddr, uint8_t *buff, int len)
 469:../../lpc11cx4-library/lpc_chip_11cxx_lib/src/i2c_11xx.c **** {
 1246              		.loc 1 469 0
 1247              		.cfi_startproc
 1248              	.LVL83:
 1249 0000 30B5     		push	{r4, r5, lr}	@
 1250              		.cfi_def_cfa_offset 12
 1251              		.cfi_offset 4, -12
 1252              		.cfi_offset 5, -8
 1253              		.cfi_offset 14, -4
 1254 0002 87B0     		sub	sp, sp, #28	@,,
 1255              		.cfi_def_cfa_offset 40
 1256              		.loc 1 469 0
 1257 0004 1C1C     		mov	r4, r3	@ len, len
ARM GAS  /tmp/ccAFBUIw.s 			page 39


 470:../../lpc11cx4-library/lpc_chip_11cxx_lib/src/i2c_11xx.c **** 	I2C_XFER_T xfer;
 471:../../lpc11cx4-library/lpc_chip_11cxx_lib/src/i2c_11xx.c **** 	xfer.slaveAddr = slaveAddr;
 1258              		.loc 1 471 0
 1259 0006 6B46     		mov	r3, sp	@ tmp127,
 1260              	.LVL84:
 469:../../lpc11cx4-library/lpc_chip_11cxx_lib/src/i2c_11xx.c **** 	I2C_XFER_T xfer;
 1261              		.loc 1 469 0
 1262 0008 051C     		mov	r5, r0	@ id, id
 1263              		.loc 1 471 0
 1264 000a 1970     		strb	r1, [r3]	@ slaveAddr, xfer.slaveAddr
 472:../../lpc11cx4-library/lpc_chip_11cxx_lib/src/i2c_11xx.c **** 	xfer.rxBuff = buff;
 1265              		.loc 1 472 0
 1266 000c 0392     		str	r2, [sp, #12]	@ buff, xfer.rxBuff
 473:../../lpc11cx4-library/lpc_chip_11cxx_lib/src/i2c_11xx.c **** 	xfer.rxSz = len;
 1267              		.loc 1 473 0
 1268 000e 0494     		str	r4, [sp, #16]	@ len, xfer.rxSz
 1269              	.LVL85:
 1270              	.L181:
 474:../../lpc11cx4-library/lpc_chip_11cxx_lib/src/i2c_11xx.c **** 	while (Chip_I2C_MasterTransfer(id, &xfer) == I2C_STATUS_ARBLOST) {}
 1271              		.loc 1 474 0 discriminator 1
 1272 0010 281C     		mov	r0, r5	@, id
 1273 0012 6946     		mov	r1, sp	@,
 1274 0014 FFF7FEFF 		bl	Chip_I2C_MasterTransfer	@
 1275              	.LVL86:
 1276 0018 0228     		cmp	r0, #2	@ D.6812,
 1277 001a F9D0     		beq	.L181	@,
 475:../../lpc11cx4-library/lpc_chip_11cxx_lib/src/i2c_11xx.c **** 	return len - xfer.rxSz;
 1278              		.loc 1 475 0
 1279 001c 0498     		ldr	r0, [sp, #16]	@ xfer.rxSz, xfer.rxSz
 1280 001e 201A     		sub	r0, r4, r0	@ D.6812, len, xfer.rxSz
 476:../../lpc11cx4-library/lpc_chip_11cxx_lib/src/i2c_11xx.c **** }
 1281              		.loc 1 476 0
 1282 0020 07B0     		add	sp, sp, #28	@,,
 1283              		@ sp needed	@
 1284              	.LVL87:
 1285 0022 30BD     		pop	{r4, r5, pc}
 1286              		.cfi_endproc
 1287              	.LFE223:
 1288              		.size	Chip_I2C_MasterRead, .-Chip_I2C_MasterRead
 1289              		.section	.text.Chip_I2C_IsMasterActive,"ax",%progbits
 1290              		.align	1
 1291              		.global	Chip_I2C_IsMasterActive
 1292              		.code	16
 1293              		.thumb_func
 1294              		.type	Chip_I2C_IsMasterActive, %function
 1295              	Chip_I2C_IsMasterActive:
 1296              	.LFB224:
 477:../../lpc11cx4-library/lpc_chip_11cxx_lib/src/i2c_11xx.c **** 
 478:../../lpc11cx4-library/lpc_chip_11cxx_lib/src/i2c_11xx.c **** /* Check if master state is active */
 479:../../lpc11cx4-library/lpc_chip_11cxx_lib/src/i2c_11xx.c **** int Chip_I2C_IsMasterActive(I2C_ID_T id)
 480:../../lpc11cx4-library/lpc_chip_11cxx_lib/src/i2c_11xx.c **** {
 1297              		.loc 1 480 0
 1298              		.cfi_startproc
 1299              	.LVL88:
 481:../../lpc11cx4-library/lpc_chip_11cxx_lib/src/i2c_11xx.c **** 	return isMasterState(i2c[id].ip);
 1300              		.loc 1 481 0
 1301 0000 1C23     		mov	r3, #28	@ tmp120,
ARM GAS  /tmp/ccAFBUIw.s 			page 40


 1302 0002 5843     		mul	r0, r3	@ tmp121, tmp120
 1303              	.LVL89:
 1304 0004 054B     		ldr	r3, .L184	@ tmp119,
 1305              	.LBB122:
 1306              	.LBB123:
 128:../../lpc11cx4-library/lpc_chip_11cxx_lib/src/i2c_11xx.c **** }
 1307              		.loc 1 128 0
 1308 0006 5F21     		mov	r1, #95	@ tmp127,
 1309              	.LBE123:
 1310              	.LBE122:
 1311              		.loc 1 481 0
 1312 0008 C358     		ldr	r3, [r0, r3]	@ D.6816, i2c[_2].ip
 1313              	.LVL90:
 482:../../lpc11cx4-library/lpc_chip_11cxx_lib/src/i2c_11xx.c **** }
 1314              		.loc 1 482 0
 1315              		@ sp needed	@
 1316              	.LBB127:
 1317              	.LBB126:
 1318              	.LBB124:
 1319              	.LBB125:
 122:../../lpc11cx4-library/lpc_chip_11cxx_lib/src/i2c_11xx.c **** }
 1320              		.loc 1 122 0
 1321 000a 5A68     		ldr	r2, [r3, #4]	@ D.6817, _4->STAT
 1322 000c F823     		mov	r3, #248	@ tmp124,
 1323              	.LVL91:
 1324 000e 1340     		and	r3, r2	@ D.6815, D.6817
 1325              	.LBE125:
 1326              	.LBE124:
 128:../../lpc11cx4-library/lpc_chip_11cxx_lib/src/i2c_11xx.c **** }
 1327              		.loc 1 128 0
 1328 0010 0022     		mov	r2, #0	@ tmp129,
 1329 0012 D80F     		lsr	r0, r3, #31	@ tmp128, D.6815,
 1330              	.LVL92:
 1331 0014 9942     		cmp	r1, r3	@ tmp127, D.6815
 1332 0016 5041     		adc	r0, r0, r2	@ D.6818, tmp128, tmp129
 1333              	.LBE126:
 1334              	.LBE127:
 1335              		.loc 1 482 0
 1336 0018 7047     		bx	lr
 1337              	.L185:
 1338 001a C046     		.align	2
 1339              	.L184:
 1340 001c 00000000 		.word	.LANCHOR0
 1341              		.cfi_endproc
 1342              	.LFE224:
 1343              		.size	Chip_I2C_IsMasterActive, .-Chip_I2C_IsMasterActive
 1344              		.section	.text.Chip_I2C_MasterStateHandler,"ax",%progbits
 1345              		.align	1
 1346              		.global	Chip_I2C_MasterStateHandler
 1347              		.code	16
 1348              		.thumb_func
 1349              		.type	Chip_I2C_MasterStateHandler, %function
 1350              	Chip_I2C_MasterStateHandler:
 1351              	.LFB225:
 483:../../lpc11cx4-library/lpc_chip_11cxx_lib/src/i2c_11xx.c **** 
 484:../../lpc11cx4-library/lpc_chip_11cxx_lib/src/i2c_11xx.c **** /* State change handler for master transfer */
 485:../../lpc11cx4-library/lpc_chip_11cxx_lib/src/i2c_11xx.c **** void Chip_I2C_MasterStateHandler(I2C_ID_T id)
ARM GAS  /tmp/ccAFBUIw.s 			page 41


 486:../../lpc11cx4-library/lpc_chip_11cxx_lib/src/i2c_11xx.c **** {
 1352              		.loc 1 486 0
 1353              		.cfi_startproc
 1354              	.LVL93:
 1355 0000 38B5     		push	{r3, r4, r5, lr}	@
 1356              		.cfi_def_cfa_offset 16
 1357              		.cfi_offset 3, -16
 1358              		.cfi_offset 4, -12
 1359              		.cfi_offset 5, -8
 1360              		.cfi_offset 14, -4
 487:../../lpc11cx4-library/lpc_chip_11cxx_lib/src/i2c_11xx.c **** 	if (!handleMasterXferState(i2c[id].ip, i2c[id].mXfer)) {
 1361              		.loc 1 487 0
 1362 0002 1C23     		mov	r3, #28	@ tmp117,
 1363 0004 4343     		mul	r3, r0	@ tmp118, id
 1364 0006 074A     		ldr	r2, .L188	@ tmp116,
 486:../../lpc11cx4-library/lpc_chip_11cxx_lib/src/i2c_11xx.c **** 	if (!handleMasterXferState(i2c[id].ip, i2c[id].mXfer)) {
 1365              		.loc 1 486 0
 1366 0008 041C     		mov	r4, r0	@ id, id
 1367              		.loc 1 487 0
 1368 000a D518     		add	r5, r2, r3	@ tmp122, tmp116, tmp118
 1369 000c 9858     		ldr	r0, [r3, r2]	@, i2c[_3].ip
 1370              	.LVL94:
 1371 000e 2969     		ldr	r1, [r5, #16]	@, i2c[_3].mXfer
 1372 0010 FFF7FEFF 		bl	handleMasterXferState	@
 1373              	.LVL95:
 1374 0014 0028     		cmp	r0, #0	@ D.6822,
 1375 0016 03D1     		bne	.L186	@,
 488:../../lpc11cx4-library/lpc_chip_11cxx_lib/src/i2c_11xx.c **** 		i2c[id].mEvent(id, I2C_EVENT_DONE);
 1376              		.loc 1 488 0
 1377 0018 AB68     		ldr	r3, [r5, #8]	@ i2c[_3].mEvent, i2c[_3].mEvent
 1378 001a 201C     		mov	r0, r4	@, id
 1379 001c 0221     		mov	r1, #2	@,
 1380 001e 9847     		blx	r3	@ i2c[_3].mEvent
 1381              	.LVL96:
 1382              	.L186:
 489:../../lpc11cx4-library/lpc_chip_11cxx_lib/src/i2c_11xx.c **** 	}
 490:../../lpc11cx4-library/lpc_chip_11cxx_lib/src/i2c_11xx.c **** }
 1383              		.loc 1 490 0
 1384              		@ sp needed	@
 1385 0020 38BD     		pop	{r3, r4, r5, pc}
 1386              	.L189:
 1387 0022 C046     		.align	2
 1388              	.L188:
 1389 0024 00000000 		.word	.LANCHOR0
 1390              		.cfi_endproc
 1391              	.LFE225:
 1392              		.size	Chip_I2C_MasterStateHandler, .-Chip_I2C_MasterStateHandler
 1393              		.section	.text.Chip_I2C_SlaveSetup,"ax",%progbits
 1394              		.align	1
 1395              		.global	Chip_I2C_SlaveSetup
 1396              		.code	16
 1397              		.thumb_func
 1398              		.type	Chip_I2C_SlaveSetup, %function
 1399              	Chip_I2C_SlaveSetup:
 1400              	.LFB226:
 491:../../lpc11cx4-library/lpc_chip_11cxx_lib/src/i2c_11xx.c **** 
 492:../../lpc11cx4-library/lpc_chip_11cxx_lib/src/i2c_11xx.c **** /* Setup slave function */
ARM GAS  /tmp/ccAFBUIw.s 			page 42


 493:../../lpc11cx4-library/lpc_chip_11cxx_lib/src/i2c_11xx.c **** void Chip_I2C_SlaveSetup(I2C_ID_T id,
 494:../../lpc11cx4-library/lpc_chip_11cxx_lib/src/i2c_11xx.c **** 						 I2C_SLAVE_ID sid,
 495:../../lpc11cx4-library/lpc_chip_11cxx_lib/src/i2c_11xx.c **** 						 I2C_XFER_T *xfer,
 496:../../lpc11cx4-library/lpc_chip_11cxx_lib/src/i2c_11xx.c **** 						 I2C_EVENTHANDLER_T event,
 497:../../lpc11cx4-library/lpc_chip_11cxx_lib/src/i2c_11xx.c **** 						 uint8_t addrMask)
 498:../../lpc11cx4-library/lpc_chip_11cxx_lib/src/i2c_11xx.c **** {
 1401              		.loc 1 498 0
 1402              		.cfi_startproc
 1403              	.LVL97:
 1404 0000 70B5     		push	{r4, r5, r6, lr}	@
 1405              		.cfi_def_cfa_offset 16
 1406              		.cfi_offset 4, -16
 1407              		.cfi_offset 5, -12
 1408              		.cfi_offset 6, -8
 1409              		.cfi_offset 14, -4
 1410              		.loc 1 498 0
 1411 0002 04AC     		add	r4, sp, #16	@ tmp136,,
 1412              	.LVL98:
 1413 0004 2578     		ldrb	r5, [r4]	@ addrMask, addrMask
 499:../../lpc11cx4-library/lpc_chip_11cxx_lib/src/i2c_11xx.c **** 	struct i2c_interface *iic = &i2c[id];
 500:../../lpc11cx4-library/lpc_chip_11cxx_lib/src/i2c_11xx.c **** 	struct i2c_slave_interface *si2c = &i2c_slave[id][sid];
 501:../../lpc11cx4-library/lpc_chip_11cxx_lib/src/i2c_11xx.c **** 	si2c->xfer = xfer;
 1414              		.loc 1 501 0
 1415 0006 0524     		mov	r4, #5	@ tmp138,
 1416              	.LVL99:
 1417 0008 4443     		mul	r4, r0	@ tmp139, id
 1418 000a 1A4E     		ldr	r6, .L197	@ tmp137,
 1419 000c 6418     		add	r4, r4, r1	@ tmp140, tmp139, sid
 1420 000e E400     		lsl	r4, r4, #3	@ tmp141, tmp140,
 1421 0010 A251     		str	r2, [r4, r6]	@ xfer, MEM[(struct i2c_slave_interface *)&i2c_slave][_4][_6].xfer
 502:../../lpc11cx4-library/lpc_chip_11cxx_lib/src/i2c_11xx.c **** 	si2c->event = event;
 1422              		.loc 1 502 0
 1423 0012 3419     		add	r4, r6, r4	@ tmp147, tmp137, tmp141
 1424 0014 6360     		str	r3, [r4, #4]	@ event, MEM[(struct i2c_slave_interface *)&i2c_slave][_4][_6].event
 1425 0016 184C     		ldr	r4, .L197+4	@ tmp183,
 503:../../lpc11cx4-library/lpc_chip_11cxx_lib/src/i2c_11xx.c **** 
 504:../../lpc11cx4-library/lpc_chip_11cxx_lib/src/i2c_11xx.c **** 	/* Set up the slave address */
 505:../../lpc11cx4-library/lpc_chip_11cxx_lib/src/i2c_11xx.c **** 	if (sid != I2C_SLAVE_GENERAL) {
 1426              		.loc 1 505 0
 1427 0018 0029     		cmp	r1, #0	@ sid,
 1428 001a 12D0     		beq	.L191	@,
 506:../../lpc11cx4-library/lpc_chip_11cxx_lib/src/i2c_11xx.c **** 		setSlaveAddr(iic->ip, sid, xfer->slaveAddr, addrMask);
 1429              		.loc 1 506 0
 1430 001c 1C23     		mov	r3, #28	@ tmp149,
 1431              	.LVL100:
 1432              	.LBB133:
 1433              	.LBB134:
 135:../../lpc11cx4-library/lpc_chip_11cxx_lib/src/i2c_11xx.c **** 	if (sid == I2C_SLAVE_0) {
 1434              		.loc 1 135 0
 1435 001e 0E1C     		mov	r6, r1	@ tmp151, sid
 1436              	.LVL101:
 1437              	.LBE134:
 1438              	.LBE133:
 1439              		.loc 1 506 0
 1440 0020 4343     		mul	r3, r0	@ tmp150, id
 1441              	.LBB139:
 1442              	.LBB136:
ARM GAS  /tmp/ccAFBUIw.s 			page 43


 135:../../lpc11cx4-library/lpc_chip_11cxx_lib/src/i2c_11xx.c **** 	if (sid == I2C_SLAVE_0) {
 1443              		.loc 1 135 0
 1444 0022 0B36     		add	r6, r6, #11	@ tmp151,
 1445              	.LBE136:
 1446              	.LBE139:
 1447              		.loc 1 506 0
 1448 0024 E358     		ldr	r3, [r4, r3]	@ D.6836, MEM[(struct i2c_interface *)&i2c][_4].ip
 1449              	.LBB140:
 1450              	.LBB137:
 135:../../lpc11cx4-library/lpc_chip_11cxx_lib/src/i2c_11xx.c **** 	if (sid == I2C_SLAVE_0) {
 1451              		.loc 1 135 0
 1452 0026 B600     		lsl	r6, r6, #2	@ tmp152, tmp151,
 1453              	.LBE137:
 1454              	.LBE140:
 1455              		.loc 1 506 0
 1456 0028 1278     		ldrb	r2, [r2]	@ D.6837, *xfer_8(D)
 1457              	.LVL102:
 1458              	.LBB141:
 1459              	.LBB138:
 135:../../lpc11cx4-library/lpc_chip_11cxx_lib/src/i2c_11xx.c **** 	if (sid == I2C_SLAVE_0) {
 1460              		.loc 1 135 0
 1461 002a F550     		str	r5, [r6, r3]	@ addrMask, _12->MASK
 136:../../lpc11cx4-library/lpc_chip_11cxx_lib/src/i2c_11xx.c **** 		pI2C->ADR0 = addr;
 1462              		.loc 1 136 0
 1463 002c 0129     		cmp	r1, #1	@ sid,
 1464 002e 01D1     		bne	.L192	@,
 137:../../lpc11cx4-library/lpc_chip_11cxx_lib/src/i2c_11xx.c **** 	}
 1465              		.loc 1 137 0
 1466 0030 DA60     		str	r2, [r3, #12]	@ D.6837, _12->ADR0
 1467 0032 06E0     		b	.L191	@
 1468              	.L192:
 1469              	.LVL103:
 1470              	.LBB135:
 140:../../lpc11cx4-library/lpc_chip_11cxx_lib/src/i2c_11xx.c **** 		abase[index - 1] = addr;
 1471              		.loc 1 140 0
 1472 0034 2033     		add	r3, r3, #32	@ abase,
 1473              	.LVL104:
 1474 0036 1D1C     		mov	r5, r3	@ abase, abase
 1475              	.LVL105:
 141:../../lpc11cx4-library/lpc_chip_11cxx_lib/src/i2c_11xx.c **** 	}
 1476              		.loc 1 141 0
 1477 0038 104B     		ldr	r3, .L197+8	@ tmp187,
 1478              	.LVL106:
 1479 003a CB18     		add	r3, r1, r3	@ D.6840, sid, tmp187
 1480 003c 9B00     		lsl	r3, r3, #2	@ D.6840, D.6840,
 1481 003e EB18     		add	r3, r5, r3	@ D.6841, abase, D.6840
 1482 0040 1A60     		str	r2, [r3]	@ D.6837, *_34
 1483              	.LVL107:
 1484              	.L191:
 1485              	.LBE135:
 1486              	.LBE138:
 1487              	.LBE141:
 507:../../lpc11cx4-library/lpc_chip_11cxx_lib/src/i2c_11xx.c **** 	}
 508:../../lpc11cx4-library/lpc_chip_11cxx_lib/src/i2c_11xx.c **** 
 509:../../lpc11cx4-library/lpc_chip_11cxx_lib/src/i2c_11xx.c **** 	if (!SLAVE_ACTIVE(iic) && !iic->mXfer) {
 1488              		.loc 1 509 0
 1489 0042 1C23     		mov	r3, #28	@ tmp157,
ARM GAS  /tmp/ccAFBUIw.s 			page 44


 1490 0044 FF26     		mov	r6, #255	@ tmp162,
 1491 0046 4343     		mul	r3, r0	@ tmp158, id
 1492 0048 E518     		add	r5, r4, r3	@ tmp159, tmp183, tmp158
 1493 004a AA69     		ldr	r2, [r5, #24]	@ D.6838, MEM[(struct i2c_interface *)&i2c][_4].flags
 1494 004c 3602     		lsl	r6, r6, #8	@ tmp162, tmp162,
 1495 004e 3242     		tst	r2, r6	@ D.6838, tmp162
 1496 0050 07D1     		bne	.L193	@,
 1497              		.loc 1 509 0 is_stmt 0 discriminator 1
 1498 0052 2D69     		ldr	r5, [r5, #16]	@ MEM[(struct i2c_interface *)&i2c][_4].mXfer, MEM[(struct i2c_interface *)&i2c]
 1499 0054 002D     		cmp	r5, #0	@ MEM[(struct i2c_interface *)&i2c][_4].mXfer,
 1500 0056 04D1     		bne	.L193	@,
 510:../../lpc11cx4-library/lpc_chip_11cxx_lib/src/i2c_11xx.c **** 		startSlaverXfer(iic->ip);
 1501              		.loc 1 510 0 is_stmt 1
 1502 0058 E358     		ldr	r3, [r4, r3]	@ D.6836, MEM[(struct i2c_interface *)&i2c][_4].ip
 1503              	.LVL108:
 1504              	.LBB142:
 1505              	.LBB143:
 107:../../lpc11cx4-library/lpc_chip_11cxx_lib/src/i2c_11xx.c **** 
 1506              		.loc 1 107 0
 1507 005a 3835     		add	r5, r5, #56	@ tmp172,
 1508 005c 9D61     		str	r5, [r3, #24]	@ tmp172, _19->CONCLR
 110:../../lpc11cx4-library/lpc_chip_11cxx_lib/src/i2c_11xx.c **** }
 1509              		.loc 1 110 0
 1510 005e 0C35     		add	r5, r5, #12	@ tmp173,
 1511 0060 1D60     		str	r5, [r3]	@ tmp173, _19->CONSET
 1512              	.LVL109:
 1513              	.L193:
 1514              	.LBE143:
 1515              	.LBE142:
 511:../../lpc11cx4-library/lpc_chip_11cxx_lib/src/i2c_11xx.c **** 	}
 512:../../lpc11cx4-library/lpc_chip_11cxx_lib/src/i2c_11xx.c **** 	iic->flags |= 1 << (sid + 8);
 1516              		.loc 1 512 0
 1517 0062 1C23     		mov	r3, #28	@ tmp175,
 1518 0064 0831     		add	r1, r1, #8	@ D.6835,
 1519              	.LVL110:
 1520 0066 5843     		mul	r0, r3	@ tmp176, tmp175
 1521              	.LVL111:
 1522 0068 1B3B     		sub	r3, r3, #27	@ tmp181,
 1523 006a 8B40     		lsl	r3, r3, r1	@ D.6835, D.6835, D.6835
 1524 006c 2018     		add	r0, r4, r0	@ tmp177, tmp183, tmp176
 1525 006e 1A43     		orr	r2, r3	@ D.6838, D.6835
 1526 0070 8261     		str	r2, [r0, #24]	@ D.6838, MEM[(struct i2c_interface *)&i2c][_4].flags
 513:../../lpc11cx4-library/lpc_chip_11cxx_lib/src/i2c_11xx.c **** }
 1527              		.loc 1 513 0
 1528              		@ sp needed	@
 1529 0072 70BD     		pop	{r4, r5, r6, pc}
 1530              	.L198:
 1531              		.align	2
 1532              	.L197:
 1533 0074 00000000 		.word	.LANCHOR1
 1534 0078 00000000 		.word	.LANCHOR0
 1535 007c FEFFFF3F 		.word	1073741822
 1536              		.cfi_endproc
 1537              	.LFE226:
 1538              		.size	Chip_I2C_SlaveSetup, .-Chip_I2C_SlaveSetup
 1539              		.section	.text.Chip_I2C_SlaveStateHandler,"ax",%progbits
 1540              		.align	1
ARM GAS  /tmp/ccAFBUIw.s 			page 45


 1541              		.global	Chip_I2C_SlaveStateHandler
 1542              		.code	16
 1543              		.thumb_func
 1544              		.type	Chip_I2C_SlaveStateHandler, %function
 1545              	Chip_I2C_SlaveStateHandler:
 1546              	.LFB227:
 514:../../lpc11cx4-library/lpc_chip_11cxx_lib/src/i2c_11xx.c **** 
 515:../../lpc11cx4-library/lpc_chip_11cxx_lib/src/i2c_11xx.c **** /* I2C Slave event handler */
 516:../../lpc11cx4-library/lpc_chip_11cxx_lib/src/i2c_11xx.c **** void Chip_I2C_SlaveStateHandler(I2C_ID_T id)
 517:../../lpc11cx4-library/lpc_chip_11cxx_lib/src/i2c_11xx.c **** {
 1547              		.loc 1 517 0
 1548              		.cfi_startproc
 1549              	.LVL112:
 1550 0000 F8B5     		push	{r3, r4, r5, r6, r7, lr}	@
 1551              		.cfi_def_cfa_offset 24
 1552              		.cfi_offset 3, -24
 1553              		.cfi_offset 4, -20
 1554              		.cfi_offset 5, -16
 1555              		.cfi_offset 6, -12
 1556              		.cfi_offset 7, -8
 1557              		.cfi_offset 14, -4
 518:../../lpc11cx4-library/lpc_chip_11cxx_lib/src/i2c_11xx.c **** 	int ret;
 519:../../lpc11cx4-library/lpc_chip_11cxx_lib/src/i2c_11xx.c **** 	struct i2c_interface *iic = &i2c[id];
 520:../../lpc11cx4-library/lpc_chip_11cxx_lib/src/i2c_11xx.c **** 
 521:../../lpc11cx4-library/lpc_chip_11cxx_lib/src/i2c_11xx.c **** 	/* Get the currently addressed slave */
 522:../../lpc11cx4-library/lpc_chip_11cxx_lib/src/i2c_11xx.c **** 	if (!iic->sXfer) {
 1558              		.loc 1 522 0
 1559 0002 1C23     		mov	r3, #28	@ tmp132,
 1560 0004 4343     		mul	r3, r0	@ tmp133, id
 1561 0006 194C     		ldr	r4, .L206	@ tmp131,
 517:../../lpc11cx4-library/lpc_chip_11cxx_lib/src/i2c_11xx.c **** 	int ret;
 1562              		.loc 1 517 0
 1563 0008 051C     		mov	r5, r0	@ id, id
 1564              		.loc 1 522 0
 1565 000a E618     		add	r6, r4, r3	@ tmp134, tmp131, tmp133
 1566 000c 371C     		mov	r7, r6	@ tmp135, tmp134
 1567 000e 7269     		ldr	r2, [r6, #20]	@ tmp205, MEM[(struct i2c_interface *)&i2c][_5].sXfer
 1568 0010 1037     		add	r7, r7, #16	@ tmp135,
 1569 0012 002A     		cmp	r2, #0	@ tmp205,
 1570 0014 0CD1     		bne	.L200	@,
 1571              	.LBB144:
 523:../../lpc11cx4-library/lpc_chip_11cxx_lib/src/i2c_11xx.c **** 		struct i2c_slave_interface *si2c;
 524:../../lpc11cx4-library/lpc_chip_11cxx_lib/src/i2c_11xx.c **** 
 525:../../lpc11cx4-library/lpc_chip_11cxx_lib/src/i2c_11xx.c **** 		I2C_SLAVE_ID sid = getSlaveIndex(iic->ip);
 1572              		.loc 1 525 0
 1573 0016 1859     		ldr	r0, [r3, r4]	@, MEM[(struct i2c_interface *)&i2c][_5].ip
 1574              	.LVL113:
 1575 0018 FFF7FEFF 		bl	getSlaveIndex	@
 1576              	.LVL114:
 526:../../lpc11cx4-library/lpc_chip_11cxx_lib/src/i2c_11xx.c **** 		si2c = &i2c_slave[id][sid];
 527:../../lpc11cx4-library/lpc_chip_11cxx_lib/src/i2c_11xx.c **** 		iic->sXfer = si2c->xfer;
 1577              		.loc 1 527 0
 1578 001c 0523     		mov	r3, #5	@ tmp148,
 1579 001e 6B43     		mul	r3, r5	@ tmp149, id
 1580 0020 134A     		ldr	r2, .L206+4	@ tmp147,
 1581 0022 1818     		add	r0, r3, r0	@ tmp150, tmp149, tmp140
 1582              	.LVL115:
ARM GAS  /tmp/ccAFBUIw.s 			page 46


 1583 0024 C000     		lsl	r0, r0, #3	@ tmp151, tmp150,
 1584 0026 8358     		ldr	r3, [r0, r2]	@ tmp206, MEM[(struct i2c_slave_interface *)&i2c_slave][_5][_11].xfer
 528:../../lpc11cx4-library/lpc_chip_11cxx_lib/src/i2c_11xx.c **** 		iic->sEvent = si2c->event;
 1585              		.loc 1 528 0
 1586 0028 1018     		add	r0, r2, r0	@ tmp163, tmp147, tmp151
 527:../../lpc11cx4-library/lpc_chip_11cxx_lib/src/i2c_11xx.c **** 		iic->sEvent = si2c->event;
 1587              		.loc 1 527 0
 1588 002a 7B60     		str	r3, [r7, #4]	@ tmp206, MEM[(struct i2c_interface *)&i2c][_5].sXfer
 1589              		.loc 1 528 0
 1590 002c 4368     		ldr	r3, [r0, #4]	@ tmp207, MEM[(struct i2c_slave_interface *)&i2c_slave][_5][_11].event
 1591 002e F360     		str	r3, [r6, #12]	@ tmp207, MEM[(struct i2c_interface *)&i2c][_5].sEvent
 1592              	.L200:
 1593              	.LBE144:
 529:../../lpc11cx4-library/lpc_chip_11cxx_lib/src/i2c_11xx.c **** 	}
 530:../../lpc11cx4-library/lpc_chip_11cxx_lib/src/i2c_11xx.c **** 
 531:../../lpc11cx4-library/lpc_chip_11cxx_lib/src/i2c_11xx.c **** 	iic->sXfer->slaveAddr |= iic->mXfer != 0;
 1594              		.loc 1 531 0
 1595 0030 1C21     		mov	r1, #28	@ tmp167,
 1596 0032 6943     		mul	r1, r5	@ tmp167, id
 1597 0034 6318     		add	r3, r4, r1	@ tmp168, tmp200, tmp167
 1598 0036 5E69     		ldr	r6, [r3, #20]	@ D.6847, MEM[(struct i2c_interface *)&i2c][_5].sXfer
 1599 0038 1F1C     		mov	r7, r3	@ tmp169, tmp168
 1600 003a 1B69     		ldr	r3, [r3, #16]	@ MEM[(struct i2c_interface *)&i2c][_5].mXfer, MEM[(struct i2c_interface *)&i2c]
 532:../../lpc11cx4-library/lpc_chip_11cxx_lib/src/i2c_11xx.c **** 	ret = handleSlaveXferState(iic->ip, iic->sXfer);
 1601              		.loc 1 532 0
 1602 003c 6058     		ldr	r0, [r4, r1]	@, MEM[(struct i2c_interface *)&i2c][_5].ip
 531:../../lpc11cx4-library/lpc_chip_11cxx_lib/src/i2c_11xx.c **** 	ret = handleSlaveXferState(iic->ip, iic->sXfer);
 1603              		.loc 1 531 0
 1604 003e 5A1E     		sub	r2, r3, #1	@ tmp178, MEM[(struct i2c_interface *)&i2c][_5].mXfer
 1605 0040 9341     		sbc	r3, r3, r2	@ tmp177, MEM[(struct i2c_interface *)&i2c][_5].mXfer, tmp178
 1606 0042 3278     		ldrb	r2, [r6]	@ *_16, *_16
 1607              		.loc 1 532 0
 1608 0044 311C     		mov	r1, r6	@, D.6847
 531:../../lpc11cx4-library/lpc_chip_11cxx_lib/src/i2c_11xx.c **** 	ret = handleSlaveXferState(iic->ip, iic->sXfer);
 1609              		.loc 1 531 0
 1610 0046 1343     		orr	r3, r2	@ tmp181, *_16
 1611 0048 3370     		strb	r3, [r6]	@ tmp181, _16->slaveAddr
 1612              		.loc 1 532 0
 1613 004a FFF7FEFF 		bl	handleSlaveXferState	@
 1614              	.LVL116:
 531:../../lpc11cx4-library/lpc_chip_11cxx_lib/src/i2c_11xx.c **** 	ret = handleSlaveXferState(iic->ip, iic->sXfer);
 1615              		.loc 1 531 0
 1616 004e 1037     		add	r7, r7, #16	@ tmp169,
 1617 0050 1C23     		mov	r3, #28	@ tmp201,
 533:../../lpc11cx4-library/lpc_chip_11cxx_lib/src/i2c_11xx.c **** 	if (ret) {
 1618              		.loc 1 533 0
 1619 0052 0028     		cmp	r0, #0	@ ret,
 1620 0054 09D0     		beq	.L199	@,
 534:../../lpc11cx4-library/lpc_chip_11cxx_lib/src/i2c_11xx.c **** 		if (iic->sXfer->status == I2C_STATUS_DONE) {
 1621              		.loc 1 534 0
 1622 0056 327D     		ldrb	r2, [r6, #20]	@ tmp186,
 1623 0058 002A     		cmp	r2, #0	@ tmp186,
 1624 005a 00D1     		bne	.L202	@,
 535:../../lpc11cx4-library/lpc_chip_11cxx_lib/src/i2c_11xx.c **** 			iic->sXfer = 0;
 1625              		.loc 1 535 0
 1626 005c 7A60     		str	r2, [r7, #4]	@ tmp186, MEM[(struct i2c_interface *)&i2c][_5].sXfer
 1627              	.L202:
ARM GAS  /tmp/ccAFBUIw.s 			page 47


 536:../../lpc11cx4-library/lpc_chip_11cxx_lib/src/i2c_11xx.c **** 		}
 537:../../lpc11cx4-library/lpc_chip_11cxx_lib/src/i2c_11xx.c **** 		iic->sEvent(id, (I2C_EVENT_T) ret);
 1628              		.loc 1 537 0
 1629 005e 6B43     		mul	r3, r5	@ tmp195, id
 1630 0060 E418     		add	r4, r4, r3	@ tmp196, tmp200, tmp195
 1631 0062 C1B2     		uxtb	r1, r0	@ ret, ret
 1632 0064 E368     		ldr	r3, [r4, #12]	@ MEM[(struct i2c_interface *)&i2c][_5].sEvent, MEM[(struct i2c_interface *)&i2c
 1633 0066 281C     		mov	r0, r5	@, id
 1634              	.LVL117:
 1635 0068 9847     		blx	r3	@ MEM[(struct i2c_interface *)&i2c][_5].sEvent
 1636              	.LVL118:
 1637              	.L199:
 538:../../lpc11cx4-library/lpc_chip_11cxx_lib/src/i2c_11xx.c **** 	}
 539:../../lpc11cx4-library/lpc_chip_11cxx_lib/src/i2c_11xx.c **** }
 1638              		.loc 1 539 0
 1639              		@ sp needed	@
 1640              	.LVL119:
 1641 006a F8BD     		pop	{r3, r4, r5, r6, r7, pc}
 1642              	.L207:
 1643              		.align	2
 1644              	.L206:
 1645 006c 00000000 		.word	.LANCHOR0
 1646 0070 00000000 		.word	.LANCHOR1
 1647              		.cfi_endproc
 1648              	.LFE227:
 1649              		.size	Chip_I2C_SlaveStateHandler, .-Chip_I2C_SlaveStateHandler
 1650              		.section	.text.Chip_I2C_Disable,"ax",%progbits
 1651              		.align	1
 1652              		.global	Chip_I2C_Disable
 1653              		.code	16
 1654              		.thumb_func
 1655              		.type	Chip_I2C_Disable, %function
 1656              	Chip_I2C_Disable:
 1657              	.LFB228:
 540:../../lpc11cx4-library/lpc_chip_11cxx_lib/src/i2c_11xx.c **** 
 541:../../lpc11cx4-library/lpc_chip_11cxx_lib/src/i2c_11xx.c **** /* Disable I2C device */
 542:../../lpc11cx4-library/lpc_chip_11cxx_lib/src/i2c_11xx.c **** void Chip_I2C_Disable(I2C_ID_T id)
 543:../../lpc11cx4-library/lpc_chip_11cxx_lib/src/i2c_11xx.c **** {
 1658              		.loc 1 543 0
 1659              		.cfi_startproc
 1660              	.LVL120:
 544:../../lpc11cx4-library/lpc_chip_11cxx_lib/src/i2c_11xx.c **** 	LPC_I2Cx(id)->CONCLR = I2C_I2CONCLR_I2ENC;
 1661              		.loc 1 544 0
 1662 0000 1C23     		mov	r3, #28	@ tmp114,
 1663 0002 4022     		mov	r2, #64	@ tmp116,
 1664 0004 5843     		mul	r0, r3	@ tmp115, tmp114
 1665              	.LVL121:
 1666 0006 024B     		ldr	r3, .L209	@ tmp113,
 545:../../lpc11cx4-library/lpc_chip_11cxx_lib/src/i2c_11xx.c **** }
 1667              		.loc 1 545 0
 1668              		@ sp needed	@
 544:../../lpc11cx4-library/lpc_chip_11cxx_lib/src/i2c_11xx.c **** 	LPC_I2Cx(id)->CONCLR = I2C_I2CONCLR_I2ENC;
 1669              		.loc 1 544 0
 1670 0008 C358     		ldr	r3, [r0, r3]	@ D.6860, i2c[_2].ip
 1671 000a 9A61     		str	r2, [r3, #24]	@ tmp116, _4->CONCLR
 1672              		.loc 1 545 0
 1673 000c 7047     		bx	lr
ARM GAS  /tmp/ccAFBUIw.s 			page 48


 1674              	.L210:
 1675 000e C046     		.align	2
 1676              	.L209:
 1677 0010 00000000 		.word	.LANCHOR0
 1678              		.cfi_endproc
 1679              	.LFE228:
 1680              		.size	Chip_I2C_Disable, .-Chip_I2C_Disable
 1681              		.section	.text.Chip_I2C_IsStateChanged,"ax",%progbits
 1682              		.align	1
 1683              		.global	Chip_I2C_IsStateChanged
 1684              		.code	16
 1685              		.thumb_func
 1686              		.type	Chip_I2C_IsStateChanged, %function
 1687              	Chip_I2C_IsStateChanged:
 1688              	.LFB229:
 546:../../lpc11cx4-library/lpc_chip_11cxx_lib/src/i2c_11xx.c **** 
 547:../../lpc11cx4-library/lpc_chip_11cxx_lib/src/i2c_11xx.c **** /* State change checking */
 548:../../lpc11cx4-library/lpc_chip_11cxx_lib/src/i2c_11xx.c **** int Chip_I2C_IsStateChanged(I2C_ID_T id)
 549:../../lpc11cx4-library/lpc_chip_11cxx_lib/src/i2c_11xx.c **** {
 1689              		.loc 1 549 0
 1690              		.cfi_startproc
 1691              	.LVL122:
 550:../../lpc11cx4-library/lpc_chip_11cxx_lib/src/i2c_11xx.c **** 	return (LPC_I2Cx(id)->CONSET & I2C_CON_SI) != 0;
 1692              		.loc 1 550 0
 1693 0000 1C23     		mov	r3, #28	@ tmp119,
 1694 0002 5843     		mul	r0, r3	@ tmp120, tmp119
 1695              	.LVL123:
 1696 0004 024B     		ldr	r3, .L212	@ tmp118,
 551:../../lpc11cx4-library/lpc_chip_11cxx_lib/src/i2c_11xx.c **** }
 1697              		.loc 1 551 0
 1698              		@ sp needed	@
 550:../../lpc11cx4-library/lpc_chip_11cxx_lib/src/i2c_11xx.c **** 	return (LPC_I2Cx(id)->CONSET & I2C_CON_SI) != 0;
 1699              		.loc 1 550 0
 1700 0006 C358     		ldr	r3, [r0, r3]	@ D.6865, i2c[_2].ip
 1701 0008 1868     		ldr	r0, [r3]	@ D.6866, _4->CONSET
 1702 000a 0007     		lsl	r0, r0, #28	@ tmp124, D.6866,
 1703 000c C00F     		lsr	r0, r0, #31	@ D.6867, tmp124,
 1704              		.loc 1 551 0
 1705 000e 7047     		bx	lr
 1706              	.L213:
 1707              		.align	2
 1708              	.L212:
 1709 0010 00000000 		.word	.LANCHOR0
 1710              		.cfi_endproc
 1711              	.LFE229:
 1712              		.size	Chip_I2C_IsStateChanged, .-Chip_I2C_IsStateChanged
 1713              		.section	.text.Chip_I2C_EventHandlerPolling,"ax",%progbits
 1714              		.align	1
 1715              		.global	Chip_I2C_EventHandlerPolling
 1716              		.code	16
 1717              		.thumb_func
 1718              		.type	Chip_I2C_EventHandlerPolling, %function
 1719              	Chip_I2C_EventHandlerPolling:
 1720              	.LFB213:
 345:../../lpc11cx4-library/lpc_chip_11cxx_lib/src/i2c_11xx.c **** 	struct i2c_interface *iic = &i2c[id];
 1721              		.loc 1 345 0
 1722              		.cfi_startproc
ARM GAS  /tmp/ccAFBUIw.s 			page 49


 1723              	.LVL124:
 1724 0000 38B5     		push	{r3, r4, r5, lr}	@
 1725              		.cfi_def_cfa_offset 16
 1726              		.cfi_offset 3, -16
 1727              		.cfi_offset 4, -12
 1728              		.cfi_offset 5, -8
 1729              		.cfi_offset 14, -4
 350:../../lpc11cx4-library/lpc_chip_11cxx_lib/src/i2c_11xx.c **** 		return;
 1730              		.loc 1 350 0
 1731 0002 0129     		cmp	r1, #1	@ event,
 1732 0004 11D1     		bne	.L214	@,
 354:../../lpc11cx4-library/lpc_chip_11cxx_lib/src/i2c_11xx.c **** 	/* Call the state change handler till xfer is done */
 1733              		.loc 1 354 0
 1734 0006 1C23     		mov	r3, #28	@ tmp117,
 1735 0008 041C     		mov	r4, r0	@ id, id
 1736 000a 4343     		mul	r3, r0	@ tmp118, id
 1737 000c 074A     		ldr	r2, .L221	@ tmp116,
 1738 000e D318     		add	r3, r2, r3	@ tmp119, tmp116, tmp118
 1739 0010 1D69     		ldr	r5, [r3, #16]	@ D.6872, MEM[(struct i2c_interface *)&i2c][_4].mXfer
 1740              	.LVL125:
 1741              	.L217:
 356:../../lpc11cx4-library/lpc_chip_11cxx_lib/src/i2c_11xx.c **** 		if (Chip_I2C_IsStateChanged(id)) {
 1742              		.loc 1 356 0
 1743 0012 2B7D     		ldrb	r3, [r5, #20]	@ MEM[(volatile I2C_STATUS_T *)_7 + 20B], MEM[(volatile I2C_STATUS_T *)_7 + 20B
 1744 0014 042B     		cmp	r3, #4	@ MEM[(volatile I2C_STATUS_T *)_7 + 20B],
 1745 0016 08D1     		bne	.L214	@,
 357:../../lpc11cx4-library/lpc_chip_11cxx_lib/src/i2c_11xx.c **** 			Chip_I2C_MasterStateHandler(id);
 1746              		.loc 1 357 0
 1747 0018 201C     		mov	r0, r4	@, id
 1748 001a FFF7FEFF 		bl	Chip_I2C_IsStateChanged	@
 1749              	.LVL126:
 1750 001e 0028     		cmp	r0, #0	@ D.6871,
 1751 0020 F7D0     		beq	.L217	@,
 358:../../lpc11cx4-library/lpc_chip_11cxx_lib/src/i2c_11xx.c **** 		}
 1752              		.loc 1 358 0
 1753 0022 201C     		mov	r0, r4	@, id
 1754 0024 FFF7FEFF 		bl	Chip_I2C_MasterStateHandler	@
 1755              	.LVL127:
 1756 0028 F3E7     		b	.L217	@
 1757              	.LVL128:
 1758              	.L214:
 361:../../lpc11cx4-library/lpc_chip_11cxx_lib/src/i2c_11xx.c **** 
 1759              		.loc 1 361 0
 1760              		@ sp needed	@
 1761 002a 38BD     		pop	{r3, r4, r5, pc}
 1762              	.L222:
 1763              		.align	2
 1764              	.L221:
 1765 002c 00000000 		.word	.LANCHOR0
 1766              		.cfi_endproc
 1767              	.LFE213:
 1768              		.size	Chip_I2C_EventHandlerPolling, .-Chip_I2C_EventHandlerPolling
 1769              		.section	.data.i2c,"aw",%progbits
 1770              		.align	2
 1771              		.set	.LANCHOR0,. + 0
 1772              		.type	i2c, %object
 1773              		.size	i2c, 28
ARM GAS  /tmp/ccAFBUIw.s 			page 50


 1774              	i2c:
 1775              	@ ip:
 1776 0000 00000040 		.word	1073741824
 1777              	@ clk:
 1778 0004 05       		.byte	5
 1779              	@ mEvent:
 1780 0005 000000   		.space	3
 1781 0008 00000000 		.word	Chip_I2C_EventHandler
 1782              	@ sEvent:
 1783 000c 00000000 		.word	0
 1784              	@ mXfer:
 1785 0010 00000000 		.word	0
 1786              	@ sXfer:
 1787 0014 00000000 		.word	0
 1788              	@ flags:
 1789 0018 00000000 		.word	0
 1790              		.section	.bss.i2c_slave,"aw",%nobits
 1791              		.align	2
 1792              		.set	.LANCHOR1,. + 0
 1793              		.type	i2c_slave, %object
 1794              		.size	i2c_slave, 40
 1795              	i2c_slave:
 1796 0000 00000000 		.space	40
 1796      00000000 
 1796      00000000 
 1796      00000000 
 1796      00000000 
 1797              		.text
 1798              	.Letext0:
 1799              		.file 3 "/usr/arm-none-eabi/include/machine/_default_types.h"
 1800              		.file 4 "/usr/arm-none-eabi/include/sys/_stdint.h"
 1801              		.file 5 "../../lpc11cx4-library/lpc_chip_11cxx_lib/inc/sysctl_11xx.h"
 1802              		.file 6 "../../lpc11cx4-library/lpc_chip_11cxx_lib/inc/i2c_11xx.h"
 1803              		.file 7 "../../lpc11cx4-library/lpc_chip_11cxx_lib/inc/chip.h"