ARM GAS  /tmp/ccYwUl1E.s 			page 1


   1              		.cpu cortex-m0
   2              		.fpu softvfp
   3              		.eabi_attribute 20, 1	@ Tag_ABI_FP_denormal
   4              		.eabi_attribute 21, 1	@ Tag_ABI_FP_exceptions
   5              		.eabi_attribute 23, 3	@ Tag_ABI_FP_number_model
   6              		.eabi_attribute 24, 1	@ Tag_ABI_align8_needed
   7              		.eabi_attribute 25, 1	@ Tag_ABI_align8_preserved
   8              		.eabi_attribute 26, 1	@ Tag_ABI_enum_size
   9              		.eabi_attribute 30, 2	@ Tag_ABI_optimization_goals
  10              		.eabi_attribute 34, 0	@ Tag_CPU_unaligned_access
  11              		.eabi_attribute 18, 4	@ Tag_ABI_PCS_wchar_t
  12              		.file	"lc1024.c"
  13              	@ GNU C (GNU Tools for ARM Embedded Processors) version 4.9.3 20150529 (release) [ARM/embedded-4_9-
  14              	@	compiled by GNU C version 4.8.4, GMP version 5.1.3, MPFR version 3.1.2-p3, MPC version 1.0.1
  15              	@ GGC heuristics: --param ggc-min-expand=98 --param ggc-min-heapsize=128397
  16              	@ options passed:  -I . -I inc/
  17              	@ -I ../../lpc11cx4-library/lpc_chip_11cxx_lib/inc
  18              	@ -I ../../lpc11cx4-library/evt_lib/inc/ -imultilib armv6-m
  19              	@ -iprefix /usr/bin/../lib/gcc/arm-none-eabi/4.9.3/
  20              	@ -isysroot /usr/bin/../arm-none-eabi -MD bin/lc1024.d -MF bin/lc1024.d -MP
  21              	@ -MQ bin/lc1024.o -D__USES_INITFINI__ -D UART_BAUD=57600 -D CORE_M0
  22              	@ -D DEBUG_ENABLE ../../lpc11cx4-library/evt_lib/src/lc1024.c
  23              	@ -mcpu=cortex-m0 -mthumb -auxbase-strip bin/lc1024.o -g -ggdb3 -O2 -Wall
  24              	@ -Wstrict-prototypes -Wextra -std=gnu90 -ffunction-sections
  25              	@ -fdata-sections -fdiagnostics-color=always -fverbose-asm
  26              	@ options enabled:  -faggressive-loop-optimizations -fauto-inc-dec
  27              	@ -fbranch-count-reg -fcaller-saves -fcombine-stack-adjustments -fcommon
  28              	@ -fcompare-elim -fcprop-registers -fcrossjumping -fcse-follow-jumps
  29              	@ -fdata-sections -fdefer-pop -fdelete-null-pointer-checks -fdevirtualize
  30              	@ -fdevirtualize-speculatively -fdwarf2-cfi-asm -fearly-inlining
  31              	@ -feliminate-unused-debug-types -fexpensive-optimizations
  32              	@ -fforward-propagate -ffunction-cse -ffunction-sections -fgcse -fgcse-lm
  33              	@ -fgnu-runtime -fgnu-unique -fguess-branch-probability
  34              	@ -fhoist-adjacent-loads -fident -fif-conversion -fif-conversion2
  35              	@ -findirect-inlining -finline -finline-atomics
  36              	@ -finline-functions-called-once -finline-small-functions -fipa-cp
  37              	@ -fipa-profile -fipa-pure-const -fipa-reference -fipa-sra
  38              	@ -fira-hoist-pressure -fira-share-save-slots -fira-share-spill-slots
  39              	@ -fisolate-erroneous-paths-dereference -fivopts -fkeep-static-consts
  40              	@ -fleading-underscore -flifetime-dse -fmath-errno -fmerge-constants
  41              	@ -fmerge-debug-strings -fmove-loop-invariants -fomit-frame-pointer
  42              	@ -foptimize-sibling-calls -foptimize-strlen -fpartial-inlining -fpeephole
  43              	@ -fpeephole2 -fprefetch-loop-arrays -freg-struct-return -freorder-blocks
  44              	@ -freorder-functions -frerun-cse-after-loop
  45              	@ -fsched-critical-path-heuristic -fsched-dep-count-heuristic
  46              	@ -fsched-group-heuristic -fsched-interblock -fsched-last-insn-heuristic
  47              	@ -fsched-pressure -fsched-rank-heuristic -fsched-spec
  48              	@ -fsched-spec-insn-heuristic -fsched-stalled-insns-dep -fschedule-insns2
  49              	@ -fsection-anchors -fshow-column -fshrink-wrap -fsigned-zeros
  50              	@ -fsplit-ivs-in-unroller -fsplit-wide-types -fstrict-aliasing
  51              	@ -fstrict-overflow -fstrict-volatile-bitfields -fsync-libcalls
  52              	@ -fthread-jumps -ftoplevel-reorder -ftrapping-math -ftree-bit-ccp
  53              	@ -ftree-builtin-call-dce -ftree-ccp -ftree-ch -ftree-coalesce-vars
  54              	@ -ftree-copy-prop -ftree-copyrename -ftree-cselim -ftree-dce
  55              	@ -ftree-dominator-opts -ftree-dse -ftree-forwprop -ftree-fre
  56              	@ -ftree-loop-if-convert -ftree-loop-im -ftree-loop-ivcanon
  57              	@ -ftree-loop-optimize -ftree-parallelize-loops= -ftree-phiprop -ftree-pre
ARM GAS  /tmp/ccYwUl1E.s 			page 2


  58              	@ -ftree-pta -ftree-reassoc -ftree-scev-cprop -ftree-sink -ftree-slsr
  59              	@ -ftree-sra -ftree-switch-conversion -ftree-tail-merge -ftree-ter
  60              	@ -ftree-vrp -funit-at-a-time -fvar-tracking -fvar-tracking-assignments
  61              	@ -fverbose-asm -fzero-initialized-in-bss -mlittle-endian -mlra
  62              	@ -mpic-data-is-text-relative -msched-prolog -mthumb
  63              	@ -mvectorize-with-neon-quad
  64              	
  65              		.text
  66              	.Ltext0:
  67              		.cfi_sections	.debug_frame
  68              		.section	.text.LC1024_Init,"ax",%progbits
  69              		.align	2
  70              		.global	LC1024_Init
  71              		.code	16
  72              		.thumb_func
  73              		.type	LC1024_Init, %function
  74              	LC1024_Init:
  75              	.LFB198:
  76              		.file 1 "../../lpc11cx4-library/evt_lib/src/lc1024.c"
   1:../../lpc11cx4-library/evt_lib/src/lc1024.c **** #include "lc1024.h"
   2:../../lpc11cx4-library/evt_lib/src/lc1024.c **** #include <string.h>
   3:../../lpc11cx4-library/evt_lib/src/lc1024.c **** 
   4:../../lpc11cx4-library/evt_lib/src/lc1024.c **** #define SPI_BUFFER_SIZE 80
   5:../../lpc11cx4-library/evt_lib/src/lc1024.c **** 
   6:../../lpc11cx4-library/evt_lib/src/lc1024.c **** static uint8_t Tx_Buf[SPI_BUFFER_SIZE];
   7:../../lpc11cx4-library/evt_lib/src/lc1024.c **** static Chip_SSP_DATA_SETUP_T xf_setup;
   8:../../lpc11cx4-library/evt_lib/src/lc1024.c **** static uint8_t _cs_gpio;
   9:../../lpc11cx4-library/evt_lib/src/lc1024.c **** static uint8_t _cs_pin;
  10:../../lpc11cx4-library/evt_lib/src/lc1024.c **** static uint32_t _baud;
  11:../../lpc11cx4-library/evt_lib/src/lc1024.c **** static LPC_SSP_T *_pSSP;
  12:../../lpc11cx4-library/evt_lib/src/lc1024.c **** 
  13:../../lpc11cx4-library/evt_lib/src/lc1024.c **** static char str[10];
  14:../../lpc11cx4-library/evt_lib/src/lc1024.c **** 
  15:../../lpc11cx4-library/evt_lib/src/lc1024.c **** 
  16:../../lpc11cx4-library/evt_lib/src/lc1024.c **** void ZeroTxBuf(uint8_t start);
  17:../../lpc11cx4-library/evt_lib/src/lc1024.c **** 
  18:../../lpc11cx4-library/evt_lib/src/lc1024.c **** void LC1024_Init(LPC_SSP_T *pSSP, uint32_t baud, uint8_t cs_gpio, uint8_t cs_pin) {
  77              		.loc 1 18 0
  78              		.cfi_startproc
  79              	.LVL0:
  80 0000 F0B5     		push	{r4, r5, r6, r7, lr}	@
  81              		.cfi_def_cfa_offset 20
  82              		.cfi_offset 4, -20
  83              		.cfi_offset 5, -16
  84              		.cfi_offset 6, -12
  85              		.cfi_offset 7, -8
  86              		.cfi_offset 14, -4
  87 0002 4746     		mov	r7, r8	@,
  19:../../lpc11cx4-library/evt_lib/src/lc1024.c ****     _pSSP = pSSP;
  20:../../lpc11cx4-library/evt_lib/src/lc1024.c **** 	_baud = baud;
  88              		.loc 1 20 0
  89 0004 224E     		ldr	r6, .L5	@ tmp171,
  18:../../lpc11cx4-library/evt_lib/src/lc1024.c ****     _pSSP = pSSP;
  90              		.loc 1 18 0
  91 0006 80B4     		push	{r7}	@
  92              		.cfi_def_cfa_offset 24
  93              		.cfi_offset 8, -24
ARM GAS  /tmp/ccYwUl1E.s 			page 3


  94              		.loc 1 20 0
  95 0008 3160     		str	r1, [r6]	@ baud, _baud
  21:../../lpc11cx4-library/evt_lib/src/lc1024.c **** 	_cs_gpio = cs_gpio;
  96              		.loc 1 21 0
  97 000a 2249     		ldr	r1, .L5+4	@ tmp172,
  98              	.LVL1:
  99              	.LBB46:
 100              	.LBB47:
 101              		.file 2 "../../lpc11cx4-library/lpc_chip_11cxx_lib/inc/iocon_11xx.h"
   1:../../lpc11cx4-library/lpc_chip_11cxx_lib/inc/iocon_11xx.h **** /*
   2:../../lpc11cx4-library/lpc_chip_11cxx_lib/inc/iocon_11xx.h ****  * @brief IOCON registers and control functions
   3:../../lpc11cx4-library/lpc_chip_11cxx_lib/inc/iocon_11xx.h ****  *
   4:../../lpc11cx4-library/lpc_chip_11cxx_lib/inc/iocon_11xx.h ****  * @note
   5:../../lpc11cx4-library/lpc_chip_11cxx_lib/inc/iocon_11xx.h ****  * Copyright(C) NXP Semiconductors, 2012
   6:../../lpc11cx4-library/lpc_chip_11cxx_lib/inc/iocon_11xx.h ****  * All rights reserved.
   7:../../lpc11cx4-library/lpc_chip_11cxx_lib/inc/iocon_11xx.h ****  *
   8:../../lpc11cx4-library/lpc_chip_11cxx_lib/inc/iocon_11xx.h ****  * @par
   9:../../lpc11cx4-library/lpc_chip_11cxx_lib/inc/iocon_11xx.h ****  * Software that is described herein is for illustrative purposes only
  10:../../lpc11cx4-library/lpc_chip_11cxx_lib/inc/iocon_11xx.h ****  * which provides customers with programming information regarding the
  11:../../lpc11cx4-library/lpc_chip_11cxx_lib/inc/iocon_11xx.h ****  * LPC products.  This software is supplied "AS IS" without any warranties of
  12:../../lpc11cx4-library/lpc_chip_11cxx_lib/inc/iocon_11xx.h ****  * any kind, and NXP Semiconductors and its licensor disclaim any and
  13:../../lpc11cx4-library/lpc_chip_11cxx_lib/inc/iocon_11xx.h ****  * all warranties, express or implied, including all implied warranties of
  14:../../lpc11cx4-library/lpc_chip_11cxx_lib/inc/iocon_11xx.h ****  * merchantability, fitness for a particular purpose and non-infringement of
  15:../../lpc11cx4-library/lpc_chip_11cxx_lib/inc/iocon_11xx.h ****  * intellectual property rights.  NXP Semiconductors assumes no responsibility
  16:../../lpc11cx4-library/lpc_chip_11cxx_lib/inc/iocon_11xx.h ****  * or liability for the use of the software, conveys no license or rights under any
  17:../../lpc11cx4-library/lpc_chip_11cxx_lib/inc/iocon_11xx.h ****  * patent, copyright, mask work right, or any other intellectual property rights in
  18:../../lpc11cx4-library/lpc_chip_11cxx_lib/inc/iocon_11xx.h ****  * or to any products. NXP Semiconductors reserves the right to make changes
  19:../../lpc11cx4-library/lpc_chip_11cxx_lib/inc/iocon_11xx.h ****  * in the software without notification. NXP Semiconductors also makes no
  20:../../lpc11cx4-library/lpc_chip_11cxx_lib/inc/iocon_11xx.h ****  * representation or warranty that such application will be suitable for the
  21:../../lpc11cx4-library/lpc_chip_11cxx_lib/inc/iocon_11xx.h ****  * specified use without further testing or modification.
  22:../../lpc11cx4-library/lpc_chip_11cxx_lib/inc/iocon_11xx.h ****  *
  23:../../lpc11cx4-library/lpc_chip_11cxx_lib/inc/iocon_11xx.h ****  * @par
  24:../../lpc11cx4-library/lpc_chip_11cxx_lib/inc/iocon_11xx.h ****  * Permission to use, copy, modify, and distribute this software and its
  25:../../lpc11cx4-library/lpc_chip_11cxx_lib/inc/iocon_11xx.h ****  * documentation is hereby granted, under NXP Semiconductors' and its
  26:../../lpc11cx4-library/lpc_chip_11cxx_lib/inc/iocon_11xx.h ****  * licensor's relevant copyrights in the software, without fee, provided that it
  27:../../lpc11cx4-library/lpc_chip_11cxx_lib/inc/iocon_11xx.h ****  * is used in conjunction with NXP Semiconductors microcontrollers.  This
  28:../../lpc11cx4-library/lpc_chip_11cxx_lib/inc/iocon_11xx.h ****  * copyright, permission, and disclaimer notice must appear in all copies of
  29:../../lpc11cx4-library/lpc_chip_11cxx_lib/inc/iocon_11xx.h ****  * this code.
  30:../../lpc11cx4-library/lpc_chip_11cxx_lib/inc/iocon_11xx.h ****  */
  31:../../lpc11cx4-library/lpc_chip_11cxx_lib/inc/iocon_11xx.h **** 
  32:../../lpc11cx4-library/lpc_chip_11cxx_lib/inc/iocon_11xx.h **** #ifndef __IOCON_11XX_H_
  33:../../lpc11cx4-library/lpc_chip_11cxx_lib/inc/iocon_11xx.h **** #define __IOCON_11XX_H_
  34:../../lpc11cx4-library/lpc_chip_11cxx_lib/inc/iocon_11xx.h **** 
  35:../../lpc11cx4-library/lpc_chip_11cxx_lib/inc/iocon_11xx.h **** #ifdef __cplusplus
  36:../../lpc11cx4-library/lpc_chip_11cxx_lib/inc/iocon_11xx.h **** extern "C" {
  37:../../lpc11cx4-library/lpc_chip_11cxx_lib/inc/iocon_11xx.h **** #endif
  38:../../lpc11cx4-library/lpc_chip_11cxx_lib/inc/iocon_11xx.h **** 
  39:../../lpc11cx4-library/lpc_chip_11cxx_lib/inc/iocon_11xx.h **** /** @defgroup IOCON_11XX CHIP: LPC11xx IO Control driver
  40:../../lpc11cx4-library/lpc_chip_11cxx_lib/inc/iocon_11xx.h ****  * @ingroup CHIP_11XX_Drivers
  41:../../lpc11cx4-library/lpc_chip_11cxx_lib/inc/iocon_11xx.h ****  * @{
  42:../../lpc11cx4-library/lpc_chip_11cxx_lib/inc/iocon_11xx.h ****  */
  43:../../lpc11cx4-library/lpc_chip_11cxx_lib/inc/iocon_11xx.h **** 
  44:../../lpc11cx4-library/lpc_chip_11cxx_lib/inc/iocon_11xx.h **** /**
  45:../../lpc11cx4-library/lpc_chip_11cxx_lib/inc/iocon_11xx.h ****  * @brief IO Configuration Unit register block structure
  46:../../lpc11cx4-library/lpc_chip_11cxx_lib/inc/iocon_11xx.h ****  */
  47:../../lpc11cx4-library/lpc_chip_11cxx_lib/inc/iocon_11xx.h **** #if defined(CHIP_LPC11UXX) || defined(CHIP_LPC11EXX) || defined(CHIP_LPC11AXX)
  48:../../lpc11cx4-library/lpc_chip_11cxx_lib/inc/iocon_11xx.h **** typedef struct {						/*!< LPC11AXX/LPC11UXX/LPC11EXX IOCON Structure */
ARM GAS  /tmp/ccYwUl1E.s 			page 4


  49:../../lpc11cx4-library/lpc_chip_11cxx_lib/inc/iocon_11xx.h **** 	__IO uint32_t  PIO0[24];
  50:../../lpc11cx4-library/lpc_chip_11cxx_lib/inc/iocon_11xx.h **** 	__IO uint32_t  PIO1[32];
  51:../../lpc11cx4-library/lpc_chip_11cxx_lib/inc/iocon_11xx.h **** } LPC_IOCON_T;
  52:../../lpc11cx4-library/lpc_chip_11cxx_lib/inc/iocon_11xx.h **** 
  53:../../lpc11cx4-library/lpc_chip_11cxx_lib/inc/iocon_11xx.h **** #else
  54:../../lpc11cx4-library/lpc_chip_11cxx_lib/inc/iocon_11xx.h **** /**
  55:../../lpc11cx4-library/lpc_chip_11cxx_lib/inc/iocon_11xx.h ****  * @brief LPC11XX I/O Configuration register offset
  56:../../lpc11cx4-library/lpc_chip_11cxx_lib/inc/iocon_11xx.h ****  */
  57:../../lpc11cx4-library/lpc_chip_11cxx_lib/inc/iocon_11xx.h **** typedef enum CHIP_IOCON_PIO {
  58:../../lpc11cx4-library/lpc_chip_11cxx_lib/inc/iocon_11xx.h **** 	IOCON_PIO0_0 = (0x00C >> 2),
  59:../../lpc11cx4-library/lpc_chip_11cxx_lib/inc/iocon_11xx.h **** 	IOCON_PIO0_1 = (0x010 >> 2),
  60:../../lpc11cx4-library/lpc_chip_11cxx_lib/inc/iocon_11xx.h **** 	IOCON_PIO0_2 = (0x01C >> 2),
  61:../../lpc11cx4-library/lpc_chip_11cxx_lib/inc/iocon_11xx.h **** 	IOCON_PIO0_3 = (0x02C >> 2),
  62:../../lpc11cx4-library/lpc_chip_11cxx_lib/inc/iocon_11xx.h **** 	IOCON_PIO0_4 = (0x030 >> 2),
  63:../../lpc11cx4-library/lpc_chip_11cxx_lib/inc/iocon_11xx.h **** 	IOCON_PIO0_5 = (0x034 >> 2),
  64:../../lpc11cx4-library/lpc_chip_11cxx_lib/inc/iocon_11xx.h **** 	IOCON_PIO0_6 = (0x04C >> 2),
  65:../../lpc11cx4-library/lpc_chip_11cxx_lib/inc/iocon_11xx.h **** 	IOCON_PIO0_7 = (0x050 >> 2),
  66:../../lpc11cx4-library/lpc_chip_11cxx_lib/inc/iocon_11xx.h **** 	IOCON_PIO0_8 = (0x060 >> 2),
  67:../../lpc11cx4-library/lpc_chip_11cxx_lib/inc/iocon_11xx.h **** 	IOCON_PIO0_9 = (0x064 >> 2),
  68:../../lpc11cx4-library/lpc_chip_11cxx_lib/inc/iocon_11xx.h **** 	IOCON_PIO0_10 = (0x068 >> 2),
  69:../../lpc11cx4-library/lpc_chip_11cxx_lib/inc/iocon_11xx.h **** 	IOCON_PIO0_11 = (0x074 >> 2),
  70:../../lpc11cx4-library/lpc_chip_11cxx_lib/inc/iocon_11xx.h **** 
  71:../../lpc11cx4-library/lpc_chip_11cxx_lib/inc/iocon_11xx.h **** 	IOCON_PIO1_0 = (0x078 >> 2),
  72:../../lpc11cx4-library/lpc_chip_11cxx_lib/inc/iocon_11xx.h **** 	IOCON_PIO1_1 = (0x07C >> 2),
  73:../../lpc11cx4-library/lpc_chip_11cxx_lib/inc/iocon_11xx.h **** 	IOCON_PIO1_2 = (0x080 >> 2),
  74:../../lpc11cx4-library/lpc_chip_11cxx_lib/inc/iocon_11xx.h **** 	IOCON_PIO1_3 = (0x090 >> 2),
  75:../../lpc11cx4-library/lpc_chip_11cxx_lib/inc/iocon_11xx.h **** 	IOCON_PIO1_4 = (0x094 >> 2),
  76:../../lpc11cx4-library/lpc_chip_11cxx_lib/inc/iocon_11xx.h **** 	IOCON_PIO1_5 = (0x0A0 >> 2),
  77:../../lpc11cx4-library/lpc_chip_11cxx_lib/inc/iocon_11xx.h **** 	IOCON_PIO1_6 = (0x0A4 >> 2),
  78:../../lpc11cx4-library/lpc_chip_11cxx_lib/inc/iocon_11xx.h **** 	IOCON_PIO1_7 = (0x0A8 >> 2),
  79:../../lpc11cx4-library/lpc_chip_11cxx_lib/inc/iocon_11xx.h **** 	IOCON_PIO1_8 = (0x014 >> 2),
  80:../../lpc11cx4-library/lpc_chip_11cxx_lib/inc/iocon_11xx.h **** 	IOCON_PIO1_9 = (0x038 >> 2),
  81:../../lpc11cx4-library/lpc_chip_11cxx_lib/inc/iocon_11xx.h **** 	IOCON_PIO1_10 = (0x06C >> 2),
  82:../../lpc11cx4-library/lpc_chip_11cxx_lib/inc/iocon_11xx.h **** 	IOCON_PIO1_11 = (0x098 >> 2),
  83:../../lpc11cx4-library/lpc_chip_11cxx_lib/inc/iocon_11xx.h **** 
  84:../../lpc11cx4-library/lpc_chip_11cxx_lib/inc/iocon_11xx.h **** 	IOCON_PIO2_0 = (0x008 >> 2),
  85:../../lpc11cx4-library/lpc_chip_11cxx_lib/inc/iocon_11xx.h **** 	IOCON_PIO2_1 = (0x028 >> 2),
  86:../../lpc11cx4-library/lpc_chip_11cxx_lib/inc/iocon_11xx.h **** 	IOCON_PIO2_2 = (0x05C >> 2),
  87:../../lpc11cx4-library/lpc_chip_11cxx_lib/inc/iocon_11xx.h **** 	IOCON_PIO2_3 = (0x08C >> 2),
  88:../../lpc11cx4-library/lpc_chip_11cxx_lib/inc/iocon_11xx.h **** 	IOCON_PIO2_4 = (0x040 >> 2),
  89:../../lpc11cx4-library/lpc_chip_11cxx_lib/inc/iocon_11xx.h **** 	IOCON_PIO2_5 = (0x044 >> 2),
  90:../../lpc11cx4-library/lpc_chip_11cxx_lib/inc/iocon_11xx.h **** 	IOCON_PIO2_6 = (0x000 >> 2),
  91:../../lpc11cx4-library/lpc_chip_11cxx_lib/inc/iocon_11xx.h **** 	IOCON_PIO2_7 = (0x020 >> 2),
  92:../../lpc11cx4-library/lpc_chip_11cxx_lib/inc/iocon_11xx.h **** 	IOCON_PIO2_8 = (0x024 >> 2),
  93:../../lpc11cx4-library/lpc_chip_11cxx_lib/inc/iocon_11xx.h **** 	IOCON_PIO2_9 = (0x054 >> 2),
  94:../../lpc11cx4-library/lpc_chip_11cxx_lib/inc/iocon_11xx.h **** 	IOCON_PIO2_10 = (0x058 >> 2),
  95:../../lpc11cx4-library/lpc_chip_11cxx_lib/inc/iocon_11xx.h **** #if !defined(CHIP_LPC1125)
  96:../../lpc11cx4-library/lpc_chip_11cxx_lib/inc/iocon_11xx.h **** 	IOCON_PIO2_11 = (0x070 >> 2),
  97:../../lpc11cx4-library/lpc_chip_11cxx_lib/inc/iocon_11xx.h **** #endif
  98:../../lpc11cx4-library/lpc_chip_11cxx_lib/inc/iocon_11xx.h **** 
  99:../../lpc11cx4-library/lpc_chip_11cxx_lib/inc/iocon_11xx.h **** 	IOCON_PIO3_0 = (0x084 >> 2),
 100:../../lpc11cx4-library/lpc_chip_11cxx_lib/inc/iocon_11xx.h **** #if !defined(CHIP_LPC1125)
 101:../../lpc11cx4-library/lpc_chip_11cxx_lib/inc/iocon_11xx.h **** 	IOCON_PIO3_1 = (0x088 >> 2),
 102:../../lpc11cx4-library/lpc_chip_11cxx_lib/inc/iocon_11xx.h **** #endif    
 103:../../lpc11cx4-library/lpc_chip_11cxx_lib/inc/iocon_11xx.h **** 	IOCON_PIO3_2 = (0x09C >> 2),
 104:../../lpc11cx4-library/lpc_chip_11cxx_lib/inc/iocon_11xx.h **** 	IOCON_PIO3_3 = (0x0AC >> 2),
 105:../../lpc11cx4-library/lpc_chip_11cxx_lib/inc/iocon_11xx.h **** 	IOCON_PIO3_4 = (0x03C >> 2),
ARM GAS  /tmp/ccYwUl1E.s 			page 5


 106:../../lpc11cx4-library/lpc_chip_11cxx_lib/inc/iocon_11xx.h **** 	IOCON_PIO3_5 = (0x048 >> 2),
 107:../../lpc11cx4-library/lpc_chip_11cxx_lib/inc/iocon_11xx.h **** } CHIP_IOCON_PIO_T;
 108:../../lpc11cx4-library/lpc_chip_11cxx_lib/inc/iocon_11xx.h **** 
 109:../../lpc11cx4-library/lpc_chip_11cxx_lib/inc/iocon_11xx.h **** /**
 110:../../lpc11cx4-library/lpc_chip_11cxx_lib/inc/iocon_11xx.h ****  * @brief LPC11XX Pin location select
 111:../../lpc11cx4-library/lpc_chip_11cxx_lib/inc/iocon_11xx.h ****  */
 112:../../lpc11cx4-library/lpc_chip_11cxx_lib/inc/iocon_11xx.h **** typedef enum CHIP_IOCON_PIN_LOC {
 113:../../lpc11cx4-library/lpc_chip_11cxx_lib/inc/iocon_11xx.h **** 	IOCON_SCKLOC_PIO0_10        = (0xB0),		/*!< Selects SCK0 function in pin location PIO0_10 */
 114:../../lpc11cx4-library/lpc_chip_11cxx_lib/inc/iocon_11xx.h **** #if !defined(CHIP_LPC1125)
 115:../../lpc11cx4-library/lpc_chip_11cxx_lib/inc/iocon_11xx.h **** 	IOCON_SCKLOC_PIO2_11        = (0xB0 | 1),	/*!< Selects SCK0 function in pin location PIO2_11 */
 116:../../lpc11cx4-library/lpc_chip_11cxx_lib/inc/iocon_11xx.h **** #endif    
 117:../../lpc11cx4-library/lpc_chip_11cxx_lib/inc/iocon_11xx.h **** 	IOCON_SCKLOC_PIO0_6         = (0xB0 | 2),	/*!< Selects SCK0 function in pin location PIO0_6 */
 118:../../lpc11cx4-library/lpc_chip_11cxx_lib/inc/iocon_11xx.h ****     
 119:../../lpc11cx4-library/lpc_chip_11cxx_lib/inc/iocon_11xx.h **** 	IOCON_DSRLOC_PIO2_1         = (0xB4),		/*!< Selects DSR function in pin location PIO2_1 */
 120:../../lpc11cx4-library/lpc_chip_11cxx_lib/inc/iocon_11xx.h **** #if !defined(CHIP_LPC1125)
 121:../../lpc11cx4-library/lpc_chip_11cxx_lib/inc/iocon_11xx.h **** 	IOCON_DSRLOC_PIO3_1         = (0xB4 | 1),	/*!< Selects DSR function in pin location PIO3_1 */
 122:../../lpc11cx4-library/lpc_chip_11cxx_lib/inc/iocon_11xx.h **** #endif    
 123:../../lpc11cx4-library/lpc_chip_11cxx_lib/inc/iocon_11xx.h ****     
 124:../../lpc11cx4-library/lpc_chip_11cxx_lib/inc/iocon_11xx.h **** 	IOCON_DCDLOC_PIO2_2         = (0xB8),		/*!< Selects DCD function in pin location PIO2_2 */
 125:../../lpc11cx4-library/lpc_chip_11cxx_lib/inc/iocon_11xx.h **** 	IOCON_DCDLOC_PIO3_2         = (0xB8 | 1),	/*!< Selects DCD function in pin location PIO3_2 */
 126:../../lpc11cx4-library/lpc_chip_11cxx_lib/inc/iocon_11xx.h ****     
 127:../../lpc11cx4-library/lpc_chip_11cxx_lib/inc/iocon_11xx.h **** 	IOCON_RILOC_PIO2_3          = (0xBC),		/*!< Selects RI function in pin location PIO2_3 */
 128:../../lpc11cx4-library/lpc_chip_11cxx_lib/inc/iocon_11xx.h **** 	IOCON_RILOC_PIO3_3          = (0xBC | 1),	/*!< Selects Ri function in pin location PIO3_3 */
 129:../../lpc11cx4-library/lpc_chip_11cxx_lib/inc/iocon_11xx.h **** 
 130:../../lpc11cx4-library/lpc_chip_11cxx_lib/inc/iocon_11xx.h **** #if defined(CHIP_LPC1125)
 131:../../lpc11cx4-library/lpc_chip_11cxx_lib/inc/iocon_11xx.h **** 	IOCON_SSEL1_LOC_PIO2_2      = (0x18),		/*!< Selects SSEL1 function in pin location PIO2_2 */
 132:../../lpc11cx4-library/lpc_chip_11cxx_lib/inc/iocon_11xx.h **** 	IOCON_SSEL1_LOC_PIO2_4      = (0x18 | 1),	/*!< Selects SSEL1 function in pin location PIO2_4 */
 133:../../lpc11cx4-library/lpc_chip_11cxx_lib/inc/iocon_11xx.h **** 	
 134:../../lpc11cx4-library/lpc_chip_11cxx_lib/inc/iocon_11xx.h ****     IOCON_CT16B0_CAP0_LOC_PIO0_2 = (0xC0),		/*!< Selects SSEL1 CTB16B0_CAP0 function in pin locatio
 135:../../lpc11cx4-library/lpc_chip_11cxx_lib/inc/iocon_11xx.h ****     IOCON_CT16B0_CAP0_LOC_PIO3_3 = (0xC0 | 1),	/*!< Selects SSEL1 CTB16B0_CAP0 function in pin loca
 136:../../lpc11cx4-library/lpc_chip_11cxx_lib/inc/iocon_11xx.h ****     
 137:../../lpc11cx4-library/lpc_chip_11cxx_lib/inc/iocon_11xx.h ****     IOCON_SCK1_LOC_PIO2_1       = (0xC4),		/*!< Selects SCK1 function in pin location PIO2_1 */
 138:../../lpc11cx4-library/lpc_chip_11cxx_lib/inc/iocon_11xx.h ****     IOCON_SCK1_LOC_PIO3_2       = (0xC4 | 1),	/*!< Selects SCK1 function in pin location PIO3_2 */
 139:../../lpc11cx4-library/lpc_chip_11cxx_lib/inc/iocon_11xx.h ****     
 140:../../lpc11cx4-library/lpc_chip_11cxx_lib/inc/iocon_11xx.h ****     IOCON_MISO1_LOC_PIO2_2      = (0xC8),		/*!< Selects MISO1 function in pin location PIO2_2 */
 141:../../lpc11cx4-library/lpc_chip_11cxx_lib/inc/iocon_11xx.h ****     IOCON_MISO1_LOC_PIO1_10     = (0xC8 | 1),	/*!< Selects MISO1 function in pin location PIO1_10 *
 142:../../lpc11cx4-library/lpc_chip_11cxx_lib/inc/iocon_11xx.h ****     
 143:../../lpc11cx4-library/lpc_chip_11cxx_lib/inc/iocon_11xx.h ****     IOCON_MOSI1_LOC_PIO2_3      = (0xCC),		/*!< Selects MOSI1 function in pin location PIO2_3 */
 144:../../lpc11cx4-library/lpc_chip_11cxx_lib/inc/iocon_11xx.h ****     IOCON_MOSI1_LOC_PIO1_9      = (0xCC),		/*!< Selects MOSI1 function in pin location PIO1_9 */
 145:../../lpc11cx4-library/lpc_chip_11cxx_lib/inc/iocon_11xx.h ****     
 146:../../lpc11cx4-library/lpc_chip_11cxx_lib/inc/iocon_11xx.h ****     IOCON_CT326B0_CAP0_LOC_PIO1_5 = (0xD0),		/*!< Selects CT32B0_CAP0 function in pin location PIO1
 147:../../lpc11cx4-library/lpc_chip_11cxx_lib/inc/iocon_11xx.h ****     IOCON_CT326B0_CAP0_LOC_PIO2_9 = (0xD0 | 1),	/*!< Selects CT32B0_CAP0 function in pin location P
 148:../../lpc11cx4-library/lpc_chip_11cxx_lib/inc/iocon_11xx.h ****     
 149:../../lpc11cx4-library/lpc_chip_11cxx_lib/inc/iocon_11xx.h ****     IOCON_U0_RXD_LOC_PIO1_6     = (0xD4),		/*!< Selects U0 RXD function in pin location PIO1_6 */
 150:../../lpc11cx4-library/lpc_chip_11cxx_lib/inc/iocon_11xx.h ****     IOCON_U0_RXD_LOC_PIO2_7     = (0xD4 | 1),   /*!< Selects U0 RXD function in pin location PIO2_7
 151:../../lpc11cx4-library/lpc_chip_11cxx_lib/inc/iocon_11xx.h ****     IOCON_U0_RXD_LOC_PIO3_4     = (0xD4 | 3),   /*!< Selects U0 RXD function in pin location PIO3_4
 152:../../lpc11cx4-library/lpc_chip_11cxx_lib/inc/iocon_11xx.h **** #endif
 153:../../lpc11cx4-library/lpc_chip_11cxx_lib/inc/iocon_11xx.h **** 
 154:../../lpc11cx4-library/lpc_chip_11cxx_lib/inc/iocon_11xx.h **** } CHIP_IOCON_PIN_LOC_T;
 155:../../lpc11cx4-library/lpc_chip_11cxx_lib/inc/iocon_11xx.h **** 
 156:../../lpc11cx4-library/lpc_chip_11cxx_lib/inc/iocon_11xx.h **** typedef struct {						/*!< LPC11XX/LPC11XXLV/LPC11UXX IOCON Structure */
 157:../../lpc11cx4-library/lpc_chip_11cxx_lib/inc/iocon_11xx.h **** 	__IO uint32_t  REG[48];
 158:../../lpc11cx4-library/lpc_chip_11cxx_lib/inc/iocon_11xx.h **** } LPC_IOCON_T;
 159:../../lpc11cx4-library/lpc_chip_11cxx_lib/inc/iocon_11xx.h **** #endif
 160:../../lpc11cx4-library/lpc_chip_11cxx_lib/inc/iocon_11xx.h **** 
 161:../../lpc11cx4-library/lpc_chip_11cxx_lib/inc/iocon_11xx.h **** /**
 162:../../lpc11cx4-library/lpc_chip_11cxx_lib/inc/iocon_11xx.h ****  * IOCON function and mode selection definitions
ARM GAS  /tmp/ccYwUl1E.s 			page 6


 163:../../lpc11cx4-library/lpc_chip_11cxx_lib/inc/iocon_11xx.h ****  * See the User Manual for specific modes and functions supported by the
 164:../../lpc11cx4-library/lpc_chip_11cxx_lib/inc/iocon_11xx.h ****  * various LPC11xx devices. Functionality can vary per device.
 165:../../lpc11cx4-library/lpc_chip_11cxx_lib/inc/iocon_11xx.h ****  */
 166:../../lpc11cx4-library/lpc_chip_11cxx_lib/inc/iocon_11xx.h **** #define IOCON_FUNC0             0x0				/*!< Selects pin function 0 */
 167:../../lpc11cx4-library/lpc_chip_11cxx_lib/inc/iocon_11xx.h **** #define IOCON_FUNC1             0x1				/*!< Selects pin function 1 */
 168:../../lpc11cx4-library/lpc_chip_11cxx_lib/inc/iocon_11xx.h **** #define IOCON_FUNC2             0x2				/*!< Selects pin function 2 */
 169:../../lpc11cx4-library/lpc_chip_11cxx_lib/inc/iocon_11xx.h **** #define IOCON_FUNC3             0x3				/*!< Selects pin function 3 */
 170:../../lpc11cx4-library/lpc_chip_11cxx_lib/inc/iocon_11xx.h **** #define IOCON_FUNC4             0x4				/*!< Selects pin function 4 */
 171:../../lpc11cx4-library/lpc_chip_11cxx_lib/inc/iocon_11xx.h **** #define IOCON_FUNC5             0x5				/*!< Selects pin function 5 */
 172:../../lpc11cx4-library/lpc_chip_11cxx_lib/inc/iocon_11xx.h **** #define IOCON_FUNC6             0x6				/*!< Selects pin function 6 */
 173:../../lpc11cx4-library/lpc_chip_11cxx_lib/inc/iocon_11xx.h **** #define IOCON_FUNC7             0x7				/*!< Selects pin function 7 */
 174:../../lpc11cx4-library/lpc_chip_11cxx_lib/inc/iocon_11xx.h **** #define IOCON_MODE_INACT        (0x0 << 3)		/*!< No addition pin function */
 175:../../lpc11cx4-library/lpc_chip_11cxx_lib/inc/iocon_11xx.h **** #define IOCON_MODE_PULLDOWN     (0x1 << 3)		/*!< Selects pull-down function */
 176:../../lpc11cx4-library/lpc_chip_11cxx_lib/inc/iocon_11xx.h **** #define IOCON_MODE_PULLUP       (0x2 << 3)		/*!< Selects pull-up function */
 177:../../lpc11cx4-library/lpc_chip_11cxx_lib/inc/iocon_11xx.h **** #define IOCON_MODE_REPEATER     (0x3 << 3)		/*!< Selects pin repeater function */
 178:../../lpc11cx4-library/lpc_chip_11cxx_lib/inc/iocon_11xx.h **** #define IOCON_HYS_EN            (0x1 << 5)		/*!< Enables hysteresis */
 179:../../lpc11cx4-library/lpc_chip_11cxx_lib/inc/iocon_11xx.h **** #define IOCON_INV_EN            (0x1 << 6)		/*!< Enables invert function on input */
 180:../../lpc11cx4-library/lpc_chip_11cxx_lib/inc/iocon_11xx.h **** #define IOCON_ADMODE_EN         (0x0 << 7)		/*!< Enables analog input function (analog pins only) *
 181:../../lpc11cx4-library/lpc_chip_11cxx_lib/inc/iocon_11xx.h **** #define IOCON_DIGMODE_EN        (0x1 << 7)		/*!< Enables digital function (analog pins only) */
 182:../../lpc11cx4-library/lpc_chip_11cxx_lib/inc/iocon_11xx.h **** #define IOCON_SFI2C_EN          (0x0 << 8)		/*!< I2C standard mode/fast-mode */
 183:../../lpc11cx4-library/lpc_chip_11cxx_lib/inc/iocon_11xx.h **** #define IOCON_STDI2C_EN         (0x1 << 8)		/*!< I2C standard I/O functionality */
 184:../../lpc11cx4-library/lpc_chip_11cxx_lib/inc/iocon_11xx.h **** #define IOCON_FASTI2C_EN        (0x2 << 8)		/*!< I2C Fast-mode Plus */
 185:../../lpc11cx4-library/lpc_chip_11cxx_lib/inc/iocon_11xx.h **** #define IOCON_FILT_DIS          (0x1 << 8)		/*!< Disables noise pulses filtering (10nS glitch filte
 186:../../lpc11cx4-library/lpc_chip_11cxx_lib/inc/iocon_11xx.h **** #define IOCON_OPENDRAIN_EN      (0x1 << 10)		/*!< Enables open-drain function */
 187:../../lpc11cx4-library/lpc_chip_11cxx_lib/inc/iocon_11xx.h **** 
 188:../../lpc11cx4-library/lpc_chip_11cxx_lib/inc/iocon_11xx.h **** /**
 189:../../lpc11cx4-library/lpc_chip_11cxx_lib/inc/iocon_11xx.h ****  * IOCON function and mode selection definitions (old)
 190:../../lpc11cx4-library/lpc_chip_11cxx_lib/inc/iocon_11xx.h ****  * For backwards compatibility.
 191:../../lpc11cx4-library/lpc_chip_11cxx_lib/inc/iocon_11xx.h ****  */
 192:../../lpc11cx4-library/lpc_chip_11cxx_lib/inc/iocon_11xx.h **** #define MD_PLN					(0x0 << 3)		/*!< Disable pull-down and pull-up resistor at resistor at pad */
 193:../../lpc11cx4-library/lpc_chip_11cxx_lib/inc/iocon_11xx.h **** #define MD_PDN					(0x1 << 3)		/*!< Enable pull-down resistor at pad */
 194:../../lpc11cx4-library/lpc_chip_11cxx_lib/inc/iocon_11xx.h **** #define MD_PUP					(0x2 << 3)		/*!< Enable pull-up resistor at pad */
 195:../../lpc11cx4-library/lpc_chip_11cxx_lib/inc/iocon_11xx.h **** #define MD_BUK					(0x3 << 3)		/*!< Enable pull-down and pull-up resistor at resistor at pad (repea
 196:../../lpc11cx4-library/lpc_chip_11cxx_lib/inc/iocon_11xx.h **** #define MD_HYS					(0x1 << 5)		/*!< Enable hysteresis */
 197:../../lpc11cx4-library/lpc_chip_11cxx_lib/inc/iocon_11xx.h **** #define MD_INV					(0x1 << 6)		/*!< Invert enable */
 198:../../lpc11cx4-library/lpc_chip_11cxx_lib/inc/iocon_11xx.h **** #define MD_ADMODE				(0x0 << 7)		/*!< Select analog mode */
 199:../../lpc11cx4-library/lpc_chip_11cxx_lib/inc/iocon_11xx.h **** #define MD_DIGMODE				(0x1 << 7)		/*!< Select digitial mode */
 200:../../lpc11cx4-library/lpc_chip_11cxx_lib/inc/iocon_11xx.h **** #define MD_DISFIL				(0x0 << 8)		/*!< Disable 10nS input glitch filter */
 201:../../lpc11cx4-library/lpc_chip_11cxx_lib/inc/iocon_11xx.h **** #define MD_ENFIL				(0x1 << 8)		/*!< Enable 10nS input glitch filter */
 202:../../lpc11cx4-library/lpc_chip_11cxx_lib/inc/iocon_11xx.h **** #define MD_SFI2C				(0x0 << 8)		/*!< I2C standard mode/fast-mode */
 203:../../lpc11cx4-library/lpc_chip_11cxx_lib/inc/iocon_11xx.h **** #define MD_STDI2C				(0x1 << 8)		/*!< I2C standard I/O functionality */
 204:../../lpc11cx4-library/lpc_chip_11cxx_lib/inc/iocon_11xx.h **** #define MD_FASTI2C				(0x2 << 8)		/*!< I2C Fast-mode Plus */
 205:../../lpc11cx4-library/lpc_chip_11cxx_lib/inc/iocon_11xx.h **** #define MD_OPENDRAIN			(0x1 << 10)		/*!< Open drain mode bit */
 206:../../lpc11cx4-library/lpc_chip_11cxx_lib/inc/iocon_11xx.h **** #define FUNC0 0x0
 207:../../lpc11cx4-library/lpc_chip_11cxx_lib/inc/iocon_11xx.h **** #define FUNC1 0x1
 208:../../lpc11cx4-library/lpc_chip_11cxx_lib/inc/iocon_11xx.h **** #define FUNC2 0x2
 209:../../lpc11cx4-library/lpc_chip_11cxx_lib/inc/iocon_11xx.h **** #define FUNC3 0x3
 210:../../lpc11cx4-library/lpc_chip_11cxx_lib/inc/iocon_11xx.h **** #define FUNC4 0x4
 211:../../lpc11cx4-library/lpc_chip_11cxx_lib/inc/iocon_11xx.h **** #define FUNC5 0x5
 212:../../lpc11cx4-library/lpc_chip_11cxx_lib/inc/iocon_11xx.h **** #define FUNC6 0x6
 213:../../lpc11cx4-library/lpc_chip_11cxx_lib/inc/iocon_11xx.h **** #define FUNC7 0x7
 214:../../lpc11cx4-library/lpc_chip_11cxx_lib/inc/iocon_11xx.h **** 
 215:../../lpc11cx4-library/lpc_chip_11cxx_lib/inc/iocon_11xx.h **** #if defined(CHIP_LPC11UXX) || defined(CHIP_LPC11EXX) || defined(CHIP_LPC11AXX)
 216:../../lpc11cx4-library/lpc_chip_11cxx_lib/inc/iocon_11xx.h **** /**
 217:../../lpc11cx4-library/lpc_chip_11cxx_lib/inc/iocon_11xx.h ****  * @brief	Sets I/O Control pin mux
 218:../../lpc11cx4-library/lpc_chip_11cxx_lib/inc/iocon_11xx.h ****  * @param	pIOCON		: The base of IOCON peripheral on the chip
 219:../../lpc11cx4-library/lpc_chip_11cxx_lib/inc/iocon_11xx.h ****  * @param	port		: GPIO port to mux
ARM GAS  /tmp/ccYwUl1E.s 			page 7


 220:../../lpc11cx4-library/lpc_chip_11cxx_lib/inc/iocon_11xx.h ****  * @param	pin			: GPIO pin to mux
 221:../../lpc11cx4-library/lpc_chip_11cxx_lib/inc/iocon_11xx.h ****  * @param	modefunc	: OR'ed values or type IOCON_*
 222:../../lpc11cx4-library/lpc_chip_11cxx_lib/inc/iocon_11xx.h ****  * @return	Nothing
 223:../../lpc11cx4-library/lpc_chip_11cxx_lib/inc/iocon_11xx.h ****  */
 224:../../lpc11cx4-library/lpc_chip_11cxx_lib/inc/iocon_11xx.h **** void Chip_IOCON_PinMuxSet(LPC_IOCON_T *pIOCON, uint8_t port, uint8_t pin, uint32_t modefunc);
 225:../../lpc11cx4-library/lpc_chip_11cxx_lib/inc/iocon_11xx.h **** 
 226:../../lpc11cx4-library/lpc_chip_11cxx_lib/inc/iocon_11xx.h **** /**
 227:../../lpc11cx4-library/lpc_chip_11cxx_lib/inc/iocon_11xx.h ****  * @brief	I/O Control pin mux
 228:../../lpc11cx4-library/lpc_chip_11cxx_lib/inc/iocon_11xx.h ****  * @param	pIOCON	: The base of IOCON peripheral on the chip
 229:../../lpc11cx4-library/lpc_chip_11cxx_lib/inc/iocon_11xx.h ****  * @param	port	: GPIO port to mux
 230:../../lpc11cx4-library/lpc_chip_11cxx_lib/inc/iocon_11xx.h ****  * @param	pin		: GPIO pin to mux
 231:../../lpc11cx4-library/lpc_chip_11cxx_lib/inc/iocon_11xx.h ****  * @param	mode	: OR'ed values or type IOCON_*
 232:../../lpc11cx4-library/lpc_chip_11cxx_lib/inc/iocon_11xx.h ****  * @param	func	: Pin function, value of type IOCON_FUNC?
 233:../../lpc11cx4-library/lpc_chip_11cxx_lib/inc/iocon_11xx.h ****  * @return	Nothing
 234:../../lpc11cx4-library/lpc_chip_11cxx_lib/inc/iocon_11xx.h ****  */
 235:../../lpc11cx4-library/lpc_chip_11cxx_lib/inc/iocon_11xx.h **** STATIC INLINE void Chip_IOCON_PinMux(LPC_IOCON_T *pIOCON, uint8_t port, uint8_t pin, uint16_t mode,
 236:../../lpc11cx4-library/lpc_chip_11cxx_lib/inc/iocon_11xx.h **** {
 237:../../lpc11cx4-library/lpc_chip_11cxx_lib/inc/iocon_11xx.h **** 	Chip_IOCON_PinMuxSet(pIOCON, port, pin, (uint32_t) (mode | func));
 238:../../lpc11cx4-library/lpc_chip_11cxx_lib/inc/iocon_11xx.h **** }
 239:../../lpc11cx4-library/lpc_chip_11cxx_lib/inc/iocon_11xx.h **** 
 240:../../lpc11cx4-library/lpc_chip_11cxx_lib/inc/iocon_11xx.h **** #else
 241:../../lpc11cx4-library/lpc_chip_11cxx_lib/inc/iocon_11xx.h **** 
 242:../../lpc11cx4-library/lpc_chip_11cxx_lib/inc/iocon_11xx.h **** /**
 243:../../lpc11cx4-library/lpc_chip_11cxx_lib/inc/iocon_11xx.h ****  * @brief	Sets I/O Control pin mux
 244:../../lpc11cx4-library/lpc_chip_11cxx_lib/inc/iocon_11xx.h ****  * @param	pIOCON		: The base of IOCON peripheral on the chip
 245:../../lpc11cx4-library/lpc_chip_11cxx_lib/inc/iocon_11xx.h ****  * @param	pin			: GPIO pin to mux
 246:../../lpc11cx4-library/lpc_chip_11cxx_lib/inc/iocon_11xx.h ****  * @param	modefunc	: OR'ed values or type IOCON_*
 247:../../lpc11cx4-library/lpc_chip_11cxx_lib/inc/iocon_11xx.h ****  * @return	Nothing
 248:../../lpc11cx4-library/lpc_chip_11cxx_lib/inc/iocon_11xx.h ****  */
 249:../../lpc11cx4-library/lpc_chip_11cxx_lib/inc/iocon_11xx.h **** STATIC INLINE void Chip_IOCON_PinMuxSet(LPC_IOCON_T *pIOCON, CHIP_IOCON_PIO_T pin, uint32_t modefun
 250:../../lpc11cx4-library/lpc_chip_11cxx_lib/inc/iocon_11xx.h **** {
 251:../../lpc11cx4-library/lpc_chip_11cxx_lib/inc/iocon_11xx.h **** 	pIOCON->REG[pin] = modefunc;
 102              		.loc 2 251 0
 103 000c 0224     		mov	r4, #2	@ tmp177,
 104              	.LBE47:
 105              	.LBE46:
 106              		.loc 1 21 0
 107 000e 0A70     		strb	r2, [r1]	@ cs_gpio, _cs_gpio
 108 0010 8846     		mov	r8, r1	@ tmp172, tmp172
 109              	.LBB50:
 110              	.LBB51:
 111              		.loc 2 251 0
 112 0012 8C21     		mov	r1, #140	@ tmp179,
 113              	.LBE51:
 114              	.LBE50:
  19:../../lpc11cx4-library/evt_lib/src/lc1024.c **** 	_baud = baud;
 115              		.loc 1 19 0
 116 0014 204D     		ldr	r5, .L5+8	@ tmp170,
  22:../../lpc11cx4-library/evt_lib/src/lc1024.c **** 	_cs_pin = cs_pin;
 117              		.loc 1 22 0
 118 0016 214F     		ldr	r7, .L5+12	@ tmp174,
  19:../../lpc11cx4-library/evt_lib/src/lc1024.c **** 	_baud = baud;
 119              		.loc 1 19 0
 120 0018 2860     		str	r0, [r5]	@ pSSP, _pSSP
 121              	.LBB53:
 122              	.LBB48:
 123              		.loc 2 251 0
ARM GAS  /tmp/ccYwUl1E.s 			page 8


 124 001a 2148     		ldr	r0, .L5+16	@ tmp176,
 125              	.LVL2:
 126              	.LBE48:
 127              	.LBE53:
 128              		.loc 1 22 0
 129 001c 3B70     		strb	r3, [r7]	@ cs_pin, _cs_pin
 130              	.LVL3:
 131              	.LBB54:
 132              	.LBB49:
 133              		.loc 2 251 0
 134 001e C465     		str	r4, [r0, #92]	@ tmp177, MEM[(struct LPC_IOCON_T *)1074020352B].REG
 135              	.LVL4:
 136              	.LBE49:
 137              	.LBE54:
 138              	.LBB55:
 139              	.LBB52:
 140 0020 4450     		str	r4, [r0, r1]	@ tmp177, MEM[(struct LPC_IOCON_T *)1074020352B].REG
 141              	.LVL5:
 142              	.LBE52:
 143              	.LBE55:
 144              	.LBB56:
 145              	.LBB57:
 146 0022 8462     		str	r4, [r0, #40]	@ tmp177, MEM[(struct LPC_IOCON_T *)1074020352B].REG
 147              	.LBE57:
 148              	.LBE56:
  23:../../lpc11cx4-library/evt_lib/src/lc1024.c **** 
  24:../../lpc11cx4-library/evt_lib/src/lc1024.c **** 	Chip_IOCON_PinMuxSet(LPC_IOCON, IOCON_PIO2_2, (IOCON_FUNC2 | IOCON_MODE_INACT));	/* MISO1 */ 
  25:../../lpc11cx4-library/evt_lib/src/lc1024.c ****     Chip_IOCON_PinMuxSet(LPC_IOCON, IOCON_PIO2_3, (IOCON_FUNC2 | IOCON_MODE_INACT));	/* MOSI1 */
  26:../../lpc11cx4-library/evt_lib/src/lc1024.c **** 	Chip_IOCON_PinMuxSet(LPC_IOCON, IOCON_PIO2_1, (IOCON_FUNC2 | IOCON_MODE_INACT));	/* SCK1 */
  27:../../lpc11cx4-library/evt_lib/src/lc1024.c **** 	Chip_GPIO_WriteDirBit(LPC_GPIO, _cs_gpio, _cs_pin, true);							/* Chip Select */
 149              		.loc 1 27 0
 150 0024 A020     		mov	r0, #160	@,
 151 0026 111C     		mov	r1, r2	@, cs_gpio
 152 0028 C005     		lsl	r0, r0, #23	@,,
 153 002a 1A1C     		mov	r2, r3	@, cs_pin
 154              	.LVL6:
 155 002c 0123     		mov	r3, #1	@,
 156              	.LVL7:
 157 002e FFF7FEFF 		bl	Chip_GPIO_WriteDirBit	@
 158              	.LVL8:
 159              	.LBB58:
 160              	.LBB59:
 161              		.file 3 "../../lpc11cx4-library/lpc_chip_11cxx_lib/inc/gpio_11xx_2.h"
   1:../../lpc11cx4-library/lpc_chip_11cxx_lib/inc/gpio_11xx_2.h **** /*
   2:../../lpc11cx4-library/lpc_chip_11cxx_lib/inc/gpio_11xx_2.h ****  * @brief LPC11xx GPIO driver for CHIP_LPC11CXX, CHIP_LPC110X, CHIP_LPC11XXLV,
   3:../../lpc11cx4-library/lpc_chip_11cxx_lib/inc/gpio_11xx_2.h ****  * and CHIP_LPC1125 families only.
   4:../../lpc11cx4-library/lpc_chip_11cxx_lib/inc/gpio_11xx_2.h ****  *
   5:../../lpc11cx4-library/lpc_chip_11cxx_lib/inc/gpio_11xx_2.h ****  * @note
   6:../../lpc11cx4-library/lpc_chip_11cxx_lib/inc/gpio_11xx_2.h ****  * Copyright(C) NXP Semiconductors, 2013
   7:../../lpc11cx4-library/lpc_chip_11cxx_lib/inc/gpio_11xx_2.h ****  * All rights reserved.
   8:../../lpc11cx4-library/lpc_chip_11cxx_lib/inc/gpio_11xx_2.h ****  *
   9:../../lpc11cx4-library/lpc_chip_11cxx_lib/inc/gpio_11xx_2.h ****  * @par
  10:../../lpc11cx4-library/lpc_chip_11cxx_lib/inc/gpio_11xx_2.h ****  * Software that is described herein is for illustrative purposes only
  11:../../lpc11cx4-library/lpc_chip_11cxx_lib/inc/gpio_11xx_2.h ****  * which provides customers with programming information regarding the
  12:../../lpc11cx4-library/lpc_chip_11cxx_lib/inc/gpio_11xx_2.h ****  * LPC products.  This software is supplied "AS IS" without any warranties of
  13:../../lpc11cx4-library/lpc_chip_11cxx_lib/inc/gpio_11xx_2.h ****  * any kind, and NXP Semiconductors and its licensor disclaim any and
  14:../../lpc11cx4-library/lpc_chip_11cxx_lib/inc/gpio_11xx_2.h ****  * all warranties, express or implied, including all implied warranties of
ARM GAS  /tmp/ccYwUl1E.s 			page 9


  15:../../lpc11cx4-library/lpc_chip_11cxx_lib/inc/gpio_11xx_2.h ****  * merchantability, fitness for a particular purpose and non-infringement of
  16:../../lpc11cx4-library/lpc_chip_11cxx_lib/inc/gpio_11xx_2.h ****  * intellectual property rights.  NXP Semiconductors assumes no responsibility
  17:../../lpc11cx4-library/lpc_chip_11cxx_lib/inc/gpio_11xx_2.h ****  * or liability for the use of the software, conveys no license or rights under any
  18:../../lpc11cx4-library/lpc_chip_11cxx_lib/inc/gpio_11xx_2.h ****  * patent, copyright, mask work right, or any other intellectual property rights in
  19:../../lpc11cx4-library/lpc_chip_11cxx_lib/inc/gpio_11xx_2.h ****  * or to any products. NXP Semiconductors reserves the right to make changes
  20:../../lpc11cx4-library/lpc_chip_11cxx_lib/inc/gpio_11xx_2.h ****  * in the software without notification. NXP Semiconductors also makes no
  21:../../lpc11cx4-library/lpc_chip_11cxx_lib/inc/gpio_11xx_2.h ****  * representation or warranty that such application will be suitable for the
  22:../../lpc11cx4-library/lpc_chip_11cxx_lib/inc/gpio_11xx_2.h ****  * specified use without further testing or modification.
  23:../../lpc11cx4-library/lpc_chip_11cxx_lib/inc/gpio_11xx_2.h ****  *
  24:../../lpc11cx4-library/lpc_chip_11cxx_lib/inc/gpio_11xx_2.h ****  * @par
  25:../../lpc11cx4-library/lpc_chip_11cxx_lib/inc/gpio_11xx_2.h ****  * Permission to use, copy, modify, and distribute this software and its
  26:../../lpc11cx4-library/lpc_chip_11cxx_lib/inc/gpio_11xx_2.h ****  * documentation is hereby granted, under NXP Semiconductors' and its
  27:../../lpc11cx4-library/lpc_chip_11cxx_lib/inc/gpio_11xx_2.h ****  * licensor's relevant copyrights in the software, without fee, provided that it
  28:../../lpc11cx4-library/lpc_chip_11cxx_lib/inc/gpio_11xx_2.h ****  * is used in conjunction with NXP Semiconductors microcontrollers.  This
  29:../../lpc11cx4-library/lpc_chip_11cxx_lib/inc/gpio_11xx_2.h ****  * copyright, permission, and disclaimer notice must appear in all copies of
  30:../../lpc11cx4-library/lpc_chip_11cxx_lib/inc/gpio_11xx_2.h ****  * this code.
  31:../../lpc11cx4-library/lpc_chip_11cxx_lib/inc/gpio_11xx_2.h ****  */
  32:../../lpc11cx4-library/lpc_chip_11cxx_lib/inc/gpio_11xx_2.h **** 
  33:../../lpc11cx4-library/lpc_chip_11cxx_lib/inc/gpio_11xx_2.h **** #ifndef __GPIO_11XX_2_H_
  34:../../lpc11cx4-library/lpc_chip_11cxx_lib/inc/gpio_11xx_2.h **** #define __GPIO_11XX_2_H_
  35:../../lpc11cx4-library/lpc_chip_11cxx_lib/inc/gpio_11xx_2.h **** 
  36:../../lpc11cx4-library/lpc_chip_11cxx_lib/inc/gpio_11xx_2.h **** #ifdef __cplusplus
  37:../../lpc11cx4-library/lpc_chip_11cxx_lib/inc/gpio_11xx_2.h **** extern "C" {
  38:../../lpc11cx4-library/lpc_chip_11cxx_lib/inc/gpio_11xx_2.h **** #endif
  39:../../lpc11cx4-library/lpc_chip_11cxx_lib/inc/gpio_11xx_2.h **** 
  40:../../lpc11cx4-library/lpc_chip_11cxx_lib/inc/gpio_11xx_2.h **** /** @defgroup GPIO_11XX_2 CHIP: LPC11xx GPIO driver for CHIP_LPC11CXX, CHIP_LPC110X, and CHIP_LPC11
  41:../../lpc11cx4-library/lpc_chip_11cxx_lib/inc/gpio_11xx_2.h ****  * @ingroup CHIP_11XX_Drivers
  42:../../lpc11cx4-library/lpc_chip_11cxx_lib/inc/gpio_11xx_2.h ****  * For device familes identified with CHIP definitions CHIP_LPC11CXX,
  43:../../lpc11cx4-library/lpc_chip_11cxx_lib/inc/gpio_11xx_2.h ****  * CHIP_LPC110X, and CHIP_LPC11XXLV only.
  44:../../lpc11cx4-library/lpc_chip_11cxx_lib/inc/gpio_11xx_2.h ****  * @{
  45:../../lpc11cx4-library/lpc_chip_11cxx_lib/inc/gpio_11xx_2.h ****  */
  46:../../lpc11cx4-library/lpc_chip_11cxx_lib/inc/gpio_11xx_2.h **** 
  47:../../lpc11cx4-library/lpc_chip_11cxx_lib/inc/gpio_11xx_2.h **** #if defined(CHIP_LPC11CXX) || defined(CHIP_LPC110X) || defined(CHIP_LPC11XXLV) || defined(CHIP_LPC1
  48:../../lpc11cx4-library/lpc_chip_11cxx_lib/inc/gpio_11xx_2.h **** 
  49:../../lpc11cx4-library/lpc_chip_11cxx_lib/inc/gpio_11xx_2.h **** /**
  50:../../lpc11cx4-library/lpc_chip_11cxx_lib/inc/gpio_11xx_2.h ****  * @brief  GPIO port register block structure
  51:../../lpc11cx4-library/lpc_chip_11cxx_lib/inc/gpio_11xx_2.h ****  */
  52:../../lpc11cx4-library/lpc_chip_11cxx_lib/inc/gpio_11xx_2.h **** typedef struct {				/*!< GPIO_PORT Structure */
  53:../../lpc11cx4-library/lpc_chip_11cxx_lib/inc/gpio_11xx_2.h **** 	__IO uint32_t DATA[4096];			/*!< Offset: 0x0000 to 0x3FFC Data address masking register (R/W) */
  54:../../lpc11cx4-library/lpc_chip_11cxx_lib/inc/gpio_11xx_2.h **** 	uint32_t RESERVED1[4096];
  55:../../lpc11cx4-library/lpc_chip_11cxx_lib/inc/gpio_11xx_2.h **** 	__IO uint32_t DIR;					/*!< Offset: 0x8000 Data direction register (R/W) */
  56:../../lpc11cx4-library/lpc_chip_11cxx_lib/inc/gpio_11xx_2.h **** 	__IO uint32_t IS;					/*!< Offset: 0x8004 Interrupt sense register (R/W) */
  57:../../lpc11cx4-library/lpc_chip_11cxx_lib/inc/gpio_11xx_2.h **** 	__IO uint32_t IBE;					/*!< Offset: 0x8008 Interrupt both edges register (R/W) */
  58:../../lpc11cx4-library/lpc_chip_11cxx_lib/inc/gpio_11xx_2.h **** 	__IO uint32_t IEV;					/*!< Offset: 0x800C Interrupt event register  (R/W) */
  59:../../lpc11cx4-library/lpc_chip_11cxx_lib/inc/gpio_11xx_2.h **** 	__IO uint32_t IE;					/*!< Offset: 0x8010 Interrupt mask register (R/W) */
  60:../../lpc11cx4-library/lpc_chip_11cxx_lib/inc/gpio_11xx_2.h **** 	__I  uint32_t RIS;					/*!< Offset: 0x8014 Raw interrupt status register (R/ ) */
  61:../../lpc11cx4-library/lpc_chip_11cxx_lib/inc/gpio_11xx_2.h **** 	__I  uint32_t MIS;					/*!< Offset: 0x8018 Masked interrupt status register (R/ ) */
  62:../../lpc11cx4-library/lpc_chip_11cxx_lib/inc/gpio_11xx_2.h **** 	__O  uint32_t IC;					/*!< Offset: 0x801C Interrupt clear register (W) */
  63:../../lpc11cx4-library/lpc_chip_11cxx_lib/inc/gpio_11xx_2.h **** 	uint32_t RESERVED2[8184];			/* Padding added for aligning contiguous GPIO blocks */
  64:../../lpc11cx4-library/lpc_chip_11cxx_lib/inc/gpio_11xx_2.h **** } LPC_GPIO_T;
  65:../../lpc11cx4-library/lpc_chip_11cxx_lib/inc/gpio_11xx_2.h **** 
  66:../../lpc11cx4-library/lpc_chip_11cxx_lib/inc/gpio_11xx_2.h **** /**
  67:../../lpc11cx4-library/lpc_chip_11cxx_lib/inc/gpio_11xx_2.h ****  * @brief	Initialize GPIO block
  68:../../lpc11cx4-library/lpc_chip_11cxx_lib/inc/gpio_11xx_2.h ****  * @param	pGPIO	: The base of GPIO peripheral on the chip
  69:../../lpc11cx4-library/lpc_chip_11cxx_lib/inc/gpio_11xx_2.h ****  * @return	Nothing
  70:../../lpc11cx4-library/lpc_chip_11cxx_lib/inc/gpio_11xx_2.h ****  */
  71:../../lpc11cx4-library/lpc_chip_11cxx_lib/inc/gpio_11xx_2.h **** void Chip_GPIO_Init(LPC_GPIO_T *pGPIO);
ARM GAS  /tmp/ccYwUl1E.s 			page 10


  72:../../lpc11cx4-library/lpc_chip_11cxx_lib/inc/gpio_11xx_2.h **** 
  73:../../lpc11cx4-library/lpc_chip_11cxx_lib/inc/gpio_11xx_2.h **** /**
  74:../../lpc11cx4-library/lpc_chip_11cxx_lib/inc/gpio_11xx_2.h ****  * @brief	De-Initialize GPIO block
  75:../../lpc11cx4-library/lpc_chip_11cxx_lib/inc/gpio_11xx_2.h ****  * @param	pGPIO	: The base of GPIO peripheral on the chip
  76:../../lpc11cx4-library/lpc_chip_11cxx_lib/inc/gpio_11xx_2.h ****  * @return	Nothing
  77:../../lpc11cx4-library/lpc_chip_11cxx_lib/inc/gpio_11xx_2.h ****  */
  78:../../lpc11cx4-library/lpc_chip_11cxx_lib/inc/gpio_11xx_2.h **** void Chip_GPIO_DeInit(LPC_GPIO_T *pGPIO);
  79:../../lpc11cx4-library/lpc_chip_11cxx_lib/inc/gpio_11xx_2.h **** 
  80:../../lpc11cx4-library/lpc_chip_11cxx_lib/inc/gpio_11xx_2.h **** /**
  81:../../lpc11cx4-library/lpc_chip_11cxx_lib/inc/gpio_11xx_2.h ****  * @brief	Set a GPIO port/bit state
  82:../../lpc11cx4-library/lpc_chip_11cxx_lib/inc/gpio_11xx_2.h ****  * @param	pGPIO	: The base of GPIO peripheral on the chip
  83:../../lpc11cx4-library/lpc_chip_11cxx_lib/inc/gpio_11xx_2.h ****  * @param	port	: GPIO port to set
  84:../../lpc11cx4-library/lpc_chip_11cxx_lib/inc/gpio_11xx_2.h ****  * @param	bit		: GPIO bit to set
  85:../../lpc11cx4-library/lpc_chip_11cxx_lib/inc/gpio_11xx_2.h ****  * @param	setting	: true for high, false for low
  86:../../lpc11cx4-library/lpc_chip_11cxx_lib/inc/gpio_11xx_2.h ****  * @return	Nothing
  87:../../lpc11cx4-library/lpc_chip_11cxx_lib/inc/gpio_11xx_2.h ****  */
  88:../../lpc11cx4-library/lpc_chip_11cxx_lib/inc/gpio_11xx_2.h **** STATIC INLINE void Chip_GPIO_WritePortBit(LPC_GPIO_T *pGPIO, uint32_t port, uint8_t bit, bool setti
  89:../../lpc11cx4-library/lpc_chip_11cxx_lib/inc/gpio_11xx_2.h **** {
  90:../../lpc11cx4-library/lpc_chip_11cxx_lib/inc/gpio_11xx_2.h **** 	pGPIO[port].DATA[1 << bit] = setting << bit;
  91:../../lpc11cx4-library/lpc_chip_11cxx_lib/inc/gpio_11xx_2.h **** }
  92:../../lpc11cx4-library/lpc_chip_11cxx_lib/inc/gpio_11xx_2.h **** 
  93:../../lpc11cx4-library/lpc_chip_11cxx_lib/inc/gpio_11xx_2.h **** /**
  94:../../lpc11cx4-library/lpc_chip_11cxx_lib/inc/gpio_11xx_2.h ****  * @brief	Set a GPIO pin state via the GPIO byte register
  95:../../lpc11cx4-library/lpc_chip_11cxx_lib/inc/gpio_11xx_2.h ****  * @param	pGPIO	: The base of GPIO peripheral on the chip
  96:../../lpc11cx4-library/lpc_chip_11cxx_lib/inc/gpio_11xx_2.h ****  * @param	port	: Port number
  97:../../lpc11cx4-library/lpc_chip_11cxx_lib/inc/gpio_11xx_2.h ****  * @param	pin		: GPIO pin to set
  98:../../lpc11cx4-library/lpc_chip_11cxx_lib/inc/gpio_11xx_2.h ****  * @param	setting	: true for high, false for low
  99:../../lpc11cx4-library/lpc_chip_11cxx_lib/inc/gpio_11xx_2.h ****  * @return	Nothing
 100:../../lpc11cx4-library/lpc_chip_11cxx_lib/inc/gpio_11xx_2.h ****  * @note	This function replaces Chip_GPIO_WritePortBit()
 101:../../lpc11cx4-library/lpc_chip_11cxx_lib/inc/gpio_11xx_2.h ****  */
 102:../../lpc11cx4-library/lpc_chip_11cxx_lib/inc/gpio_11xx_2.h **** STATIC INLINE void Chip_GPIO_SetPinState(LPC_GPIO_T *pGPIO, uint8_t port, uint8_t pin, bool setting
 103:../../lpc11cx4-library/lpc_chip_11cxx_lib/inc/gpio_11xx_2.h **** {
 104:../../lpc11cx4-library/lpc_chip_11cxx_lib/inc/gpio_11xx_2.h **** 	pGPIO[port].DATA[1 << pin] = setting << pin;
 162              		.loc 3 104 0
 163 0032 A022     		mov	r2, #160	@ tmp214,
 164 0034 D205     		lsl	r2, r2, #23	@ tmp214, tmp214,
 165 0036 9446     		mov	ip, r2	@ tmp214, tmp214
 166 0038 0122     		mov	r2, #1	@ tmp189,
 167 003a 4346     		mov	r3, r8	@ tmp172, tmp172
 168 003c 3978     		ldrb	r1, [r7]	@ D.6609, _cs_pin
 169 003e 1B78     		ldrb	r3, [r3]	@ D.6604, _cs_gpio
 170 0040 8A40     		lsl	r2, r2, r1	@ D.6609, tmp189, D.6609
 171 0042 1B04     		lsl	r3, r3, #16	@ D.6604, D.6604,
 172 0044 6344     		add	r3, r3, ip	@ D.6608, tmp214
 173 0046 9100     		lsl	r1, r2, #2	@ tmp190, D.6609,
 174 0048 CA50     		str	r2, [r1, r3]	@ D.6609, _29->DATA
 175              	.LBE59:
 176              	.LBE58:
  28:../../lpc11cx4-library/evt_lib/src/lc1024.c **** 	Chip_GPIO_SetPinState(LPC_GPIO, _cs_gpio, _cs_pin, true);
  29:../../lpc11cx4-library/evt_lib/src/lc1024.c **** 
  30:../../lpc11cx4-library/evt_lib/src/lc1024.c **** 	Chip_SSP_Init(_pSSP);
 177              		.loc 1 30 0
 178 004a 2868     		ldr	r0, [r5]	@, _pSSP
 179 004c FFF7FEFF 		bl	Chip_SSP_Init	@
 180              	.LVL9:
  31:../../lpc11cx4-library/evt_lib/src/lc1024.c **** 	Chip_SSP_SetBitRate(_pSSP, _baud);
 181              		.loc 1 31 0
ARM GAS  /tmp/ccYwUl1E.s 			page 11


 182 0050 3168     		ldr	r1, [r6]	@ _baud, _baud
 183 0052 2868     		ldr	r0, [r5]	@, _pSSP
 184 0054 FFF7FEFF 		bl	Chip_SSP_SetBitRate	@
 185              	.LVL10:
 186              	.LBB60:
 187              	.LBB61:
 188              		.file 4 "../../lpc11cx4-library/lpc_chip_11cxx_lib/inc/ssp_11xx.h"
   1:../../lpc11cx4-library/lpc_chip_11cxx_lib/inc/ssp_11xx.h **** /*
   2:../../lpc11cx4-library/lpc_chip_11cxx_lib/inc/ssp_11xx.h ****  * @brief LPC11xx SSP Registers and control functions
   3:../../lpc11cx4-library/lpc_chip_11cxx_lib/inc/ssp_11xx.h ****  *
   4:../../lpc11cx4-library/lpc_chip_11cxx_lib/inc/ssp_11xx.h ****  * @note
   5:../../lpc11cx4-library/lpc_chip_11cxx_lib/inc/ssp_11xx.h ****  * Copyright(C) NXP Semiconductors, 2012
   6:../../lpc11cx4-library/lpc_chip_11cxx_lib/inc/ssp_11xx.h ****  * All rights reserved.
   7:../../lpc11cx4-library/lpc_chip_11cxx_lib/inc/ssp_11xx.h ****  *
   8:../../lpc11cx4-library/lpc_chip_11cxx_lib/inc/ssp_11xx.h ****  * @par
   9:../../lpc11cx4-library/lpc_chip_11cxx_lib/inc/ssp_11xx.h ****  * Software that is described herein is for illustrative purposes only
  10:../../lpc11cx4-library/lpc_chip_11cxx_lib/inc/ssp_11xx.h ****  * which provides customers with programming information regarding the
  11:../../lpc11cx4-library/lpc_chip_11cxx_lib/inc/ssp_11xx.h ****  * LPC products.  This software is supplied "AS IS" without any warranties of
  12:../../lpc11cx4-library/lpc_chip_11cxx_lib/inc/ssp_11xx.h ****  * any kind, and NXP Semiconductors and its licensor disclaim any and
  13:../../lpc11cx4-library/lpc_chip_11cxx_lib/inc/ssp_11xx.h ****  * all warranties, express or implied, including all implied warranties of
  14:../../lpc11cx4-library/lpc_chip_11cxx_lib/inc/ssp_11xx.h ****  * merchantability, fitness for a particular purpose and non-infringement of
  15:../../lpc11cx4-library/lpc_chip_11cxx_lib/inc/ssp_11xx.h ****  * intellectual property rights.  NXP Semiconductors assumes no responsibility
  16:../../lpc11cx4-library/lpc_chip_11cxx_lib/inc/ssp_11xx.h ****  * or liability for the use of the software, conveys no license or rights under any
  17:../../lpc11cx4-library/lpc_chip_11cxx_lib/inc/ssp_11xx.h ****  * patent, copyright, mask work right, or any other intellectual property rights in
  18:../../lpc11cx4-library/lpc_chip_11cxx_lib/inc/ssp_11xx.h ****  * or to any products. NXP Semiconductors reserves the right to make changes
  19:../../lpc11cx4-library/lpc_chip_11cxx_lib/inc/ssp_11xx.h ****  * in the software without notification. NXP Semiconductors also makes no
  20:../../lpc11cx4-library/lpc_chip_11cxx_lib/inc/ssp_11xx.h ****  * representation or warranty that such application will be suitable for the
  21:../../lpc11cx4-library/lpc_chip_11cxx_lib/inc/ssp_11xx.h ****  * specified use without further testing or modification.
  22:../../lpc11cx4-library/lpc_chip_11cxx_lib/inc/ssp_11xx.h ****  *
  23:../../lpc11cx4-library/lpc_chip_11cxx_lib/inc/ssp_11xx.h ****  * @par
  24:../../lpc11cx4-library/lpc_chip_11cxx_lib/inc/ssp_11xx.h ****  * Permission to use, copy, modify, and distribute this software and its
  25:../../lpc11cx4-library/lpc_chip_11cxx_lib/inc/ssp_11xx.h ****  * documentation is hereby granted, under NXP Semiconductors' and its
  26:../../lpc11cx4-library/lpc_chip_11cxx_lib/inc/ssp_11xx.h ****  * licensor's relevant copyrights in the software, without fee, provided that it
  27:../../lpc11cx4-library/lpc_chip_11cxx_lib/inc/ssp_11xx.h ****  * is used in conjunction with NXP Semiconductors microcontrollers.  This
  28:../../lpc11cx4-library/lpc_chip_11cxx_lib/inc/ssp_11xx.h ****  * copyright, permission, and disclaimer notice must appear in all copies of
  29:../../lpc11cx4-library/lpc_chip_11cxx_lib/inc/ssp_11xx.h ****  * this code.
  30:../../lpc11cx4-library/lpc_chip_11cxx_lib/inc/ssp_11xx.h ****  */
  31:../../lpc11cx4-library/lpc_chip_11cxx_lib/inc/ssp_11xx.h **** 
  32:../../lpc11cx4-library/lpc_chip_11cxx_lib/inc/ssp_11xx.h **** #ifndef __SSP_11XX_H_
  33:../../lpc11cx4-library/lpc_chip_11cxx_lib/inc/ssp_11xx.h **** #define __SSP_11XX_H_
  34:../../lpc11cx4-library/lpc_chip_11cxx_lib/inc/ssp_11xx.h **** 
  35:../../lpc11cx4-library/lpc_chip_11cxx_lib/inc/ssp_11xx.h **** #ifdef __cplusplus
  36:../../lpc11cx4-library/lpc_chip_11cxx_lib/inc/ssp_11xx.h **** extern "C" {
  37:../../lpc11cx4-library/lpc_chip_11cxx_lib/inc/ssp_11xx.h **** #endif
  38:../../lpc11cx4-library/lpc_chip_11cxx_lib/inc/ssp_11xx.h **** 
  39:../../lpc11cx4-library/lpc_chip_11cxx_lib/inc/ssp_11xx.h **** /** @defgroup SSP_11XX CHIP: LPC11xx SSP register block and driver
  40:../../lpc11cx4-library/lpc_chip_11cxx_lib/inc/ssp_11xx.h ****  * @ingroup CHIP_11XX_Drivers
  41:../../lpc11cx4-library/lpc_chip_11cxx_lib/inc/ssp_11xx.h ****  * @{
  42:../../lpc11cx4-library/lpc_chip_11cxx_lib/inc/ssp_11xx.h ****  */
  43:../../lpc11cx4-library/lpc_chip_11cxx_lib/inc/ssp_11xx.h **** 
  44:../../lpc11cx4-library/lpc_chip_11cxx_lib/inc/ssp_11xx.h **** /**
  45:../../lpc11cx4-library/lpc_chip_11cxx_lib/inc/ssp_11xx.h ****  * @brief SSP register block structure
  46:../../lpc11cx4-library/lpc_chip_11cxx_lib/inc/ssp_11xx.h ****  */
  47:../../lpc11cx4-library/lpc_chip_11cxx_lib/inc/ssp_11xx.h **** typedef struct {			/*!< SSPn Structure         */
  48:../../lpc11cx4-library/lpc_chip_11cxx_lib/inc/ssp_11xx.h **** 	__IO uint32_t CR0;		/*!< Control Register 0. Selects the serial clock rate, bus type, and data siz
  49:../../lpc11cx4-library/lpc_chip_11cxx_lib/inc/ssp_11xx.h **** 	__IO uint32_t CR1;		/*!< Control Register 1. Selects master/slave and other modes. */
  50:../../lpc11cx4-library/lpc_chip_11cxx_lib/inc/ssp_11xx.h **** 	__IO uint32_t DR;		/*!< Data Register. Writes fill the transmit FIFO, and reads empty the receive 
ARM GAS  /tmp/ccYwUl1E.s 			page 12


  51:../../lpc11cx4-library/lpc_chip_11cxx_lib/inc/ssp_11xx.h **** 	__I  uint32_t SR;		/*!< Status Register        */
  52:../../lpc11cx4-library/lpc_chip_11cxx_lib/inc/ssp_11xx.h **** 	__IO uint32_t CPSR;		/*!< Clock Prescale Register */
  53:../../lpc11cx4-library/lpc_chip_11cxx_lib/inc/ssp_11xx.h **** 	__IO uint32_t IMSC;		/*!< Interrupt Mask Set and Clear Register */
  54:../../lpc11cx4-library/lpc_chip_11cxx_lib/inc/ssp_11xx.h **** 	__I  uint32_t RIS;		/*!< Raw Interrupt Status Register */
  55:../../lpc11cx4-library/lpc_chip_11cxx_lib/inc/ssp_11xx.h **** 	__I  uint32_t MIS;		/*!< Masked Interrupt Status Register */
  56:../../lpc11cx4-library/lpc_chip_11cxx_lib/inc/ssp_11xx.h **** 	__O  uint32_t ICR;		/*!< SSPICR Interrupt Clear Register */
  57:../../lpc11cx4-library/lpc_chip_11cxx_lib/inc/ssp_11xx.h **** } LPC_SSP_T;
  58:../../lpc11cx4-library/lpc_chip_11cxx_lib/inc/ssp_11xx.h **** 
  59:../../lpc11cx4-library/lpc_chip_11cxx_lib/inc/ssp_11xx.h **** /**
  60:../../lpc11cx4-library/lpc_chip_11cxx_lib/inc/ssp_11xx.h ****  * Macro defines for CR0 register
  61:../../lpc11cx4-library/lpc_chip_11cxx_lib/inc/ssp_11xx.h ****  */
  62:../../lpc11cx4-library/lpc_chip_11cxx_lib/inc/ssp_11xx.h **** 
  63:../../lpc11cx4-library/lpc_chip_11cxx_lib/inc/ssp_11xx.h **** /** SSP data size select, must be 4 bits to 16 bits */
  64:../../lpc11cx4-library/lpc_chip_11cxx_lib/inc/ssp_11xx.h **** #define SSP_CR0_DSS(n)          ((uint32_t) ((n) & 0xF))
  65:../../lpc11cx4-library/lpc_chip_11cxx_lib/inc/ssp_11xx.h **** /** SSP control 0 Motorola SPI mode */
  66:../../lpc11cx4-library/lpc_chip_11cxx_lib/inc/ssp_11xx.h **** #define SSP_CR0_FRF_SPI         ((uint32_t) (0 << 4))
  67:../../lpc11cx4-library/lpc_chip_11cxx_lib/inc/ssp_11xx.h **** /** SSP control 0 TI synchronous serial mode */
  68:../../lpc11cx4-library/lpc_chip_11cxx_lib/inc/ssp_11xx.h **** #define SSP_CR0_FRF_TI          ((uint32_t) (1 << 4))
  69:../../lpc11cx4-library/lpc_chip_11cxx_lib/inc/ssp_11xx.h **** /** SSP control 0 National Micro-wire mode */
  70:../../lpc11cx4-library/lpc_chip_11cxx_lib/inc/ssp_11xx.h **** #define SSP_CR0_FRF_MICROWIRE   ((uint32_t) (2 << 4))
  71:../../lpc11cx4-library/lpc_chip_11cxx_lib/inc/ssp_11xx.h **** /** SPI clock polarity bit (used in SPI mode only), (1) = maintains the
  72:../../lpc11cx4-library/lpc_chip_11cxx_lib/inc/ssp_11xx.h ****    bus clock high between frames, (0) = low */
  73:../../lpc11cx4-library/lpc_chip_11cxx_lib/inc/ssp_11xx.h **** #define SSP_CR0_CPOL_LO     ((uint32_t) (0))
  74:../../lpc11cx4-library/lpc_chip_11cxx_lib/inc/ssp_11xx.h **** #define SSP_CR0_CPOL_HI     ((uint32_t) (1 << 6))
  75:../../lpc11cx4-library/lpc_chip_11cxx_lib/inc/ssp_11xx.h **** /** SPI clock out phase bit (used in SPI mode only), (1) = captures data
  76:../../lpc11cx4-library/lpc_chip_11cxx_lib/inc/ssp_11xx.h ****    on the second clock transition of the frame, (0) = first */
  77:../../lpc11cx4-library/lpc_chip_11cxx_lib/inc/ssp_11xx.h **** #define SSP_CR0_CPHA_FIRST  ((uint32_t) (0))
  78:../../lpc11cx4-library/lpc_chip_11cxx_lib/inc/ssp_11xx.h **** #define SSP_CR0_CPHA_SECOND ((uint32_t) (1 << 7))
  79:../../lpc11cx4-library/lpc_chip_11cxx_lib/inc/ssp_11xx.h **** /** SSP serial clock rate value load macro, divider rate is
  80:../../lpc11cx4-library/lpc_chip_11cxx_lib/inc/ssp_11xx.h ****    PERIPH_CLK / (cpsr * (SCR + 1)) */
  81:../../lpc11cx4-library/lpc_chip_11cxx_lib/inc/ssp_11xx.h **** #define SSP_CR0_SCR(n)      ((uint32_t) ((n & 0xFF) << 8))
  82:../../lpc11cx4-library/lpc_chip_11cxx_lib/inc/ssp_11xx.h **** /** SSP CR0 bit mask */
  83:../../lpc11cx4-library/lpc_chip_11cxx_lib/inc/ssp_11xx.h **** #define SSP_CR0_BITMASK     ((uint32_t) (0xFFFF))
  84:../../lpc11cx4-library/lpc_chip_11cxx_lib/inc/ssp_11xx.h **** /** SSP CR0 bit mask */
  85:../../lpc11cx4-library/lpc_chip_11cxx_lib/inc/ssp_11xx.h **** #define SSP_CR0_BITMASK     ((uint32_t) (0xFFFF))
  86:../../lpc11cx4-library/lpc_chip_11cxx_lib/inc/ssp_11xx.h **** /** SSP serial clock rate value load macro, divider rate is
  87:../../lpc11cx4-library/lpc_chip_11cxx_lib/inc/ssp_11xx.h ****    PERIPH_CLK / (cpsr * (SCR + 1)) */
  88:../../lpc11cx4-library/lpc_chip_11cxx_lib/inc/ssp_11xx.h **** #define SSP_CR0_SCR(n)      ((uint32_t) ((n & 0xFF) << 8))
  89:../../lpc11cx4-library/lpc_chip_11cxx_lib/inc/ssp_11xx.h **** 
  90:../../lpc11cx4-library/lpc_chip_11cxx_lib/inc/ssp_11xx.h **** /**
  91:../../lpc11cx4-library/lpc_chip_11cxx_lib/inc/ssp_11xx.h ****  * Macro defines for CR1 register
  92:../../lpc11cx4-library/lpc_chip_11cxx_lib/inc/ssp_11xx.h ****  */
  93:../../lpc11cx4-library/lpc_chip_11cxx_lib/inc/ssp_11xx.h **** 
  94:../../lpc11cx4-library/lpc_chip_11cxx_lib/inc/ssp_11xx.h **** /** SSP control 1 loopback mode enable bit */
  95:../../lpc11cx4-library/lpc_chip_11cxx_lib/inc/ssp_11xx.h **** #define SSP_CR1_LBM_EN      ((uint32_t) (1 << 0))
  96:../../lpc11cx4-library/lpc_chip_11cxx_lib/inc/ssp_11xx.h **** /** SSP control 1 enable bit */
  97:../../lpc11cx4-library/lpc_chip_11cxx_lib/inc/ssp_11xx.h **** #define SSP_CR1_SSP_EN      ((uint32_t) (1 << 1))
  98:../../lpc11cx4-library/lpc_chip_11cxx_lib/inc/ssp_11xx.h **** /** SSP control 1 slave enable */
  99:../../lpc11cx4-library/lpc_chip_11cxx_lib/inc/ssp_11xx.h **** #define SSP_CR1_SLAVE_EN    ((uint32_t) (1 << 2))
 100:../../lpc11cx4-library/lpc_chip_11cxx_lib/inc/ssp_11xx.h **** #define SSP_CR1_MASTER_EN   ((uint32_t) (0))
 101:../../lpc11cx4-library/lpc_chip_11cxx_lib/inc/ssp_11xx.h **** /** SSP control 1 slave out disable bit, disables transmit line in slave
 102:../../lpc11cx4-library/lpc_chip_11cxx_lib/inc/ssp_11xx.h ****    mode */
 103:../../lpc11cx4-library/lpc_chip_11cxx_lib/inc/ssp_11xx.h **** #define SSP_CR1_SO_DISABLE  ((uint32_t) (1 << 3))
 104:../../lpc11cx4-library/lpc_chip_11cxx_lib/inc/ssp_11xx.h **** /** SSP CR1 bit mask */
 105:../../lpc11cx4-library/lpc_chip_11cxx_lib/inc/ssp_11xx.h **** #define SSP_CR1_BITMASK     ((uint32_t) (0x0F))
 106:../../lpc11cx4-library/lpc_chip_11cxx_lib/inc/ssp_11xx.h **** 
 107:../../lpc11cx4-library/lpc_chip_11cxx_lib/inc/ssp_11xx.h **** /** SSP CPSR bit mask */
ARM GAS  /tmp/ccYwUl1E.s 			page 13


 108:../../lpc11cx4-library/lpc_chip_11cxx_lib/inc/ssp_11xx.h **** #define SSP_CPSR_BITMASK    ((uint32_t) (0xFF))
 109:../../lpc11cx4-library/lpc_chip_11cxx_lib/inc/ssp_11xx.h **** /**
 110:../../lpc11cx4-library/lpc_chip_11cxx_lib/inc/ssp_11xx.h ****  * Macro defines for DR register
 111:../../lpc11cx4-library/lpc_chip_11cxx_lib/inc/ssp_11xx.h ****  */
 112:../../lpc11cx4-library/lpc_chip_11cxx_lib/inc/ssp_11xx.h **** 
 113:../../lpc11cx4-library/lpc_chip_11cxx_lib/inc/ssp_11xx.h **** /** SSP data bit mask */
 114:../../lpc11cx4-library/lpc_chip_11cxx_lib/inc/ssp_11xx.h **** #define SSP_DR_BITMASK(n)   ((n) & 0xFFFF)
 115:../../lpc11cx4-library/lpc_chip_11cxx_lib/inc/ssp_11xx.h **** 
 116:../../lpc11cx4-library/lpc_chip_11cxx_lib/inc/ssp_11xx.h **** /**
 117:../../lpc11cx4-library/lpc_chip_11cxx_lib/inc/ssp_11xx.h ****  * Macro defines for SR register
 118:../../lpc11cx4-library/lpc_chip_11cxx_lib/inc/ssp_11xx.h ****  */
 119:../../lpc11cx4-library/lpc_chip_11cxx_lib/inc/ssp_11xx.h **** 
 120:../../lpc11cx4-library/lpc_chip_11cxx_lib/inc/ssp_11xx.h **** /** SSP SR bit mask */
 121:../../lpc11cx4-library/lpc_chip_11cxx_lib/inc/ssp_11xx.h **** #define SSP_SR_BITMASK  ((uint32_t) (0x1F))
 122:../../lpc11cx4-library/lpc_chip_11cxx_lib/inc/ssp_11xx.h **** 
 123:../../lpc11cx4-library/lpc_chip_11cxx_lib/inc/ssp_11xx.h **** /** ICR bit mask */
 124:../../lpc11cx4-library/lpc_chip_11cxx_lib/inc/ssp_11xx.h **** #define SSP_ICR_BITMASK ((uint32_t) (0x03))
 125:../../lpc11cx4-library/lpc_chip_11cxx_lib/inc/ssp_11xx.h **** 
 126:../../lpc11cx4-library/lpc_chip_11cxx_lib/inc/ssp_11xx.h **** /**
 127:../../lpc11cx4-library/lpc_chip_11cxx_lib/inc/ssp_11xx.h ****  * @brief SSP Type of Status
 128:../../lpc11cx4-library/lpc_chip_11cxx_lib/inc/ssp_11xx.h ****  */
 129:../../lpc11cx4-library/lpc_chip_11cxx_lib/inc/ssp_11xx.h **** typedef enum _SSP_STATUS {
 130:../../lpc11cx4-library/lpc_chip_11cxx_lib/inc/ssp_11xx.h **** 	SSP_STAT_TFE = ((uint32_t)(1 << 0)),/**< TX FIFO Empty */
 131:../../lpc11cx4-library/lpc_chip_11cxx_lib/inc/ssp_11xx.h **** 	SSP_STAT_TNF = ((uint32_t)(1 << 1)),/**< TX FIFO not full */
 132:../../lpc11cx4-library/lpc_chip_11cxx_lib/inc/ssp_11xx.h **** 	SSP_STAT_RNE = ((uint32_t)(1 << 2)),/**< RX FIFO not empty */
 133:../../lpc11cx4-library/lpc_chip_11cxx_lib/inc/ssp_11xx.h **** 	SSP_STAT_RFF = ((uint32_t)(1 << 3)),/**< RX FIFO full */
 134:../../lpc11cx4-library/lpc_chip_11cxx_lib/inc/ssp_11xx.h **** 	SSP_STAT_BSY = ((uint32_t)(1 << 4)),/**< SSP Busy */
 135:../../lpc11cx4-library/lpc_chip_11cxx_lib/inc/ssp_11xx.h **** } SSP_STATUS_T;
 136:../../lpc11cx4-library/lpc_chip_11cxx_lib/inc/ssp_11xx.h **** 
 137:../../lpc11cx4-library/lpc_chip_11cxx_lib/inc/ssp_11xx.h **** /**
 138:../../lpc11cx4-library/lpc_chip_11cxx_lib/inc/ssp_11xx.h ****  * @brief SSP Type of Interrupt Mask
 139:../../lpc11cx4-library/lpc_chip_11cxx_lib/inc/ssp_11xx.h ****  */
 140:../../lpc11cx4-library/lpc_chip_11cxx_lib/inc/ssp_11xx.h **** typedef enum _SSP_INTMASK {
 141:../../lpc11cx4-library/lpc_chip_11cxx_lib/inc/ssp_11xx.h **** 	SSP_RORIM = ((uint32_t)(1 << 0)),	/**< Overun */
 142:../../lpc11cx4-library/lpc_chip_11cxx_lib/inc/ssp_11xx.h **** 	SSP_RTIM = ((uint32_t)(1 << 1)),/**< TimeOut */
 143:../../lpc11cx4-library/lpc_chip_11cxx_lib/inc/ssp_11xx.h **** 	SSP_RXIM = ((uint32_t)(1 << 2)),/**< Rx FIFO is at least half full */
 144:../../lpc11cx4-library/lpc_chip_11cxx_lib/inc/ssp_11xx.h **** 	SSP_TXIM = ((uint32_t)(1 << 3)),/**< Tx FIFO is at least half empty */
 145:../../lpc11cx4-library/lpc_chip_11cxx_lib/inc/ssp_11xx.h **** 	SSP_INT_MASK_BITMASK = ((uint32_t)(0xF)),
 146:../../lpc11cx4-library/lpc_chip_11cxx_lib/inc/ssp_11xx.h **** } SSP_INTMASK_T;
 147:../../lpc11cx4-library/lpc_chip_11cxx_lib/inc/ssp_11xx.h **** 
 148:../../lpc11cx4-library/lpc_chip_11cxx_lib/inc/ssp_11xx.h **** /**
 149:../../lpc11cx4-library/lpc_chip_11cxx_lib/inc/ssp_11xx.h ****  * @brief SSP Type of Mask Interrupt Status
 150:../../lpc11cx4-library/lpc_chip_11cxx_lib/inc/ssp_11xx.h ****  */
 151:../../lpc11cx4-library/lpc_chip_11cxx_lib/inc/ssp_11xx.h **** typedef enum _SSP_MASKINTSTATUS {
 152:../../lpc11cx4-library/lpc_chip_11cxx_lib/inc/ssp_11xx.h **** 	SSP_RORMIS = ((uint32_t)(1 << 0)),	/**< Overun */
 153:../../lpc11cx4-library/lpc_chip_11cxx_lib/inc/ssp_11xx.h **** 	SSP_RTMIS = ((uint32_t)(1 << 1)),	/**< TimeOut */
 154:../../lpc11cx4-library/lpc_chip_11cxx_lib/inc/ssp_11xx.h **** 	SSP_RXMIS = ((uint32_t)(1 << 2)),	/**< Rx FIFO is at least half full */
 155:../../lpc11cx4-library/lpc_chip_11cxx_lib/inc/ssp_11xx.h **** 	SSP_TXMIS = ((uint32_t)(1 << 3)),	/**< Tx FIFO is at least half empty */
 156:../../lpc11cx4-library/lpc_chip_11cxx_lib/inc/ssp_11xx.h **** 	SSP_MASK_INT_STAT_BITMASK = ((uint32_t)(0xF)),
 157:../../lpc11cx4-library/lpc_chip_11cxx_lib/inc/ssp_11xx.h **** } SSP_MASKINTSTATUS_T;
 158:../../lpc11cx4-library/lpc_chip_11cxx_lib/inc/ssp_11xx.h **** 
 159:../../lpc11cx4-library/lpc_chip_11cxx_lib/inc/ssp_11xx.h **** /**
 160:../../lpc11cx4-library/lpc_chip_11cxx_lib/inc/ssp_11xx.h ****  * @brief SSP Type of Raw Interrupt Status
 161:../../lpc11cx4-library/lpc_chip_11cxx_lib/inc/ssp_11xx.h ****  */
 162:../../lpc11cx4-library/lpc_chip_11cxx_lib/inc/ssp_11xx.h **** typedef enum _SSP_RAWINTSTATUS {
 163:../../lpc11cx4-library/lpc_chip_11cxx_lib/inc/ssp_11xx.h **** 	SSP_RORRIS = ((uint32_t)(1 << 0)),	/**< Overun */
 164:../../lpc11cx4-library/lpc_chip_11cxx_lib/inc/ssp_11xx.h **** 	SSP_RTRIS = ((uint32_t)(1 << 1)),	/**< TimeOut */
ARM GAS  /tmp/ccYwUl1E.s 			page 14


 165:../../lpc11cx4-library/lpc_chip_11cxx_lib/inc/ssp_11xx.h **** 	SSP_RXRIS = ((uint32_t)(1 << 2)),	/**< Rx FIFO is at least half full */
 166:../../lpc11cx4-library/lpc_chip_11cxx_lib/inc/ssp_11xx.h **** 	SSP_TXRIS = ((uint32_t)(1 << 3)),	/**< Tx FIFO is at least half empty */
 167:../../lpc11cx4-library/lpc_chip_11cxx_lib/inc/ssp_11xx.h **** 	SSP_RAW_INT_STAT_BITMASK = ((uint32_t)(0xF)),
 168:../../lpc11cx4-library/lpc_chip_11cxx_lib/inc/ssp_11xx.h **** } SSP_RAWINTSTATUS_T;
 169:../../lpc11cx4-library/lpc_chip_11cxx_lib/inc/ssp_11xx.h **** 
 170:../../lpc11cx4-library/lpc_chip_11cxx_lib/inc/ssp_11xx.h **** typedef enum _SSP_INTCLEAR {
 171:../../lpc11cx4-library/lpc_chip_11cxx_lib/inc/ssp_11xx.h **** 	SSP_RORIC = 0x0,
 172:../../lpc11cx4-library/lpc_chip_11cxx_lib/inc/ssp_11xx.h **** 	SSP_RTIC = 0x1,
 173:../../lpc11cx4-library/lpc_chip_11cxx_lib/inc/ssp_11xx.h **** 	SSP_INT_CLEAR_BITMASK = 0x3,
 174:../../lpc11cx4-library/lpc_chip_11cxx_lib/inc/ssp_11xx.h **** } SSP_INTCLEAR_T;
 175:../../lpc11cx4-library/lpc_chip_11cxx_lib/inc/ssp_11xx.h **** 
 176:../../lpc11cx4-library/lpc_chip_11cxx_lib/inc/ssp_11xx.h **** /*
 177:../../lpc11cx4-library/lpc_chip_11cxx_lib/inc/ssp_11xx.h ****  * @brief SSP clock format
 178:../../lpc11cx4-library/lpc_chip_11cxx_lib/inc/ssp_11xx.h ****  */
 179:../../lpc11cx4-library/lpc_chip_11cxx_lib/inc/ssp_11xx.h **** typedef enum CHIP_SSP_CLOCK_FORMAT {
 180:../../lpc11cx4-library/lpc_chip_11cxx_lib/inc/ssp_11xx.h **** 	SSP_CLOCK_CPHA0_CPOL0 = (0 << 6),		/**< CPHA = 0, CPOL = 0 */
 181:../../lpc11cx4-library/lpc_chip_11cxx_lib/inc/ssp_11xx.h **** 	SSP_CLOCK_CPHA0_CPOL1 = (1u << 6),		/**< CPHA = 0, CPOL = 1 */
 182:../../lpc11cx4-library/lpc_chip_11cxx_lib/inc/ssp_11xx.h **** 	SSP_CLOCK_CPHA1_CPOL0 = (2u << 6),		/**< CPHA = 1, CPOL = 0 */
 183:../../lpc11cx4-library/lpc_chip_11cxx_lib/inc/ssp_11xx.h **** 	SSP_CLOCK_CPHA1_CPOL1 = (3u << 6),		/**< CPHA = 1, CPOL = 1 */
 184:../../lpc11cx4-library/lpc_chip_11cxx_lib/inc/ssp_11xx.h **** 	SSP_CLOCK_MODE0 = SSP_CLOCK_CPHA0_CPOL0,/**< alias */
 185:../../lpc11cx4-library/lpc_chip_11cxx_lib/inc/ssp_11xx.h **** 	SSP_CLOCK_MODE1 = SSP_CLOCK_CPHA1_CPOL0,/**< alias */
 186:../../lpc11cx4-library/lpc_chip_11cxx_lib/inc/ssp_11xx.h **** 	SSP_CLOCK_MODE2 = SSP_CLOCK_CPHA0_CPOL1,/**< alias */
 187:../../lpc11cx4-library/lpc_chip_11cxx_lib/inc/ssp_11xx.h **** 	SSP_CLOCK_MODE3 = SSP_CLOCK_CPHA1_CPOL1,/**< alias */
 188:../../lpc11cx4-library/lpc_chip_11cxx_lib/inc/ssp_11xx.h **** } CHIP_SSP_CLOCK_MODE_T;
 189:../../lpc11cx4-library/lpc_chip_11cxx_lib/inc/ssp_11xx.h **** 
 190:../../lpc11cx4-library/lpc_chip_11cxx_lib/inc/ssp_11xx.h **** /*
 191:../../lpc11cx4-library/lpc_chip_11cxx_lib/inc/ssp_11xx.h ****  * @brief SSP frame format
 192:../../lpc11cx4-library/lpc_chip_11cxx_lib/inc/ssp_11xx.h ****  */
 193:../../lpc11cx4-library/lpc_chip_11cxx_lib/inc/ssp_11xx.h **** typedef enum CHIP_SSP_FRAME_FORMAT {
 194:../../lpc11cx4-library/lpc_chip_11cxx_lib/inc/ssp_11xx.h **** 	SSP_FRAMEFORMAT_SPI = (0 << 4),			/**< Frame format: SPI */
 195:../../lpc11cx4-library/lpc_chip_11cxx_lib/inc/ssp_11xx.h **** 	CHIP_SSP_FRAME_FORMAT_TI = (1u << 4),			/**< Frame format: TI SSI */
 196:../../lpc11cx4-library/lpc_chip_11cxx_lib/inc/ssp_11xx.h **** 	SSP_FRAMEFORMAT_MICROWIRE = (2u << 4),	/**< Frame format: Microwire */
 197:../../lpc11cx4-library/lpc_chip_11cxx_lib/inc/ssp_11xx.h **** } CHIP_SSP_FRAME_FORMAT_T;
 198:../../lpc11cx4-library/lpc_chip_11cxx_lib/inc/ssp_11xx.h **** 
 199:../../lpc11cx4-library/lpc_chip_11cxx_lib/inc/ssp_11xx.h **** /*
 200:../../lpc11cx4-library/lpc_chip_11cxx_lib/inc/ssp_11xx.h ****  * @brief Number of bits per frame
 201:../../lpc11cx4-library/lpc_chip_11cxx_lib/inc/ssp_11xx.h ****  */
 202:../../lpc11cx4-library/lpc_chip_11cxx_lib/inc/ssp_11xx.h **** typedef enum CHIP_SSP_BITS {
 203:../../lpc11cx4-library/lpc_chip_11cxx_lib/inc/ssp_11xx.h **** 	SSP_BITS_4 = (3u << 0),		/*!< 4 bits/frame */
 204:../../lpc11cx4-library/lpc_chip_11cxx_lib/inc/ssp_11xx.h **** 	SSP_BITS_5 = (4u << 0),		/*!< 5 bits/frame */
 205:../../lpc11cx4-library/lpc_chip_11cxx_lib/inc/ssp_11xx.h **** 	SSP_BITS_6 = (5u << 0),		/*!< 6 bits/frame */
 206:../../lpc11cx4-library/lpc_chip_11cxx_lib/inc/ssp_11xx.h **** 	SSP_BITS_7 = (6u << 0),		/*!< 7 bits/frame */
 207:../../lpc11cx4-library/lpc_chip_11cxx_lib/inc/ssp_11xx.h **** 	SSP_BITS_8 = (7u << 0),		/*!< 8 bits/frame */
 208:../../lpc11cx4-library/lpc_chip_11cxx_lib/inc/ssp_11xx.h **** 	SSP_BITS_9 = (8u << 0),		/*!< 9 bits/frame */
 209:../../lpc11cx4-library/lpc_chip_11cxx_lib/inc/ssp_11xx.h **** 	SSP_BITS_10 = (9u << 0),	/*!< 10 bits/frame */
 210:../../lpc11cx4-library/lpc_chip_11cxx_lib/inc/ssp_11xx.h **** 	SSP_BITS_11 = (10u << 0),	/*!< 11 bits/frame */
 211:../../lpc11cx4-library/lpc_chip_11cxx_lib/inc/ssp_11xx.h **** 	SSP_BITS_12 = (11u << 0),	/*!< 12 bits/frame */
 212:../../lpc11cx4-library/lpc_chip_11cxx_lib/inc/ssp_11xx.h **** 	SSP_BITS_13 = (12u << 0),	/*!< 13 bits/frame */
 213:../../lpc11cx4-library/lpc_chip_11cxx_lib/inc/ssp_11xx.h **** 	SSP_BITS_14 = (13u << 0),	/*!< 14 bits/frame */
 214:../../lpc11cx4-library/lpc_chip_11cxx_lib/inc/ssp_11xx.h **** 	SSP_BITS_15 = (14u << 0),	/*!< 15 bits/frame */
 215:../../lpc11cx4-library/lpc_chip_11cxx_lib/inc/ssp_11xx.h **** 	SSP_BITS_16 = (15u << 0),	/*!< 16 bits/frame */
 216:../../lpc11cx4-library/lpc_chip_11cxx_lib/inc/ssp_11xx.h **** } CHIP_SSP_BITS_T;
 217:../../lpc11cx4-library/lpc_chip_11cxx_lib/inc/ssp_11xx.h **** 
 218:../../lpc11cx4-library/lpc_chip_11cxx_lib/inc/ssp_11xx.h **** /*
 219:../../lpc11cx4-library/lpc_chip_11cxx_lib/inc/ssp_11xx.h ****  * @brief SSP config format
 220:../../lpc11cx4-library/lpc_chip_11cxx_lib/inc/ssp_11xx.h ****  */
 221:../../lpc11cx4-library/lpc_chip_11cxx_lib/inc/ssp_11xx.h **** typedef struct SSP_ConfigFormat {
ARM GAS  /tmp/ccYwUl1E.s 			page 15


 222:../../lpc11cx4-library/lpc_chip_11cxx_lib/inc/ssp_11xx.h **** 	CHIP_SSP_BITS_T bits;					/*!< Format config: bits/frame */
 223:../../lpc11cx4-library/lpc_chip_11cxx_lib/inc/ssp_11xx.h **** 	CHIP_SSP_CLOCK_MODE_T clockMode;	/*!< Format config: clock phase/polarity */
 224:../../lpc11cx4-library/lpc_chip_11cxx_lib/inc/ssp_11xx.h **** 	CHIP_SSP_FRAME_FORMAT_T frameFormat;	/*!< Format config: SPI/TI/Microwire */
 225:../../lpc11cx4-library/lpc_chip_11cxx_lib/inc/ssp_11xx.h **** } SSP_ConfigFormat;
 226:../../lpc11cx4-library/lpc_chip_11cxx_lib/inc/ssp_11xx.h **** 
 227:../../lpc11cx4-library/lpc_chip_11cxx_lib/inc/ssp_11xx.h **** /**
 228:../../lpc11cx4-library/lpc_chip_11cxx_lib/inc/ssp_11xx.h ****  * @brief	Enable SSP operation
 229:../../lpc11cx4-library/lpc_chip_11cxx_lib/inc/ssp_11xx.h ****  * @param	pSSP		: The base of SSP peripheral on the chip
 230:../../lpc11cx4-library/lpc_chip_11cxx_lib/inc/ssp_11xx.h ****  * @return	 Nothing
 231:../../lpc11cx4-library/lpc_chip_11cxx_lib/inc/ssp_11xx.h ****  */
 232:../../lpc11cx4-library/lpc_chip_11cxx_lib/inc/ssp_11xx.h **** STATIC INLINE void Chip_SSP_Enable(LPC_SSP_T *pSSP)
 233:../../lpc11cx4-library/lpc_chip_11cxx_lib/inc/ssp_11xx.h **** {
 234:../../lpc11cx4-library/lpc_chip_11cxx_lib/inc/ssp_11xx.h **** 	pSSP->CR1 |= SSP_CR1_SSP_EN;
 235:../../lpc11cx4-library/lpc_chip_11cxx_lib/inc/ssp_11xx.h **** }
 236:../../lpc11cx4-library/lpc_chip_11cxx_lib/inc/ssp_11xx.h **** 
 237:../../lpc11cx4-library/lpc_chip_11cxx_lib/inc/ssp_11xx.h **** /**
 238:../../lpc11cx4-library/lpc_chip_11cxx_lib/inc/ssp_11xx.h ****  * @brief	Disable SSP operation
 239:../../lpc11cx4-library/lpc_chip_11cxx_lib/inc/ssp_11xx.h ****  * @param	pSSP		: The base of SSP peripheral on the chip
 240:../../lpc11cx4-library/lpc_chip_11cxx_lib/inc/ssp_11xx.h ****  * @return	 Nothing
 241:../../lpc11cx4-library/lpc_chip_11cxx_lib/inc/ssp_11xx.h ****  */
 242:../../lpc11cx4-library/lpc_chip_11cxx_lib/inc/ssp_11xx.h **** STATIC INLINE void Chip_SSP_Disable(LPC_SSP_T *pSSP)
 243:../../lpc11cx4-library/lpc_chip_11cxx_lib/inc/ssp_11xx.h **** {
 244:../../lpc11cx4-library/lpc_chip_11cxx_lib/inc/ssp_11xx.h **** 	pSSP->CR1 &= (~SSP_CR1_SSP_EN) & SSP_CR1_BITMASK;
 245:../../lpc11cx4-library/lpc_chip_11cxx_lib/inc/ssp_11xx.h **** }
 246:../../lpc11cx4-library/lpc_chip_11cxx_lib/inc/ssp_11xx.h **** 
 247:../../lpc11cx4-library/lpc_chip_11cxx_lib/inc/ssp_11xx.h **** /**
 248:../../lpc11cx4-library/lpc_chip_11cxx_lib/inc/ssp_11xx.h ****  * @brief	Enable loopback mode
 249:../../lpc11cx4-library/lpc_chip_11cxx_lib/inc/ssp_11xx.h ****  * @param	pSSP		: The base of SSP peripheral on the chip
 250:../../lpc11cx4-library/lpc_chip_11cxx_lib/inc/ssp_11xx.h ****  * @return	 Nothing
 251:../../lpc11cx4-library/lpc_chip_11cxx_lib/inc/ssp_11xx.h ****  * @note	Serial input is taken from the serial output (MOSI or MISO) rather
 252:../../lpc11cx4-library/lpc_chip_11cxx_lib/inc/ssp_11xx.h ****  * than the serial input pin
 253:../../lpc11cx4-library/lpc_chip_11cxx_lib/inc/ssp_11xx.h ****  */
 254:../../lpc11cx4-library/lpc_chip_11cxx_lib/inc/ssp_11xx.h **** STATIC INLINE void Chip_SSP_EnableLoopBack(LPC_SSP_T *pSSP)
 255:../../lpc11cx4-library/lpc_chip_11cxx_lib/inc/ssp_11xx.h **** {
 256:../../lpc11cx4-library/lpc_chip_11cxx_lib/inc/ssp_11xx.h **** 	pSSP->CR1 |= SSP_CR1_LBM_EN;
 257:../../lpc11cx4-library/lpc_chip_11cxx_lib/inc/ssp_11xx.h **** }
 258:../../lpc11cx4-library/lpc_chip_11cxx_lib/inc/ssp_11xx.h **** 
 259:../../lpc11cx4-library/lpc_chip_11cxx_lib/inc/ssp_11xx.h **** /**
 260:../../lpc11cx4-library/lpc_chip_11cxx_lib/inc/ssp_11xx.h ****  * @brief	Disable loopback mode
 261:../../lpc11cx4-library/lpc_chip_11cxx_lib/inc/ssp_11xx.h ****  * @param	pSSP		: The base of SSP peripheral on the chip
 262:../../lpc11cx4-library/lpc_chip_11cxx_lib/inc/ssp_11xx.h ****  * @return	 Nothing
 263:../../lpc11cx4-library/lpc_chip_11cxx_lib/inc/ssp_11xx.h ****  * @note	Serial input is taken from the serial output (MOSI or MISO) rather
 264:../../lpc11cx4-library/lpc_chip_11cxx_lib/inc/ssp_11xx.h ****  * than the serial input pin
 265:../../lpc11cx4-library/lpc_chip_11cxx_lib/inc/ssp_11xx.h ****  */
 266:../../lpc11cx4-library/lpc_chip_11cxx_lib/inc/ssp_11xx.h **** STATIC INLINE void Chip_SSP_DisableLoopBack(LPC_SSP_T *pSSP)
 267:../../lpc11cx4-library/lpc_chip_11cxx_lib/inc/ssp_11xx.h **** {
 268:../../lpc11cx4-library/lpc_chip_11cxx_lib/inc/ssp_11xx.h **** 	pSSP->CR1 &= (~SSP_CR1_LBM_EN) & SSP_CR1_BITMASK;
 269:../../lpc11cx4-library/lpc_chip_11cxx_lib/inc/ssp_11xx.h **** }
 270:../../lpc11cx4-library/lpc_chip_11cxx_lib/inc/ssp_11xx.h **** 
 271:../../lpc11cx4-library/lpc_chip_11cxx_lib/inc/ssp_11xx.h **** /**
 272:../../lpc11cx4-library/lpc_chip_11cxx_lib/inc/ssp_11xx.h ****  * @brief	Get the current status of SSP controller
 273:../../lpc11cx4-library/lpc_chip_11cxx_lib/inc/ssp_11xx.h ****  * @param	pSSP	: The base of SSP peripheral on the chip
 274:../../lpc11cx4-library/lpc_chip_11cxx_lib/inc/ssp_11xx.h ****  * @param	Stat	: Type of status, should be :
 275:../../lpc11cx4-library/lpc_chip_11cxx_lib/inc/ssp_11xx.h ****  *						- SSP_STAT_TFE
 276:../../lpc11cx4-library/lpc_chip_11cxx_lib/inc/ssp_11xx.h ****  *						- SSP_STAT_TNF
 277:../../lpc11cx4-library/lpc_chip_11cxx_lib/inc/ssp_11xx.h ****  *						- SSP_STAT_RNE
 278:../../lpc11cx4-library/lpc_chip_11cxx_lib/inc/ssp_11xx.h ****  *						- SSP_STAT_RFF
ARM GAS  /tmp/ccYwUl1E.s 			page 16


 279:../../lpc11cx4-library/lpc_chip_11cxx_lib/inc/ssp_11xx.h ****  *						- SSP_STAT_BSY
 280:../../lpc11cx4-library/lpc_chip_11cxx_lib/inc/ssp_11xx.h ****  * @return	 SSP controller status, SET or RESET
 281:../../lpc11cx4-library/lpc_chip_11cxx_lib/inc/ssp_11xx.h ****  */
 282:../../lpc11cx4-library/lpc_chip_11cxx_lib/inc/ssp_11xx.h **** STATIC INLINE FlagStatus Chip_SSP_GetStatus(LPC_SSP_T *pSSP, SSP_STATUS_T Stat)
 283:../../lpc11cx4-library/lpc_chip_11cxx_lib/inc/ssp_11xx.h **** {
 284:../../lpc11cx4-library/lpc_chip_11cxx_lib/inc/ssp_11xx.h **** 	return (pSSP->SR & Stat) ? SET : RESET;
 285:../../lpc11cx4-library/lpc_chip_11cxx_lib/inc/ssp_11xx.h **** }
 286:../../lpc11cx4-library/lpc_chip_11cxx_lib/inc/ssp_11xx.h **** 
 287:../../lpc11cx4-library/lpc_chip_11cxx_lib/inc/ssp_11xx.h **** /**
 288:../../lpc11cx4-library/lpc_chip_11cxx_lib/inc/ssp_11xx.h ****  * @brief	Get the masked interrupt status
 289:../../lpc11cx4-library/lpc_chip_11cxx_lib/inc/ssp_11xx.h ****  * @param	pSSP	: The base of SSP peripheral on the chip
 290:../../lpc11cx4-library/lpc_chip_11cxx_lib/inc/ssp_11xx.h ****  * @return	 SSP Masked Interrupt Status Register value
 291:../../lpc11cx4-library/lpc_chip_11cxx_lib/inc/ssp_11xx.h ****  * @note	The return value contains a 1 for each interrupt condition that is asserted and enabled (m
 292:../../lpc11cx4-library/lpc_chip_11cxx_lib/inc/ssp_11xx.h ****  */
 293:../../lpc11cx4-library/lpc_chip_11cxx_lib/inc/ssp_11xx.h **** STATIC INLINE uint32_t Chip_SSP_GetIntStatus(LPC_SSP_T *pSSP)
 294:../../lpc11cx4-library/lpc_chip_11cxx_lib/inc/ssp_11xx.h **** {
 295:../../lpc11cx4-library/lpc_chip_11cxx_lib/inc/ssp_11xx.h **** 	return pSSP->MIS;
 296:../../lpc11cx4-library/lpc_chip_11cxx_lib/inc/ssp_11xx.h **** }
 297:../../lpc11cx4-library/lpc_chip_11cxx_lib/inc/ssp_11xx.h **** 
 298:../../lpc11cx4-library/lpc_chip_11cxx_lib/inc/ssp_11xx.h **** /**
 299:../../lpc11cx4-library/lpc_chip_11cxx_lib/inc/ssp_11xx.h ****  * @brief	Get the raw interrupt status
 300:../../lpc11cx4-library/lpc_chip_11cxx_lib/inc/ssp_11xx.h ****  * @param	pSSP	: The base of SSP peripheral on the chip
 301:../../lpc11cx4-library/lpc_chip_11cxx_lib/inc/ssp_11xx.h ****  * @param	RawInt	: Interrupt condition to be get status, shoud be :
 302:../../lpc11cx4-library/lpc_chip_11cxx_lib/inc/ssp_11xx.h ****  *						- SSP_RORRIS
 303:../../lpc11cx4-library/lpc_chip_11cxx_lib/inc/ssp_11xx.h ****  *						- SSP_RTRIS
 304:../../lpc11cx4-library/lpc_chip_11cxx_lib/inc/ssp_11xx.h ****  *						- SSP_RXRIS
 305:../../lpc11cx4-library/lpc_chip_11cxx_lib/inc/ssp_11xx.h ****  *						- SSP_TXRIS
 306:../../lpc11cx4-library/lpc_chip_11cxx_lib/inc/ssp_11xx.h ****  * @return	 Raw interrupt status corresponding to interrupt condition , SET or RESET
 307:../../lpc11cx4-library/lpc_chip_11cxx_lib/inc/ssp_11xx.h ****  * @note	Get the status of each interrupt condition ,regardless of whether or not the interrupt is 
 308:../../lpc11cx4-library/lpc_chip_11cxx_lib/inc/ssp_11xx.h ****  */
 309:../../lpc11cx4-library/lpc_chip_11cxx_lib/inc/ssp_11xx.h **** STATIC INLINE IntStatus Chip_SSP_GetRawIntStatus(LPC_SSP_T *pSSP, SSP_RAWINTSTATUS_T RawInt)
 310:../../lpc11cx4-library/lpc_chip_11cxx_lib/inc/ssp_11xx.h **** {
 311:../../lpc11cx4-library/lpc_chip_11cxx_lib/inc/ssp_11xx.h **** 	return (pSSP->RIS & RawInt) ? SET : RESET;
 312:../../lpc11cx4-library/lpc_chip_11cxx_lib/inc/ssp_11xx.h **** }
 313:../../lpc11cx4-library/lpc_chip_11cxx_lib/inc/ssp_11xx.h **** 
 314:../../lpc11cx4-library/lpc_chip_11cxx_lib/inc/ssp_11xx.h **** /**
 315:../../lpc11cx4-library/lpc_chip_11cxx_lib/inc/ssp_11xx.h ****  * @brief	Get the number of bits transferred in each frame
 316:../../lpc11cx4-library/lpc_chip_11cxx_lib/inc/ssp_11xx.h ****  * @param	pSSP	: The base of SSP peripheral on the chip
 317:../../lpc11cx4-library/lpc_chip_11cxx_lib/inc/ssp_11xx.h ****  * @return	 the number of bits transferred in each frame minus one
 318:../../lpc11cx4-library/lpc_chip_11cxx_lib/inc/ssp_11xx.h ****  * @note	The return value is 0x03 -> 0xF corresponding to 4bit -> 16bit transfer
 319:../../lpc11cx4-library/lpc_chip_11cxx_lib/inc/ssp_11xx.h ****  */
 320:../../lpc11cx4-library/lpc_chip_11cxx_lib/inc/ssp_11xx.h **** STATIC INLINE uint8_t Chip_SSP_GetDataSize(LPC_SSP_T *pSSP)
 321:../../lpc11cx4-library/lpc_chip_11cxx_lib/inc/ssp_11xx.h **** {
 322:../../lpc11cx4-library/lpc_chip_11cxx_lib/inc/ssp_11xx.h **** 	return SSP_CR0_DSS(pSSP->CR0);
 323:../../lpc11cx4-library/lpc_chip_11cxx_lib/inc/ssp_11xx.h **** }
 324:../../lpc11cx4-library/lpc_chip_11cxx_lib/inc/ssp_11xx.h **** 
 325:../../lpc11cx4-library/lpc_chip_11cxx_lib/inc/ssp_11xx.h **** /**
 326:../../lpc11cx4-library/lpc_chip_11cxx_lib/inc/ssp_11xx.h ****  * @brief	Clear the corresponding interrupt condition(s) in the SSP controller
 327:../../lpc11cx4-library/lpc_chip_11cxx_lib/inc/ssp_11xx.h ****  * @param	pSSP	: The base of SSP peripheral on the chip
 328:../../lpc11cx4-library/lpc_chip_11cxx_lib/inc/ssp_11xx.h ****  * @param	IntClear: Type of cleared interrupt, should be :
 329:../../lpc11cx4-library/lpc_chip_11cxx_lib/inc/ssp_11xx.h ****  *						- SSP_RORIC
 330:../../lpc11cx4-library/lpc_chip_11cxx_lib/inc/ssp_11xx.h ****  *						- SSP_RTIC
 331:../../lpc11cx4-library/lpc_chip_11cxx_lib/inc/ssp_11xx.h ****  * @return	 Nothing
 332:../../lpc11cx4-library/lpc_chip_11cxx_lib/inc/ssp_11xx.h ****  * @note	Software can clear one or more interrupt condition(s) in the SSP controller
 333:../../lpc11cx4-library/lpc_chip_11cxx_lib/inc/ssp_11xx.h ****  */
 334:../../lpc11cx4-library/lpc_chip_11cxx_lib/inc/ssp_11xx.h **** STATIC INLINE void Chip_SSP_ClearIntPending(LPC_SSP_T *pSSP, SSP_INTCLEAR_T IntClear)
 335:../../lpc11cx4-library/lpc_chip_11cxx_lib/inc/ssp_11xx.h **** {
ARM GAS  /tmp/ccYwUl1E.s 			page 17


 336:../../lpc11cx4-library/lpc_chip_11cxx_lib/inc/ssp_11xx.h **** 	pSSP->ICR = IntClear;
 337:../../lpc11cx4-library/lpc_chip_11cxx_lib/inc/ssp_11xx.h **** }
 338:../../lpc11cx4-library/lpc_chip_11cxx_lib/inc/ssp_11xx.h **** 
 339:../../lpc11cx4-library/lpc_chip_11cxx_lib/inc/ssp_11xx.h **** /**
 340:../../lpc11cx4-library/lpc_chip_11cxx_lib/inc/ssp_11xx.h ****  * @brief	Enable interrupt for the SSP
 341:../../lpc11cx4-library/lpc_chip_11cxx_lib/inc/ssp_11xx.h ****  * @param	pSSP		: The base of SSP peripheral on the chip
 342:../../lpc11cx4-library/lpc_chip_11cxx_lib/inc/ssp_11xx.h ****  * @return	 Nothing
 343:../../lpc11cx4-library/lpc_chip_11cxx_lib/inc/ssp_11xx.h ****  */
 344:../../lpc11cx4-library/lpc_chip_11cxx_lib/inc/ssp_11xx.h **** STATIC INLINE void Chip_SSP_Int_Enable(LPC_SSP_T *pSSP)
 345:../../lpc11cx4-library/lpc_chip_11cxx_lib/inc/ssp_11xx.h **** {
 346:../../lpc11cx4-library/lpc_chip_11cxx_lib/inc/ssp_11xx.h **** 	pSSP->IMSC |= SSP_TXIM;
 347:../../lpc11cx4-library/lpc_chip_11cxx_lib/inc/ssp_11xx.h **** }
 348:../../lpc11cx4-library/lpc_chip_11cxx_lib/inc/ssp_11xx.h **** 
 349:../../lpc11cx4-library/lpc_chip_11cxx_lib/inc/ssp_11xx.h **** /**
 350:../../lpc11cx4-library/lpc_chip_11cxx_lib/inc/ssp_11xx.h ****  * @brief	Disable interrupt for the SSP
 351:../../lpc11cx4-library/lpc_chip_11cxx_lib/inc/ssp_11xx.h ****  * @param	pSSP		: The base of SSP peripheral on the chip
 352:../../lpc11cx4-library/lpc_chip_11cxx_lib/inc/ssp_11xx.h ****  * @return	 Nothing
 353:../../lpc11cx4-library/lpc_chip_11cxx_lib/inc/ssp_11xx.h ****  */
 354:../../lpc11cx4-library/lpc_chip_11cxx_lib/inc/ssp_11xx.h **** STATIC INLINE void Chip_SSP_Int_Disable(LPC_SSP_T *pSSP)
 355:../../lpc11cx4-library/lpc_chip_11cxx_lib/inc/ssp_11xx.h **** {
 356:../../lpc11cx4-library/lpc_chip_11cxx_lib/inc/ssp_11xx.h **** 	pSSP->IMSC &= (~SSP_TXIM);
 357:../../lpc11cx4-library/lpc_chip_11cxx_lib/inc/ssp_11xx.h **** }
 358:../../lpc11cx4-library/lpc_chip_11cxx_lib/inc/ssp_11xx.h **** 
 359:../../lpc11cx4-library/lpc_chip_11cxx_lib/inc/ssp_11xx.h **** /**
 360:../../lpc11cx4-library/lpc_chip_11cxx_lib/inc/ssp_11xx.h ****  * @brief	Get received SSP data
 361:../../lpc11cx4-library/lpc_chip_11cxx_lib/inc/ssp_11xx.h ****  * @param	pSSP	: The base of SSP peripheral on the chip
 362:../../lpc11cx4-library/lpc_chip_11cxx_lib/inc/ssp_11xx.h ****  * @return	 SSP 16-bit data received
 363:../../lpc11cx4-library/lpc_chip_11cxx_lib/inc/ssp_11xx.h ****  */
 364:../../lpc11cx4-library/lpc_chip_11cxx_lib/inc/ssp_11xx.h **** STATIC INLINE uint16_t Chip_SSP_ReceiveFrame(LPC_SSP_T *pSSP)
 365:../../lpc11cx4-library/lpc_chip_11cxx_lib/inc/ssp_11xx.h **** {
 366:../../lpc11cx4-library/lpc_chip_11cxx_lib/inc/ssp_11xx.h **** 	return (uint16_t) (SSP_DR_BITMASK(pSSP->DR));
 367:../../lpc11cx4-library/lpc_chip_11cxx_lib/inc/ssp_11xx.h **** }
 368:../../lpc11cx4-library/lpc_chip_11cxx_lib/inc/ssp_11xx.h **** 
 369:../../lpc11cx4-library/lpc_chip_11cxx_lib/inc/ssp_11xx.h **** /**
 370:../../lpc11cx4-library/lpc_chip_11cxx_lib/inc/ssp_11xx.h ****  * @brief	Send SSP 16-bit data
 371:../../lpc11cx4-library/lpc_chip_11cxx_lib/inc/ssp_11xx.h ****  * @param	pSSP	: The base of SSP peripheral on the chip
 372:../../lpc11cx4-library/lpc_chip_11cxx_lib/inc/ssp_11xx.h ****  * @param	tx_data	: SSP 16-bit data to be transmited
 373:../../lpc11cx4-library/lpc_chip_11cxx_lib/inc/ssp_11xx.h ****  * @return	 Nothing
 374:../../lpc11cx4-library/lpc_chip_11cxx_lib/inc/ssp_11xx.h ****  */
 375:../../lpc11cx4-library/lpc_chip_11cxx_lib/inc/ssp_11xx.h **** STATIC INLINE void Chip_SSP_SendFrame(LPC_SSP_T *pSSP, uint16_t tx_data)
 376:../../lpc11cx4-library/lpc_chip_11cxx_lib/inc/ssp_11xx.h **** {
 377:../../lpc11cx4-library/lpc_chip_11cxx_lib/inc/ssp_11xx.h **** 	pSSP->DR = SSP_DR_BITMASK(tx_data);
 378:../../lpc11cx4-library/lpc_chip_11cxx_lib/inc/ssp_11xx.h **** }
 379:../../lpc11cx4-library/lpc_chip_11cxx_lib/inc/ssp_11xx.h **** 
 380:../../lpc11cx4-library/lpc_chip_11cxx_lib/inc/ssp_11xx.h **** /**
 381:../../lpc11cx4-library/lpc_chip_11cxx_lib/inc/ssp_11xx.h ****  * @brief	Set up output clocks per bit for SSP bus
 382:../../lpc11cx4-library/lpc_chip_11cxx_lib/inc/ssp_11xx.h ****  * @param	pSSP		: The base of SSP peripheral on the chip
 383:../../lpc11cx4-library/lpc_chip_11cxx_lib/inc/ssp_11xx.h ****  * @param	clk_rate	fs: The number of prescaler-output clocks per bit on the bus, minus one
 384:../../lpc11cx4-library/lpc_chip_11cxx_lib/inc/ssp_11xx.h ****  * @param	prescale	: The factor by which the Prescaler divides the SSP peripheral clock PCLK
 385:../../lpc11cx4-library/lpc_chip_11cxx_lib/inc/ssp_11xx.h ****  * @return	 Nothing
 386:../../lpc11cx4-library/lpc_chip_11cxx_lib/inc/ssp_11xx.h ****  * @note	The bit frequency is PCLK / (prescale x[clk_rate+1])
 387:../../lpc11cx4-library/lpc_chip_11cxx_lib/inc/ssp_11xx.h ****  */
 388:../../lpc11cx4-library/lpc_chip_11cxx_lib/inc/ssp_11xx.h **** void Chip_SSP_SetClockRate(LPC_SSP_T *pSSP, uint32_t clk_rate, uint32_t prescale);
 389:../../lpc11cx4-library/lpc_chip_11cxx_lib/inc/ssp_11xx.h **** 
 390:../../lpc11cx4-library/lpc_chip_11cxx_lib/inc/ssp_11xx.h **** /**
 391:../../lpc11cx4-library/lpc_chip_11cxx_lib/inc/ssp_11xx.h ****  * @brief	Set up the SSP frame format
 392:../../lpc11cx4-library/lpc_chip_11cxx_lib/inc/ssp_11xx.h ****  * @param	pSSP		: The base of SSP peripheral on the chip
ARM GAS  /tmp/ccYwUl1E.s 			page 18


 393:../../lpc11cx4-library/lpc_chip_11cxx_lib/inc/ssp_11xx.h ****  * @param	bits		: The number of bits transferred in each frame, should be SSP_BITS_4 to SSP_BITS_16
 394:../../lpc11cx4-library/lpc_chip_11cxx_lib/inc/ssp_11xx.h ****  * @param	frameFormat	: Frame format, should be :
 395:../../lpc11cx4-library/lpc_chip_11cxx_lib/inc/ssp_11xx.h ****  *							- SSP_FRAMEFORMAT_SPI
 396:../../lpc11cx4-library/lpc_chip_11cxx_lib/inc/ssp_11xx.h ****  *							- SSP_FRAME_FORMAT_TI
 397:../../lpc11cx4-library/lpc_chip_11cxx_lib/inc/ssp_11xx.h ****  *							- SSP_FRAMEFORMAT_MICROWIRE
 398:../../lpc11cx4-library/lpc_chip_11cxx_lib/inc/ssp_11xx.h ****  * @param	clockMode	: Select Clock polarity and Clock phase, should be :
 399:../../lpc11cx4-library/lpc_chip_11cxx_lib/inc/ssp_11xx.h ****  *							- SSP_CLOCK_CPHA0_CPOL0
 400:../../lpc11cx4-library/lpc_chip_11cxx_lib/inc/ssp_11xx.h ****  *							- SSP_CLOCK_CPHA0_CPOL1
 401:../../lpc11cx4-library/lpc_chip_11cxx_lib/inc/ssp_11xx.h ****  *							- SSP_CLOCK_CPHA1_CPOL0
 402:../../lpc11cx4-library/lpc_chip_11cxx_lib/inc/ssp_11xx.h ****  *							- SSP_CLOCK_CPHA1_CPOL1
 403:../../lpc11cx4-library/lpc_chip_11cxx_lib/inc/ssp_11xx.h ****  * @return	 Nothing
 404:../../lpc11cx4-library/lpc_chip_11cxx_lib/inc/ssp_11xx.h ****  * @note	Note: The clockFormat is only used in SPI mode
 405:../../lpc11cx4-library/lpc_chip_11cxx_lib/inc/ssp_11xx.h ****  */
 406:../../lpc11cx4-library/lpc_chip_11cxx_lib/inc/ssp_11xx.h **** STATIC INLINE void Chip_SSP_SetFormat(LPC_SSP_T *pSSP, uint32_t bits, uint32_t frameFormat, uint32_
 407:../../lpc11cx4-library/lpc_chip_11cxx_lib/inc/ssp_11xx.h **** {
 408:../../lpc11cx4-library/lpc_chip_11cxx_lib/inc/ssp_11xx.h **** 	pSSP->CR0 = (pSSP->CR0 & ~0xFF) | bits | frameFormat | clockMode;
 189              		.loc 4 408 0
 190 0058 FF22     		mov	r2, #255	@ tmp199,
 191              	.LBE61:
 192              	.LBE60:
  32:../../lpc11cx4-library/evt_lib/src/lc1024.c **** 	Chip_SSP_SetFormat(_pSSP, SSP_BITS_8, SSP_FRAMEFORMAT_SPI, SSP_CLOCK_MODE3);
 193              		.loc 1 32 0
 194 005a 2868     		ldr	r0, [r5]	@ D.6607, _pSSP
 195              	.LVL11:
  33:../../lpc11cx4-library/evt_lib/src/lc1024.c **** 	Chip_SSP_SetMaster(_pSSP, true);
 196              		.loc 1 33 0
 197 005c 0121     		mov	r1, #1	@,
 198              	.LBB63:
 199              	.LBB62:
 200              		.loc 4 408 0
 201 005e 0368     		ldr	r3, [r0]	@ D.6605, _21->CR0
 202 0060 9343     		bic	r3, r2	@ D.6605, tmp199
 203 0062 383A     		sub	r2, r2, #56	@ tmp200,
 204 0064 1343     		orr	r3, r2	@ D.6605, tmp200
 205 0066 0360     		str	r3, [r0]	@ D.6605, _21->CR0
 206              	.LBE62:
 207              	.LBE63:
 208              		.loc 1 33 0
 209 0068 FFF7FEFF 		bl	Chip_SSP_SetMaster	@
 210              	.LVL12:
  34:../../lpc11cx4-library/evt_lib/src/lc1024.c **** 	Chip_SSP_Enable(_pSSP);
 211              		.loc 1 34 0
 212 006c 2B68     		ldr	r3, [r5]	@ D.6607, _pSSP
 213              	.LVL13:
 214              	.LBB64:
 215              	.LBB65:
 234:../../lpc11cx4-library/lpc_chip_11cxx_lib/inc/ssp_11xx.h **** }
 216              		.loc 4 234 0
 217 006e 5A68     		ldr	r2, [r3, #4]	@ D.6605, _24->CR1
 218 0070 1443     		orr	r4, r2	@ D.6605, D.6605
 219 0072 5C60     		str	r4, [r3, #4]	@ D.6605, _24->CR1
 220              	.LBE65:
 221              	.LBE64:
  35:../../lpc11cx4-library/evt_lib/src/lc1024.c **** 
  36:../../lpc11cx4-library/evt_lib/src/lc1024.c **** 	xf_setup.tx_data = Tx_Buf;
 222              		.loc 1 36 0
 223 0074 0B4B     		ldr	r3, .L5+20	@ tmp204,
ARM GAS  /tmp/ccYwUl1E.s 			page 19


 224              	.LVL14:
 225 0076 0C4A     		ldr	r2, .L5+24	@ tmp203,
 226 0078 191C     		mov	r1, r3	@ D.6611, ivtmp.40
 227 007a 1360     		str	r3, [r2]	@ tmp204, xf_setup.tx_data
 228              	.LVL15:
 229              	.LBB66:
 230              	.LBB67:
  37:../../lpc11cx4-library/evt_lib/src/lc1024.c ****     ZeroTxBuf(0);
  38:../../lpc11cx4-library/evt_lib/src/lc1024.c **** }
  39:../../lpc11cx4-library/evt_lib/src/lc1024.c **** 
  40:../../lpc11cx4-library/evt_lib/src/lc1024.c **** void ZeroTxBuf(uint8_t start) {
  41:../../lpc11cx4-library/evt_lib/src/lc1024.c **** 	uint8_t i;
  42:../../lpc11cx4-library/evt_lib/src/lc1024.c **** 	for (i = start; i < SPI_BUFFER_SIZE; i++) {
  43:../../lpc11cx4-library/evt_lib/src/lc1024.c **** 		Tx_Buf[i] = 0;
 231              		.loc 1 43 0
 232 007c 0022     		mov	r2, #0	@ tmp209,
 233 007e 5031     		add	r1, r1, #80	@ D.6611,
 234              	.LVL16:
 235              	.L2:
 236 0080 1A70     		strb	r2, [r3]	@ tmp209, MEM[base: _50, offset: 0B]
 237              	.LVL17:
 238 0082 0133     		add	r3, r3, #1	@ ivtmp.40,
 239              	.LVL18:
  42:../../lpc11cx4-library/evt_lib/src/lc1024.c **** 		Tx_Buf[i] = 0;
 240              		.loc 1 42 0
 241 0084 8B42     		cmp	r3, r1	@ ivtmp.40, D.6611
 242 0086 FBD1     		bne	.L2	@,
 243              	.LBE67:
 244              	.LBE66:
  38:../../lpc11cx4-library/evt_lib/src/lc1024.c **** 
 245              		.loc 1 38 0
 246              		@ sp needed	@
 247 0088 04BC     		pop	{r2}
 248 008a 9046     		mov	r8, r2
 249 008c F0BD     		pop	{r4, r5, r6, r7, pc}
 250              	.L6:
 251 008e C046     		.align	2
 252              	.L5:
 253 0090 00000000 		.word	.LANCHOR1
 254 0094 00000000 		.word	.LANCHOR2
 255 0098 00000000 		.word	.LANCHOR0
 256 009c 00000000 		.word	.LANCHOR3
 257 00a0 00400440 		.word	1074020352
 258 00a4 00000000 		.word	.LANCHOR5
 259 00a8 00000000 		.word	.LANCHOR4
 260              		.cfi_endproc
 261              	.LFE198:
 262              		.size	LC1024_Init, .-LC1024_Init
 263              		.section	.text.ZeroTxBuf,"ax",%progbits
 264              		.align	2
 265              		.global	ZeroTxBuf
 266              		.code	16
 267              		.thumb_func
 268              		.type	ZeroTxBuf, %function
 269              	ZeroTxBuf:
 270              	.LFB199:
  40:../../lpc11cx4-library/evt_lib/src/lc1024.c **** 	uint8_t i;
ARM GAS  /tmp/ccYwUl1E.s 			page 20


 271              		.loc 1 40 0
 272              		.cfi_startproc
 273              	.LVL19:
  42:../../lpc11cx4-library/evt_lib/src/lc1024.c **** 		Tx_Buf[i] = 0;
 274              		.loc 1 42 0
 275 0000 4F28     		cmp	r0, #79	@ start,
 276 0002 06D8     		bhi	.L7	@,
 277              		.loc 1 43 0 discriminator 3
 278 0004 0023     		mov	r3, #0	@ tmp121,
 279 0006 034A     		ldr	r2, .L12	@ tmp120,
 280              	.LVL20:
 281              	.L9:
 282 0008 1354     		strb	r3, [r2, r0]	@ tmp121, Tx_Buf
  42:../../lpc11cx4-library/evt_lib/src/lc1024.c **** 		Tx_Buf[i] = 0;
 283              		.loc 1 42 0 discriminator 3
 284 000a 0130     		add	r0, r0, #1	@ tmp119,
 285              	.LVL21:
 286 000c C0B2     		uxtb	r0, r0	@ start, tmp119
 287              	.LVL22:
 288 000e 5028     		cmp	r0, #80	@ start,
 289 0010 FAD1     		bne	.L9	@,
 290              	.L7:
  44:../../lpc11cx4-library/evt_lib/src/lc1024.c **** 	}
  45:../../lpc11cx4-library/evt_lib/src/lc1024.c **** }
 291              		.loc 1 45 0
 292              		@ sp needed	@
 293 0012 7047     		bx	lr
 294              	.L13:
 295              		.align	2
 296              	.L12:
 297 0014 00000000 		.word	.LANCHOR5
 298              		.cfi_endproc
 299              	.LFE199:
 300              		.size	ZeroTxBuf, .-ZeroTxBuf
 301              		.section	.text.LC1024_ReadStatusReg,"ax",%progbits
 302              		.align	2
 303              		.global	LC1024_ReadStatusReg
 304              		.code	16
 305              		.thumb_func
 306              		.type	LC1024_ReadStatusReg, %function
 307              	LC1024_ReadStatusReg:
 308              	.LFB200:
  46:../../lpc11cx4-library/evt_lib/src/lc1024.c **** 
  47:../../lpc11cx4-library/evt_lib/src/lc1024.c **** void LC1024_ReadStatusReg(uint8_t* data) {
 309              		.loc 1 47 0
 310              		.cfi_startproc
 311              	.LVL23:
 312 0000 F8B5     		push	{r3, r4, r5, r6, r7, lr}	@
 313              		.cfi_def_cfa_offset 24
 314              		.cfi_offset 3, -24
 315              		.cfi_offset 4, -20
 316              		.cfi_offset 5, -16
 317              		.cfi_offset 6, -12
 318              		.cfi_offset 7, -8
 319              		.cfi_offset 14, -4
  48:../../lpc11cx4-library/evt_lib/src/lc1024.c ****     Tx_Buf[0] = RD_STATUS_REG_INSTR;
 320              		.loc 1 48 0
ARM GAS  /tmp/ccYwUl1E.s 			page 21


 321 0002 0523     		mov	r3, #5	@ tmp148,
 322              	.LBB68:
 323              	.LBB69:
  43:../../lpc11cx4-library/evt_lib/src/lc1024.c **** 	}
 324              		.loc 1 43 0
 325 0004 0021     		mov	r1, #0	@ tmp179,
 326              	.LBE69:
 327              	.LBE68:
 328              		.loc 1 48 0
 329 0006 164A     		ldr	r2, .L17	@ tmp147,
 330 0008 1370     		strb	r3, [r2]	@ tmp148, Tx_Buf
 331              	.LVL24:
 332 000a 531C     		add	r3, r2, #1	@ ivtmp.57, tmp147,
 333 000c 5032     		add	r2, r2, #80	@ D.6646,
 334              	.LVL25:
 335              	.L15:
 336              	.LBB71:
 337              	.LBB70:
  43:../../lpc11cx4-library/evt_lib/src/lc1024.c **** 	}
 338              		.loc 1 43 0
 339 000e 1970     		strb	r1, [r3]	@ tmp179, MEM[base: _37, offset: 0B]
 340              	.LVL26:
 341 0010 0133     		add	r3, r3, #1	@ ivtmp.57,
 342              	.LVL27:
 343 0012 0024     		mov	r4, #0	@ tmp152,
  42:../../lpc11cx4-library/evt_lib/src/lc1024.c **** 		Tx_Buf[i] = 0;
 344              		.loc 1 42 0
 345 0014 9342     		cmp	r3, r2	@ ivtmp.57, D.6646
 346 0016 FAD1     		bne	.L15	@,
 347              	.LBE70:
 348              	.LBE71:
 349              	.LBB72:
 350              	.LBB73:
 351              		.loc 3 104 0
 352 0018 0125     		mov	r5, #1	@ tmp166,
 353 001a A022     		mov	r2, #160	@ tmp180,
 354              	.LBE73:
 355              	.LBE72:
  49:../../lpc11cx4-library/evt_lib/src/lc1024.c ****     ZeroTxBuf(1);
  50:../../lpc11cx4-library/evt_lib/src/lc1024.c **** 	xf_setup.length = 2; xf_setup.rx_cnt = 0; xf_setup.tx_cnt = 0;
 356              		.loc 1 50 0
 357 001c 1149     		ldr	r1, .L17+4	@ tmp154,
  51:../../lpc11cx4-library/evt_lib/src/lc1024.c **** 	xf_setup.rx_data = data;
  52:../../lpc11cx4-library/evt_lib/src/lc1024.c **** 
  53:../../lpc11cx4-library/evt_lib/src/lc1024.c **** 	Chip_GPIO_SetPinState(LPC_GPIO, _cs_gpio, _cs_pin, false);
 358              		.loc 1 53 0
 359 001e 124E     		ldr	r6, .L17+8	@ tmp164,
  51:../../lpc11cx4-library/evt_lib/src/lc1024.c **** 	xf_setup.rx_data = data;
 360              		.loc 1 51 0
 361 0020 8860     		str	r0, [r1, #8]	@ data, xf_setup.rx_data
 362              	.LVL28:
 363              	.LBB79:
 364              	.LBB74:
 365              		.loc 3 104 0
 366 0022 281C     		mov	r0, r5	@ D.6643, tmp166
 367              	.LVL29:
 368              	.LBE74:
ARM GAS  /tmp/ccYwUl1E.s 			page 22


 369              	.LBE79:
  50:../../lpc11cx4-library/evt_lib/src/lc1024.c **** 	xf_setup.rx_data = data;
 370              		.loc 1 50 0
 371 0024 0223     		mov	r3, #2	@ tmp155,
 372              	.LBB80:
 373              	.LBB75:
 374              		.loc 3 104 0
 375 0026 D205     		lsl	r2, r2, #23	@ tmp180, tmp180,
 376 0028 9446     		mov	ip, r2	@ tmp180, tmp180
 377 002a 3278     		ldrb	r2, [r6]	@ D.6643, _cs_pin
 378              	.LBE75:
 379              	.LBE80:
 380              		.loc 1 53 0
 381 002c 0F4F     		ldr	r7, .L17+12	@ tmp161,
 382              	.LBB81:
 383              	.LBB76:
 384              		.loc 3 104 0
 385 002e 9040     		lsl	r0, r0, r2	@ D.6643, D.6643, D.6643
 386              	.LBE76:
 387              	.LBE81:
  50:../../lpc11cx4-library/evt_lib/src/lc1024.c **** 	xf_setup.rx_data = data;
 388              		.loc 1 50 0
 389 0030 0B61     		str	r3, [r1, #16]	@ tmp155, xf_setup.length
 390              	.LBB82:
 391              	.LBB77:
 392              		.loc 3 104 0
 393 0032 3B78     		ldrb	r3, [r7]	@ D.6639, _cs_gpio
 394 0034 8200     		lsl	r2, r0, #2	@ tmp167, D.6643,
 395 0036 1B04     		lsl	r3, r3, #16	@ D.6639, D.6639,
 396 0038 6344     		add	r3, r3, ip	@ D.6642, tmp180
 397              	.LBE77:
 398              	.LBE82:
  50:../../lpc11cx4-library/evt_lib/src/lc1024.c **** 	xf_setup.rx_data = data;
 399              		.loc 1 50 0
 400 003a CC60     		str	r4, [r1, #12]	@ tmp152, xf_setup.rx_cnt
 401 003c 4C60     		str	r4, [r1, #4]	@ tmp152, xf_setup.tx_cnt
 402              	.LBB83:
 403              	.LBB78:
 404              		.loc 3 104 0
 405 003e D450     		str	r4, [r2, r3]	@ tmp152, _21->DATA
 406              	.LBE78:
 407              	.LBE83:
  54:../../lpc11cx4-library/evt_lib/src/lc1024.c **** 	Chip_SSP_RWFrames_Blocking(_pSSP, &xf_setup);
 408              		.loc 1 54 0
 409 0040 0B4B     		ldr	r3, .L17+16	@ tmp169,
  55:../../lpc11cx4-library/evt_lib/src/lc1024.c **** 	Chip_GPIO_SetPinState(LPC_GPIO, _cs_gpio, _cs_pin, true);
  56:../../lpc11cx4-library/evt_lib/src/lc1024.c **** }
 410              		.loc 1 56 0
 411              		@ sp needed	@
  54:../../lpc11cx4-library/evt_lib/src/lc1024.c **** 	Chip_SSP_RWFrames_Blocking(_pSSP, &xf_setup);
 412              		.loc 1 54 0
 413 0042 1868     		ldr	r0, [r3]	@ _pSSP, _pSSP
 414 0044 FFF7FEFF 		bl	Chip_SSP_RWFrames_Blocking	@
 415              	.LVL30:
 416              	.LBB84:
 417              	.LBB85:
 418              		.loc 3 104 0
ARM GAS  /tmp/ccYwUl1E.s 			page 23


 419 0048 A022     		mov	r2, #160	@ tmp183,
 420 004a D205     		lsl	r2, r2, #23	@ tmp183, tmp183,
 421 004c 9446     		mov	ip, r2	@ tmp183, tmp183
 422 004e 3278     		ldrb	r2, [r6]	@ D.6643, _cs_pin
 423 0050 3B78     		ldrb	r3, [r7]	@ D.6639, _cs_gpio
 424 0052 9540     		lsl	r5, r5, r2	@ D.6643, tmp166, D.6643
 425 0054 1B04     		lsl	r3, r3, #16	@ D.6639, D.6639,
 426 0056 AA00     		lsl	r2, r5, #2	@ tmp178, D.6643,
 427 0058 6344     		add	r3, r3, ip	@ D.6642, tmp183
 428 005a D550     		str	r5, [r2, r3]	@ D.6643, _25->DATA
 429              	.LBE85:
 430              	.LBE84:
 431              		.loc 1 56 0
 432 005c F8BD     		pop	{r3, r4, r5, r6, r7, pc}
 433              	.L18:
 434 005e C046     		.align	2
 435              	.L17:
 436 0060 00000000 		.word	.LANCHOR5
 437 0064 00000000 		.word	.LANCHOR4
 438 0068 00000000 		.word	.LANCHOR3
 439 006c 00000000 		.word	.LANCHOR2
 440 0070 00000000 		.word	.LANCHOR0
 441              		.cfi_endproc
 442              	.LFE200:
 443              		.size	LC1024_ReadStatusReg, .-LC1024_ReadStatusReg
 444              		.section	.text.LC1024_WriteDisable,"ax",%progbits
 445              		.align	2
 446              		.global	LC1024_WriteDisable
 447              		.code	16
 448              		.thumb_func
 449              		.type	LC1024_WriteDisable, %function
 450              	LC1024_WriteDisable:
 451              	.LFB201:
  57:../../lpc11cx4-library/evt_lib/src/lc1024.c **** 
  58:../../lpc11cx4-library/evt_lib/src/lc1024.c **** void LC1024_WriteDisable(void) {
 452              		.loc 1 58 0
 453              		.cfi_startproc
  59:../../lpc11cx4-library/evt_lib/src/lc1024.c ****     Tx_Buf[0] = WRITE_DISABLE_INSTR;
 454              		.loc 1 59 0
 455 0000 1549     		ldr	r1, .L22	@ tmp171,
 456 0002 0423     		mov	r3, #4	@ tmp147,
 457 0004 081C     		mov	r0, r1	@ D.6671, tmp171
 458              	.LBB86:
 459              	.LBB87:
  43:../../lpc11cx4-library/evt_lib/src/lc1024.c **** 	}
 460              		.loc 1 43 0
 461 0006 0022     		mov	r2, #0	@ tmp172,
 462              	.LBE87:
 463              	.LBE86:
  58:../../lpc11cx4-library/evt_lib/src/lc1024.c ****     Tx_Buf[0] = WRITE_DISABLE_INSTR;
 464              		.loc 1 58 0
 465 0008 70B5     		push	{r4, r5, r6, lr}	@
 466              		.cfi_def_cfa_offset 16
 467              		.cfi_offset 4, -16
 468              		.cfi_offset 5, -12
 469              		.cfi_offset 6, -8
 470              		.cfi_offset 14, -4
ARM GAS  /tmp/ccYwUl1E.s 			page 24


 471 000a 5030     		add	r0, r0, #80	@ D.6671,
 472              		.loc 1 59 0
 473 000c 0B70     		strb	r3, [r1]	@ tmp147, Tx_Buf
 474              	.LVL31:
 475 000e 4B1C     		add	r3, r1, #1	@ ivtmp.68, tmp171,
 476              	.LVL32:
 477              	.L20:
 478              	.LBB89:
 479              	.LBB88:
  43:../../lpc11cx4-library/evt_lib/src/lc1024.c **** 	}
 480              		.loc 1 43 0
 481 0010 1A70     		strb	r2, [r3]	@ tmp172, MEM[base: _32, offset: 0B]
 482              	.LVL33:
 483 0012 0133     		add	r3, r3, #1	@ ivtmp.68,
 484              	.LVL34:
  42:../../lpc11cx4-library/evt_lib/src/lc1024.c **** 		Tx_Buf[i] = 0;
 485              		.loc 1 42 0
 486 0014 8342     		cmp	r3, r0	@ ivtmp.68, D.6671
 487 0016 FBD1     		bne	.L20	@,
 488              	.LVL35:
 489              	.LBE88:
 490              	.LBE89:
 491              	.LBB90:
 492              	.LBB91:
 493              		.loc 3 104 0
 494 0018 0124     		mov	r4, #1	@ tmp158,
 495 001a A022     		mov	r2, #160	@ tmp174,
 496 001c 201C     		mov	r0, r4	@ D.6668, tmp158
 497              	.LBE91:
 498              	.LBE90:
  60:../../lpc11cx4-library/evt_lib/src/lc1024.c ****     ZeroTxBuf(1);
  61:../../lpc11cx4-library/evt_lib/src/lc1024.c **** 	Chip_GPIO_SetPinState(LPC_GPIO, _cs_gpio, _cs_pin, false);
 499              		.loc 1 61 0
 500 001e 0F4D     		ldr	r5, .L22+4	@ tmp156,
 501              	.LBB95:
 502              	.LBB92:
 503              		.loc 3 104 0
 504 0020 D205     		lsl	r2, r2, #23	@ tmp174, tmp174,
 505 0022 9446     		mov	ip, r2	@ tmp174, tmp174
 506 0024 2A78     		ldrb	r2, [r5]	@ D.6668, _cs_pin
 507              	.LBE92:
 508              	.LBE95:
 509              		.loc 1 61 0
 510 0026 0E4E     		ldr	r6, .L22+8	@ tmp153,
 511              	.LBB96:
 512              	.LBB93:
 513              		.loc 3 104 0
 514 0028 9040     		lsl	r0, r0, r2	@ D.6668, D.6668, D.6668
 515 002a 8200     		lsl	r2, r0, #2	@ tmp159, D.6668,
 516 002c 0020     		mov	r0, #0	@ tmp151,
 517 002e 3378     		ldrb	r3, [r6]	@ D.6664, _cs_gpio
 518              	.LBE93:
 519              	.LBE96:
  62:../../lpc11cx4-library/evt_lib/src/lc1024.c **** 	Chip_SSP_WriteFrames_Blocking(_pSSP, Tx_Buf, 1);
  63:../../lpc11cx4-library/evt_lib/src/lc1024.c **** 	Chip_GPIO_SetPinState(LPC_GPIO, _cs_gpio, _cs_pin, true);
  64:../../lpc11cx4-library/evt_lib/src/lc1024.c **** }
 520              		.loc 1 64 0
ARM GAS  /tmp/ccYwUl1E.s 			page 25


 521              		@ sp needed	@
 522              	.LBB97:
 523              	.LBB94:
 524              		.loc 3 104 0
 525 0030 1B04     		lsl	r3, r3, #16	@ D.6664, D.6664,
 526 0032 6344     		add	r3, r3, ip	@ D.6667, tmp174
 527 0034 D050     		str	r0, [r2, r3]	@ tmp151, _16->DATA
 528              	.LBE94:
 529              	.LBE97:
  62:../../lpc11cx4-library/evt_lib/src/lc1024.c **** 	Chip_SSP_WriteFrames_Blocking(_pSSP, Tx_Buf, 1);
 530              		.loc 1 62 0
 531 0036 0B4B     		ldr	r3, .L22+12	@ tmp161,
 532 0038 0122     		mov	r2, #1	@,
 533 003a 1868     		ldr	r0, [r3]	@ _pSSP, _pSSP
 534 003c FFF7FEFF 		bl	Chip_SSP_WriteFrames_Blocking	@
 535              	.LVL36:
 536              	.LBB98:
 537              	.LBB99:
 538              		.loc 3 104 0
 539 0040 A022     		mov	r2, #160	@ tmp177,
 540 0042 D205     		lsl	r2, r2, #23	@ tmp177, tmp177,
 541 0044 9446     		mov	ip, r2	@ tmp177, tmp177
 542 0046 2A78     		ldrb	r2, [r5]	@ D.6668, _cs_pin
 543 0048 3378     		ldrb	r3, [r6]	@ D.6664, _cs_gpio
 544 004a 9440     		lsl	r4, r4, r2	@ D.6668, tmp158, D.6668
 545 004c 1B04     		lsl	r3, r3, #16	@ D.6664, D.6664,
 546 004e 6344     		add	r3, r3, ip	@ D.6667, tmp177
 547 0050 A200     		lsl	r2, r4, #2	@ tmp170, D.6668,
 548 0052 D450     		str	r4, [r2, r3]	@ D.6668, _20->DATA
 549              	.LBE99:
 550              	.LBE98:
 551              		.loc 1 64 0
 552 0054 70BD     		pop	{r4, r5, r6, pc}
 553              	.L23:
 554 0056 C046     		.align	2
 555              	.L22:
 556 0058 00000000 		.word	.LANCHOR5
 557 005c 00000000 		.word	.LANCHOR3
 558 0060 00000000 		.word	.LANCHOR2
 559 0064 00000000 		.word	.LANCHOR0
 560              		.cfi_endproc
 561              	.LFE201:
 562              		.size	LC1024_WriteDisable, .-LC1024_WriteDisable
 563              		.section	.text.LC1024_ReadMem,"ax",%progbits
 564              		.align	2
 565              		.global	LC1024_ReadMem
 566              		.code	16
 567              		.thumb_func
 568              		.type	LC1024_ReadMem, %function
 569              	LC1024_ReadMem:
 570              	.LFB202:
  65:../../lpc11cx4-library/evt_lib/src/lc1024.c **** 
  66:../../lpc11cx4-library/evt_lib/src/lc1024.c **** void LC1024_ReadMem(uint8_t *address, uint8_t *rcv_buf, uint8_t len) {
 571              		.loc 1 66 0
 572              		.cfi_startproc
 573              	.LVL37:
 574 0000 F0B5     		push	{r4, r5, r6, r7, lr}	@
ARM GAS  /tmp/ccYwUl1E.s 			page 26


 575              		.cfi_def_cfa_offset 20
 576              		.cfi_offset 4, -20
 577              		.cfi_offset 5, -16
 578              		.cfi_offset 6, -12
 579              		.cfi_offset 7, -8
 580              		.cfi_offset 14, -4
 581 0002 4746     		mov	r7, r8	@,
  67:../../lpc11cx4-library/evt_lib/src/lc1024.c ****     Tx_Buf[0] = READ_MEM_INSTR;
 582              		.loc 1 67 0
 583 0004 0323     		mov	r3, #3	@ tmp158,
  66:../../lpc11cx4-library/evt_lib/src/lc1024.c ****     Tx_Buf[0] = READ_MEM_INSTR;
 584              		.loc 1 66 0
 585 0006 0C1C     		mov	r4, r1	@ rcv_buf, rcv_buf
 586              	.LBB100:
 587              	.LBB101:
  43:../../lpc11cx4-library/evt_lib/src/lc1024.c **** 	}
 588              		.loc 1 43 0
 589 0008 0021     		mov	r1, #0	@ tmp201,
 590              	.LVL38:
 591              	.LBE101:
 592              	.LBE100:
  66:../../lpc11cx4-library/evt_lib/src/lc1024.c ****     Tx_Buf[0] = READ_MEM_INSTR;
 593              		.loc 1 66 0
 594 000a 80B4     		push	{r7}	@
 595              		.cfi_def_cfa_offset 24
 596              		.cfi_offset 8, -24
  66:../../lpc11cx4-library/evt_lib/src/lc1024.c ****     Tx_Buf[0] = READ_MEM_INSTR;
 597              		.loc 1 66 0
 598 000c 151C     		mov	r5, r2	@ len, len
 599              		.loc 1 67 0
 600 000e 1E4A     		ldr	r2, .L27	@ tmp157,
 601              	.LVL39:
 602 0010 1370     		strb	r3, [r2]	@ tmp158, Tx_Buf
  68:../../lpc11cx4-library/evt_lib/src/lc1024.c ****     Tx_Buf[1] = address[0];
 603              		.loc 1 68 0
 604 0012 0378     		ldrb	r3, [r0]	@ D.6688, *address_3(D)
 605 0014 5370     		strb	r3, [r2, #1]	@ D.6688, Tx_Buf
  69:../../lpc11cx4-library/evt_lib/src/lc1024.c ****     Tx_Buf[2] = address[1];
 606              		.loc 1 69 0
 607 0016 4378     		ldrb	r3, [r0, #1]	@ D.6688, MEM[(uint8_t *)address_3(D) + 1B]
 608 0018 9370     		strb	r3, [r2, #2]	@ D.6688, Tx_Buf
  70:../../lpc11cx4-library/evt_lib/src/lc1024.c ****     Tx_Buf[3] = address[2];
 609              		.loc 1 70 0
 610 001a 8378     		ldrb	r3, [r0, #2]	@ D.6688, MEM[(uint8_t *)address_3(D) + 2B]
 611 001c D370     		strb	r3, [r2, #3]	@ D.6688, Tx_Buf
 612              	.LVL40:
 613 001e 131D     		add	r3, r2, #4	@ ivtmp.79, tmp157,
 614 0020 5032     		add	r2, r2, #80	@ D.6696,
 615              	.LVL41:
 616              	.L25:
 617              	.LBB103:
 618              	.LBB102:
  43:../../lpc11cx4-library/evt_lib/src/lc1024.c **** 	}
 619              		.loc 1 43 0
 620 0022 1970     		strb	r1, [r3]	@ tmp201, MEM[base: _51, offset: 0B]
 621              	.LVL42:
 622 0024 0133     		add	r3, r3, #1	@ ivtmp.79,
ARM GAS  /tmp/ccYwUl1E.s 			page 27


 623              	.LVL43:
 624 0026 0020     		mov	r0, #0	@ tmp168,
  42:../../lpc11cx4-library/evt_lib/src/lc1024.c **** 		Tx_Buf[i] = 0;
 625              		.loc 1 42 0
 626 0028 9342     		cmp	r3, r2	@ ivtmp.79, D.6696
 627 002a FAD1     		bne	.L25	@,
 628              	.LBE102:
 629              	.LBE103:
 630              	.LBB104:
 631              	.LBB105:
 632              		.loc 3 104 0
 633 002c A022     		mov	r2, #160	@ tmp204,
 634 002e D205     		lsl	r2, r2, #23	@ tmp204, tmp204,
 635 0030 9446     		mov	ip, r2	@ tmp204, tmp204
 636 0032 0126     		mov	r6, #1	@ tmp182,
 637              	.LBE105:
 638              	.LBE104:
  71:../../lpc11cx4-library/evt_lib/src/lc1024.c ****     ZeroTxBuf(4);
  72:../../lpc11cx4-library/evt_lib/src/lc1024.c ****     xf_setup.length = 4+len; xf_setup.rx_cnt = 0; xf_setup.tx_cnt = 0;
 639              		.loc 1 72 0
 640 0034 1549     		ldr	r1, .L27+4	@ tmp170,
 641 0036 2B1D     		add	r3, r5, #4	@ D.6690, len,
 642 0038 0B61     		str	r3, [r1, #16]	@ D.6690, xf_setup.length
  73:../../lpc11cx4-library/evt_lib/src/lc1024.c ****     xf_setup.rx_data = rcv_buf;
  74:../../lpc11cx4-library/evt_lib/src/lc1024.c **** 
  75:../../lpc11cx4-library/evt_lib/src/lc1024.c ****     Chip_GPIO_SetPinState(LPC_GPIO, _cs_gpio, _cs_pin, false);
 643              		.loc 1 75 0
 644 003a 154B     		ldr	r3, .L27+8	@ tmp177,
 645 003c 154F     		ldr	r7, .L27+12	@ tmp180,
 646 003e 9846     		mov	r8, r3	@ tmp177, tmp177
 647              	.LBB108:
 648              	.LBB106:
 649              		.loc 3 104 0
 650 0040 1B78     		ldrb	r3, [r3]	@ D.6689, _cs_gpio
 651 0042 3A78     		ldrb	r2, [r7]	@ D.6690, _cs_pin
 652 0044 1B04     		lsl	r3, r3, #16	@ D.6689, D.6689,
 653 0046 9C44     		add	ip, ip, r3	@ D.6694, D.6689
 654 0048 331C     		mov	r3, r6	@ D.6690, tmp182
 655 004a 9340     		lsl	r3, r3, r2	@ D.6690, D.6690, D.6690
 656 004c 9A00     		lsl	r2, r3, #2	@ tmp183, D.6690,
 657 004e 6346     		mov	r3, ip	@ D.6694, D.6694
 658              	.LBE106:
 659              	.LBE108:
  72:../../lpc11cx4-library/evt_lib/src/lc1024.c ****     xf_setup.rx_data = rcv_buf;
 660              		.loc 1 72 0
 661 0050 C860     		str	r0, [r1, #12]	@ tmp168, xf_setup.rx_cnt
 662 0052 4860     		str	r0, [r1, #4]	@ tmp168, xf_setup.tx_cnt
  73:../../lpc11cx4-library/evt_lib/src/lc1024.c ****     xf_setup.rx_data = rcv_buf;
 663              		.loc 1 73 0
 664 0054 8C60     		str	r4, [r1, #8]	@ rcv_buf, xf_setup.rx_data
 665              	.LVL44:
 666              	.LBB109:
 667              	.LBB107:
 668              		.loc 3 104 0
 669 0056 D050     		str	r0, [r2, r3]	@ tmp168, _35->DATA
 670              	.LBE107:
 671              	.LBE109:
ARM GAS  /tmp/ccYwUl1E.s 			page 28


  76:../../lpc11cx4-library/evt_lib/src/lc1024.c ****     Chip_SSP_RWFrames_Blocking(_pSSP, &xf_setup);
 672              		.loc 1 76 0
 673 0058 0F4B     		ldr	r3, .L27+16	@ tmp185,
  77:../../lpc11cx4-library/evt_lib/src/lc1024.c ****     Chip_GPIO_SetPinState(LPC_GPIO, _cs_gpio, _cs_pin, true);
  78:../../lpc11cx4-library/evt_lib/src/lc1024.c **** 
  79:../../lpc11cx4-library/evt_lib/src/lc1024.c **** 	memcpy(rcv_buf, rcv_buf+4, len);
  80:../../lpc11cx4-library/evt_lib/src/lc1024.c **** }
 674              		.loc 1 80 0
 675              		@ sp needed	@
  76:../../lpc11cx4-library/evt_lib/src/lc1024.c ****     Chip_SSP_RWFrames_Blocking(_pSSP, &xf_setup);
 676              		.loc 1 76 0
 677 005a 1868     		ldr	r0, [r3]	@ _pSSP, _pSSP
 678 005c FFF7FEFF 		bl	Chip_SSP_RWFrames_Blocking	@
 679              	.LVL45:
 680              	.LBB110:
 681              	.LBB111:
 682              		.loc 3 104 0
 683 0060 A022     		mov	r2, #160	@ tmp208,
 684 0062 4346     		mov	r3, r8	@ tmp177, tmp177
 685 0064 D205     		lsl	r2, r2, #23	@ tmp208, tmp208,
 686 0066 9446     		mov	ip, r2	@ tmp208, tmp208
 687 0068 3A78     		ldrb	r2, [r7]	@ D.6690, _cs_pin
 688 006a 1B78     		ldrb	r3, [r3]	@ D.6689, _cs_gpio
 689 006c 9640     		lsl	r6, r6, r2	@ D.6690, tmp182, D.6690
 690 006e 1B04     		lsl	r3, r3, #16	@ D.6689, D.6689,
 691 0070 B200     		lsl	r2, r6, #2	@ tmp194, D.6690,
 692 0072 6344     		add	r3, r3, ip	@ D.6694, tmp208
 693 0074 D650     		str	r6, [r2, r3]	@ D.6690, _39->DATA
 694              	.LBE111:
 695              	.LBE110:
  79:../../lpc11cx4-library/evt_lib/src/lc1024.c **** }
 696              		.loc 1 79 0
 697 0076 211D     		add	r1, r4, #4	@ D.6693, rcv_buf,
 698 0078 2A1C     		mov	r2, r5	@, len
 699 007a 201C     		mov	r0, r4	@, rcv_buf
 700 007c FFF7FEFF 		bl	memcpy	@
 701              	.LVL46:
 702              	.LVL47:
 703              		.loc 1 80 0
 704 0080 04BC     		pop	{r2}
 705 0082 9046     		mov	r8, r2
 706 0084 F0BD     		pop	{r4, r5, r6, r7, pc}
 707              	.L28:
 708 0086 C046     		.align	2
 709              	.L27:
 710 0088 00000000 		.word	.LANCHOR5
 711 008c 00000000 		.word	.LANCHOR4
 712 0090 00000000 		.word	.LANCHOR2
 713 0094 00000000 		.word	.LANCHOR3
 714 0098 00000000 		.word	.LANCHOR0
 715              		.cfi_endproc
 716              	.LFE202:
 717              		.size	LC1024_ReadMem, .-LC1024_ReadMem
 718              		.section	.text.LC1024_WriteEnable,"ax",%progbits
 719              		.align	2
 720              		.global	LC1024_WriteEnable
 721              		.code	16
ARM GAS  /tmp/ccYwUl1E.s 			page 29


 722              		.thumb_func
 723              		.type	LC1024_WriteEnable, %function
 724              	LC1024_WriteEnable:
 725              	.LFB204:
  81:../../lpc11cx4-library/evt_lib/src/lc1024.c **** 
  82:../../lpc11cx4-library/evt_lib/src/lc1024.c **** 
  83:../../lpc11cx4-library/evt_lib/src/lc1024.c **** void LC1024_WriteMem(uint8_t *address, uint8_t *data, uint8_t len) {
  84:../../lpc11cx4-library/evt_lib/src/lc1024.c **** 
  85:../../lpc11cx4-library/evt_lib/src/lc1024.c ****     LC1024_WriteEnable();
  86:../../lpc11cx4-library/evt_lib/src/lc1024.c ****     
  87:../../lpc11cx4-library/evt_lib/src/lc1024.c ****     Tx_Buf[0] = WRITE_MEM_INSTR;
  88:../../lpc11cx4-library/evt_lib/src/lc1024.c ****     Tx_Buf[1] = address[0];
  89:../../lpc11cx4-library/evt_lib/src/lc1024.c ****     Tx_Buf[2] = address[1];
  90:../../lpc11cx4-library/evt_lib/src/lc1024.c ****     Tx_Buf[3] = address[2];
  91:../../lpc11cx4-library/evt_lib/src/lc1024.c ****     uint8_t i;
  92:../../lpc11cx4-library/evt_lib/src/lc1024.c ****     for(i = 0; i < len; i++) {
  93:../../lpc11cx4-library/evt_lib/src/lc1024.c ****         Tx_Buf[4 + i] = data[i];
  94:../../lpc11cx4-library/evt_lib/src/lc1024.c ****     }
  95:../../lpc11cx4-library/evt_lib/src/lc1024.c ****     ZeroTxBuf(4+len);
  96:../../lpc11cx4-library/evt_lib/src/lc1024.c **** 
  97:../../lpc11cx4-library/evt_lib/src/lc1024.c ****     Chip_GPIO_SetPinState(LPC_GPIO, _cs_gpio, _cs_pin, false);
  98:../../lpc11cx4-library/evt_lib/src/lc1024.c **** 	Chip_SSP_WriteFrames_Blocking(_pSSP, Tx_Buf, 4+len);
  99:../../lpc11cx4-library/evt_lib/src/lc1024.c ****     Chip_GPIO_SetPinState(LPC_GPIO, _cs_gpio, _cs_pin, true);
 100:../../lpc11cx4-library/evt_lib/src/lc1024.c **** }
 101:../../lpc11cx4-library/evt_lib/src/lc1024.c **** 
 102:../../lpc11cx4-library/evt_lib/src/lc1024.c **** void LC1024_WriteEnable(void) {
 726              		.loc 1 102 0
 727              		.cfi_startproc
 103:../../lpc11cx4-library/evt_lib/src/lc1024.c ****     Tx_Buf[0] = WRITE_ENABLE_INSTR;
 728              		.loc 1 103 0
 729 0000 1549     		ldr	r1, .L32	@ tmp171,
 730 0002 0623     		mov	r3, #6	@ tmp147,
 731 0004 081C     		mov	r0, r1	@ D.6725, tmp171
 732              	.LBB112:
 733              	.LBB113:
  43:../../lpc11cx4-library/evt_lib/src/lc1024.c **** 	}
 734              		.loc 1 43 0
 735 0006 0022     		mov	r2, #0	@ tmp172,
 736              	.LBE113:
 737              	.LBE112:
 102:../../lpc11cx4-library/evt_lib/src/lc1024.c ****     Tx_Buf[0] = WRITE_ENABLE_INSTR;
 738              		.loc 1 102 0
 739 0008 70B5     		push	{r4, r5, r6, lr}	@
 740              		.cfi_def_cfa_offset 16
 741              		.cfi_offset 4, -16
 742              		.cfi_offset 5, -12
 743              		.cfi_offset 6, -8
 744              		.cfi_offset 14, -4
 745 000a 5030     		add	r0, r0, #80	@ D.6725,
 746              		.loc 1 103 0
 747 000c 0B70     		strb	r3, [r1]	@ tmp147, Tx_Buf
 748              	.LVL48:
 749 000e 4B1C     		add	r3, r1, #1	@ ivtmp.90, tmp171,
 750              	.LVL49:
 751              	.L30:
 752              	.LBB115:
 753              	.LBB114:
ARM GAS  /tmp/ccYwUl1E.s 			page 30


  43:../../lpc11cx4-library/evt_lib/src/lc1024.c **** 	}
 754              		.loc 1 43 0
 755 0010 1A70     		strb	r2, [r3]	@ tmp172, MEM[base: _32, offset: 0B]
 756              	.LVL50:
 757 0012 0133     		add	r3, r3, #1	@ ivtmp.90,
 758              	.LVL51:
  42:../../lpc11cx4-library/evt_lib/src/lc1024.c **** 		Tx_Buf[i] = 0;
 759              		.loc 1 42 0
 760 0014 8342     		cmp	r3, r0	@ ivtmp.90, D.6725
 761 0016 FBD1     		bne	.L30	@,
 762              	.LVL52:
 763              	.LBE114:
 764              	.LBE115:
 765              	.LBB116:
 766              	.LBB117:
 767              		.loc 3 104 0
 768 0018 0124     		mov	r4, #1	@ tmp158,
 769 001a A022     		mov	r2, #160	@ tmp174,
 770 001c 201C     		mov	r0, r4	@ D.6722, tmp158
 771              	.LBE117:
 772              	.LBE116:
 104:../../lpc11cx4-library/evt_lib/src/lc1024.c ****     ZeroTxBuf(1);
 105:../../lpc11cx4-library/evt_lib/src/lc1024.c **** 	Chip_GPIO_SetPinState(LPC_GPIO, _cs_gpio, _cs_pin, false);
 773              		.loc 1 105 0
 774 001e 0F4D     		ldr	r5, .L32+4	@ tmp156,
 775              	.LBB121:
 776              	.LBB118:
 777              		.loc 3 104 0
 778 0020 D205     		lsl	r2, r2, #23	@ tmp174, tmp174,
 779 0022 9446     		mov	ip, r2	@ tmp174, tmp174
 780 0024 2A78     		ldrb	r2, [r5]	@ D.6722, _cs_pin
 781              	.LBE118:
 782              	.LBE121:
 783              		.loc 1 105 0
 784 0026 0E4E     		ldr	r6, .L32+8	@ tmp153,
 785              	.LBB122:
 786              	.LBB119:
 787              		.loc 3 104 0
 788 0028 9040     		lsl	r0, r0, r2	@ D.6722, D.6722, D.6722
 789 002a 8200     		lsl	r2, r0, #2	@ tmp159, D.6722,
 790 002c 0020     		mov	r0, #0	@ tmp151,
 791 002e 3378     		ldrb	r3, [r6]	@ D.6718, _cs_gpio
 792              	.LBE119:
 793              	.LBE122:
 106:../../lpc11cx4-library/evt_lib/src/lc1024.c **** 	Chip_SSP_WriteFrames_Blocking(_pSSP, Tx_Buf, 1);
 107:../../lpc11cx4-library/evt_lib/src/lc1024.c **** 	Chip_GPIO_SetPinState(LPC_GPIO, _cs_gpio, _cs_pin, true);
 108:../../lpc11cx4-library/evt_lib/src/lc1024.c **** }
 794              		.loc 1 108 0
 795              		@ sp needed	@
 796              	.LBB123:
 797              	.LBB120:
 798              		.loc 3 104 0
 799 0030 1B04     		lsl	r3, r3, #16	@ D.6718, D.6718,
 800 0032 6344     		add	r3, r3, ip	@ D.6721, tmp174
 801 0034 D050     		str	r0, [r2, r3]	@ tmp151, _16->DATA
 802              	.LBE120:
 803              	.LBE123:
ARM GAS  /tmp/ccYwUl1E.s 			page 31


 106:../../lpc11cx4-library/evt_lib/src/lc1024.c **** 	Chip_SSP_WriteFrames_Blocking(_pSSP, Tx_Buf, 1);
 804              		.loc 1 106 0
 805 0036 0B4B     		ldr	r3, .L32+12	@ tmp161,
 806 0038 0122     		mov	r2, #1	@,
 807 003a 1868     		ldr	r0, [r3]	@ _pSSP, _pSSP
 808 003c FFF7FEFF 		bl	Chip_SSP_WriteFrames_Blocking	@
 809              	.LVL53:
 810              	.LBB124:
 811              	.LBB125:
 812              		.loc 3 104 0
 813 0040 A022     		mov	r2, #160	@ tmp177,
 814 0042 D205     		lsl	r2, r2, #23	@ tmp177, tmp177,
 815 0044 9446     		mov	ip, r2	@ tmp177, tmp177
 816 0046 2A78     		ldrb	r2, [r5]	@ D.6722, _cs_pin
 817 0048 3378     		ldrb	r3, [r6]	@ D.6718, _cs_gpio
 818 004a 9440     		lsl	r4, r4, r2	@ D.6722, tmp158, D.6722
 819 004c 1B04     		lsl	r3, r3, #16	@ D.6718, D.6718,
 820 004e 6344     		add	r3, r3, ip	@ D.6721, tmp177
 821 0050 A200     		lsl	r2, r4, #2	@ tmp170, D.6722,
 822 0052 D450     		str	r4, [r2, r3]	@ D.6722, _20->DATA
 823              	.LBE125:
 824              	.LBE124:
 825              		.loc 1 108 0
 826 0054 70BD     		pop	{r4, r5, r6, pc}
 827              	.L33:
 828 0056 C046     		.align	2
 829              	.L32:
 830 0058 00000000 		.word	.LANCHOR5
 831 005c 00000000 		.word	.LANCHOR3
 832 0060 00000000 		.word	.LANCHOR2
 833 0064 00000000 		.word	.LANCHOR0
 834              		.cfi_endproc
 835              	.LFE204:
 836              		.size	LC1024_WriteEnable, .-LC1024_WriteEnable
 837              		.section	.text.LC1024_WriteMem,"ax",%progbits
 838              		.align	2
 839              		.global	LC1024_WriteMem
 840              		.code	16
 841              		.thumb_func
 842              		.type	LC1024_WriteMem, %function
 843              	LC1024_WriteMem:
 844              	.LFB203:
  83:../../lpc11cx4-library/evt_lib/src/lc1024.c **** 
 845              		.loc 1 83 0
 846              		.cfi_startproc
 847              	.LVL54:
 848 0000 F8B5     		push	{r3, r4, r5, r6, r7, lr}	@
 849              		.cfi_def_cfa_offset 24
 850              		.cfi_offset 3, -24
 851              		.cfi_offset 4, -20
 852              		.cfi_offset 5, -16
 853              		.cfi_offset 6, -12
 854              		.cfi_offset 7, -8
 855              		.cfi_offset 14, -4
  83:../../lpc11cx4-library/evt_lib/src/lc1024.c **** 
 856              		.loc 1 83 0
 857 0002 051C     		mov	r5, r0	@ address, address
ARM GAS  /tmp/ccYwUl1E.s 			page 32


 858 0004 0C1C     		mov	r4, r1	@ data, data
 859 0006 161C     		mov	r6, r2	@ len, len
  85:../../lpc11cx4-library/evt_lib/src/lc1024.c ****     
 860              		.loc 1 85 0
 861 0008 FFF7FEFF 		bl	LC1024_WriteEnable	@
 862              	.LVL55:
  87:../../lpc11cx4-library/evt_lib/src/lc1024.c ****     Tx_Buf[1] = address[0];
 863              		.loc 1 87 0
 864 000c 0223     		mov	r3, #2	@ tmp164,
 865 000e 2049     		ldr	r1, .L43	@ tmp202,
 866 0010 0B70     		strb	r3, [r1]	@ tmp164, Tx_Buf
  88:../../lpc11cx4-library/evt_lib/src/lc1024.c ****     Tx_Buf[2] = address[1];
 867              		.loc 1 88 0
 868 0012 2B78     		ldrb	r3, [r5]	@ D.6744, *address_6(D)
 869 0014 4B70     		strb	r3, [r1, #1]	@ D.6744, Tx_Buf
  89:../../lpc11cx4-library/evt_lib/src/lc1024.c ****     Tx_Buf[3] = address[2];
 870              		.loc 1 89 0
 871 0016 6B78     		ldrb	r3, [r5, #1]	@ D.6744, MEM[(uint8_t *)address_6(D) + 1B]
 872 0018 8B70     		strb	r3, [r1, #2]	@ D.6744, Tx_Buf
  90:../../lpc11cx4-library/evt_lib/src/lc1024.c ****     uint8_t i;
 873              		.loc 1 90 0
 874 001a AB78     		ldrb	r3, [r5, #2]	@ D.6744, MEM[(uint8_t *)address_6(D) + 2B]
 875 001c CB70     		strb	r3, [r1, #3]	@ D.6744, Tx_Buf
 876              	.LVL56:
  92:../../lpc11cx4-library/evt_lib/src/lc1024.c ****         Tx_Buf[4 + i] = data[i];
 877              		.loc 1 92 0
 878 001e 002E     		cmp	r6, #0	@ len,
 879 0020 33D0     		beq	.L39	@,
 880 0022 201C     		mov	r0, r4	@ ivtmp.101, data
 881 0024 751E     		sub	r5, r6, #1	@ tmp174, len,
 882              	.LVL57:
 883 0026 EDB2     		uxtb	r5, r5	@ D.6751, tmp174
 884 0028 0535     		add	r5, r5, #5	@ D.6751,
 885 002a 0B1D     		add	r3, r1, #4	@ ivtmp.102, tmp202,
 886 002c 4D19     		add	r5, r1, r5	@ D.6743, tmp202, D.6751
 887              	.LVL58:
 888              	.L36:
  93:../../lpc11cx4-library/evt_lib/src/lc1024.c ****     }
 889              		.loc 1 93 0 discriminator 3
 890 002e 0478     		ldrb	r4, [r0]	@ D.6744, MEM[base: _60, offset: 0B]
 891 0030 0130     		add	r0, r0, #1	@ ivtmp.101,
 892              	.LVL59:
 893 0032 1C70     		strb	r4, [r3]	@ D.6744, MEM[base: _56, offset: 0B]
 894 0034 0133     		add	r3, r3, #1	@ ivtmp.102,
  92:../../lpc11cx4-library/evt_lib/src/lc1024.c ****         Tx_Buf[4 + i] = data[i];
 895              		.loc 1 92 0 discriminator 3
 896 0036 AB42     		cmp	r3, r5	@ ivtmp.102, D.6743
 897 0038 F9D1     		bne	.L36	@,
  95:../../lpc11cx4-library/evt_lib/src/lc1024.c **** 
 898              		.loc 1 95 0
 899 003a 321D     		add	r2, r6, #4	@ D.6747, len,
 900 003c D3B2     		uxtb	r3, r2	@ start, D.6747
 901              	.LVL60:
 902              	.LBB126:
 903              	.LBB127:
  42:../../lpc11cx4-library/evt_lib/src/lc1024.c **** 		Tx_Buf[i] = 0;
 904              		.loc 1 42 0
ARM GAS  /tmp/ccYwUl1E.s 			page 33


 905 003e 4F2B     		cmp	r3, #79	@ start,
 906 0040 05D8     		bhi	.L38	@,
 907              	.LVL61:
 908              	.L35:
  43:../../lpc11cx4-library/evt_lib/src/lc1024.c **** 	}
 909              		.loc 1 43 0
 910 0042 0020     		mov	r0, #0	@ tmp204,
 911              	.LVL62:
 912              	.L37:
 913 0044 C854     		strb	r0, [r1, r3]	@ tmp204, Tx_Buf
  42:../../lpc11cx4-library/evt_lib/src/lc1024.c **** 		Tx_Buf[i] = 0;
 914              		.loc 1 42 0
 915 0046 0133     		add	r3, r3, #1	@ tmp201,
 916              	.LVL63:
 917 0048 DBB2     		uxtb	r3, r3	@ start, tmp201
 918              	.LVL64:
 919 004a 4F2B     		cmp	r3, #79	@ start,
 920 004c FAD9     		bls	.L37	@,
 921              	.L38:
 922              	.LVL65:
 923              	.LBE127:
 924              	.LBE126:
 925              	.LBB128:
 926              	.LBB129:
 927              		.loc 3 104 0
 928 004e 0124     		mov	r4, #1	@ tmp184,
 929 0050 A020     		mov	r0, #160	@ tmp205,
 930 0052 261C     		mov	r6, r4	@ D.6747, tmp184
 931              	.LBE129:
 932              	.LBE128:
  97:../../lpc11cx4-library/evt_lib/src/lc1024.c **** 	Chip_SSP_WriteFrames_Blocking(_pSSP, Tx_Buf, 4+len);
 933              		.loc 1 97 0
 934 0054 0F4D     		ldr	r5, .L43+4	@ tmp182,
 935              	.LBB133:
 936              	.LBB130:
 937              		.loc 3 104 0
 938 0056 C005     		lsl	r0, r0, #23	@ tmp205, tmp205,
 939 0058 8446     		mov	ip, r0	@ tmp205, tmp205
 940 005a 2878     		ldrb	r0, [r5]	@ D.6747, _cs_pin
 941              	.LBE130:
 942              	.LBE133:
  97:../../lpc11cx4-library/evt_lib/src/lc1024.c **** 	Chip_SSP_WriteFrames_Blocking(_pSSP, Tx_Buf, 4+len);
 943              		.loc 1 97 0
 944 005c 0E4F     		ldr	r7, .L43+8	@ tmp179,
 945              	.LBB134:
 946              	.LBB131:
 947              		.loc 3 104 0
 948 005e 8640     		lsl	r6, r6, r0	@ D.6747, D.6747, D.6747
 949 0060 B000     		lsl	r0, r6, #2	@ tmp185, D.6747,
 950 0062 0026     		mov	r6, #0	@ tmp186,
 951 0064 3B78     		ldrb	r3, [r7]	@ D.6745, _cs_gpio
 952              	.LVL66:
 953              	.LBE131:
 954              	.LBE134:
 100:../../lpc11cx4-library/evt_lib/src/lc1024.c **** 
 955              		.loc 1 100 0
 956              		@ sp needed	@
ARM GAS  /tmp/ccYwUl1E.s 			page 34


 957              	.LBB135:
 958              	.LBB132:
 959              		.loc 3 104 0
 960 0066 1B04     		lsl	r3, r3, #16	@ D.6745, D.6745,
 961 0068 6344     		add	r3, r3, ip	@ D.6750, tmp205
 962 006a C650     		str	r6, [r0, r3]	@ tmp186, _39->DATA
 963              	.LBE132:
 964              	.LBE135:
  98:../../lpc11cx4-library/evt_lib/src/lc1024.c ****     Chip_GPIO_SetPinState(LPC_GPIO, _cs_gpio, _cs_pin, true);
 965              		.loc 1 98 0
 966 006c 0B4B     		ldr	r3, .L43+12	@ tmp187,
 967 006e 1868     		ldr	r0, [r3]	@ _pSSP, _pSSP
 968 0070 FFF7FEFF 		bl	Chip_SSP_WriteFrames_Blocking	@
 969              	.LVL67:
 970              	.LBB136:
 971              	.LBB137:
 972              		.loc 3 104 0
 973 0074 A022     		mov	r2, #160	@ tmp208,
 974 0076 D205     		lsl	r2, r2, #23	@ tmp208, tmp208,
 975 0078 9446     		mov	ip, r2	@ tmp208, tmp208
 976 007a 2A78     		ldrb	r2, [r5]	@ D.6747, _cs_pin
 977 007c 3B78     		ldrb	r3, [r7]	@ D.6745, _cs_gpio
 978 007e 9440     		lsl	r4, r4, r2	@ D.6747, tmp184, D.6747
 979 0080 1B04     		lsl	r3, r3, #16	@ D.6745, D.6745,
 980 0082 6344     		add	r3, r3, ip	@ D.6750, tmp208
 981 0084 A200     		lsl	r2, r4, #2	@ tmp197, D.6747,
 982 0086 D450     		str	r4, [r2, r3]	@ D.6747, _43->DATA
 983              	.LBE137:
 984              	.LBE136:
 100:../../lpc11cx4-library/evt_lib/src/lc1024.c **** 
 985              		.loc 1 100 0
 986 0088 F8BD     		pop	{r3, r4, r5, r6, r7, pc}
 987              	.LVL68:
 988              	.L39:
  95:../../lpc11cx4-library/evt_lib/src/lc1024.c **** 
 989              		.loc 1 95 0
 990 008a 0423     		mov	r3, #4	@ start,
 991 008c 0422     		mov	r2, #4	@ D.6747,
 992 008e D8E7     		b	.L35	@
 993              	.L44:
 994              		.align	2
 995              	.L43:
 996 0090 00000000 		.word	.LANCHOR5
 997 0094 00000000 		.word	.LANCHOR3
 998 0098 00000000 		.word	.LANCHOR2
 999 009c 00000000 		.word	.LANCHOR0
 1000              		.cfi_endproc
 1001              	.LFE203:
 1002              		.size	LC1024_WriteMem, .-LC1024_WriteMem
 1003              		.section	.bss._cs_pin,"aw",%nobits
 1004              		.set	.LANCHOR3,. + 0
 1005              		.type	_cs_pin, %object
 1006              		.size	_cs_pin, 1
 1007              	_cs_pin:
 1008 0000 00       		.space	1
 1009              		.section	.bss.Tx_Buf,"aw",%nobits
 1010              		.align	2
ARM GAS  /tmp/ccYwUl1E.s 			page 35


 1011              		.set	.LANCHOR5,. + 0
 1012              		.type	Tx_Buf, %object
 1013              		.size	Tx_Buf, 80
 1014              	Tx_Buf:
 1015 0000 00000000 		.space	80
 1015      00000000 
 1015      00000000 
 1015      00000000 
 1015      00000000 
 1016              		.section	.bss.xf_setup,"aw",%nobits
 1017              		.align	2
 1018              		.set	.LANCHOR4,. + 0
 1019              		.type	xf_setup, %object
 1020              		.size	xf_setup, 20
 1021              	xf_setup:
 1022 0000 00000000 		.space	20
 1022      00000000 
 1022      00000000 
 1022      00000000 
 1022      00000000 
 1023              		.section	.bss._cs_gpio,"aw",%nobits
 1024              		.set	.LANCHOR2,. + 0
 1025              		.type	_cs_gpio, %object
 1026              		.size	_cs_gpio, 1
 1027              	_cs_gpio:
 1028 0000 00       		.space	1
 1029              		.section	.bss._baud,"aw",%nobits
 1030              		.align	2
 1031              		.set	.LANCHOR1,. + 0
 1032              		.type	_baud, %object
 1033              		.size	_baud, 4
 1034              	_baud:
 1035 0000 00000000 		.space	4
 1036              		.section	.bss._pSSP,"aw",%nobits
 1037              		.align	2
 1038              		.set	.LANCHOR0,. + 0
 1039              		.type	_pSSP, %object
 1040              		.size	_pSSP, 4
 1041              	_pSSP:
 1042 0000 00000000 		.space	4
 1043              		.text
 1044              	.Letext0:
 1045              		.file 5 "/usr/arm-none-eabi/include/machine/_default_types.h"
 1046              		.file 6 "/usr/arm-none-eabi/include/sys/_stdint.h"
 1047              		.file 7 "../../lpc11cx4-library/lpc_chip_11cxx_lib/inc/chip.h"