ARM GAS  /tmp/ccQWJFys.s 			page 1


   1              		.cpu cortex-m0
   2              		.fpu softvfp
   3              		.eabi_attribute 20, 1	@ Tag_ABI_FP_denormal
   4              		.eabi_attribute 21, 1	@ Tag_ABI_FP_exceptions
   5              		.eabi_attribute 23, 3	@ Tag_ABI_FP_number_model
   6              		.eabi_attribute 24, 1	@ Tag_ABI_align8_needed
   7              		.eabi_attribute 25, 1	@ Tag_ABI_align8_preserved
   8              		.eabi_attribute 26, 1	@ Tag_ABI_enum_size
   9              		.eabi_attribute 30, 2	@ Tag_ABI_optimization_goals
  10              		.eabi_attribute 34, 0	@ Tag_CPU_unaligned_access
  11              		.eabi_attribute 18, 4	@ Tag_ABI_PCS_wchar_t
  12              		.file	"ltc6804.c"
  13              	@ GNU C (GNU Tools for ARM Embedded Processors) version 4.9.3 20150529 (release) [ARM/embedded-4_9-
  14              	@	compiled by GNU C version 4.8.4, GMP version 5.1.3, MPFR version 3.1.2-p3, MPC version 1.0.1
  15              	@ GGC heuristics: --param ggc-min-expand=98 --param ggc-min-heapsize=128397
  16              	@ options passed:  -I . -I inc/
  17              	@ -I ../../lpc11cx4-library/lpc_chip_11cxx_lib/inc
  18              	@ -I ../../lpc11cx4-library/evt_lib/inc/ -imultilib armv6-m
  19              	@ -iprefix /usr/bin/../lib/gcc/arm-none-eabi/4.9.3/
  20              	@ -isysroot /usr/bin/../arm-none-eabi -MD bin/ltc6804.d -MF bin/ltc6804.d
  21              	@ -MP -MQ bin/ltc6804.o -D__USES_INITFINI__ -D UART_BAUD=57600 -D CORE_M0
  22              	@ -D DEBUG_ENABLE ../../lpc11cx4-library/evt_lib/src/ltc6804.c
  23              	@ -mcpu=cortex-m0 -mthumb -auxbase-strip bin/ltc6804.o -g -ggdb3 -O2 -Wall
  24              	@ -Wstrict-prototypes -Wextra -std=gnu90 -ffunction-sections
  25              	@ -fdata-sections -fdiagnostics-color=always -fverbose-asm
  26              	@ options enabled:  -faggressive-loop-optimizations -fauto-inc-dec
  27              	@ -fbranch-count-reg -fcaller-saves -fcombine-stack-adjustments -fcommon
  28              	@ -fcompare-elim -fcprop-registers -fcrossjumping -fcse-follow-jumps
  29              	@ -fdata-sections -fdefer-pop -fdelete-null-pointer-checks -fdevirtualize
  30              	@ -fdevirtualize-speculatively -fdwarf2-cfi-asm -fearly-inlining
  31              	@ -feliminate-unused-debug-types -fexpensive-optimizations
  32              	@ -fforward-propagate -ffunction-cse -ffunction-sections -fgcse -fgcse-lm
  33              	@ -fgnu-runtime -fgnu-unique -fguess-branch-probability
  34              	@ -fhoist-adjacent-loads -fident -fif-conversion -fif-conversion2
  35              	@ -findirect-inlining -finline -finline-atomics
  36              	@ -finline-functions-called-once -finline-small-functions -fipa-cp
  37              	@ -fipa-profile -fipa-pure-const -fipa-reference -fipa-sra
  38              	@ -fira-hoist-pressure -fira-share-save-slots -fira-share-spill-slots
  39              	@ -fisolate-erroneous-paths-dereference -fivopts -fkeep-static-consts
  40              	@ -fleading-underscore -flifetime-dse -fmath-errno -fmerge-constants
  41              	@ -fmerge-debug-strings -fmove-loop-invariants -fomit-frame-pointer
  42              	@ -foptimize-sibling-calls -foptimize-strlen -fpartial-inlining -fpeephole
  43              	@ -fpeephole2 -fprefetch-loop-arrays -freg-struct-return -freorder-blocks
  44              	@ -freorder-functions -frerun-cse-after-loop
  45              	@ -fsched-critical-path-heuristic -fsched-dep-count-heuristic
  46              	@ -fsched-group-heuristic -fsched-interblock -fsched-last-insn-heuristic
  47              	@ -fsched-pressure -fsched-rank-heuristic -fsched-spec
  48              	@ -fsched-spec-insn-heuristic -fsched-stalled-insns-dep -fschedule-insns2
  49              	@ -fsection-anchors -fshow-column -fshrink-wrap -fsigned-zeros
  50              	@ -fsplit-ivs-in-unroller -fsplit-wide-types -fstrict-aliasing
  51              	@ -fstrict-overflow -fstrict-volatile-bitfields -fsync-libcalls
  52              	@ -fthread-jumps -ftoplevel-reorder -ftrapping-math -ftree-bit-ccp
  53              	@ -ftree-builtin-call-dce -ftree-ccp -ftree-ch -ftree-coalesce-vars
  54              	@ -ftree-copy-prop -ftree-copyrename -ftree-cselim -ftree-dce
  55              	@ -ftree-dominator-opts -ftree-dse -ftree-forwprop -ftree-fre
  56              	@ -ftree-loop-if-convert -ftree-loop-im -ftree-loop-ivcanon
  57              	@ -ftree-loop-optimize -ftree-parallelize-loops= -ftree-phiprop -ftree-pre
ARM GAS  /tmp/ccQWJFys.s 			page 2


  58              	@ -ftree-pta -ftree-reassoc -ftree-scev-cprop -ftree-sink -ftree-slsr
  59              	@ -ftree-sra -ftree-switch-conversion -ftree-tail-merge -ftree-ter
  60              	@ -ftree-vrp -funit-at-a-time -fvar-tracking -fvar-tracking-assignments
  61              	@ -fverbose-asm -fzero-initialized-in-bss -mlittle-endian -mlra
  62              	@ -mpic-data-is-text-relative -msched-prolog -mthumb
  63              	@ -mvectorize-with-neon-quad
  64              	
  65              		.text
  66              	.Ltext0:
  67              		.cfi_sections	.debug_frame
  68              		.section	.text.divu10,"ax",%progbits
  69              		.align	2
  70              		.global	divu10
  71              		.code	16
  72              		.thumb_func
  73              		.type	divu10, %function
  74              	divu10:
  75              	.LFB198:
  76              		.file 1 "../../lpc11cx4-library/evt_lib/src/ltc6804.c"
   1:../../lpc11cx4-library/evt_lib/src/ltc6804.c **** #include "ltc6804.h"
   2:../../lpc11cx4-library/evt_lib/src/ltc6804.c **** 
   3:../../lpc11cx4-library/evt_lib/src/ltc6804.c **** /***************************************
   4:../../lpc11cx4-library/evt_lib/src/ltc6804.c **** 		Private Variables
   5:../../lpc11cx4-library/evt_lib/src/ltc6804.c **** ****************************************/
   6:../../lpc11cx4-library/evt_lib/src/ltc6804.c **** 
   7:../../lpc11cx4-library/evt_lib/src/ltc6804.c **** #define WAKE_BUF_LEN 40
   8:../../lpc11cx4-library/evt_lib/src/ltc6804.c **** static uint8_t wake_buf[WAKE_BUF_LEN];
   9:../../lpc11cx4-library/evt_lib/src/ltc6804.c **** static uint16_t owt_state;
  10:../../lpc11cx4-library/evt_lib/src/ltc6804.c **** static uint32_t owt_time;
  11:../../lpc11cx4-library/evt_lib/src/ltc6804.c **** static uint8_t owt_up_rx_buf[4][LTC6804_CALC_BUFFER_LEN(15)]; 
  12:../../lpc11cx4-library/evt_lib/src/ltc6804.c **** 
  13:../../lpc11cx4-library/evt_lib/src/ltc6804.c **** #define _IS_ASLEEP(state, msTicks) (msTicks - state->last_message > T_SLEEP)
  14:../../lpc11cx4-library/evt_lib/src/ltc6804.c **** #define _IS_IDLE(state, msTicks) (msTicks - state->last_message > T_IDLE)
  15:../../lpc11cx4-library/evt_lib/src/ltc6804.c **** #define _IS_REFUP(state, msTicks) (msTicks - state->last_sleep_wake > T_REFUP)
  16:../../lpc11cx4-library/evt_lib/src/ltc6804.c **** 
  17:../../lpc11cx4-library/evt_lib/src/ltc6804.c **** /***************************************
  18:../../lpc11cx4-library/evt_lib/src/ltc6804.c **** 		Private Function Prototypes
  19:../../lpc11cx4-library/evt_lib/src/ltc6804.c **** ****************************************/
  20:../../lpc11cx4-library/evt_lib/src/ltc6804.c **** 
  21:../../lpc11cx4-library/evt_lib/src/ltc6804.c **** LTC6804_STATUS_T _command(LTC6804_CONFIG_T *config, LTC6804_STATE_T *state, uint16_t cmd, uint32_t 
  22:../../lpc11cx4-library/evt_lib/src/ltc6804.c **** LTC6804_STATUS_T _write(LTC6804_CONFIG_T *config, LTC6804_STATE_T *state, uint16_t cmd, uint32_t ms
  23:../../lpc11cx4-library/evt_lib/src/ltc6804.c **** LTC6804_STATUS_T _read(LTC6804_CONFIG_T *config, LTC6804_STATE_T *state, uint16_t cmd, uint32_t msT
  24:../../lpc11cx4-library/evt_lib/src/ltc6804.c **** LTC6804_STATUS_T _wake(LTC6804_CONFIG_T *config, LTC6804_STATE_T *state, uint32_t msTicks, bool for
  25:../../lpc11cx4-library/evt_lib/src/ltc6804.c **** LTC6804_STATUS_T _set_balance_states(LTC6804_CONFIG_T *config, LTC6804_STATE_T *state, uint32_t msT
  26:../../lpc11cx4-library/evt_lib/src/ltc6804.c **** uint16_t _calculate_pec(uint8_t *data, uint8_t len);
  27:../../lpc11cx4-library/evt_lib/src/ltc6804.c **** bool _check_st_results(LTC6804_CONFIG_T *config, LTC6804_STATE_T *state);
  28:../../lpc11cx4-library/evt_lib/src/ltc6804.c **** bool _check_owt(LTC6804_CONFIG_T *config, LTC6804_OWT_RES_T *res, uint8_t *c_up, uint8_t *c_down);
  29:../../lpc11cx4-library/evt_lib/src/ltc6804.c **** 
  30:../../lpc11cx4-library/evt_lib/src/ltc6804.c **** uint32_t divu10(uint32_t n) {
  77              		.loc 1 30 0
  78              		.cfi_startproc
  79              	.LVL0:
  31:../../lpc11cx4-library/evt_lib/src/ltc6804.c ****  uint32_t q, r;
  32:../../lpc11cx4-library/evt_lib/src/ltc6804.c ****  q = (n >> 1) + (n >> 2);
  80              		.loc 1 32 0
  81 0000 8308     		lsr	r3, r0, #2	@ D.7492, n,
  82 0002 4208     		lsr	r2, r0, #1	@ D.7492, n,
ARM GAS  /tmp/ccQWJFys.s 			page 3


  83 0004 9A18     		add	r2, r3, r2	@ q, D.7492, D.7492
  84              	.LVL1:
  33:../../lpc11cx4-library/evt_lib/src/ltc6804.c ****  q = q + (q >> 4);
  85              		.loc 1 33 0
  86 0006 1309     		lsr	r3, r2, #4	@ D.7492, q,
  87 0008 9A18     		add	r2, r3, r2	@ q, D.7492, q
  88              	.LVL2:
  34:../../lpc11cx4-library/evt_lib/src/ltc6804.c ****  q = q + (q >> 8);
  89              		.loc 1 34 0
  90 000a 130A     		lsr	r3, r2, #8	@ D.7492, q,
  91 000c 9A18     		add	r2, r3, r2	@ q, D.7492, q
  92              	.LVL3:
  35:../../lpc11cx4-library/evt_lib/src/ltc6804.c ****  q = q + (q >> 16);
  93              		.loc 1 35 0
  94 000e 130C     		lsr	r3, r2, #16	@ D.7492, q,
  95 0010 9B18     		add	r3, r3, r2	@ q, D.7492, q
  96              	.LVL4:
  36:../../lpc11cx4-library/evt_lib/src/ltc6804.c ****  q = q >> 3;
  97              		.loc 1 36 0
  98 0012 DB08     		lsr	r3, r3, #3	@ q, q,
  99              	.LVL5:
  37:../../lpc11cx4-library/evt_lib/src/ltc6804.c ****  r = n - q*10;
 100              		.loc 1 37 0
 101 0014 9A00     		lsl	r2, r3, #2	@ tmp132, q,
 102 0016 D218     		add	r2, r2, r3	@ D.7492, tmp132, q
 103 0018 5200     		lsl	r2, r2, #1	@ tmp134, D.7492,
 104 001a 0630     		add	r0, r0, #6	@ D.7493,
 105              	.LVL6:
  38:../../lpc11cx4-library/evt_lib/src/ltc6804.c ****  return q + ((r + 6) >> 4);
 106              		.loc 1 38 0
 107 001c 801A     		sub	r0, r0, r2	@ D.7492, D.7493, tmp134
 108              	.LVL7:
 109 001e 0009     		lsr	r0, r0, #4	@ D.7492, D.7492,
 110 0020 C018     		add	r0, r0, r3	@ D.7493, D.7492, q
  39:../../lpc11cx4-library/evt_lib/src/ltc6804.c **** // return q + (r > 9);
  40:../../lpc11cx4-library/evt_lib/src/ltc6804.c **** }
 111              		.loc 1 40 0
 112              		@ sp needed	@
 113 0022 7047     		bx	lr
 114              		.cfi_endproc
 115              	.LFE198:
 116              		.size	divu10, .-divu10
 117              		.section	.text._set_balance_states,"ax",%progbits
 118              		.align	2
 119              		.global	_set_balance_states
 120              		.code	16
 121              		.thumb_func
 122              		.type	_set_balance_states, %function
 123              	_set_balance_states:
 124              	.LFB211:
  41:../../lpc11cx4-library/evt_lib/src/ltc6804.c **** 
  42:../../lpc11cx4-library/evt_lib/src/ltc6804.c **** /***************************************
  43:../../lpc11cx4-library/evt_lib/src/ltc6804.c **** 		Public Functions
  44:../../lpc11cx4-library/evt_lib/src/ltc6804.c **** ****************************************/
  45:../../lpc11cx4-library/evt_lib/src/ltc6804.c **** 
  46:../../lpc11cx4-library/evt_lib/src/ltc6804.c **** LTC6804_STATUS_T LTC6804_Init(LTC6804_CONFIG_T *config, LTC6804_STATE_T *state, uint32_t msTicks) {
  47:../../lpc11cx4-library/evt_lib/src/ltc6804.c **** 	Chip_GPIO_WriteDirBit(LPC_GPIO, config->cs_gpio, config->cs_pin, true);
ARM GAS  /tmp/ccQWJFys.s 			page 4


  48:../../lpc11cx4-library/evt_lib/src/ltc6804.c **** 	Chip_GPIO_SetPinState(LPC_GPIO, config->cs_gpio, config->cs_pin, true);
  49:../../lpc11cx4-library/evt_lib/src/ltc6804.c **** 
  50:../../lpc11cx4-library/evt_lib/src/ltc6804.c **** 	Chip_SSP_Init(config->pSSP);
  51:../../lpc11cx4-library/evt_lib/src/ltc6804.c **** 	Chip_SSP_SetBitRate(config->pSSP, config->baud);
  52:../../lpc11cx4-library/evt_lib/src/ltc6804.c **** 	Chip_SSP_SetFormat(config->pSSP, SSP_BITS_8, SSP_FRAMEFORMAT_SPI, SSP_CLOCK_MODE3);
  53:../../lpc11cx4-library/evt_lib/src/ltc6804.c **** 	Chip_SSP_SetMaster(config->pSSP, true);
  54:../../lpc11cx4-library/evt_lib/src/ltc6804.c **** 	Chip_SSP_Enable(config->pSSP);
  55:../../lpc11cx4-library/evt_lib/src/ltc6804.c **** 
  56:../../lpc11cx4-library/evt_lib/src/ltc6804.c **** 	uint16_t VUV = config->min_cell_mV * 10 / 16 - 1;
  57:../../lpc11cx4-library/evt_lib/src/ltc6804.c **** 	uint16_t VOV = config->max_cell_mV * 10 / 16;
  58:../../lpc11cx4-library/evt_lib/src/ltc6804.c **** 
  59:../../lpc11cx4-library/evt_lib/src/ltc6804.c **** 	state->xf->rx_data = state->rx_buf;
  60:../../lpc11cx4-library/evt_lib/src/ltc6804.c **** 	state->cfg[0] = 0xBC; 
  61:../../lpc11cx4-library/evt_lib/src/ltc6804.c **** 	state->cfg[1] = VUV & 0xFF;
  62:../../lpc11cx4-library/evt_lib/src/ltc6804.c **** 	state->cfg[2] = (VUV & 0xF00) >> 8 | (VOV & 0xF) << 4; 
  63:../../lpc11cx4-library/evt_lib/src/ltc6804.c **** 	state->cfg[3] = (VOV & 0xFF0) >> 4;
  64:../../lpc11cx4-library/evt_lib/src/ltc6804.c **** 	state->cfg[4] = 0x00; 
  65:../../lpc11cx4-library/evt_lib/src/ltc6804.c **** 	state->cfg[5] = 0x00; // [TODO] Consider using DCTO
  66:../../lpc11cx4-library/evt_lib/src/ltc6804.c **** 
  67:../../lpc11cx4-library/evt_lib/src/ltc6804.c **** 	state->last_message = msTicks;
  68:../../lpc11cx4-library/evt_lib/src/ltc6804.c **** 	state->wake_length = 3*config->baud/80000 + 1; // [TODO] Remember how this was calculated
  69:../../lpc11cx4-library/evt_lib/src/ltc6804.c **** 	state->waiting = false;
  70:../../lpc11cx4-library/evt_lib/src/ltc6804.c **** 	state->wait_time = LTC6804_ADC_MODE_WAIT_TIMES[config->adc_mode];
  71:../../lpc11cx4-library/evt_lib/src/ltc6804.c **** 	// state->wait_time = 7; // [TODO] Remove
  72:../../lpc11cx4-library/evt_lib/src/ltc6804.c **** 	state->last_sleep_wake = msTicks;
  73:../../lpc11cx4-library/evt_lib/src/ltc6804.c **** 	state->balancing = false;
  74:../../lpc11cx4-library/evt_lib/src/ltc6804.c **** 
  75:../../lpc11cx4-library/evt_lib/src/ltc6804.c **** 	owt_state = 0;
  76:../../lpc11cx4-library/evt_lib/src/ltc6804.c **** 
  77:../../lpc11cx4-library/evt_lib/src/ltc6804.c **** 	memset(wake_buf, 0, WAKE_BUF_LEN);
  78:../../lpc11cx4-library/evt_lib/src/ltc6804.c **** 
  79:../../lpc11cx4-library/evt_lib/src/ltc6804.c **** 	_wake(config, state, msTicks, true);
  80:../../lpc11cx4-library/evt_lib/src/ltc6804.c **** 
  81:../../lpc11cx4-library/evt_lib/src/ltc6804.c **** 	return LTC6804_WriteCFG(config, state, msTicks);
  82:../../lpc11cx4-library/evt_lib/src/ltc6804.c **** }
  83:../../lpc11cx4-library/evt_lib/src/ltc6804.c **** 
  84:../../lpc11cx4-library/evt_lib/src/ltc6804.c **** /* Clears Balance Bytes */
  85:../../lpc11cx4-library/evt_lib/src/ltc6804.c **** LTC6804_STATUS_T LTC6804_WriteCFG(LTC6804_CONFIG_T *config, LTC6804_STATE_T *state, uint32_t msTick
  86:../../lpc11cx4-library/evt_lib/src/ltc6804.c **** 	memcpy(state->tx_buf+4, state->cfg, 6);
  87:../../lpc11cx4-library/evt_lib/src/ltc6804.c **** 	uint16_t pec = _calculate_pec(state->tx_buf+4, 6);
  88:../../lpc11cx4-library/evt_lib/src/ltc6804.c **** 	state->tx_buf[10] = pec >> 8;
  89:../../lpc11cx4-library/evt_lib/src/ltc6804.c **** 	state->tx_buf[11] = pec & 0xFF;
  90:../../lpc11cx4-library/evt_lib/src/ltc6804.c **** 
  91:../../lpc11cx4-library/evt_lib/src/ltc6804.c **** 	int i;
  92:../../lpc11cx4-library/evt_lib/src/ltc6804.c **** 	for (i = 0; i < config->num_modules; i++) {
  93:../../lpc11cx4-library/evt_lib/src/ltc6804.c **** 		memcpy(state->tx_buf+4+8*i, state->tx_buf+4, 8);
  94:../../lpc11cx4-library/evt_lib/src/ltc6804.c **** 	}
  95:../../lpc11cx4-library/evt_lib/src/ltc6804.c **** 
  96:../../lpc11cx4-library/evt_lib/src/ltc6804.c **** 	return _write(config, state, WRCFG, msTicks);
  97:../../lpc11cx4-library/evt_lib/src/ltc6804.c **** }
  98:../../lpc11cx4-library/evt_lib/src/ltc6804.c **** 
  99:../../lpc11cx4-library/evt_lib/src/ltc6804.c **** bool LTC6804_VerifyCFG(LTC6804_CONFIG_T *config, LTC6804_STATE_T *state, uint32_t msTicks) {
 100:../../lpc11cx4-library/evt_lib/src/ltc6804.c **** 	LTC6804_STATUS_T res = _read(config, state, RDCFG, msTicks);
 101:../../lpc11cx4-library/evt_lib/src/ltc6804.c **** 	if (res != LTC6804_PASS) return false;
 102:../../lpc11cx4-library/evt_lib/src/ltc6804.c **** 
 103:../../lpc11cx4-library/evt_lib/src/ltc6804.c **** 	int i;
 104:../../lpc11cx4-library/evt_lib/src/ltc6804.c **** 	for (i = 0; i < config->num_modules; i++) {
ARM GAS  /tmp/ccQWJFys.s 			page 5


 105:../../lpc11cx4-library/evt_lib/src/ltc6804.c **** 		uint8_t *rx_ptr = state->rx_buf+4+8*i;
 106:../../lpc11cx4-library/evt_lib/src/ltc6804.c **** 		if (rx_ptr[1] != state->cfg[1]) return false;
 107:../../lpc11cx4-library/evt_lib/src/ltc6804.c **** 		if (rx_ptr[2] != state->cfg[2]) return false;
 108:../../lpc11cx4-library/evt_lib/src/ltc6804.c **** 		if (rx_ptr[3] != state->cfg[3]) return false;
 109:../../lpc11cx4-library/evt_lib/src/ltc6804.c **** 		if ((rx_ptr[5] & 0xF0) != (state->cfg[5] & 0xF0)) return false;
 110:../../lpc11cx4-library/evt_lib/src/ltc6804.c **** 	}
 111:../../lpc11cx4-library/evt_lib/src/ltc6804.c **** 
 112:../../lpc11cx4-library/evt_lib/src/ltc6804.c **** 	return true;
 113:../../lpc11cx4-library/evt_lib/src/ltc6804.c **** }
 114:../../lpc11cx4-library/evt_lib/src/ltc6804.c **** 
 115:../../lpc11cx4-library/evt_lib/src/ltc6804.c **** LTC6804_STATUS_T LTC6804_CVST(LTC6804_CONFIG_T *config, LTC6804_STATE_T *state, uint32_t msTicks) {
 116:../../lpc11cx4-library/evt_lib/src/ltc6804.c **** 	if (_IS_ASLEEP(state, msTicks)) {
 117:../../lpc11cx4-library/evt_lib/src/ltc6804.c **** 		_wake(config, state, msTicks, false);
 118:../../lpc11cx4-library/evt_lib/src/ltc6804.c **** 		return LTC6804_WAITING;
 119:../../lpc11cx4-library/evt_lib/src/ltc6804.c **** 	} else if (!_IS_REFUP(state, msTicks)) {
 120:../../lpc11cx4-library/evt_lib/src/ltc6804.c **** 		return LTC6804_WAITING_REFUP;
 121:../../lpc11cx4-library/evt_lib/src/ltc6804.c **** 	}
 122:../../lpc11cx4-library/evt_lib/src/ltc6804.c **** 
 123:../../lpc11cx4-library/evt_lib/src/ltc6804.c **** 	if (!state->waiting) { // Need to send out self test command
 124:../../lpc11cx4-library/evt_lib/src/ltc6804.c **** 		state->waiting = true;
 125:../../lpc11cx4-library/evt_lib/src/ltc6804.c **** 		state->flight_time = msTicks;
 126:../../lpc11cx4-library/evt_lib/src/ltc6804.c **** 		_command(config, state, (config->adc_mode << 7) | 0x227, msTicks);
 127:../../lpc11cx4-library/evt_lib/src/ltc6804.c **** 		return LTC6804_WAITING;
 128:../../lpc11cx4-library/evt_lib/src/ltc6804.c **** 	} else {
 129:../../lpc11cx4-library/evt_lib/src/ltc6804.c **** 		if (msTicks - state->flight_time > state->wait_time) { // We've waited long enough
 130:../../lpc11cx4-library/evt_lib/src/ltc6804.c **** 			state->waiting = false;
 131:../../lpc11cx4-library/evt_lib/src/ltc6804.c **** 			LTC6804_STATUS_T res;
 132:../../lpc11cx4-library/evt_lib/src/ltc6804.c **** 			if ((res = _read(config, state, RDCVA, msTicks)) != LTC6804_PASS) return res;
 133:../../lpc11cx4-library/evt_lib/src/ltc6804.c **** 			if (!_check_st_results(config, state)) return LTC6804_FAIL;
 134:../../lpc11cx4-library/evt_lib/src/ltc6804.c **** 			if ((res = _read(config, state, RDCVB, msTicks)) != LTC6804_PASS) return res;
 135:../../lpc11cx4-library/evt_lib/src/ltc6804.c **** 			if (!_check_st_results(config, state)) return LTC6804_FAIL;
 136:../../lpc11cx4-library/evt_lib/src/ltc6804.c **** 			if ((res = _read(config, state, RDCVC, msTicks)) != LTC6804_PASS) return res;
 137:../../lpc11cx4-library/evt_lib/src/ltc6804.c **** 			if (!_check_st_results(config, state)) return LTC6804_FAIL;
 138:../../lpc11cx4-library/evt_lib/src/ltc6804.c **** 			if ((res = _read(config, state, RDCVD, msTicks)) != LTC6804_PASS) return res;
 139:../../lpc11cx4-library/evt_lib/src/ltc6804.c **** 			if (!_check_st_results(config, state)) return LTC6804_FAIL;
 140:../../lpc11cx4-library/evt_lib/src/ltc6804.c **** 			return LTC6804_PASS;
 141:../../lpc11cx4-library/evt_lib/src/ltc6804.c **** 		} else { // Keep Waiting
 142:../../lpc11cx4-library/evt_lib/src/ltc6804.c **** 			return LTC6804_WAITING;
 143:../../lpc11cx4-library/evt_lib/src/ltc6804.c **** 		}
 144:../../lpc11cx4-library/evt_lib/src/ltc6804.c **** 	}
 145:../../lpc11cx4-library/evt_lib/src/ltc6804.c **** }
 146:../../lpc11cx4-library/evt_lib/src/ltc6804.c **** 
 147:../../lpc11cx4-library/evt_lib/src/ltc6804.c **** #define LENGTH 35 // [TODO] Put in config
 148:../../lpc11cx4-library/evt_lib/src/ltc6804.c **** 
 149:../../lpc11cx4-library/evt_lib/src/ltc6804.c **** // [TODO] Prevent ADC from running when OWT
 150:../../lpc11cx4-library/evt_lib/src/ltc6804.c **** // [TODO] Don't break at module fail (cycle through all modules)
 151:../../lpc11cx4-library/evt_lib/src/ltc6804.c **** // [TODO] 
 152:../../lpc11cx4-library/evt_lib/src/ltc6804.c **** LTC6804_STATUS_T LTC6804_OpenWireTest(LTC6804_CONFIG_T *config, LTC6804_STATE_T *state, LTC6804_OWT
 153:../../lpc11cx4-library/evt_lib/src/ltc6804.c **** 
 154:../../lpc11cx4-library/evt_lib/src/ltc6804.c **** 	int i;
 155:../../lpc11cx4-library/evt_lib/src/ltc6804.c **** 
 156:../../lpc11cx4-library/evt_lib/src/ltc6804.c **** 	if (msTicks - owt_time < state->wait_time) {
 157:../../lpc11cx4-library/evt_lib/src/ltc6804.c **** 		return LTC6804_WAITING;
 158:../../lpc11cx4-library/evt_lib/src/ltc6804.c **** 	}
 159:../../lpc11cx4-library/evt_lib/src/ltc6804.c **** 
 160:../../lpc11cx4-library/evt_lib/src/ltc6804.c **** 	if (owt_state <= LENGTH) {
 161:../../lpc11cx4-library/evt_lib/src/ltc6804.c **** 		owt_state++;
ARM GAS  /tmp/ccQWJFys.s 			page 6


 162:../../lpc11cx4-library/evt_lib/src/ltc6804.c **** 		owt_time = msTicks;
 163:../../lpc11cx4-library/evt_lib/src/ltc6804.c **** 		_command(config, state, (config->adc_mode << 7) | 0x268, msTicks);
 164:../../lpc11cx4-library/evt_lib/src/ltc6804.c **** 		return LTC6804_WAITING; 
 165:../../lpc11cx4-library/evt_lib/src/ltc6804.c **** 	} else if (owt_state == LENGTH + 1) {
 166:../../lpc11cx4-library/evt_lib/src/ltc6804.c **** 		uint8_t *normal_rx_ptr = state->rx_buf;
 167:../../lpc11cx4-library/evt_lib/src/ltc6804.c **** 		state->rx_buf = owt_up_rx_buf[0];
 168:../../lpc11cx4-library/evt_lib/src/ltc6804.c **** 		LTC6804_STATUS_T r;
 169:../../lpc11cx4-library/evt_lib/src/ltc6804.c **** 		r = _read(config, state, RDCVA, msTicks);
 170:../../lpc11cx4-library/evt_lib/src/ltc6804.c **** 		if (r != LTC6804_PASS) {state->rx_buf = normal_rx_ptr; return r;}
 171:../../lpc11cx4-library/evt_lib/src/ltc6804.c **** 		for (i = 0; i < config->num_modules; i++) {
 172:../../lpc11cx4-library/evt_lib/src/ltc6804.c **** 			uint8_t *rx_ptr = owt_up_rx_buf[0] + 4 + 8 * i;
 173:../../lpc11cx4-library/evt_lib/src/ltc6804.c **** 			if (rx_ptr[0] == 0 && rx_ptr[1] == 0) {
 174:../../lpc11cx4-library/evt_lib/src/ltc6804.c **** 				state->rx_buf = normal_rx_ptr;
 175:../../lpc11cx4-library/evt_lib/src/ltc6804.c **** 				owt_state = 0;
 176:../../lpc11cx4-library/evt_lib/src/ltc6804.c **** 				res->failed_module = i;
 177:../../lpc11cx4-library/evt_lib/src/ltc6804.c **** 				res->failed_wire = 0;
 178:../../lpc11cx4-library/evt_lib/src/ltc6804.c **** 				return LTC6804_FAIL;
 179:../../lpc11cx4-library/evt_lib/src/ltc6804.c **** 			}
 180:../../lpc11cx4-library/evt_lib/src/ltc6804.c **** 		}
 181:../../lpc11cx4-library/evt_lib/src/ltc6804.c **** 		state->rx_buf = owt_up_rx_buf[1];
 182:../../lpc11cx4-library/evt_lib/src/ltc6804.c **** 		r = _read(config, state, RDCVB, msTicks);
 183:../../lpc11cx4-library/evt_lib/src/ltc6804.c **** 		if (r != LTC6804_PASS) {state->rx_buf = normal_rx_ptr; return r;}
 184:../../lpc11cx4-library/evt_lib/src/ltc6804.c **** 		state->rx_buf = owt_up_rx_buf[2];
 185:../../lpc11cx4-library/evt_lib/src/ltc6804.c **** 		r = _read(config, state, RDCVC, msTicks);
 186:../../lpc11cx4-library/evt_lib/src/ltc6804.c **** 		if (r != LTC6804_PASS) {state->rx_buf = normal_rx_ptr; return r;}
 187:../../lpc11cx4-library/evt_lib/src/ltc6804.c **** 		state->rx_buf = owt_up_rx_buf[3];
 188:../../lpc11cx4-library/evt_lib/src/ltc6804.c **** 		r = _read(config, state, RDCVD, msTicks);
 189:../../lpc11cx4-library/evt_lib/src/ltc6804.c **** 		if (r != LTC6804_PASS) {state->rx_buf = normal_rx_ptr; return r;}
 190:../../lpc11cx4-library/evt_lib/src/ltc6804.c **** 		state->rx_buf = normal_rx_ptr;
 191:../../lpc11cx4-library/evt_lib/src/ltc6804.c **** 		owt_state++;
 192:../../lpc11cx4-library/evt_lib/src/ltc6804.c **** 		owt_time = msTicks;
 193:../../lpc11cx4-library/evt_lib/src/ltc6804.c **** 		_command(config, state, (config->adc_mode << 7) | 0x228, msTicks);
 194:../../lpc11cx4-library/evt_lib/src/ltc6804.c **** 		return LTC6804_WAITING;
 195:../../lpc11cx4-library/evt_lib/src/ltc6804.c **** 	} else if (owt_state <= LENGTH*2) {
 196:../../lpc11cx4-library/evt_lib/src/ltc6804.c **** 		owt_state++;
 197:../../lpc11cx4-library/evt_lib/src/ltc6804.c **** 		owt_time = msTicks;
 198:../../lpc11cx4-library/evt_lib/src/ltc6804.c **** 		_command(config, state, (config->adc_mode << 7) | 0x228, msTicks);
 199:../../lpc11cx4-library/evt_lib/src/ltc6804.c **** 		return LTC6804_WAITING;
 200:../../lpc11cx4-library/evt_lib/src/ltc6804.c **** 	} else if (owt_state == LENGTH*2 + 1) {
 201:../../lpc11cx4-library/evt_lib/src/ltc6804.c **** 		LTC6804_STATUS_T r;
 202:../../lpc11cx4-library/evt_lib/src/ltc6804.c **** 		for (i = 0; i < 4; i++) {
 203:../../lpc11cx4-library/evt_lib/src/ltc6804.c **** 			r = _read(config, state, RDCVA+2*i, msTicks);
 204:../../lpc11cx4-library/evt_lib/src/ltc6804.c **** 			if (r != LTC6804_PASS) {return r;}
 205:../../lpc11cx4-library/evt_lib/src/ltc6804.c **** 			if (!_check_owt(config, res, owt_up_rx_buf[i], state->rx_buf)) {
 206:../../lpc11cx4-library/evt_lib/src/ltc6804.c **** 				owt_state = 0;
 207:../../lpc11cx4-library/evt_lib/src/ltc6804.c **** 				res->failed_wire += 3*i;
 208:../../lpc11cx4-library/evt_lib/src/ltc6804.c **** 				return LTC6804_FAIL;
 209:../../lpc11cx4-library/evt_lib/src/ltc6804.c **** 			}
 210:../../lpc11cx4-library/evt_lib/src/ltc6804.c **** 		}
 211:../../lpc11cx4-library/evt_lib/src/ltc6804.c **** 		for (i = 0; i < config->num_modules; i++) {
 212:../../lpc11cx4-library/evt_lib/src/ltc6804.c **** 			uint8_t *rx_ptr = state->rx_buf + 4 + 8 * i;
 213:../../lpc11cx4-library/evt_lib/src/ltc6804.c **** 			if (rx_ptr[5] == 0 && rx_ptr[4] == 0) {
 214:../../lpc11cx4-library/evt_lib/src/ltc6804.c **** 				owt_state = 0;
 215:../../lpc11cx4-library/evt_lib/src/ltc6804.c **** 				res->failed_module = i;
 216:../../lpc11cx4-library/evt_lib/src/ltc6804.c **** 				res->failed_wire = 12;
 217:../../lpc11cx4-library/evt_lib/src/ltc6804.c **** 				return LTC6804_FAIL;
 218:../../lpc11cx4-library/evt_lib/src/ltc6804.c **** 			}
ARM GAS  /tmp/ccQWJFys.s 			page 7


 219:../../lpc11cx4-library/evt_lib/src/ltc6804.c **** 
 220:../../lpc11cx4-library/evt_lib/src/ltc6804.c **** 		}
 221:../../lpc11cx4-library/evt_lib/src/ltc6804.c **** 		owt_state = 0;
 222:../../lpc11cx4-library/evt_lib/src/ltc6804.c **** 		owt_time = msTicks;
 223:../../lpc11cx4-library/evt_lib/src/ltc6804.c **** 		return LTC6804_PASS;
 224:../../lpc11cx4-library/evt_lib/src/ltc6804.c **** 	} else {
 225:../../lpc11cx4-library/evt_lib/src/ltc6804.c **** 		return LTC6804_FAIL;
 226:../../lpc11cx4-library/evt_lib/src/ltc6804.c **** 	}
 227:../../lpc11cx4-library/evt_lib/src/ltc6804.c **** }
 228:../../lpc11cx4-library/evt_lib/src/ltc6804.c **** 
 229:../../lpc11cx4-library/evt_lib/src/ltc6804.c **** LTC6804_STATUS_T LTC6804_UpdateBalanceStates(LTC6804_CONFIG_T *config, LTC6804_STATE_T *state, bool
 230:../../lpc11cx4-library/evt_lib/src/ltc6804.c **** 	bool *bal_ptr = balance_req;
 231:../../lpc11cx4-library/evt_lib/src/ltc6804.c **** 	bool change = false;
 232:../../lpc11cx4-library/evt_lib/src/ltc6804.c **** 	int i, j;
 233:../../lpc11cx4-library/evt_lib/src/ltc6804.c **** 	state->balancing = false;
 234:../../lpc11cx4-library/evt_lib/src/ltc6804.c **** 	for (i = 0; i < config->num_modules; i++) {
 235:../../lpc11cx4-library/evt_lib/src/ltc6804.c **** 		uint16_t bal_temp = 0;
 236:../../lpc11cx4-library/evt_lib/src/ltc6804.c **** 		for (j = 0; j < config->module_cell_count[i]; j++) {
 237:../../lpc11cx4-library/evt_lib/src/ltc6804.c **** 			bal_temp |= bal_ptr[0] << j;
 238:../../lpc11cx4-library/evt_lib/src/ltc6804.c **** 			bal_ptr++;
 239:../../lpc11cx4-library/evt_lib/src/ltc6804.c **** 		}
 240:../../lpc11cx4-library/evt_lib/src/ltc6804.c **** 		if (bal_temp != state->bal_list[i]) {
 241:../../lpc11cx4-library/evt_lib/src/ltc6804.c **** 			change = true;
 242:../../lpc11cx4-library/evt_lib/src/ltc6804.c **** 			state->bal_list[i] = bal_temp;
 243:../../lpc11cx4-library/evt_lib/src/ltc6804.c **** 		}
 244:../../lpc11cx4-library/evt_lib/src/ltc6804.c **** 		if (state->bal_list[i]) state->balancing = true;
 245:../../lpc11cx4-library/evt_lib/src/ltc6804.c **** 	}
 246:../../lpc11cx4-library/evt_lib/src/ltc6804.c **** 
 247:../../lpc11cx4-library/evt_lib/src/ltc6804.c **** 	if (change) {
 248:../../lpc11cx4-library/evt_lib/src/ltc6804.c **** 		return _set_balance_states(config, state, msTicks);
 249:../../lpc11cx4-library/evt_lib/src/ltc6804.c **** 	} else {
 250:../../lpc11cx4-library/evt_lib/src/ltc6804.c **** 		return LTC6804_PASS;
 251:../../lpc11cx4-library/evt_lib/src/ltc6804.c **** 	}
 252:../../lpc11cx4-library/evt_lib/src/ltc6804.c **** }
 253:../../lpc11cx4-library/evt_lib/src/ltc6804.c **** 
 254:../../lpc11cx4-library/evt_lib/src/ltc6804.c **** // [TODO] Clear cell votlages and only return pass when recieving not all FF
 255:../../lpc11cx4-library/evt_lib/src/ltc6804.c **** LTC6804_STATUS_T LTC6804_GetCellVoltages(LTC6804_CONFIG_T *config, LTC6804_STATE_T *state, LTC6804_
 256:../../lpc11cx4-library/evt_lib/src/ltc6804.c **** 	if (_IS_ASLEEP(state, msTicks)) {
 257:../../lpc11cx4-library/evt_lib/src/ltc6804.c **** 		_wake(config, state, msTicks, false);
 258:../../lpc11cx4-library/evt_lib/src/ltc6804.c **** 		return LTC6804_WAITING;
 259:../../lpc11cx4-library/evt_lib/src/ltc6804.c **** 	} else if (!_IS_REFUP(state, msTicks)) {
 260:../../lpc11cx4-library/evt_lib/src/ltc6804.c **** 		return LTC6804_WAITING_REFUP;
 261:../../lpc11cx4-library/evt_lib/src/ltc6804.c **** 	}
 262:../../lpc11cx4-library/evt_lib/src/ltc6804.c **** 
 263:../../lpc11cx4-library/evt_lib/src/ltc6804.c **** 	if (!state->waiting) { // Need to send out self test command
 264:../../lpc11cx4-library/evt_lib/src/ltc6804.c **** 		state->waiting = true;
 265:../../lpc11cx4-library/evt_lib/src/ltc6804.c **** 		state->flight_time = msTicks;
 266:../../lpc11cx4-library/evt_lib/src/ltc6804.c **** 		_command(config, state, (config->adc_mode << 7) | 0x270, msTicks); // ADCV, All Channels, DCP=1
 267:../../lpc11cx4-library/evt_lib/src/ltc6804.c **** 		return LTC6804_WAITING;
 268:../../lpc11cx4-library/evt_lib/src/ltc6804.c **** 	} else {
 269:../../lpc11cx4-library/evt_lib/src/ltc6804.c **** 		// [TODO] make >=
 270:../../lpc11cx4-library/evt_lib/src/ltc6804.c **** 		if (msTicks - state->flight_time > state->wait_time) { // We've waited long enough
 271:../../lpc11cx4-library/evt_lib/src/ltc6804.c **** 			state->waiting = false;
 272:../../lpc11cx4-library/evt_lib/src/ltc6804.c **** 			int i, j;
 273:../../lpc11cx4-library/evt_lib/src/ltc6804.c **** 			uint32_t *vol_ptr = res->cell_voltages_mV;
 274:../../lpc11cx4-library/evt_lib/src/ltc6804.c **** 			uint32_t min = UINT32_MAX;
 275:../../lpc11cx4-library/evt_lib/src/ltc6804.c **** 			uint32_t max = 0;
ARM GAS  /tmp/ccQWJFys.s 			page 8


 276:../../lpc11cx4-library/evt_lib/src/ltc6804.c **** 			// Read a cell voltage group
 277:../../lpc11cx4-library/evt_lib/src/ltc6804.c **** 				// For each module, calculate head of module voltage group
 278:../../lpc11cx4-library/evt_lib/src/ltc6804.c **** 				// vol_ptr is pointer to head of module cell group voltages
 279:../../lpc11cx4-library/evt_lib/src/ltc6804.c **** 
 280:../../lpc11cx4-library/evt_lib/src/ltc6804.c **** 			// [TODO] Don't read if you don't need to (cell_module_count < 12);
 281:../../lpc11cx4-library/evt_lib/src/ltc6804.c **** 			LTC6804_STATUS_T r;
 282:../../lpc11cx4-library/evt_lib/src/ltc6804.c **** 			r = _read(config, state, RDCVA, msTicks);
 283:../../lpc11cx4-library/evt_lib/src/ltc6804.c **** 			if (r == LTC6804_SPI_ERROR || r == LTC6804_PEC_ERROR) return r;
 284:../../lpc11cx4-library/evt_lib/src/ltc6804.c **** 			for (i = 0; i < config->num_modules; i++) {
 285:../../lpc11cx4-library/evt_lib/src/ltc6804.c **** 				uint8_t *rx_ptr = state->rx_buf + 4 + 8 * i;
 286:../../lpc11cx4-library/evt_lib/src/ltc6804.c **** 				for (j = 0; j < config->module_cell_count[i] && j < 3; j++) {
 287:../../lpc11cx4-library/evt_lib/src/ltc6804.c **** 					vol_ptr[j] = divu10((rx_ptr[2*j + 1] << 8 | rx_ptr[2*j]));
 288:../../lpc11cx4-library/evt_lib/src/ltc6804.c **** 					max = (vol_ptr[j] > max) ? vol_ptr[j] : max;
 289:../../lpc11cx4-library/evt_lib/src/ltc6804.c **** 					min = (vol_ptr[j] < min) ? vol_ptr[j] : min;
 290:../../lpc11cx4-library/evt_lib/src/ltc6804.c **** 				}
 291:../../lpc11cx4-library/evt_lib/src/ltc6804.c **** 				vol_ptr = vol_ptr + config->module_cell_count[i];
 292:../../lpc11cx4-library/evt_lib/src/ltc6804.c **** 			}
 293:../../lpc11cx4-library/evt_lib/src/ltc6804.c **** 
 294:../../lpc11cx4-library/evt_lib/src/ltc6804.c **** 			r = _read(config, state, RDCVB, msTicks);
 295:../../lpc11cx4-library/evt_lib/src/ltc6804.c **** 			if (r == LTC6804_SPI_ERROR || r == LTC6804_PEC_ERROR) return r;
 296:../../lpc11cx4-library/evt_lib/src/ltc6804.c **** 			vol_ptr = res->cell_voltages_mV;
 297:../../lpc11cx4-library/evt_lib/src/ltc6804.c **** 			for (i = 0; i < config->num_modules; i++) {
 298:../../lpc11cx4-library/evt_lib/src/ltc6804.c **** 				uint8_t *rx_ptr = state->rx_buf + 4 + 8 * i;
 299:../../lpc11cx4-library/evt_lib/src/ltc6804.c **** 				for (j = 0; j + 3 < config->module_cell_count[i] && j < 3; j++) {
 300:../../lpc11cx4-library/evt_lib/src/ltc6804.c **** 					vol_ptr[j + 3] = divu10((rx_ptr[2 * j + 1] << 8 | rx_ptr[2* j]));
 301:../../lpc11cx4-library/evt_lib/src/ltc6804.c **** 					max = (vol_ptr[j + 3] > max) ? vol_ptr[j + 3] : max;
 302:../../lpc11cx4-library/evt_lib/src/ltc6804.c **** 					min = (vol_ptr[j + 3] < min) ? vol_ptr[j + 3] : min;
 303:../../lpc11cx4-library/evt_lib/src/ltc6804.c **** 				} 
 304:../../lpc11cx4-library/evt_lib/src/ltc6804.c **** 				vol_ptr = vol_ptr + config->module_cell_count[i];
 305:../../lpc11cx4-library/evt_lib/src/ltc6804.c **** 			}
 306:../../lpc11cx4-library/evt_lib/src/ltc6804.c **** 
 307:../../lpc11cx4-library/evt_lib/src/ltc6804.c **** 			r = _read(config, state, RDCVC, msTicks);
 308:../../lpc11cx4-library/evt_lib/src/ltc6804.c **** 			if (r == LTC6804_SPI_ERROR || r == LTC6804_PEC_ERROR) return r;
 309:../../lpc11cx4-library/evt_lib/src/ltc6804.c **** 			vol_ptr = res->cell_voltages_mV;
 310:../../lpc11cx4-library/evt_lib/src/ltc6804.c **** 			for (i = 0; i < config->num_modules; i++) {
 311:../../lpc11cx4-library/evt_lib/src/ltc6804.c **** 				uint8_t *rx_ptr = state->rx_buf + 4 + 8 * i;
 312:../../lpc11cx4-library/evt_lib/src/ltc6804.c **** 				for (j = 0; j + 6 < config->module_cell_count[i] && j < 3; j++) {
 313:../../lpc11cx4-library/evt_lib/src/ltc6804.c **** 					vol_ptr[j + 6] = divu10((rx_ptr[2 * j + 1] << 8 | rx_ptr[2 * j]));
 314:../../lpc11cx4-library/evt_lib/src/ltc6804.c **** 					max = (vol_ptr[j + 6] > max) ? vol_ptr[j + 6] : max;
 315:../../lpc11cx4-library/evt_lib/src/ltc6804.c **** 					min = (vol_ptr[j + 6] < min) ? vol_ptr[j + 6] : min;
 316:../../lpc11cx4-library/evt_lib/src/ltc6804.c **** 				} 
 317:../../lpc11cx4-library/evt_lib/src/ltc6804.c **** 				vol_ptr = vol_ptr + config->module_cell_count[i];
 318:../../lpc11cx4-library/evt_lib/src/ltc6804.c **** 			}
 319:../../lpc11cx4-library/evt_lib/src/ltc6804.c **** 			
 320:../../lpc11cx4-library/evt_lib/src/ltc6804.c **** 			r = _read(config, state, RDCVD, msTicks);
 321:../../lpc11cx4-library/evt_lib/src/ltc6804.c **** 			if (r == LTC6804_SPI_ERROR || r == LTC6804_PEC_ERROR) return r;
 322:../../lpc11cx4-library/evt_lib/src/ltc6804.c **** 			vol_ptr = res->cell_voltages_mV;
 323:../../lpc11cx4-library/evt_lib/src/ltc6804.c **** 			for (i = 0; i < config->num_modules; i++) {
 324:../../lpc11cx4-library/evt_lib/src/ltc6804.c **** 				uint8_t *rx_ptr = state->rx_buf + 4 + 8 * i;
 325:../../lpc11cx4-library/evt_lib/src/ltc6804.c **** 				for (j = 0; j + 9 < config->module_cell_count[i] && j < 3; j++) {
 326:../../lpc11cx4-library/evt_lib/src/ltc6804.c **** 					vol_ptr[j + 9] = divu10((rx_ptr[2 * j + 1] << 8 | rx_ptr[2 * j]));
 327:../../lpc11cx4-library/evt_lib/src/ltc6804.c **** 					max = (vol_ptr[j + 9] > max) ? vol_ptr[j + 9] : max;
 328:../../lpc11cx4-library/evt_lib/src/ltc6804.c **** 					min = (vol_ptr[j + 9] < min) ? vol_ptr[j + 9] : min;
 329:../../lpc11cx4-library/evt_lib/src/ltc6804.c **** 				} 
 330:../../lpc11cx4-library/evt_lib/src/ltc6804.c **** 				vol_ptr = vol_ptr + config->module_cell_count[i];
 331:../../lpc11cx4-library/evt_lib/src/ltc6804.c **** 			}
 332:../../lpc11cx4-library/evt_lib/src/ltc6804.c **** 
ARM GAS  /tmp/ccQWJFys.s 			page 9


 333:../../lpc11cx4-library/evt_lib/src/ltc6804.c **** 			res->pack_cell_max_mV = max;
 334:../../lpc11cx4-library/evt_lib/src/ltc6804.c **** 			res->pack_cell_min_mV = min;
 335:../../lpc11cx4-library/evt_lib/src/ltc6804.c **** 			return LTC6804_PASS;
 336:../../lpc11cx4-library/evt_lib/src/ltc6804.c **** 		} else { // Keep Waiting
 337:../../lpc11cx4-library/evt_lib/src/ltc6804.c **** 			return LTC6804_WAITING;
 338:../../lpc11cx4-library/evt_lib/src/ltc6804.c **** 		}
 339:../../lpc11cx4-library/evt_lib/src/ltc6804.c **** 	}
 340:../../lpc11cx4-library/evt_lib/src/ltc6804.c **** }
 341:../../lpc11cx4-library/evt_lib/src/ltc6804.c **** 
 342:../../lpc11cx4-library/evt_lib/src/ltc6804.c **** LTC6804_STATUS_T LTC6804_ClearCellVoltages(LTC6804_CONFIG_T *config, LTC6804_STATE_T *state, uint32
 343:../../lpc11cx4-library/evt_lib/src/ltc6804.c **** 	return _command(config, state, CLRCELL, msTicks);
 344:../../lpc11cx4-library/evt_lib/src/ltc6804.c **** }
 345:../../lpc11cx4-library/evt_lib/src/ltc6804.c **** /***************************************
 346:../../lpc11cx4-library/evt_lib/src/ltc6804.c **** 		Private Functions
 347:../../lpc11cx4-library/evt_lib/src/ltc6804.c **** ****************************************/
 348:../../lpc11cx4-library/evt_lib/src/ltc6804.c **** 
 349:../../lpc11cx4-library/evt_lib/src/ltc6804.c **** LTC6804_STATUS_T _command(LTC6804_CONFIG_T *config, LTC6804_STATE_T *state, uint16_t cmd, uint32_t 
 350:../../lpc11cx4-library/evt_lib/src/ltc6804.c **** 	_wake(config, state, msTicks, false);
 351:../../lpc11cx4-library/evt_lib/src/ltc6804.c **** 
 352:../../lpc11cx4-library/evt_lib/src/ltc6804.c **** 	state->tx_buf[0] = cmd >> 8;
 353:../../lpc11cx4-library/evt_lib/src/ltc6804.c **** 	state->tx_buf[1] = cmd & 0xFF;
 354:../../lpc11cx4-library/evt_lib/src/ltc6804.c **** 	uint16_t pec = _calculate_pec(state->tx_buf, 2);
 355:../../lpc11cx4-library/evt_lib/src/ltc6804.c **** 	state->tx_buf[2] = pec >> 8;
 356:../../lpc11cx4-library/evt_lib/src/ltc6804.c **** 	state->tx_buf[3] = pec & 0xFF;
 357:../../lpc11cx4-library/evt_lib/src/ltc6804.c **** 
 358:../../lpc11cx4-library/evt_lib/src/ltc6804.c **** 	state->last_message = msTicks;
 359:../../lpc11cx4-library/evt_lib/src/ltc6804.c **** 	Chip_GPIO_SetPinState(LPC_GPIO, config->cs_gpio, config->cs_pin, false);
 360:../../lpc11cx4-library/evt_lib/src/ltc6804.c **** 	uint32_t res = Chip_SSP_WriteFrames_Blocking(config->pSSP, state->tx_buf, 4);
 361:../../lpc11cx4-library/evt_lib/src/ltc6804.c **** 	Chip_GPIO_SetPinState(LPC_GPIO, config->cs_gpio, config->cs_pin, true);
 362:../../lpc11cx4-library/evt_lib/src/ltc6804.c **** 
 363:../../lpc11cx4-library/evt_lib/src/ltc6804.c **** 	if (res == ERROR) return LTC6804_SPI_ERROR;
 364:../../lpc11cx4-library/evt_lib/src/ltc6804.c **** 	return LTC6804_PASS;
 365:../../lpc11cx4-library/evt_lib/src/ltc6804.c **** }
 366:../../lpc11cx4-library/evt_lib/src/ltc6804.c **** 
 367:../../lpc11cx4-library/evt_lib/src/ltc6804.c **** LTC6804_STATUS_T _write(LTC6804_CONFIG_T *config, LTC6804_STATE_T *state, uint16_t cmd, uint32_t ms
 368:../../lpc11cx4-library/evt_lib/src/ltc6804.c **** 	_wake(config, state, msTicks, false);
 369:../../lpc11cx4-library/evt_lib/src/ltc6804.c **** 
 370:../../lpc11cx4-library/evt_lib/src/ltc6804.c **** 	state->tx_buf[0] = cmd >> 8;
 371:../../lpc11cx4-library/evt_lib/src/ltc6804.c **** 	state->tx_buf[1] = cmd & 0xFF;
 372:../../lpc11cx4-library/evt_lib/src/ltc6804.c **** 	uint16_t pec = _calculate_pec(state->tx_buf, 2);
 373:../../lpc11cx4-library/evt_lib/src/ltc6804.c **** 	state->tx_buf[2] = pec >> 8;
 374:../../lpc11cx4-library/evt_lib/src/ltc6804.c **** 	state->tx_buf[3] = pec & 0xFF;
 375:../../lpc11cx4-library/evt_lib/src/ltc6804.c **** 
 376:../../lpc11cx4-library/evt_lib/src/ltc6804.c **** 	state->last_message = msTicks;
 377:../../lpc11cx4-library/evt_lib/src/ltc6804.c **** 	Chip_GPIO_SetPinState(LPC_GPIO, config->cs_gpio, config->cs_pin, false);
 378:../../lpc11cx4-library/evt_lib/src/ltc6804.c **** 	uint32_t res = Chip_SSP_WriteFrames_Blocking(config->pSSP, state->tx_buf, 4+8*config->num_modules)
 379:../../lpc11cx4-library/evt_lib/src/ltc6804.c **** 	Chip_GPIO_SetPinState(LPC_GPIO, config->cs_gpio, config->cs_pin, true);
 380:../../lpc11cx4-library/evt_lib/src/ltc6804.c **** 
 381:../../lpc11cx4-library/evt_lib/src/ltc6804.c **** 	if (res == ERROR) return LTC6804_SPI_ERROR;
 382:../../lpc11cx4-library/evt_lib/src/ltc6804.c **** 	return LTC6804_PASS;
 383:../../lpc11cx4-library/evt_lib/src/ltc6804.c **** }
 384:../../lpc11cx4-library/evt_lib/src/ltc6804.c **** 
 385:../../lpc11cx4-library/evt_lib/src/ltc6804.c **** LTC6804_STATUS_T _read(LTC6804_CONFIG_T *config, LTC6804_STATE_T *state, uint16_t cmd, uint32_t msT
 386:../../lpc11cx4-library/evt_lib/src/ltc6804.c **** 	_wake(config, state, msTicks, false);
 387:../../lpc11cx4-library/evt_lib/src/ltc6804.c **** 
 388:../../lpc11cx4-library/evt_lib/src/ltc6804.c **** 	state->tx_buf[0] = cmd >> 8;
 389:../../lpc11cx4-library/evt_lib/src/ltc6804.c **** 	state->tx_buf[1] = cmd & 0xFF;
ARM GAS  /tmp/ccQWJFys.s 			page 10


 390:../../lpc11cx4-library/evt_lib/src/ltc6804.c **** 	uint16_t pec = _calculate_pec(state->tx_buf, 2);
 391:../../lpc11cx4-library/evt_lib/src/ltc6804.c **** 	state->tx_buf[2] = pec >> 8;
 392:../../lpc11cx4-library/evt_lib/src/ltc6804.c **** 	state->tx_buf[3] = pec & 0xFF;
 393:../../lpc11cx4-library/evt_lib/src/ltc6804.c **** 
 394:../../lpc11cx4-library/evt_lib/src/ltc6804.c **** 	memset(state->tx_buf+4, 0, 8*config->num_modules);
 395:../../lpc11cx4-library/evt_lib/src/ltc6804.c **** 
 396:../../lpc11cx4-library/evt_lib/src/ltc6804.c **** 	state->xf->length = 4 + 8 * config->num_modules; state->xf->rx_cnt = 0; state->xf->tx_cnt = 0;
 397:../../lpc11cx4-library/evt_lib/src/ltc6804.c **** 	state->xf->rx_data = state->rx_buf;
 398:../../lpc11cx4-library/evt_lib/src/ltc6804.c **** 	state->xf->tx_data = state->tx_buf;
 399:../../lpc11cx4-library/evt_lib/src/ltc6804.c **** 
 400:../../lpc11cx4-library/evt_lib/src/ltc6804.c **** 	state->last_message = msTicks;
 401:../../lpc11cx4-library/evt_lib/src/ltc6804.c **** 	Chip_GPIO_SetPinState(LPC_GPIO, config->cs_gpio, config->cs_pin, false);
 402:../../lpc11cx4-library/evt_lib/src/ltc6804.c **** 	uint32_t res = Chip_SSP_RWFrames_Blocking(config->pSSP, state->xf);
 403:../../lpc11cx4-library/evt_lib/src/ltc6804.c **** 	Chip_GPIO_SetPinState(LPC_GPIO, config->cs_gpio, config->cs_pin, true);
 404:../../lpc11cx4-library/evt_lib/src/ltc6804.c **** 
 405:../../lpc11cx4-library/evt_lib/src/ltc6804.c **** 	if (res == ERROR) return LTC6804_SPI_ERROR;
 406:../../lpc11cx4-library/evt_lib/src/ltc6804.c **** 
 407:../../lpc11cx4-library/evt_lib/src/ltc6804.c **** 	// Check PECs
 408:../../lpc11cx4-library/evt_lib/src/ltc6804.c **** 	int i;
 409:../../lpc11cx4-library/evt_lib/src/ltc6804.c **** 	for (i = 0; i < config->num_modules; i++) {
 410:../../lpc11cx4-library/evt_lib/src/ltc6804.c **** 		uint8_t *rx_ptr = state->rx_buf + 4 + 8 * i;
 411:../../lpc11cx4-library/evt_lib/src/ltc6804.c **** 		pec = _calculate_pec(rx_ptr, 6);
 412:../../lpc11cx4-library/evt_lib/src/ltc6804.c **** 		if (pec != (rx_ptr[6] << 8 | rx_ptr[7])) return LTC6804_PEC_ERROR;
 413:../../lpc11cx4-library/evt_lib/src/ltc6804.c **** 	}
 414:../../lpc11cx4-library/evt_lib/src/ltc6804.c **** 
 415:../../lpc11cx4-library/evt_lib/src/ltc6804.c **** 	return LTC6804_PASS;
 416:../../lpc11cx4-library/evt_lib/src/ltc6804.c **** }
 417:../../lpc11cx4-library/evt_lib/src/ltc6804.c **** 
 418:../../lpc11cx4-library/evt_lib/src/ltc6804.c **** // [NOTE] If timing is fucked look here
 419:../../lpc11cx4-library/evt_lib/src/ltc6804.c **** LTC6804_STATUS_T _wake(LTC6804_CONFIG_T *config, LTC6804_STATE_T *state, uint32_t msTicks, bool for
 420:../../lpc11cx4-library/evt_lib/src/ltc6804.c **** 	// if (msTicks - state->last_message < 4 && !force) return LTC6804_PASS;
 421:../../lpc11cx4-library/evt_lib/src/ltc6804.c **** 
 422:../../lpc11cx4-library/evt_lib/src/ltc6804.c **** 	if (msTicks - state->last_message < T_IDLE && !force) return LTC6804_PASS;
 423:../../lpc11cx4-library/evt_lib/src/ltc6804.c **** 
 424:../../lpc11cx4-library/evt_lib/src/ltc6804.c **** 
 425:../../lpc11cx4-library/evt_lib/src/ltc6804.c **** 	uint32_t wake;
 426:../../lpc11cx4-library/evt_lib/src/ltc6804.c **** 	bool waking = msTicks - state->last_message >= T_SLEEP;
 427:../../lpc11cx4-library/evt_lib/src/ltc6804.c **** 
 428:../../lpc11cx4-library/evt_lib/src/ltc6804.c **** 	wake = (waking || force) ? state->wake_length : 2;
 429:../../lpc11cx4-library/evt_lib/src/ltc6804.c **** 	state->last_sleep_wake = (waking) ? msTicks : state->last_sleep_wake;
 430:../../lpc11cx4-library/evt_lib/src/ltc6804.c **** 
 431:../../lpc11cx4-library/evt_lib/src/ltc6804.c **** 
 432:../../lpc11cx4-library/evt_lib/src/ltc6804.c **** 	// [TODO] Consider moving to _write or _command or _generic_write
 433:../../lpc11cx4-library/evt_lib/src/ltc6804.c **** 	state->last_message = msTicks;
 434:../../lpc11cx4-library/evt_lib/src/ltc6804.c **** 	Chip_GPIO_SetPinState(LPC_GPIO, config->cs_gpio, config->cs_pin, false);
 435:../../lpc11cx4-library/evt_lib/src/ltc6804.c **** 	uint32_t res = Chip_SSP_WriteFrames_Blocking(config->pSSP, wake_buf, wake);
 436:../../lpc11cx4-library/evt_lib/src/ltc6804.c **** 	Chip_GPIO_SetPinState(LPC_GPIO, config->cs_gpio, config->cs_pin, true);
 437:../../lpc11cx4-library/evt_lib/src/ltc6804.c **** 
 438:../../lpc11cx4-library/evt_lib/src/ltc6804.c **** 	// If you fall asleep, write configuration again pls
 439:../../lpc11cx4-library/evt_lib/src/ltc6804.c **** 	if (waking) LTC6804_WriteCFG(config, state, msTicks); // Wake will be skipped bc last_message upda
 440:../../lpc11cx4-library/evt_lib/src/ltc6804.c **** 	if (waking && state->balancing) _set_balance_states(config, state, msTicks);
 441:../../lpc11cx4-library/evt_lib/src/ltc6804.c **** 
 442:../../lpc11cx4-library/evt_lib/src/ltc6804.c **** 	if (res == ERROR) return LTC6804_SPI_ERROR;
 443:../../lpc11cx4-library/evt_lib/src/ltc6804.c **** 	return LTC6804_PASS;
 444:../../lpc11cx4-library/evt_lib/src/ltc6804.c **** }
 445:../../lpc11cx4-library/evt_lib/src/ltc6804.c **** 
 446:../../lpc11cx4-library/evt_lib/src/ltc6804.c **** LTC6804_STATUS_T _set_balance_states(LTC6804_CONFIG_T *config, LTC6804_STATE_T *state, uint32_t msT
ARM GAS  /tmp/ccQWJFys.s 			page 11


 125              		.loc 1 446 0
 126              		.cfi_startproc
 127              	.LVL8:
 128 0000 F0B5     		push	{r4, r5, r6, r7, lr}	@
 129              		.cfi_def_cfa_offset 20
 130              		.cfi_offset 4, -20
 131              		.cfi_offset 5, -16
 132              		.cfi_offset 6, -12
 133              		.cfi_offset 7, -8
 134              		.cfi_offset 14, -4
 135 0002 4446     		mov	r4, r8	@,
 136 0004 5F46     		mov	r7, fp	@,
 137 0006 5646     		mov	r6, r10	@,
 138 0008 4D46     		mov	r5, r9	@,
 139 000a F0B4     		push	{r4, r5, r6, r7}	@
 140              		.cfi_def_cfa_offset 36
 141              		.cfi_offset 8, -36
 142              		.cfi_offset 9, -32
 143              		.cfi_offset 10, -28
 144              		.cfi_offset 11, -24
 145 000c 83B0     		sub	sp, sp, #12	@,,
 146              		.cfi_def_cfa_offset 48
 147              		.loc 1 446 0
 148 000e 0192     		str	r2, [sp, #4]	@ msTicks, %sfp
 447:../../lpc11cx4-library/evt_lib/src/ltc6804.c **** 	int i;
 448:../../lpc11cx4-library/evt_lib/src/ltc6804.c **** 	for (i = 0; i < config->num_modules; i++) {
 149              		.loc 1 448 0
 150 0010 837A     		ldrb	r3, [r0, #10]	@ tmp198,
 446:../../lpc11cx4-library/evt_lib/src/ltc6804.c **** 	int i;
 151              		.loc 1 446 0
 152 0012 8046     		mov	r8, r0	@ config, config
 153              		.loc 1 448 0
 154 0014 002B     		cmp	r3, #0	@ tmp198,
 155 0016 44D0     		beq	.L5	@,
 156 0018 0423     		mov	r3, #4	@ ivtmp.52,
 157 001a 9946     		mov	r9, r3	@ ivtmp.52, ivtmp.52
 158 001c 0023     		mov	r3, #0	@ i,
 159 001e 9C46     		mov	ip, r3	@ i, i
 160              	.LBB38:
 449:../../lpc11cx4-library/evt_lib/src/ltc6804.c **** 		uint8_t *tx_ptr = state->tx_buf + 4 + 8 * i;
 450:../../lpc11cx4-library/evt_lib/src/ltc6804.c **** 		tx_ptr[0] = state->cfg[0]; tx_ptr[1] = state->cfg[1];
 451:../../lpc11cx4-library/evt_lib/src/ltc6804.c **** 		tx_ptr[2] = state->cfg[2]; tx_ptr[3] = state->cfg[3];
 452:../../lpc11cx4-library/evt_lib/src/ltc6804.c **** 		tx_ptr[4] = state->bal_list[i] & 0xFF;
 453:../../lpc11cx4-library/evt_lib/src/ltc6804.c **** 		tx_ptr[5] = (state->cfg[5] & 0xF0) | (state->bal_list[i] >> 8);
 161              		.loc 1 453 0
 162 0020 0F33     		add	r3, r3, #15	@ tmp252,
 163 0022 9A46     		mov	r10, r3	@ tmp252, tmp252
 164              	.LBB39:
 165              	.LBB40:
 454:../../lpc11cx4-library/evt_lib/src/ltc6804.c **** 		uint16_t pec = _calculate_pec(tx_ptr, 6);
 455:../../lpc11cx4-library/evt_lib/src/ltc6804.c **** 		tx_ptr[6] = pec >> 8;
 456:../../lpc11cx4-library/evt_lib/src/ltc6804.c **** 		tx_ptr[7] = pec & 0xFF;
 457:../../lpc11cx4-library/evt_lib/src/ltc6804.c **** 	}
 458:../../lpc11cx4-library/evt_lib/src/ltc6804.c **** 	return _write(config, state, WRCFG, msTicks);
 459:../../lpc11cx4-library/evt_lib/src/ltc6804.c **** }
 460:../../lpc11cx4-library/evt_lib/src/ltc6804.c **** 
 461:../../lpc11cx4-library/evt_lib/src/ltc6804.c **** static const unsigned int crc15Table[256] = {0x0,0xc599, 0xceab, 0xb32, 0xd8cf, 0x1d56, 0x1664, 0xd
ARM GAS  /tmp/ccQWJFys.s 			page 12


 462:../../lpc11cx4-library/evt_lib/src/ltc6804.c **** 0xff35, 0x2cc8, 0xe951, 0xe263, 0x27fa, 0xad97, 0x680e, 0x633c, 0xa6a5, 0x7558, 0xb0c1, 
 463:../../lpc11cx4-library/evt_lib/src/ltc6804.c **** 0xbbf3, 0x7e6a, 0x5990, 0x9c09, 0x973b, 0x52a2, 0x815f, 0x44c6, 0x4ff4, 0x8a6d, 0x5b2e,
 464:../../lpc11cx4-library/evt_lib/src/ltc6804.c **** 0x9eb7, 0x9585, 0x501c, 0x83e1, 0x4678, 0x4d4a, 0x88d3, 0xaf29, 0x6ab0, 0x6182, 0xa41b,
 465:../../lpc11cx4-library/evt_lib/src/ltc6804.c **** 0x77e6, 0xb27f, 0xb94d, 0x7cd4, 0xf6b9, 0x3320, 0x3812, 0xfd8b, 0x2e76, 0xebef, 0xe0dd, 
 466:../../lpc11cx4-library/evt_lib/src/ltc6804.c **** 0x2544, 0x2be, 0xc727, 0xcc15, 0x98c, 0xda71, 0x1fe8, 0x14da, 0xd143, 0xf3c5, 0x365c, 
 467:../../lpc11cx4-library/evt_lib/src/ltc6804.c **** 0x3d6e, 0xf8f7,0x2b0a, 0xee93, 0xe5a1, 0x2038, 0x7c2, 0xc25b, 0xc969, 0xcf0, 0xdf0d, 
 468:../../lpc11cx4-library/evt_lib/src/ltc6804.c **** 0x1a94, 0x11a6, 0xd43f, 0x5e52, 0x9bcb, 0x90f9, 0x5560, 0x869d, 0x4304, 0x4836, 0x8daf,
 469:../../lpc11cx4-library/evt_lib/src/ltc6804.c **** 0xaa55, 0x6fcc, 0x64fe, 0xa167, 0x729a, 0xb703, 0xbc31, 0x79a8, 0xa8eb, 0x6d72, 0x6640,
 470:../../lpc11cx4-library/evt_lib/src/ltc6804.c **** 0xa3d9, 0x7024, 0xb5bd, 0xbe8f, 0x7b16, 0x5cec, 0x9975, 0x9247, 0x57de, 0x8423, 0x41ba,
 471:../../lpc11cx4-library/evt_lib/src/ltc6804.c **** 0x4a88, 0x8f11, 0x57c, 0xc0e5, 0xcbd7, 0xe4e, 0xddb3, 0x182a, 0x1318, 0xd681, 0xf17b, 
 472:../../lpc11cx4-library/evt_lib/src/ltc6804.c **** 0x34e2, 0x3fd0, 0xfa49, 0x29b4, 0xec2d, 0xe71f, 0x2286, 0xa213, 0x678a, 0x6cb8, 0xa921, 
 473:../../lpc11cx4-library/evt_lib/src/ltc6804.c **** 0x7adc, 0xbf45, 0xb477, 0x71ee, 0x5614, 0x938d, 0x98bf, 0x5d26, 0x8edb, 0x4b42, 0x4070, 
 474:../../lpc11cx4-library/evt_lib/src/ltc6804.c **** 0x85e9, 0xf84, 0xca1d, 0xc12f, 0x4b6, 0xd74b, 0x12d2, 0x19e0, 0xdc79, 0xfb83, 0x3e1a, 0x3528, 
 475:../../lpc11cx4-library/evt_lib/src/ltc6804.c **** 0xf0b1, 0x234c, 0xe6d5, 0xede7, 0x287e, 0xf93d, 0x3ca4, 0x3796, 0xf20f, 0x21f2, 0xe46b, 0xef59, 
 476:../../lpc11cx4-library/evt_lib/src/ltc6804.c **** 0x2ac0, 0xd3a, 0xc8a3, 0xc391, 0x608, 0xd5f5, 0x106c, 0x1b5e, 0xdec7, 0x54aa, 0x9133, 0x9a01, 
 477:../../lpc11cx4-library/evt_lib/src/ltc6804.c **** 0x5f98, 0x8c65, 0x49fc, 0x42ce, 0x8757, 0xa0ad, 0x6534, 0x6e06, 0xab9f, 0x7862, 0xbdfb, 0xb6c9, 
 478:../../lpc11cx4-library/evt_lib/src/ltc6804.c **** 0x7350, 0x51d6, 0x944f, 0x9f7d, 0x5ae4, 0x8919, 0x4c80, 0x47b2, 0x822b, 0xa5d1, 0x6048, 0x6b7a, 
 479:../../lpc11cx4-library/evt_lib/src/ltc6804.c **** 0xaee3, 0x7d1e, 0xb887, 0xb3b5, 0x762c, 0xfc41, 0x39d8, 0x32ea, 0xf773, 0x248e, 0xe117, 0xea25, 
 480:../../lpc11cx4-library/evt_lib/src/ltc6804.c **** 0x2fbc, 0x846, 0xcddf, 0xc6ed, 0x374, 0xd089, 0x1510, 0x1e22, 0xdbbb, 0xaf8, 0xcf61, 0xc453, 
 481:../../lpc11cx4-library/evt_lib/src/ltc6804.c **** 0x1ca, 0xd237, 0x17ae, 0x1c9c, 0xd905, 0xfeff, 0x3b66, 0x3054, 0xf5cd, 0x2630, 0xe3a9, 0xe89b, 
 482:../../lpc11cx4-library/evt_lib/src/ltc6804.c **** 0x2d02, 0xa76f, 0x62f6, 0x69c4, 0xac5d, 0x7fa0, 0xba39, 0xb10b, 0x7492, 0x5368, 0x96f1, 0x9dc3, 
 483:../../lpc11cx4-library/evt_lib/src/ltc6804.c **** 0x585a, 0x8ba7, 0x4e3e, 0x450c, 0x8095}; 
 484:../../lpc11cx4-library/evt_lib/src/ltc6804.c **** 
 485:../../lpc11cx4-library/evt_lib/src/ltc6804.c **** uint16_t _calculate_pec(uint8_t *data, uint8_t len) {
 486:../../lpc11cx4-library/evt_lib/src/ltc6804.c **** 	uint16_t remainder,addr;
 487:../../lpc11cx4-library/evt_lib/src/ltc6804.c **** 	
 488:../../lpc11cx4-library/evt_lib/src/ltc6804.c **** 	remainder = 16;//initialize the PEC
 489:../../lpc11cx4-library/evt_lib/src/ltc6804.c **** 	uint8_t i;
 490:../../lpc11cx4-library/evt_lib/src/ltc6804.c **** 	for(i = 0; i<len;i++) // loops for each byte in data array
 491:../../lpc11cx4-library/evt_lib/src/ltc6804.c **** 	{
 492:../../lpc11cx4-library/evt_lib/src/ltc6804.c **** 		addr = ((remainder>>7)^data[i])&0xff;//calculate PEC table address 
 166              		.loc 1 492 0
 167 0024 FF27     		mov	r7, #255	@ tmp254,
 168 0026 2548     		ldr	r0, .L11	@ tmp250,
 169              	.LVL9:
 170              	.L3:
 171              	.LBE40:
 172              	.LBE39:
 449:../../lpc11cx4-library/evt_lib/src/ltc6804.c **** 		uint8_t *tx_ptr = state->tx_buf + 4 + 8 * i;
 173              		.loc 1 449 0 discriminator 3
 174 0028 4B68     		ldr	r3, [r1, #4]	@ tx_ptr, state_7(D)->tx_buf
 453:../../lpc11cx4-library/evt_lib/src/ltc6804.c **** 		uint16_t pec = _calculate_pec(tx_ptr, 6);
 175              		.loc 1 453 0 discriminator 3
 176 002a 5446     		mov	r4, r10	@ tmp252, tmp252
 449:../../lpc11cx4-library/evt_lib/src/ltc6804.c **** 		uint8_t *tx_ptr = state->tx_buf + 4 + 8 * i;
 177              		.loc 1 449 0 discriminator 3
 178 002c 4B44     		add	r3, r3, r9	@ tx_ptr, ivtmp.52
 179 002e 1D1C     		mov	r5, r3	@ tx_ptr, tx_ptr
 180              	.LVL10:
 450:../../lpc11cx4-library/evt_lib/src/ltc6804.c **** 		tx_ptr[2] = state->cfg[2]; tx_ptr[3] = state->cfg[3];
 181              		.loc 1 450 0 discriminator 3
 182 0030 4B69     		ldr	r3, [r1, #20]	@ tmp274, state_7(D)->cfg
 183              	.LVL11:
 184              	.LBB43:
 185              	.LBB41:
 488:../../lpc11cx4-library/evt_lib/src/ltc6804.c **** 	uint8_t i;
 186              		.loc 1 488 0 discriminator 3
ARM GAS  /tmp/ccQWJFys.s 			page 13


 187 0032 8B46     		mov	fp, r1	@ state, state
 188              	.LBE41:
 189              	.LBE43:
 450:../../lpc11cx4-library/evt_lib/src/ltc6804.c **** 		tx_ptr[2] = state->cfg[2]; tx_ptr[3] = state->cfg[3];
 190              		.loc 1 450 0 discriminator 3
 191 0034 1B78     		ldrb	r3, [r3]	@ D.7511, *_13
 192 0036 AE1D     		add	r6, r5, #6	@ D.7521, tx_ptr,
 193 0038 2B70     		strb	r3, [r5]	@ D.7511, *tx_ptr_12
 194 003a 4B69     		ldr	r3, [r1, #20]	@ tmp275, state_7(D)->cfg
 195 003c 5B78     		ldrb	r3, [r3, #1]	@ D.7511, MEM[(uint8_t *)_16 + 1B]
 196 003e 6B70     		strb	r3, [r5, #1]	@ D.7511, MEM[(uint8_t *)tx_ptr_12 + 1B]
 451:../../lpc11cx4-library/evt_lib/src/ltc6804.c **** 		tx_ptr[4] = state->bal_list[i] & 0xFF;
 197              		.loc 1 451 0 discriminator 3
 198 0040 4B69     		ldr	r3, [r1, #20]	@ tmp276, state_7(D)->cfg
 199 0042 9B78     		ldrb	r3, [r3, #2]	@ D.7511, MEM[(uint8_t *)_19 + 2B]
 200 0044 AB70     		strb	r3, [r5, #2]	@ D.7511, MEM[(uint8_t *)tx_ptr_12 + 2B]
 201 0046 4B69     		ldr	r3, [r1, #20]	@ tmp277, state_7(D)->cfg
 202 0048 DB78     		ldrb	r3, [r3, #3]	@ D.7511, MEM[(uint8_t *)_22 + 3B]
 203 004a EB70     		strb	r3, [r5, #3]	@ D.7511, MEM[(uint8_t *)tx_ptr_12 + 3B]
 204 004c 6346     		mov	r3, ip	@ i, i
 452:../../lpc11cx4-library/evt_lib/src/ltc6804.c **** 		tx_ptr[5] = (state->cfg[5] & 0xF0) | (state->bal_list[i] >> 8);
 205              		.loc 1 452 0 discriminator 3
 206 004e CA6A     		ldr	r2, [r1, #44]	@ tmp279, state_7(D)->bal_list
 207 0050 5B00     		lsl	r3, r3, #1	@ D.7518, i,
 208 0052 D25A     		ldrh	r2, [r2, r3]	@ *_28, *_28
 209 0054 2A71     		strb	r2, [r5, #4]	@ *_28, MEM[(uint8_t *)tx_ptr_12 + 4B]
 453:../../lpc11cx4-library/evt_lib/src/ltc6804.c **** 		uint16_t pec = _calculate_pec(tx_ptr, 6);
 210              		.loc 1 453 0 discriminator 3
 211 0056 CA6A     		ldr	r2, [r1, #44]	@ tmp280, state_7(D)->bal_list
 212 0058 D35A     		ldrh	r3, [r2, r3]	@ *_37, *_37
 213 005a 1A0A     		lsr	r2, r3, #8	@ tmp217, *_37,
 214 005c 4B69     		ldr	r3, [r1, #20]	@ tmp281, state_7(D)->cfg
 215 005e 5B79     		ldrb	r3, [r3, #5]	@ MEM[(uint8_t *)_32 + 5B], MEM[(uint8_t *)_32 + 5B]
 216 0060 A343     		bic	r3, r4	@ tmp222, tmp252
 217 0062 1343     		orr	r3, r2	@ tmp225, tmp217
 218 0064 6B71     		strb	r3, [r5, #5]	@ tmp225, MEM[(uint8_t *)tx_ptr_12 + 5B]
 219              	.LVL12:
 220 0066 2A1C     		mov	r2, r5	@ ivtmp.48, tx_ptr
 221              	.LBB44:
 222              	.LBB42:
 488:../../lpc11cx4-library/evt_lib/src/ltc6804.c **** 	uint8_t i;
 223              		.loc 1 488 0 discriminator 3
 224 0068 1023     		mov	r3, #16	@ remainder,
 225              	.LVL13:
 226              	.L4:
 227              		.loc 1 492 0
 228 006a 1178     		ldrb	r1, [r2]	@ MEM[base: _102, offset: 0B], MEM[base: _102, offset: 0B]
 493:../../lpc11cx4-library/evt_lib/src/ltc6804.c **** 		remainder = (remainder<<8)^crc15Table[addr];
 229              		.loc 1 493 0
 230 006c 1C02     		lsl	r4, r3, #8	@ tmp227, remainder,
 492:../../lpc11cx4-library/evt_lib/src/ltc6804.c **** 		remainder = (remainder<<8)^crc15Table[addr];
 231              		.loc 1 492 0
 232 006e DB09     		lsr	r3, r3, #7	@ tmp231, remainder,
 233              	.LVL14:
 234 0070 4B40     		eor	r3, r1	@ tmp233, MEM[base: _102, offset: 0B]
 235              		.loc 1 493 0
 236 0072 3B40     		and	r3, r7	@ D.7512, tmp254
ARM GAS  /tmp/ccQWJFys.s 			page 14


 237 0074 9B00     		lsl	r3, r3, #2	@ tmp240, D.7512,
 238 0076 C35A     		ldrh	r3, [r0, r3]	@ D.7515, crc15Table
 239 0078 A4B2     		uxth	r4, r4	@ D.7515, tmp227
 240 007a 0132     		add	r2, r2, #1	@ ivtmp.48,
 241              	.LVL15:
 242 007c 6340     		eor	r3, r4	@ remainder, D.7515
 243              	.LVL16:
 490:../../lpc11cx4-library/evt_lib/src/ltc6804.c **** 	{
 244              		.loc 1 490 0
 245 007e B242     		cmp	r2, r6	@ ivtmp.48, D.7521
 246 0080 F3D1     		bne	.L4	@,
 494:../../lpc11cx4-library/evt_lib/src/ltc6804.c **** 	}
 495:../../lpc11cx4-library/evt_lib/src/ltc6804.c **** 	return(remainder*2);//The CRC15 has a 0 in the LSB so the remainder must be multiplied by 2
 247              		.loc 1 495 0
 248 0082 5B00     		lsl	r3, r3, #1	@ tmp245, remainder,
 249              	.LVL17:
 250 0084 9BB2     		uxth	r3, r3	@ D.7520, tmp245
 251              	.LBE42:
 252              	.LBE44:
 455:../../lpc11cx4-library/evt_lib/src/ltc6804.c **** 		tx_ptr[7] = pec & 0xFF;
 253              		.loc 1 455 0
 254 0086 1A0A     		lsr	r2, r3, #8	@ tmp246, D.7520,
 456:../../lpc11cx4-library/evt_lib/src/ltc6804.c **** 	}
 255              		.loc 1 456 0
 256 0088 EB71     		strb	r3, [r5, #7]	@ D.7520, MEM[(uint8_t *)tx_ptr_12 + 7B]
 257              	.LBE38:
 448:../../lpc11cx4-library/evt_lib/src/ltc6804.c **** 		uint8_t *tx_ptr = state->tx_buf + 4 + 8 * i;
 258              		.loc 1 448 0
 259 008a 0123     		mov	r3, #1	@ tmp283,
 260 008c 5946     		mov	r1, fp	@ state, state
 261 008e 9B46     		mov	fp, r3	@ tmp283, tmp283
 262              	.LVL18:
 263 0090 0733     		add	r3, r3, #7	@ tmp285,
 264 0092 DC44     		add	ip, ip, fp	@ i, tmp283
 265              	.LVL19:
 266 0094 9B46     		mov	fp, r3	@ tmp285, tmp285
 267 0096 4346     		mov	r3, r8	@ config, config
 268              	.LBB45:
 455:../../lpc11cx4-library/evt_lib/src/ltc6804.c **** 		tx_ptr[7] = pec & 0xFF;
 269              		.loc 1 455 0
 270 0098 AA71     		strb	r2, [r5, #6]	@ tmp246, MEM[(uint8_t *)tx_ptr_12 + 6B]
 271              	.LBE45:
 448:../../lpc11cx4-library/evt_lib/src/ltc6804.c **** 		uint8_t *tx_ptr = state->tx_buf + 4 + 8 * i;
 272              		.loc 1 448 0
 273 009a 9B7A     		ldrb	r3, [r3, #10]	@ D.7512,
 274 009c D944     		add	r9, r9, fp	@ ivtmp.52, tmp285
 275 009e 6345     		cmp	r3, ip	@ D.7512, i
 276 00a0 C2DC     		bgt	.L3	@,
 277              	.LVL20:
 278              	.L5:
 458:../../lpc11cx4-library/evt_lib/src/ltc6804.c **** }
 279              		.loc 1 458 0
 280 00a2 4046     		mov	r0, r8	@, config
 281 00a4 0122     		mov	r2, #1	@,
 282 00a6 019B     		ldr	r3, [sp, #4]	@, %sfp
 283 00a8 FFF7FEFF 		bl	_write	@
 284              	.LVL21:
ARM GAS  /tmp/ccQWJFys.s 			page 15


 459:../../lpc11cx4-library/evt_lib/src/ltc6804.c **** 
 285              		.loc 1 459 0
 286 00ac 03B0     		add	sp, sp, #12	@,,
 287              		@ sp needed	@
 288              	.LVL22:
 289 00ae 3CBC     		pop	{r2, r3, r4, r5}
 290 00b0 9046     		mov	r8, r2
 291 00b2 9946     		mov	r9, r3
 292 00b4 A246     		mov	r10, r4
 293 00b6 AB46     		mov	fp, r5
 294 00b8 F0BD     		pop	{r4, r5, r6, r7, pc}
 295              	.L12:
 296 00ba C046     		.align	2
 297              	.L11:
 298 00bc 00000000 		.word	.LANCHOR0
 299              		.cfi_endproc
 300              	.LFE211:
 301              		.size	_set_balance_states, .-_set_balance_states
 302              		.section	.text.LTC6804_UpdateBalanceStates,"ax",%progbits
 303              		.align	2
 304              		.global	LTC6804_UpdateBalanceStates
 305              		.code	16
 306              		.thumb_func
 307              		.type	LTC6804_UpdateBalanceStates, %function
 308              	LTC6804_UpdateBalanceStates:
 309              	.LFB204:
 229:../../lpc11cx4-library/evt_lib/src/ltc6804.c **** 	bool *bal_ptr = balance_req;
 310              		.loc 1 229 0
 311              		.cfi_startproc
 312              	.LVL23:
 313 0000 F0B5     		push	{r4, r5, r6, r7, lr}	@
 314              		.cfi_def_cfa_offset 20
 315              		.cfi_offset 4, -20
 316              		.cfi_offset 5, -16
 317              		.cfi_offset 6, -12
 318              		.cfi_offset 7, -8
 319              		.cfi_offset 14, -4
 320 0002 4446     		mov	r4, r8	@,
 321 0004 5F46     		mov	r7, fp	@,
 322 0006 5646     		mov	r6, r10	@,
 323 0008 4D46     		mov	r5, r9	@,
 324 000a 8846     		mov	r8, r1	@ state, state
 325 000c F0B4     		push	{r4, r5, r6, r7}	@
 326              		.cfi_def_cfa_offset 36
 327              		.cfi_offset 8, -36
 328              		.cfi_offset 9, -32
 329              		.cfi_offset 10, -28
 330              		.cfi_offset 11, -24
 331 000e 83B0     		sub	sp, sp, #12	@,,
 332              		.cfi_def_cfa_offset 48
 229:../../lpc11cx4-library/evt_lib/src/ltc6804.c **** 	bool *bal_ptr = balance_req;
 333              		.loc 1 229 0
 334 0010 0193     		str	r3, [sp, #4]	@ msTicks, %sfp
 233:../../lpc11cx4-library/evt_lib/src/ltc6804.c **** 	for (i = 0; i < config->num_modules; i++) {
 335              		.loc 1 233 0
 336 0012 4446     		mov	r4, r8	@ state, state
 337 0014 0021     		mov	r1, #0	@ tmp165,
ARM GAS  /tmp/ccQWJFys.s 			page 16


 338              	.LVL24:
 339 0016 2823     		mov	r3, #40	@ tmp164,
 340              	.LVL25:
 341 0018 E154     		strb	r1, [r4, r3]	@ tmp165, state_15(D)->balancing
 342              	.LVL26:
 234:../../lpc11cx4-library/evt_lib/src/ltc6804.c **** 		uint16_t bal_temp = 0;
 343              		.loc 1 234 0
 344 001a 847A     		ldrb	r4, [r0, #10]	@ D.7541,
 345              	.LVL27:
 346 001c 002C     		cmp	r4, #0	@ D.7541,
 347 001e 30D0     		beq	.L22	@,
 348 0020 C368     		ldr	r3, [r0, #12]	@ D.7547, config_17(D)->module_cell_count
 349 0022 0027     		mov	r7, #0	@ i,
 350 0024 9C46     		mov	ip, r3	@ D.7547, D.7547
 351 0026 4346     		mov	r3, r8	@ state, state
 352 0028 D96A     		ldr	r1, [r3, #44]	@ ivtmp.64, state_15(D)->bal_list
 353 002a 0023     		mov	r3, #0	@ change,
 354 002c 9946     		mov	r9, r3	@ change, change
 355              	.LBB46:
 244:../../lpc11cx4-library/evt_lib/src/ltc6804.c **** 	}
 356              		.loc 1 244 0
 357 002e 2833     		add	r3, r3, #40	@ tmp185,
 358 0030 9B46     		mov	fp, r3	@ tmp185, tmp185
 359 0032 273B     		sub	r3, r3, #39	@ tmp186,
 360 0034 9A46     		mov	r10, r3	@ tmp186, tmp186
 361 0036 6346     		mov	r3, ip	@ D.7547, D.7547
 362 0038 A446     		mov	ip, r4	@ D.7541, D.7541
 363 003a 0093     		str	r3, [sp]	@ D.7547, %sfp
 364              	.LVL28:
 365              	.L16:
 236:../../lpc11cx4-library/evt_lib/src/ltc6804.c **** 			bal_temp |= bal_ptr[0] << j;
 366              		.loc 1 236 0 discriminator 1
 367 003c 009B     		ldr	r3, [sp]	@ D.7547, %sfp
 368 003e 0025     		mov	r5, #0	@ j,
 369 0040 DE5D     		ldrb	r6, [r3, r7]	@ D.7540, MEM[base: _76, index: _50, offset: 0B]
 370 0042 0023     		mov	r3, #0	@ bal_temp,
 371 0044 002E     		cmp	r6, #0	@ D.7540,
 372 0046 24D0     		beq	.L39	@,
 373              	.LVL29:
 374              	.L30:
 237:../../lpc11cx4-library/evt_lib/src/ltc6804.c **** 			bal_ptr++;
 375              		.loc 1 237 0 discriminator 3
 376 0048 545D     		ldrb	r4, [r2, r5]	@ D.7541, MEM[base: balance_req_48, index: _34, offset: 0B]
 377 004a AC40     		lsl	r4, r4, r5	@ D.7541, D.7541, j
 236:../../lpc11cx4-library/evt_lib/src/ltc6804.c **** 			bal_temp |= bal_ptr[0] << j;
 378              		.loc 1 236 0 discriminator 3
 379 004c 0135     		add	r5, r5, #1	@ j,
 380              	.LVL30:
 237:../../lpc11cx4-library/evt_lib/src/ltc6804.c **** 			bal_ptr++;
 381              		.loc 1 237 0 discriminator 3
 382 004e 2343     		orr	r3, r4	@ tmp172, D.7541
 383              	.LVL31:
 384 0050 9BB2     		uxth	r3, r3	@ bal_temp, tmp172
 385              	.LVL32:
 236:../../lpc11cx4-library/evt_lib/src/ltc6804.c **** 			bal_temp |= bal_ptr[0] << j;
 386              		.loc 1 236 0 discriminator 3
 387 0052 B542     		cmp	r5, r6	@ j, D.7540
ARM GAS  /tmp/ccQWJFys.s 			page 17


 388 0054 F8DB     		blt	.L30	@,
 240:../../lpc11cx4-library/evt_lib/src/ltc6804.c **** 			change = true;
 389              		.loc 1 240 0
 390 0056 0D88     		ldrh	r5, [r1]	@ MEM[base: _54, offset: 0B], MEM[base: _54, offset: 0B]
 391              	.LVL33:
 392 0058 9219     		add	r2, r2, r6	@ balance_req, balance_req, D.7540
 393 005a 9D42     		cmp	r5, r3	@ MEM[base: _54, offset: 0B], bal_temp
 394 005c 02D0     		beq	.L18	@,
 395              	.LVL34:
 396              	.L23:
 241:../../lpc11cx4-library/evt_lib/src/ltc6804.c **** 			state->bal_list[i] = bal_temp;
 397              		.loc 1 241 0
 398 005e 0124     		mov	r4, #1	@ change,
 399 0060 A146     		mov	r9, r4	@ change, change
 242:../../lpc11cx4-library/evt_lib/src/ltc6804.c **** 		}
 400              		.loc 1 242 0
 401 0062 0B80     		strh	r3, [r1]	@ bal_temp, MEM[base: _5, offset: 0B]
 402              	.LVL35:
 403              	.L18:
 244:../../lpc11cx4-library/evt_lib/src/ltc6804.c **** 	}
 404              		.loc 1 244 0
 405 0064 002B     		cmp	r3, #0	@ bal_temp,
 406 0066 03D0     		beq	.L37	@,
 244:../../lpc11cx4-library/evt_lib/src/ltc6804.c **** 	}
 407              		.loc 1 244 0 is_stmt 0 discriminator 1
 408 0068 4346     		mov	r3, r8	@ state, state
 409 006a 5C46     		mov	r4, fp	@ tmp185, tmp185
 410 006c 5546     		mov	r5, r10	@ tmp215, tmp186
 411 006e 1D55     		strb	r5, [r3, r4]	@ tmp215, state_15(D)->balancing
 412              	.L37:
 413 0070 837A     		ldrb	r3, [r0, #10]	@ D.7541,
 414 0072 9C46     		mov	ip, r3	@ D.7541, D.7541
 415              	.L19:
 416              	.LBE46:
 234:../../lpc11cx4-library/evt_lib/src/ltc6804.c **** 		uint16_t bal_temp = 0;
 417              		.loc 1 234 0 is_stmt 1 discriminator 2
 418 0074 0137     		add	r7, r7, #1	@ i,
 419              	.LVL36:
 420 0076 0231     		add	r1, r1, #2	@ ivtmp.64,
 421 0078 BC45     		cmp	ip, r7	@ D.7541, i
 422 007a DFDC     		bgt	.L16	@,
 247:../../lpc11cx4-library/evt_lib/src/ltc6804.c **** 		return _set_balance_states(config, state, msTicks);
 423              		.loc 1 247 0
 424 007c 4B46     		mov	r3, r9	@ change, change
 425 007e 002B     		cmp	r3, #0	@ change,
 426 0080 0BD1     		bne	.L40	@,
 427              	.LVL37:
 428              	.L22:
 250:../../lpc11cx4-library/evt_lib/src/ltc6804.c **** 	}
 429              		.loc 1 250 0
 430 0082 0120     		mov	r0, #1	@ D.7539,
 431              	.LVL38:
 432              	.L33:
 252:../../lpc11cx4-library/evt_lib/src/ltc6804.c **** 
 433              		.loc 1 252 0
 434 0084 03B0     		add	sp, sp, #12	@,,
 435              		@ sp needed	@
ARM GAS  /tmp/ccQWJFys.s 			page 18


 436              	.LVL39:
 437 0086 3CBC     		pop	{r2, r3, r4, r5}
 438 0088 9046     		mov	r8, r2
 439 008a 9946     		mov	r9, r3
 440 008c A246     		mov	r10, r4
 441 008e AB46     		mov	fp, r5
 442 0090 F0BD     		pop	{r4, r5, r6, r7, pc}
 443              	.LVL40:
 444              	.L39:
 445              	.LBB47:
 240:../../lpc11cx4-library/evt_lib/src/ltc6804.c **** 			change = true;
 446              		.loc 1 240 0
 447 0092 0D88     		ldrh	r5, [r1]	@ MEM[base: _24, offset: 0B], MEM[base: _24, offset: 0B]
 448 0094 002D     		cmp	r5, #0	@ MEM[base: _24, offset: 0B],
 449 0096 E2D1     		bne	.L23	@,
 450 0098 ECE7     		b	.L19	@
 451              	.LVL41:
 452              	.L40:
 453              	.LBE47:
 248:../../lpc11cx4-library/evt_lib/src/ltc6804.c **** 	} else {
 454              		.loc 1 248 0
 455 009a 4146     		mov	r1, r8	@, state
 456 009c 019A     		ldr	r2, [sp, #4]	@, %sfp
 457              	.LVL42:
 458 009e FFF7FEFF 		bl	_set_balance_states	@
 459              	.LVL43:
 460 00a2 EFE7     		b	.L33	@
 461              		.cfi_endproc
 462              	.LFE204:
 463              		.size	LTC6804_UpdateBalanceStates, .-LTC6804_UpdateBalanceStates
 464              		.section	.text._wake,"ax",%progbits
 465              		.align	2
 466              		.global	_wake
 467              		.code	16
 468              		.thumb_func
 469              		.type	_wake, %function
 470              	_wake:
 471              	.LFB210:
 419:../../lpc11cx4-library/evt_lib/src/ltc6804.c **** 	// if (msTicks - state->last_message < 4 && !force) return LTC6804_PASS;
 472              		.loc 1 419 0
 473              		.cfi_startproc
 474              	.LVL44:
 475 0000 F8B5     		push	{r3, r4, r5, r6, r7, lr}	@
 476              		.cfi_def_cfa_offset 24
 477              		.cfi_offset 3, -24
 478              		.cfi_offset 4, -20
 479              		.cfi_offset 5, -16
 480              		.cfi_offset 6, -12
 481              		.cfi_offset 7, -8
 482              		.cfi_offset 14, -4
 483 0002 4F46     		mov	r7, r9	@,
 484 0004 4646     		mov	r6, r8	@,
 422:../../lpc11cx4-library/evt_lib/src/ltc6804.c **** 
 485              		.loc 1 422 0
 486 0006 CC68     		ldr	r4, [r1, #12]	@ tmp160, state_8(D)->last_message
 419:../../lpc11cx4-library/evt_lib/src/ltc6804.c **** 	// if (msTicks - state->last_message < 4 && !force) return LTC6804_PASS;
 487              		.loc 1 419 0
ARM GAS  /tmp/ccQWJFys.s 			page 19


 488 0008 C0B4     		push	{r6, r7}	@
 489              		.cfi_def_cfa_offset 32
 490              		.cfi_offset 8, -32
 491              		.cfi_offset 9, -28
 422:../../lpc11cx4-library/evt_lib/src/ltc6804.c **** 
 492              		.loc 1 422 0
 493 000a 151B     		sub	r5, r2, r4	@ D.7552, msTicks, tmp160
 494 000c 032D     		cmp	r5, #3	@ D.7552,
 495 000e 04D8     		bhi	.L42	@,
 422:../../lpc11cx4-library/evt_lib/src/ltc6804.c **** 
 496              		.loc 1 422 0 is_stmt 0 discriminator 1
 497 0010 002B     		cmp	r3, #0	@ force,
 498 0012 3ED0     		beq	.L57	@,
 499              	.L43:
 428:../../lpc11cx4-library/evt_lib/src/ltc6804.c **** 	state->last_sleep_wake = (waking) ? msTicks : state->last_sleep_wake;
 500              		.loc 1 428 0 is_stmt 1
 501 0014 0B69     		ldr	r3, [r1, #16]	@ wake, state_8(D)->wake_length
 502              	.LVL45:
 503 0016 9C46     		mov	ip, r3	@ wake, wake
 504              	.LVL46:
 505 0018 06E0     		b	.L49	@
 506              	.LVL47:
 507              	.L42:
 508 001a 264C     		ldr	r4, .L59	@ tmp140,
 509 001c A542     		cmp	r5, r4	@ D.7552, tmp140
 510 001e 33D8     		bhi	.L45	@,
 428:../../lpc11cx4-library/evt_lib/src/ltc6804.c **** 	state->last_sleep_wake = (waking) ? msTicks : state->last_sleep_wake;
 511              		.loc 1 428 0 is_stmt 0 discriminator 2
 512 0020 002B     		cmp	r3, #0	@ force,
 513 0022 F7D1     		bne	.L43	@,
 428:../../lpc11cx4-library/evt_lib/src/ltc6804.c **** 	state->last_sleep_wake = (waking) ? msTicks : state->last_sleep_wake;
 514              		.loc 1 428 0
 515 0024 0233     		add	r3, r3, #2	@ wake,
 516              	.LVL48:
 517 0026 9C46     		mov	ip, r3	@ wake, wake
 518              	.LVL49:
 519              	.L49:
 429:../../lpc11cx4-library/evt_lib/src/ltc6804.c **** 
 520              		.loc 1 429 0 is_stmt 1 discriminator 2
 521 0028 0027     		mov	r7, #0	@ waking,
 522 002a 4B6A     		ldr	r3, [r1, #36]	@ D.7551, state_8(D)->last_sleep_wake
 523              	.L50:
 524 002c 0D1C     		mov	r5, r1	@ state, state
 429:../../lpc11cx4-library/evt_lib/src/ltc6804.c **** 
 525              		.loc 1 429 0 is_stmt 0 discriminator 4
 526 002e 4B62     		str	r3, [r1, #36]	@ D.7551, state_8(D)->last_sleep_wake
 527 0030 161C     		mov	r6, r2	@ msTicks, msTicks
 433:../../lpc11cx4-library/evt_lib/src/ltc6804.c **** 	Chip_GPIO_SetPinState(LPC_GPIO, config->cs_gpio, config->cs_pin, false);
 528              		.loc 1 433 0 is_stmt 1 discriminator 4
 529 0032 EA60     		str	r2, [r5, #12]	@ msTicks, state_8(D)->last_message
 530              	.LVL50:
 531              	.LBB48:
 532              	.LBB49:
 533              		.file 2 "../../lpc11cx4-library/lpc_chip_11cxx_lib/inc/gpio_11xx_2.h"
   1:../../lpc11cx4-library/lpc_chip_11cxx_lib/inc/gpio_11xx_2.h **** /*
   2:../../lpc11cx4-library/lpc_chip_11cxx_lib/inc/gpio_11xx_2.h ****  * @brief LPC11xx GPIO driver for CHIP_LPC11CXX, CHIP_LPC110X, CHIP_LPC11XXLV,
   3:../../lpc11cx4-library/lpc_chip_11cxx_lib/inc/gpio_11xx_2.h ****  * and CHIP_LPC1125 families only.
ARM GAS  /tmp/ccQWJFys.s 			page 20


   4:../../lpc11cx4-library/lpc_chip_11cxx_lib/inc/gpio_11xx_2.h ****  *
   5:../../lpc11cx4-library/lpc_chip_11cxx_lib/inc/gpio_11xx_2.h ****  * @note
   6:../../lpc11cx4-library/lpc_chip_11cxx_lib/inc/gpio_11xx_2.h ****  * Copyright(C) NXP Semiconductors, 2013
   7:../../lpc11cx4-library/lpc_chip_11cxx_lib/inc/gpio_11xx_2.h ****  * All rights reserved.
   8:../../lpc11cx4-library/lpc_chip_11cxx_lib/inc/gpio_11xx_2.h ****  *
   9:../../lpc11cx4-library/lpc_chip_11cxx_lib/inc/gpio_11xx_2.h ****  * @par
  10:../../lpc11cx4-library/lpc_chip_11cxx_lib/inc/gpio_11xx_2.h ****  * Software that is described herein is for illustrative purposes only
  11:../../lpc11cx4-library/lpc_chip_11cxx_lib/inc/gpio_11xx_2.h ****  * which provides customers with programming information regarding the
  12:../../lpc11cx4-library/lpc_chip_11cxx_lib/inc/gpio_11xx_2.h ****  * LPC products.  This software is supplied "AS IS" without any warranties of
  13:../../lpc11cx4-library/lpc_chip_11cxx_lib/inc/gpio_11xx_2.h ****  * any kind, and NXP Semiconductors and its licensor disclaim any and
  14:../../lpc11cx4-library/lpc_chip_11cxx_lib/inc/gpio_11xx_2.h ****  * all warranties, express or implied, including all implied warranties of
  15:../../lpc11cx4-library/lpc_chip_11cxx_lib/inc/gpio_11xx_2.h ****  * merchantability, fitness for a particular purpose and non-infringement of
  16:../../lpc11cx4-library/lpc_chip_11cxx_lib/inc/gpio_11xx_2.h ****  * intellectual property rights.  NXP Semiconductors assumes no responsibility
  17:../../lpc11cx4-library/lpc_chip_11cxx_lib/inc/gpio_11xx_2.h ****  * or liability for the use of the software, conveys no license or rights under any
  18:../../lpc11cx4-library/lpc_chip_11cxx_lib/inc/gpio_11xx_2.h ****  * patent, copyright, mask work right, or any other intellectual property rights in
  19:../../lpc11cx4-library/lpc_chip_11cxx_lib/inc/gpio_11xx_2.h ****  * or to any products. NXP Semiconductors reserves the right to make changes
  20:../../lpc11cx4-library/lpc_chip_11cxx_lib/inc/gpio_11xx_2.h ****  * in the software without notification. NXP Semiconductors also makes no
  21:../../lpc11cx4-library/lpc_chip_11cxx_lib/inc/gpio_11xx_2.h ****  * representation or warranty that such application will be suitable for the
  22:../../lpc11cx4-library/lpc_chip_11cxx_lib/inc/gpio_11xx_2.h ****  * specified use without further testing or modification.
  23:../../lpc11cx4-library/lpc_chip_11cxx_lib/inc/gpio_11xx_2.h ****  *
  24:../../lpc11cx4-library/lpc_chip_11cxx_lib/inc/gpio_11xx_2.h ****  * @par
  25:../../lpc11cx4-library/lpc_chip_11cxx_lib/inc/gpio_11xx_2.h ****  * Permission to use, copy, modify, and distribute this software and its
  26:../../lpc11cx4-library/lpc_chip_11cxx_lib/inc/gpio_11xx_2.h ****  * documentation is hereby granted, under NXP Semiconductors' and its
  27:../../lpc11cx4-library/lpc_chip_11cxx_lib/inc/gpio_11xx_2.h ****  * licensor's relevant copyrights in the software, without fee, provided that it
  28:../../lpc11cx4-library/lpc_chip_11cxx_lib/inc/gpio_11xx_2.h ****  * is used in conjunction with NXP Semiconductors microcontrollers.  This
  29:../../lpc11cx4-library/lpc_chip_11cxx_lib/inc/gpio_11xx_2.h ****  * copyright, permission, and disclaimer notice must appear in all copies of
  30:../../lpc11cx4-library/lpc_chip_11cxx_lib/inc/gpio_11xx_2.h ****  * this code.
  31:../../lpc11cx4-library/lpc_chip_11cxx_lib/inc/gpio_11xx_2.h ****  */
  32:../../lpc11cx4-library/lpc_chip_11cxx_lib/inc/gpio_11xx_2.h **** 
  33:../../lpc11cx4-library/lpc_chip_11cxx_lib/inc/gpio_11xx_2.h **** #ifndef __GPIO_11XX_2_H_
  34:../../lpc11cx4-library/lpc_chip_11cxx_lib/inc/gpio_11xx_2.h **** #define __GPIO_11XX_2_H_
  35:../../lpc11cx4-library/lpc_chip_11cxx_lib/inc/gpio_11xx_2.h **** 
  36:../../lpc11cx4-library/lpc_chip_11cxx_lib/inc/gpio_11xx_2.h **** #ifdef __cplusplus
  37:../../lpc11cx4-library/lpc_chip_11cxx_lib/inc/gpio_11xx_2.h **** extern "C" {
  38:../../lpc11cx4-library/lpc_chip_11cxx_lib/inc/gpio_11xx_2.h **** #endif
  39:../../lpc11cx4-library/lpc_chip_11cxx_lib/inc/gpio_11xx_2.h **** 
  40:../../lpc11cx4-library/lpc_chip_11cxx_lib/inc/gpio_11xx_2.h **** /** @defgroup GPIO_11XX_2 CHIP: LPC11xx GPIO driver for CHIP_LPC11CXX, CHIP_LPC110X, and CHIP_LPC11
  41:../../lpc11cx4-library/lpc_chip_11cxx_lib/inc/gpio_11xx_2.h ****  * @ingroup CHIP_11XX_Drivers
  42:../../lpc11cx4-library/lpc_chip_11cxx_lib/inc/gpio_11xx_2.h ****  * For device familes identified with CHIP definitions CHIP_LPC11CXX,
  43:../../lpc11cx4-library/lpc_chip_11cxx_lib/inc/gpio_11xx_2.h ****  * CHIP_LPC110X, and CHIP_LPC11XXLV only.
  44:../../lpc11cx4-library/lpc_chip_11cxx_lib/inc/gpio_11xx_2.h ****  * @{
  45:../../lpc11cx4-library/lpc_chip_11cxx_lib/inc/gpio_11xx_2.h ****  */
  46:../../lpc11cx4-library/lpc_chip_11cxx_lib/inc/gpio_11xx_2.h **** 
  47:../../lpc11cx4-library/lpc_chip_11cxx_lib/inc/gpio_11xx_2.h **** #if defined(CHIP_LPC11CXX) || defined(CHIP_LPC110X) || defined(CHIP_LPC11XXLV) || defined(CHIP_LPC1
  48:../../lpc11cx4-library/lpc_chip_11cxx_lib/inc/gpio_11xx_2.h **** 
  49:../../lpc11cx4-library/lpc_chip_11cxx_lib/inc/gpio_11xx_2.h **** /**
  50:../../lpc11cx4-library/lpc_chip_11cxx_lib/inc/gpio_11xx_2.h ****  * @brief  GPIO port register block structure
  51:../../lpc11cx4-library/lpc_chip_11cxx_lib/inc/gpio_11xx_2.h ****  */
  52:../../lpc11cx4-library/lpc_chip_11cxx_lib/inc/gpio_11xx_2.h **** typedef struct {				/*!< GPIO_PORT Structure */
  53:../../lpc11cx4-library/lpc_chip_11cxx_lib/inc/gpio_11xx_2.h **** 	__IO uint32_t DATA[4096];			/*!< Offset: 0x0000 to 0x3FFC Data address masking register (R/W) */
  54:../../lpc11cx4-library/lpc_chip_11cxx_lib/inc/gpio_11xx_2.h **** 	uint32_t RESERVED1[4096];
  55:../../lpc11cx4-library/lpc_chip_11cxx_lib/inc/gpio_11xx_2.h **** 	__IO uint32_t DIR;					/*!< Offset: 0x8000 Data direction register (R/W) */
  56:../../lpc11cx4-library/lpc_chip_11cxx_lib/inc/gpio_11xx_2.h **** 	__IO uint32_t IS;					/*!< Offset: 0x8004 Interrupt sense register (R/W) */
  57:../../lpc11cx4-library/lpc_chip_11cxx_lib/inc/gpio_11xx_2.h **** 	__IO uint32_t IBE;					/*!< Offset: 0x8008 Interrupt both edges register (R/W) */
  58:../../lpc11cx4-library/lpc_chip_11cxx_lib/inc/gpio_11xx_2.h **** 	__IO uint32_t IEV;					/*!< Offset: 0x800C Interrupt event register  (R/W) */
  59:../../lpc11cx4-library/lpc_chip_11cxx_lib/inc/gpio_11xx_2.h **** 	__IO uint32_t IE;					/*!< Offset: 0x8010 Interrupt mask register (R/W) */
  60:../../lpc11cx4-library/lpc_chip_11cxx_lib/inc/gpio_11xx_2.h **** 	__I  uint32_t RIS;					/*!< Offset: 0x8014 Raw interrupt status register (R/ ) */
ARM GAS  /tmp/ccQWJFys.s 			page 21


  61:../../lpc11cx4-library/lpc_chip_11cxx_lib/inc/gpio_11xx_2.h **** 	__I  uint32_t MIS;					/*!< Offset: 0x8018 Masked interrupt status register (R/ ) */
  62:../../lpc11cx4-library/lpc_chip_11cxx_lib/inc/gpio_11xx_2.h **** 	__O  uint32_t IC;					/*!< Offset: 0x801C Interrupt clear register (W) */
  63:../../lpc11cx4-library/lpc_chip_11cxx_lib/inc/gpio_11xx_2.h **** 	uint32_t RESERVED2[8184];			/* Padding added for aligning contiguous GPIO blocks */
  64:../../lpc11cx4-library/lpc_chip_11cxx_lib/inc/gpio_11xx_2.h **** } LPC_GPIO_T;
  65:../../lpc11cx4-library/lpc_chip_11cxx_lib/inc/gpio_11xx_2.h **** 
  66:../../lpc11cx4-library/lpc_chip_11cxx_lib/inc/gpio_11xx_2.h **** /**
  67:../../lpc11cx4-library/lpc_chip_11cxx_lib/inc/gpio_11xx_2.h ****  * @brief	Initialize GPIO block
  68:../../lpc11cx4-library/lpc_chip_11cxx_lib/inc/gpio_11xx_2.h ****  * @param	pGPIO	: The base of GPIO peripheral on the chip
  69:../../lpc11cx4-library/lpc_chip_11cxx_lib/inc/gpio_11xx_2.h ****  * @return	Nothing
  70:../../lpc11cx4-library/lpc_chip_11cxx_lib/inc/gpio_11xx_2.h ****  */
  71:../../lpc11cx4-library/lpc_chip_11cxx_lib/inc/gpio_11xx_2.h **** void Chip_GPIO_Init(LPC_GPIO_T *pGPIO);
  72:../../lpc11cx4-library/lpc_chip_11cxx_lib/inc/gpio_11xx_2.h **** 
  73:../../lpc11cx4-library/lpc_chip_11cxx_lib/inc/gpio_11xx_2.h **** /**
  74:../../lpc11cx4-library/lpc_chip_11cxx_lib/inc/gpio_11xx_2.h ****  * @brief	De-Initialize GPIO block
  75:../../lpc11cx4-library/lpc_chip_11cxx_lib/inc/gpio_11xx_2.h ****  * @param	pGPIO	: The base of GPIO peripheral on the chip
  76:../../lpc11cx4-library/lpc_chip_11cxx_lib/inc/gpio_11xx_2.h ****  * @return	Nothing
  77:../../lpc11cx4-library/lpc_chip_11cxx_lib/inc/gpio_11xx_2.h ****  */
  78:../../lpc11cx4-library/lpc_chip_11cxx_lib/inc/gpio_11xx_2.h **** void Chip_GPIO_DeInit(LPC_GPIO_T *pGPIO);
  79:../../lpc11cx4-library/lpc_chip_11cxx_lib/inc/gpio_11xx_2.h **** 
  80:../../lpc11cx4-library/lpc_chip_11cxx_lib/inc/gpio_11xx_2.h **** /**
  81:../../lpc11cx4-library/lpc_chip_11cxx_lib/inc/gpio_11xx_2.h ****  * @brief	Set a GPIO port/bit state
  82:../../lpc11cx4-library/lpc_chip_11cxx_lib/inc/gpio_11xx_2.h ****  * @param	pGPIO	: The base of GPIO peripheral on the chip
  83:../../lpc11cx4-library/lpc_chip_11cxx_lib/inc/gpio_11xx_2.h ****  * @param	port	: GPIO port to set
  84:../../lpc11cx4-library/lpc_chip_11cxx_lib/inc/gpio_11xx_2.h ****  * @param	bit		: GPIO bit to set
  85:../../lpc11cx4-library/lpc_chip_11cxx_lib/inc/gpio_11xx_2.h ****  * @param	setting	: true for high, false for low
  86:../../lpc11cx4-library/lpc_chip_11cxx_lib/inc/gpio_11xx_2.h ****  * @return	Nothing
  87:../../lpc11cx4-library/lpc_chip_11cxx_lib/inc/gpio_11xx_2.h ****  */
  88:../../lpc11cx4-library/lpc_chip_11cxx_lib/inc/gpio_11xx_2.h **** STATIC INLINE void Chip_GPIO_WritePortBit(LPC_GPIO_T *pGPIO, uint32_t port, uint8_t bit, bool setti
  89:../../lpc11cx4-library/lpc_chip_11cxx_lib/inc/gpio_11xx_2.h **** {
  90:../../lpc11cx4-library/lpc_chip_11cxx_lib/inc/gpio_11xx_2.h **** 	pGPIO[port].DATA[1 << bit] = setting << bit;
  91:../../lpc11cx4-library/lpc_chip_11cxx_lib/inc/gpio_11xx_2.h **** }
  92:../../lpc11cx4-library/lpc_chip_11cxx_lib/inc/gpio_11xx_2.h **** 
  93:../../lpc11cx4-library/lpc_chip_11cxx_lib/inc/gpio_11xx_2.h **** /**
  94:../../lpc11cx4-library/lpc_chip_11cxx_lib/inc/gpio_11xx_2.h ****  * @brief	Set a GPIO pin state via the GPIO byte register
  95:../../lpc11cx4-library/lpc_chip_11cxx_lib/inc/gpio_11xx_2.h ****  * @param	pGPIO	: The base of GPIO peripheral on the chip
  96:../../lpc11cx4-library/lpc_chip_11cxx_lib/inc/gpio_11xx_2.h ****  * @param	port	: Port number
  97:../../lpc11cx4-library/lpc_chip_11cxx_lib/inc/gpio_11xx_2.h ****  * @param	pin		: GPIO pin to set
  98:../../lpc11cx4-library/lpc_chip_11cxx_lib/inc/gpio_11xx_2.h ****  * @param	setting	: true for high, false for low
  99:../../lpc11cx4-library/lpc_chip_11cxx_lib/inc/gpio_11xx_2.h ****  * @return	Nothing
 100:../../lpc11cx4-library/lpc_chip_11cxx_lib/inc/gpio_11xx_2.h ****  * @note	This function replaces Chip_GPIO_WritePortBit()
 101:../../lpc11cx4-library/lpc_chip_11cxx_lib/inc/gpio_11xx_2.h ****  */
 102:../../lpc11cx4-library/lpc_chip_11cxx_lib/inc/gpio_11xx_2.h **** STATIC INLINE void Chip_GPIO_SetPinState(LPC_GPIO_T *pGPIO, uint8_t port, uint8_t pin, bool setting
 103:../../lpc11cx4-library/lpc_chip_11cxx_lib/inc/gpio_11xx_2.h **** {
 104:../../lpc11cx4-library/lpc_chip_11cxx_lib/inc/gpio_11xx_2.h **** 	pGPIO[port].DATA[1 << pin] = setting << pin;
 534              		.loc 2 104 0 discriminator 4
 535 0034 A022     		mov	r2, #160	@ tmp162,
 536              	.LVL51:
 537 0036 D205     		lsl	r2, r2, #23	@ tmp162, tmp162,
 538 0038 9046     		mov	r8, r2	@ tmp162, tmp162
 539 003a 0121     		mov	r1, #1	@ tmp144,
 540              	.LVL52:
 541 003c 037A     		ldrb	r3, [r0, #8]	@ D.7554,
 542 003e 427A     		ldrb	r2, [r0, #9]	@ D.7558,
 543 0040 1B04     		lsl	r3, r3, #16	@ D.7554, D.7554,
 544 0042 4344     		add	r3, r3, r8	@ D.7557, tmp162
 545 0044 8846     		mov	r8, r1	@ tmp144, tmp144
 546 0046 9140     		lsl	r1, r1, r2	@ D.7558, D.7558, D.7558
ARM GAS  /tmp/ccQWJFys.s 			page 22


 547 0048 8A00     		lsl	r2, r1, #2	@ tmp145, D.7558,
 548 004a 0021     		mov	r1, #0	@ tmp146,
 549 004c 041C     		mov	r4, r0	@ config, config
 550 004e D150     		str	r1, [r2, r3]	@ tmp146, _33->DATA
 551              	.LVL53:
 552              	.LBE49:
 553              	.LBE48:
 435:../../lpc11cx4-library/evt_lib/src/ltc6804.c **** 	Chip_GPIO_SetPinState(LPC_GPIO, config->cs_gpio, config->cs_pin, true);
 554              		.loc 1 435 0 discriminator 4
 555 0050 0068     		ldr	r0, [r0]	@, config_18(D)->pSSP
 556              	.LVL54:
 557 0052 6246     		mov	r2, ip	@, wake
 558 0054 1849     		ldr	r1, .L59+4	@,
 559 0056 FFF7FEFF 		bl	Chip_SSP_WriteFrames_Blocking	@
 560              	.LVL55:
 561              	.LBB50:
 562              	.LBB51:
 563              		.loc 2 104 0 discriminator 4
 564 005a A022     		mov	r2, #160	@ tmp166,
 565 005c 4146     		mov	r1, r8	@ D.7558, tmp144
 566 005e D205     		lsl	r2, r2, #23	@ tmp166, tmp166,
 567 0060 9446     		mov	ip, r2	@ tmp166, tmp166
 568 0062 627A     		ldrb	r2, [r4, #9]	@ D.7558,
 569 0064 237A     		ldrb	r3, [r4, #8]	@ D.7554,
 570 0066 9140     		lsl	r1, r1, r2	@ D.7558, D.7558, D.7558
 571 0068 0A1C     		mov	r2, r1	@ D.7558, D.7558
 572 006a 1B04     		lsl	r3, r3, #16	@ D.7554, D.7554,
 573 006c 6344     		add	r3, r3, ip	@ D.7557, tmp166
 574 006e 8900     		lsl	r1, r1, #2	@ tmp153, D.7558,
 575              	.LBE51:
 576              	.LBE50:
 435:../../lpc11cx4-library/evt_lib/src/ltc6804.c **** 	Chip_GPIO_SetPinState(LPC_GPIO, config->cs_gpio, config->cs_pin, true);
 577              		.loc 1 435 0 discriminator 4
 578 0070 8146     		mov	r9, r0	@ res,
 579              	.LVL56:
 580              	.LBB53:
 581              	.LBB52:
 582              		.loc 2 104 0 discriminator 4
 583 0072 CA50     		str	r2, [r1, r3]	@ D.7558, _37->DATA
 584              	.LVL57:
 585              	.LBE52:
 586              	.LBE53:
 439:../../lpc11cx4-library/evt_lib/src/ltc6804.c **** 	if (waking && state->balancing) _set_balance_states(config, state, msTicks);
 587              		.loc 1 439 0 discriminator 4
 588 0074 002F     		cmp	r7, #0	@ waking,
 589 0076 0ED1     		bne	.L58	@,
 590              	.LVL58:
 591              	.L47:
 442:../../lpc11cx4-library/evt_lib/src/ltc6804.c **** 	return LTC6804_PASS;
 592              		.loc 1 442 0
 593 0078 4B46     		mov	r3, r9	@ res, res
 594 007a 0320     		mov	r0, #3	@ D.7550,
 595 007c 002B     		cmp	r3, #0	@ res,
 596 007e 08D1     		bne	.L57	@,
 597              	.LVL59:
 598              	.L54:
 444:../../lpc11cx4-library/evt_lib/src/ltc6804.c **** 
ARM GAS  /tmp/ccQWJFys.s 			page 23


 599              		.loc 1 444 0
 600              		@ sp needed	@
 601 0080 0CBC     		pop	{r2, r3}
 602 0082 9046     		mov	r8, r2
 603 0084 9946     		mov	r9, r3
 604 0086 F8BD     		pop	{r3, r4, r5, r6, r7, pc}
 605              	.LVL60:
 606              	.L45:
 428:../../lpc11cx4-library/evt_lib/src/ltc6804.c **** 	state->last_sleep_wake = (waking) ? msTicks : state->last_sleep_wake;
 607              		.loc 1 428 0
 608 0088 0B69     		ldr	r3, [r1, #16]	@ wake, state_8(D)->wake_length
 609              	.LVL61:
 610 008a 0127     		mov	r7, #1	@ waking,
 611 008c 9C46     		mov	ip, r3	@ wake, wake
 612              	.LVL62:
 429:../../lpc11cx4-library/evt_lib/src/ltc6804.c **** 
 613              		.loc 1 429 0
 614 008e 131C     		mov	r3, r2	@ D.7551, msTicks
 615              	.LVL63:
 616 0090 CCE7     		b	.L50	@
 617              	.LVL64:
 618              	.L57:
 422:../../lpc11cx4-library/evt_lib/src/ltc6804.c **** 
 619              		.loc 1 422 0
 620 0092 0120     		mov	r0, #1	@ D.7550,
 621 0094 F4E7     		b	.L54	@
 622              	.LVL65:
 623              	.L58:
 439:../../lpc11cx4-library/evt_lib/src/ltc6804.c **** 	if (waking && state->balancing) _set_balance_states(config, state, msTicks);
 624              		.loc 1 439 0 discriminator 1
 625 0096 201C     		mov	r0, r4	@, config
 626              	.LVL66:
 627 0098 291C     		mov	r1, r5	@, state
 628 009a 321C     		mov	r2, r6	@, msTicks
 629 009c FFF7FEFF 		bl	LTC6804_WriteCFG	@
 630              	.LVL67:
 440:../../lpc11cx4-library/evt_lib/src/ltc6804.c **** 
 631              		.loc 1 440 0 discriminator 1
 632 00a0 2823     		mov	r3, #40	@ tmp154,
 633 00a2 EB5C     		ldrb	r3, [r5, r3]	@ tmp155,
 634 00a4 002B     		cmp	r3, #0	@ tmp155,
 635 00a6 E7D0     		beq	.L47	@,
 440:../../lpc11cx4-library/evt_lib/src/ltc6804.c **** 
 636              		.loc 1 440 0 is_stmt 0 discriminator 2
 637 00a8 201C     		mov	r0, r4	@, config
 638 00aa 291C     		mov	r1, r5	@, state
 639 00ac 321C     		mov	r2, r6	@, msTicks
 640 00ae FFF7FEFF 		bl	_set_balance_states	@
 641              	.LVL68:
 642 00b2 E1E7     		b	.L47	@
 643              	.L60:
 644              		.align	2
 645              	.L59:
 646 00b4 07070000 		.word	1799
 647 00b8 00000000 		.word	.LANCHOR1
 648              		.cfi_endproc
 649              	.LFE210:
ARM GAS  /tmp/ccQWJFys.s 			page 24


 650              		.size	_wake, .-_wake
 651              		.section	.text._command,"ax",%progbits
 652              		.align	2
 653              		.global	_command
 654              		.code	16
 655              		.thumb_func
 656              		.type	_command, %function
 657              	_command:
 658              	.LFB207:
 349:../../lpc11cx4-library/evt_lib/src/ltc6804.c **** 	_wake(config, state, msTicks, false);
 659              		.loc 1 349 0 is_stmt 1
 660              		.cfi_startproc
 661              	.LVL69:
 662 0000 F8B5     		push	{r3, r4, r5, r6, r7, lr}	@
 663              		.cfi_def_cfa_offset 24
 664              		.cfi_offset 3, -24
 665              		.cfi_offset 4, -20
 666              		.cfi_offset 5, -16
 667              		.cfi_offset 6, -12
 668              		.cfi_offset 7, -8
 669              		.cfi_offset 14, -4
 349:../../lpc11cx4-library/evt_lib/src/ltc6804.c **** 	_wake(config, state, msTicks, false);
 670              		.loc 1 349 0
 671 0002 0C1C     		mov	r4, r1	@ state, state
 672 0004 171C     		mov	r7, r2	@ cmd, cmd
 673 0006 1E1C     		mov	r6, r3	@ msTicks, msTicks
 350:../../lpc11cx4-library/evt_lib/src/ltc6804.c **** 
 674              		.loc 1 350 0
 675 0008 1A1C     		mov	r2, r3	@, msTicks
 676              	.LVL70:
 677 000a 0023     		mov	r3, #0	@,
 678              	.LVL71:
 349:../../lpc11cx4-library/evt_lib/src/ltc6804.c **** 	_wake(config, state, msTicks, false);
 679              		.loc 1 349 0
 680 000c 051C     		mov	r5, r0	@ config, config
 350:../../lpc11cx4-library/evt_lib/src/ltc6804.c **** 
 681              		.loc 1 350 0
 682 000e FFF7FEFF 		bl	_wake	@
 683              	.LVL72:
 684              	.LBB54:
 685              	.LBB55:
 493:../../lpc11cx4-library/evt_lib/src/ltc6804.c **** 	}
 686              		.loc 1 493 0
 687 0012 8021     		mov	r1, #128	@ tmp171,
 688              	.LBE55:
 689              	.LBE54:
 352:../../lpc11cx4-library/evt_lib/src/ltc6804.c **** 	state->tx_buf[1] = cmd & 0xFF;
 690              		.loc 1 352 0
 691 0014 6268     		ldr	r2, [r4, #4]	@ tmp209, state_4(D)->tx_buf
 692 0016 3B0A     		lsr	r3, r7, #8	@ tmp161, cmd,
 693 0018 1370     		strb	r3, [r2]	@ tmp161, *_7
 353:../../lpc11cx4-library/evt_lib/src/ltc6804.c **** 	uint16_t pec = _calculate_pec(state->tx_buf, 2);
 694              		.loc 1 353 0
 695 001a 6368     		ldr	r3, [r4, #4]	@ tmp210, state_4(D)->tx_buf
 696              	.LBB58:
 697              	.LBB56:
 493:../../lpc11cx4-library/evt_lib/src/ltc6804.c **** 	}
ARM GAS  /tmp/ccQWJFys.s 			page 25


 698              		.loc 1 493 0
 699 001c 1D48     		ldr	r0, .L66	@ tmp166,
 700              	.LBE56:
 701              	.LBE58:
 353:../../lpc11cx4-library/evt_lib/src/ltc6804.c **** 	uint16_t pec = _calculate_pec(state->tx_buf, 2);
 702              		.loc 1 353 0
 703 001e 5F70     		strb	r7, [r3, #1]	@ cmd, MEM[(uint8_t *)_12 + 1B]
 354:../../lpc11cx4-library/evt_lib/src/ltc6804.c **** 	state->tx_buf[2] = pec >> 8;
 704              		.loc 1 354 0
 705 0020 6268     		ldr	r2, [r4, #4]	@ D.7563, state_4(D)->tx_buf
 706              	.LVL73:
 707              	.LBB59:
 708              	.LBB57:
 493:../../lpc11cx4-library/evt_lib/src/ltc6804.c **** 	}
 709              		.loc 1 493 0
 710 0022 4901     		lsl	r1, r1, #5	@ tmp171, tmp171,
 492:../../lpc11cx4-library/evt_lib/src/ltc6804.c **** 		remainder = (remainder<<8)^crc15Table[addr];
 711              		.loc 1 492 0
 712 0024 1378     		ldrb	r3, [r2]	@ addr, *_15
 713              	.LVL74:
 714 0026 5778     		ldrb	r7, [r2, #1]	@ MEM[(uint8_t *)_15 + 1B], MEM[(uint8_t *)_15 + 1B]
 493:../../lpc11cx4-library/evt_lib/src/ltc6804.c **** 	}
 715              		.loc 1 493 0
 716 0028 9B00     		lsl	r3, r3, #2	@ tmp167, addr,
 717              	.LVL75:
 718 002a C35A     		ldrh	r3, [r0, r3]	@ tmp170, crc15Table
 719 002c 4B40     		eor	r3, r1	@ remainder, tmp171
 720              	.LVL76:
 721 002e 1902     		lsl	r1, r3, #8	@ tmp172, remainder,
 492:../../lpc11cx4-library/evt_lib/src/ltc6804.c **** 		remainder = (remainder<<8)^crc15Table[addr];
 722              		.loc 1 492 0
 723 0030 DB09     		lsr	r3, r3, #7	@ tmp174, remainder,
 724              	.LVL77:
 725 0032 7B40     		eor	r3, r7	@ tmp178, MEM[(uint8_t *)_15 + 1B]
 493:../../lpc11cx4-library/evt_lib/src/ltc6804.c **** 	}
 726              		.loc 1 493 0
 727 0034 FF27     		mov	r7, #255	@ tmp183,
 728 0036 3B40     		and	r3, r7	@ D.7569, tmp183
 729 0038 9B00     		lsl	r3, r3, #2	@ tmp185, D.7569,
 730 003a C35A     		ldrh	r3, [r0, r3]	@ D.7564, crc15Table
 731              	.LVL78:
 732 003c 89B2     		uxth	r1, r1	@ D.7564, tmp172
 733              	.LVL79:
 734 003e 4B40     		eor	r3, r1	@ tmp188, D.7564
 735              	.LVL80:
 736              		.loc 1 495 0
 737 0040 5B00     		lsl	r3, r3, #1	@ tmp190, tmp188,
 738 0042 9BB2     		uxth	r3, r3	@ D.7570, tmp190
 739              	.LBE57:
 740              	.LBE59:
 355:../../lpc11cx4-library/evt_lib/src/ltc6804.c **** 	state->tx_buf[3] = pec & 0xFF;
 741              		.loc 1 355 0
 742 0044 190A     		lsr	r1, r3, #8	@ tmp191, D.7570,
 743              	.LVL81:
 744 0046 9170     		strb	r1, [r2, #2]	@ tmp191, MEM[(uint8_t *)_15 + 2B]
 745              	.LVL82:
 356:../../lpc11cx4-library/evt_lib/src/ltc6804.c **** 
ARM GAS  /tmp/ccQWJFys.s 			page 26


 746              		.loc 1 356 0
 747 0048 6268     		ldr	r2, [r4, #4]	@ tmp211, state_4(D)->tx_buf
 748              	.LVL83:
 749 004a D370     		strb	r3, [r2, #3]	@ D.7570, MEM[(uint8_t *)_19 + 3B]
 358:../../lpc11cx4-library/evt_lib/src/ltc6804.c **** 	Chip_GPIO_SetPinState(LPC_GPIO, config->cs_gpio, config->cs_pin, false);
 750              		.loc 1 358 0
 751 004c E660     		str	r6, [r4, #12]	@ msTicks, state_4(D)->last_message
 752              	.LVL84:
 753              	.LBB60:
 754              	.LBB61:
 755              		.loc 2 104 0
 756 004e 0126     		mov	r6, #1	@ tmp197,
 757              	.LVL85:
 758 0050 A022     		mov	r2, #160	@ tmp212,
 759 0052 311C     		mov	r1, r6	@ D.7569, tmp197
 760 0054 D205     		lsl	r2, r2, #23	@ tmp212, tmp212,
 761 0056 9446     		mov	ip, r2	@ tmp212, tmp212
 762 0058 6A7A     		ldrb	r2, [r5, #9]	@ D.7569,
 763 005a 2B7A     		ldrb	r3, [r5, #8]	@ D.7566,
 764 005c 9140     		lsl	r1, r1, r2	@ D.7569, D.7569, D.7569
 765 005e 8A00     		lsl	r2, r1, #2	@ tmp198, D.7569,
 766 0060 0021     		mov	r1, #0	@ tmp199,
 767 0062 1B04     		lsl	r3, r3, #16	@ D.7566, D.7566,
 768 0064 6344     		add	r3, r3, ip	@ D.7571, tmp212
 769 0066 D150     		str	r1, [r2, r3]	@ tmp199, _50->DATA
 770              	.LVL86:
 771              	.LBE61:
 772              	.LBE60:
 360:../../lpc11cx4-library/evt_lib/src/ltc6804.c **** 	Chip_GPIO_SetPinState(LPC_GPIO, config->cs_gpio, config->cs_pin, true);
 773              		.loc 1 360 0
 774 0068 2868     		ldr	r0, [r5]	@, config_3(D)->pSSP
 775 006a 0422     		mov	r2, #4	@,
 776 006c 6168     		ldr	r1, [r4, #4]	@ state_4(D)->tx_buf, state_4(D)->tx_buf
 777 006e FFF7FEFF 		bl	Chip_SSP_WriteFrames_Blocking	@
 778              	.LVL87:
 779              	.LBB62:
 780              	.LBB63:
 781              		.loc 2 104 0
 782 0072 A022     		mov	r2, #160	@ tmp215,
 783 0074 D205     		lsl	r2, r2, #23	@ tmp215, tmp215,
 784 0076 9446     		mov	ip, r2	@ tmp215, tmp215
 785 0078 6A7A     		ldrb	r2, [r5, #9]	@ D.7569,
 786 007a 2B7A     		ldrb	r3, [r5, #8]	@ D.7566,
 787 007c 9640     		lsl	r6, r6, r2	@ D.7569, tmp197, D.7569
 788 007e 1B04     		lsl	r3, r3, #16	@ D.7566, D.7566,
 789 0080 6344     		add	r3, r3, ip	@ D.7571, tmp215
 790 0082 B200     		lsl	r2, r6, #2	@ tmp206, D.7569,
 791 0084 D650     		str	r6, [r2, r3]	@ D.7569, _54->DATA
 792              	.LVL88:
 793              	.LBE63:
 794              	.LBE62:
 363:../../lpc11cx4-library/evt_lib/src/ltc6804.c **** 	return LTC6804_PASS;
 795              		.loc 1 363 0
 796 0086 0323     		mov	r3, #3	@ D.7562,
 797 0088 0028     		cmp	r0, #0	@ res,
 798 008a 01D1     		bne	.L65	@,
 799              	.L62:
ARM GAS  /tmp/ccQWJFys.s 			page 27


 365:../../lpc11cx4-library/evt_lib/src/ltc6804.c **** 
 800              		.loc 1 365 0
 801 008c 181C     		mov	r0, r3	@, D.7562
 802              	.LVL89:
 803              		@ sp needed	@
 804              	.LVL90:
 805              	.LVL91:
 806 008e F8BD     		pop	{r3, r4, r5, r6, r7, pc}
 807              	.LVL92:
 808              	.L65:
 364:../../lpc11cx4-library/evt_lib/src/ltc6804.c **** }
 809              		.loc 1 364 0
 810 0090 023B     		sub	r3, r3, #2	@ D.7562,
 811 0092 FBE7     		b	.L62	@
 812              	.L67:
 813              		.align	2
 814              	.L66:
 815 0094 00000000 		.word	.LANCHOR0
 816              		.cfi_endproc
 817              	.LFE207:
 818              		.size	_command, .-_command
 819              		.section	.text.LTC6804_ClearCellVoltages,"ax",%progbits
 820              		.align	2
 821              		.global	LTC6804_ClearCellVoltages
 822              		.code	16
 823              		.thumb_func
 824              		.type	LTC6804_ClearCellVoltages, %function
 825              	LTC6804_ClearCellVoltages:
 826              	.LFB206:
 342:../../lpc11cx4-library/evt_lib/src/ltc6804.c **** 	return _command(config, state, CLRCELL, msTicks);
 827              		.loc 1 342 0
 828              		.cfi_startproc
 829              	.LVL93:
 830 0000 08B5     		push	{r3, lr}	@
 831              		.cfi_def_cfa_offset 8
 832              		.cfi_offset 3, -8
 833              		.cfi_offset 14, -4
 342:../../lpc11cx4-library/evt_lib/src/ltc6804.c **** 	return _command(config, state, CLRCELL, msTicks);
 834              		.loc 1 342 0
 835 0002 131C     		mov	r3, r2	@ msTicks, msTicks
 343:../../lpc11cx4-library/evt_lib/src/ltc6804.c **** }
 836              		.loc 1 343 0
 837 0004 014A     		ldr	r2, .L69	@,
 838              	.LVL94:
 839 0006 FFF7FEFF 		bl	_command	@
 840              	.LVL95:
 344:../../lpc11cx4-library/evt_lib/src/ltc6804.c **** /***************************************
 841              		.loc 1 344 0
 842              		@ sp needed	@
 843 000a 08BD     		pop	{r3, pc}
 844              	.L70:
 845              		.align	2
 846              	.L69:
 847 000c 11070000 		.word	1809
 848              		.cfi_endproc
 849              	.LFE206:
 850              		.size	LTC6804_ClearCellVoltages, .-LTC6804_ClearCellVoltages
ARM GAS  /tmp/ccQWJFys.s 			page 28


 851              		.section	.text._write,"ax",%progbits
 852              		.align	2
 853              		.global	_write
 854              		.code	16
 855              		.thumb_func
 856              		.type	_write, %function
 857              	_write:
 858              	.LFB208:
 367:../../lpc11cx4-library/evt_lib/src/ltc6804.c **** 	_wake(config, state, msTicks, false);
 859              		.loc 1 367 0
 860              		.cfi_startproc
 861              	.LVL96:
 862 0000 F8B5     		push	{r3, r4, r5, r6, r7, lr}	@
 863              		.cfi_def_cfa_offset 24
 864              		.cfi_offset 3, -24
 865              		.cfi_offset 4, -20
 866              		.cfi_offset 5, -16
 867              		.cfi_offset 6, -12
 868              		.cfi_offset 7, -8
 869              		.cfi_offset 14, -4
 367:../../lpc11cx4-library/evt_lib/src/ltc6804.c **** 	_wake(config, state, msTicks, false);
 870              		.loc 1 367 0
 871 0002 0D1C     		mov	r5, r1	@ state, state
 872 0004 171C     		mov	r7, r2	@ cmd, cmd
 873 0006 1E1C     		mov	r6, r3	@ msTicks, msTicks
 368:../../lpc11cx4-library/evt_lib/src/ltc6804.c **** 
 874              		.loc 1 368 0
 875 0008 1A1C     		mov	r2, r3	@, msTicks
 876              	.LVL97:
 877 000a 0023     		mov	r3, #0	@,
 878              	.LVL98:
 367:../../lpc11cx4-library/evt_lib/src/ltc6804.c **** 	_wake(config, state, msTicks, false);
 879              		.loc 1 367 0
 880 000c 041C     		mov	r4, r0	@ config, config
 368:../../lpc11cx4-library/evt_lib/src/ltc6804.c **** 
 881              		.loc 1 368 0
 882 000e FFF7FEFF 		bl	_wake	@
 883              	.LVL99:
 884              	.LBB64:
 885              	.LBB65:
 493:../../lpc11cx4-library/evt_lib/src/ltc6804.c **** 	}
 886              		.loc 1 493 0
 887 0012 8021     		mov	r1, #128	@ tmp176,
 888              	.LBE65:
 889              	.LBE64:
 370:../../lpc11cx4-library/evt_lib/src/ltc6804.c **** 	state->tx_buf[1] = cmd & 0xFF;
 890              		.loc 1 370 0
 891 0014 6A68     		ldr	r2, [r5, #4]	@ tmp217, state_4(D)->tx_buf
 892 0016 3B0A     		lsr	r3, r7, #8	@ tmp166, cmd,
 893 0018 1370     		strb	r3, [r2]	@ tmp166, *_7
 371:../../lpc11cx4-library/evt_lib/src/ltc6804.c **** 	uint16_t pec = _calculate_pec(state->tx_buf, 2);
 894              		.loc 1 371 0
 895 001a 6B68     		ldr	r3, [r5, #4]	@ tmp218, state_4(D)->tx_buf
 896              	.LBB68:
 897              	.LBB66:
 493:../../lpc11cx4-library/evt_lib/src/ltc6804.c **** 	}
 898              		.loc 1 493 0
ARM GAS  /tmp/ccQWJFys.s 			page 29


 899 001c 1E48     		ldr	r0, .L76	@ tmp171,
 900              	.LBE66:
 901              	.LBE68:
 371:../../lpc11cx4-library/evt_lib/src/ltc6804.c **** 	uint16_t pec = _calculate_pec(state->tx_buf, 2);
 902              		.loc 1 371 0
 903 001e 5F70     		strb	r7, [r3, #1]	@ cmd, MEM[(uint8_t *)_12 + 1B]
 372:../../lpc11cx4-library/evt_lib/src/ltc6804.c **** 	state->tx_buf[2] = pec >> 8;
 904              		.loc 1 372 0
 905 0020 6A68     		ldr	r2, [r5, #4]	@ D.7580, state_4(D)->tx_buf
 906              	.LVL100:
 907              	.LBB69:
 908              	.LBB67:
 493:../../lpc11cx4-library/evt_lib/src/ltc6804.c **** 	}
 909              		.loc 1 493 0
 910 0022 4901     		lsl	r1, r1, #5	@ tmp176, tmp176,
 492:../../lpc11cx4-library/evt_lib/src/ltc6804.c **** 		remainder = (remainder<<8)^crc15Table[addr];
 911              		.loc 1 492 0
 912 0024 1378     		ldrb	r3, [r2]	@ addr, *_15
 913              	.LVL101:
 914 0026 5778     		ldrb	r7, [r2, #1]	@ MEM[(uint8_t *)_15 + 1B], MEM[(uint8_t *)_15 + 1B]
 493:../../lpc11cx4-library/evt_lib/src/ltc6804.c **** 	}
 915              		.loc 1 493 0
 916 0028 9B00     		lsl	r3, r3, #2	@ tmp172, addr,
 917              	.LVL102:
 918 002a C35A     		ldrh	r3, [r0, r3]	@ tmp175, crc15Table
 919 002c 4B40     		eor	r3, r1	@ remainder, tmp176
 920              	.LVL103:
 921 002e 1902     		lsl	r1, r3, #8	@ tmp177, remainder,
 492:../../lpc11cx4-library/evt_lib/src/ltc6804.c **** 		remainder = (remainder<<8)^crc15Table[addr];
 922              		.loc 1 492 0
 923 0030 DB09     		lsr	r3, r3, #7	@ tmp179, remainder,
 924              	.LVL104:
 925 0032 7B40     		eor	r3, r7	@ tmp183, MEM[(uint8_t *)_15 + 1B]
 493:../../lpc11cx4-library/evt_lib/src/ltc6804.c **** 	}
 926              		.loc 1 493 0
 927 0034 FF27     		mov	r7, #255	@ tmp188,
 928 0036 3B40     		and	r3, r7	@ D.7585, tmp188
 929 0038 9B00     		lsl	r3, r3, #2	@ tmp190, D.7585,
 930 003a C35A     		ldrh	r3, [r0, r3]	@ D.7581, crc15Table
 931              	.LVL105:
 932 003c 89B2     		uxth	r1, r1	@ D.7581, tmp177
 933              	.LVL106:
 934 003e 4B40     		eor	r3, r1	@ tmp193, D.7581
 935              	.LVL107:
 936              		.loc 1 495 0
 937 0040 5B00     		lsl	r3, r3, #1	@ tmp195, tmp193,
 938 0042 9BB2     		uxth	r3, r3	@ D.7588, tmp195
 939              	.LBE67:
 940              	.LBE69:
 373:../../lpc11cx4-library/evt_lib/src/ltc6804.c **** 	state->tx_buf[3] = pec & 0xFF;
 941              		.loc 1 373 0
 942 0044 190A     		lsr	r1, r3, #8	@ tmp196, D.7588,
 943              	.LVL108:
 944 0046 9170     		strb	r1, [r2, #2]	@ tmp196, MEM[(uint8_t *)_15 + 2B]
 945              	.LVL109:
 374:../../lpc11cx4-library/evt_lib/src/ltc6804.c **** 
 946              		.loc 1 374 0
ARM GAS  /tmp/ccQWJFys.s 			page 30


 947 0048 6A68     		ldr	r2, [r5, #4]	@ tmp219, state_4(D)->tx_buf
 948              	.LVL110:
 949 004a D370     		strb	r3, [r2, #3]	@ D.7588, MEM[(uint8_t *)_19 + 3B]
 376:../../lpc11cx4-library/evt_lib/src/ltc6804.c **** 	Chip_GPIO_SetPinState(LPC_GPIO, config->cs_gpio, config->cs_pin, false);
 950              		.loc 1 376 0
 951 004c EE60     		str	r6, [r5, #12]	@ msTicks, state_4(D)->last_message
 952              	.LVL111:
 953              	.LBB70:
 954              	.LBB71:
 955              		.loc 2 104 0
 956 004e 0126     		mov	r6, #1	@ tmp202,
 957              	.LVL112:
 958 0050 A022     		mov	r2, #160	@ tmp220,
 959 0052 311C     		mov	r1, r6	@ D.7585, tmp202
 960 0054 D205     		lsl	r2, r2, #23	@ tmp220, tmp220,
 961 0056 9446     		mov	ip, r2	@ tmp220, tmp220
 962 0058 627A     		ldrb	r2, [r4, #9]	@ D.7585,
 963 005a 237A     		ldrb	r3, [r4, #8]	@ D.7583,
 964 005c 9140     		lsl	r1, r1, r2	@ D.7585, D.7585, D.7585
 965 005e 8A00     		lsl	r2, r1, #2	@ tmp203, D.7585,
 966 0060 0021     		mov	r1, #0	@ tmp204,
 967 0062 1B04     		lsl	r3, r3, #16	@ D.7583, D.7583,
 968 0064 6344     		add	r3, r3, ip	@ D.7589, tmp220
 969 0066 D150     		str	r1, [r2, r3]	@ tmp204, _55->DATA
 970              	.LVL113:
 971              	.LBE71:
 972              	.LBE70:
 378:../../lpc11cx4-library/evt_lib/src/ltc6804.c **** 	Chip_GPIO_SetPinState(LPC_GPIO, config->cs_gpio, config->cs_pin, true);
 973              		.loc 1 378 0
 974 0068 A27A     		ldrb	r2, [r4, #10]	@ D.7585,
 975 006a 6968     		ldr	r1, [r5, #4]	@ state_4(D)->tx_buf, state_4(D)->tx_buf
 976 006c D200     		lsl	r2, r2, #3	@ D.7585, D.7585,
 977 006e 0432     		add	r2, r2, #4	@ D.7585,
 978 0070 2068     		ldr	r0, [r4]	@, config_3(D)->pSSP
 979 0072 FFF7FEFF 		bl	Chip_SSP_WriteFrames_Blocking	@
 980              	.LVL114:
 981              	.LBB72:
 982              	.LBB73:
 983              		.loc 2 104 0
 984 0076 A022     		mov	r2, #160	@ tmp223,
 985 0078 D205     		lsl	r2, r2, #23	@ tmp223, tmp223,
 986 007a 9446     		mov	ip, r2	@ tmp223, tmp223
 987 007c 627A     		ldrb	r2, [r4, #9]	@ D.7585,
 988 007e 237A     		ldrb	r3, [r4, #8]	@ D.7583,
 989 0080 9640     		lsl	r6, r6, r2	@ D.7585, tmp202, D.7585
 990 0082 1B04     		lsl	r3, r3, #16	@ D.7583, D.7583,
 991 0084 6344     		add	r3, r3, ip	@ D.7589, tmp223
 992 0086 B200     		lsl	r2, r6, #2	@ tmp214, D.7585,
 993 0088 D650     		str	r6, [r2, r3]	@ D.7585, _59->DATA
 994              	.LVL115:
 995              	.LBE73:
 996              	.LBE72:
 381:../../lpc11cx4-library/evt_lib/src/ltc6804.c **** 	return LTC6804_PASS;
 997              		.loc 1 381 0
 998 008a 0323     		mov	r3, #3	@ D.7579,
 999 008c 0028     		cmp	r0, #0	@ res,
 1000 008e 01D1     		bne	.L75	@,
ARM GAS  /tmp/ccQWJFys.s 			page 31


 1001              	.L72:
 383:../../lpc11cx4-library/evt_lib/src/ltc6804.c **** 
 1002              		.loc 1 383 0
 1003 0090 181C     		mov	r0, r3	@, D.7579
 1004              	.LVL116:
 1005              		@ sp needed	@
 1006              	.LVL117:
 1007              	.LVL118:
 1008 0092 F8BD     		pop	{r3, r4, r5, r6, r7, pc}
 1009              	.LVL119:
 1010              	.L75:
 382:../../lpc11cx4-library/evt_lib/src/ltc6804.c **** }
 1011              		.loc 1 382 0
 1012 0094 023B     		sub	r3, r3, #2	@ D.7579,
 1013 0096 FBE7     		b	.L72	@
 1014              	.L77:
 1015              		.align	2
 1016              	.L76:
 1017 0098 00000000 		.word	.LANCHOR0
 1018              		.cfi_endproc
 1019              	.LFE208:
 1020              		.size	_write, .-_write
 1021              		.section	.text.LTC6804_WriteCFG,"ax",%progbits
 1022              		.align	2
 1023              		.global	LTC6804_WriteCFG
 1024              		.code	16
 1025              		.thumb_func
 1026              		.type	LTC6804_WriteCFG, %function
 1027              	LTC6804_WriteCFG:
 1028              	.LFB200:
  85:../../lpc11cx4-library/evt_lib/src/ltc6804.c **** 	memcpy(state->tx_buf+4, state->cfg, 6);
 1029              		.loc 1 85 0
 1030              		.cfi_startproc
 1031              	.LVL120:
 1032 0000 F8B5     		push	{r3, r4, r5, r6, r7, lr}	@
 1033              		.cfi_def_cfa_offset 24
 1034              		.cfi_offset 3, -24
 1035              		.cfi_offset 4, -20
 1036              		.cfi_offset 5, -16
 1037              		.cfi_offset 6, -12
 1038              		.cfi_offset 7, -8
 1039              		.cfi_offset 14, -4
 1040 0002 4F46     		mov	r7, r9	@,
 1041 0004 4646     		mov	r6, r8	@,
 1042 0006 0C1C     		mov	r4, r1	@ state, state
  86:../../lpc11cx4-library/evt_lib/src/ltc6804.c **** 	uint16_t pec = _calculate_pec(state->tx_buf+4, 6);
 1043              		.loc 1 86 0
 1044 0008 4B68     		ldr	r3, [r1, #4]	@ tmp206, state_4(D)->tx_buf
  85:../../lpc11cx4-library/evt_lib/src/ltc6804.c **** 	memcpy(state->tx_buf+4, state->cfg, 6);
 1045              		.loc 1 85 0
 1046 000a C0B4     		push	{r6, r7}	@
 1047              		.cfi_def_cfa_offset 32
 1048              		.cfi_offset 8, -32
 1049              		.cfi_offset 9, -28
  85:../../lpc11cx4-library/evt_lib/src/ltc6804.c **** 	memcpy(state->tx_buf+4, state->cfg, 6);
 1050              		.loc 1 85 0
 1051 000c 051C     		mov	r5, r0	@ config, config
ARM GAS  /tmp/ccQWJFys.s 			page 32


 1052 000e 9046     		mov	r8, r2	@ msTicks, msTicks
  86:../../lpc11cx4-library/evt_lib/src/ltc6804.c **** 	uint16_t pec = _calculate_pec(state->tx_buf+4, 6);
 1053              		.loc 1 86 0
 1054 0010 181D     		add	r0, r3, #4	@ D.7606, tmp206,
 1055              	.LVL121:
 1056 0012 0622     		mov	r2, #6	@,
 1057              	.LVL122:
 1058 0014 4969     		ldr	r1, [r1, #20]	@, state_4(D)->cfg
 1059              	.LVL123:
 1060 0016 FFF7FEFF 		bl	memcpy	@
 1061              	.LVL124:
  87:../../lpc11cx4-library/evt_lib/src/ltc6804.c **** 	state->tx_buf[10] = pec >> 8;
 1062              		.loc 1 87 0
 1063 001a 6368     		ldr	r3, [r4, #4]	@ D.7605, state_4(D)->tx_buf
 1064              	.LBB74:
 1065              	.LBB75:
 492:../../lpc11cx4-library/evt_lib/src/ltc6804.c **** 		remainder = (remainder<<8)^crc15Table[addr];
 1066              		.loc 1 492 0
 1067 001c FF20     		mov	r0, #255	@ tmp205,
 1068              	.LBE75:
 1069              	.LBE74:
  87:../../lpc11cx4-library/evt_lib/src/ltc6804.c **** 	state->tx_buf[10] = pec >> 8;
 1070              		.loc 1 87 0
 1071 001e 9946     		mov	r9, r3	@ D.7605, D.7605
 1072              	.LVL125:
 1073 0020 1A1D     		add	r2, r3, #4	@ ivtmp.86, D.7605,
 1074              	.LVL126:
 1075 0022 0A23     		mov	r3, #10	@ D.7615,
 1076 0024 4B44     		add	r3, r3, r9	@ D.7615, D.7605
 1077 0026 9C46     		mov	ip, r3	@ D.7615, D.7615
 1078              	.LBB78:
 1079              	.LBB76:
 488:../../lpc11cx4-library/evt_lib/src/ltc6804.c **** 	uint8_t i;
 1080              		.loc 1 488 0
 1081 0028 1023     		mov	r3, #16	@ remainder,
 1082 002a 174F     		ldr	r7, .L87	@ tmp204,
 1083              	.LVL127:
 1084              	.L79:
 492:../../lpc11cx4-library/evt_lib/src/ltc6804.c **** 		remainder = (remainder<<8)^crc15Table[addr];
 1085              		.loc 1 492 0
 1086 002c 1678     		ldrb	r6, [r2]	@ MEM[base: _75, offset: 0B], MEM[base: _75, offset: 0B]
 493:../../lpc11cx4-library/evt_lib/src/ltc6804.c **** 	}
 1087              		.loc 1 493 0
 1088 002e 1902     		lsl	r1, r3, #8	@ tmp170, remainder,
 492:../../lpc11cx4-library/evt_lib/src/ltc6804.c **** 		remainder = (remainder<<8)^crc15Table[addr];
 1089              		.loc 1 492 0
 1090 0030 DB09     		lsr	r3, r3, #7	@ tmp174, remainder,
 1091              	.LVL128:
 1092 0032 7340     		eor	r3, r6	@ tmp176, MEM[base: _75, offset: 0B]
 493:../../lpc11cx4-library/evt_lib/src/ltc6804.c **** 	}
 1093              		.loc 1 493 0
 1094 0034 0340     		and	r3, r0	@ D.7609, tmp205
 1095 0036 9B00     		lsl	r3, r3, #2	@ tmp183, D.7609,
 1096 0038 FB5A     		ldrh	r3, [r7, r3]	@ D.7607, crc15Table
 1097 003a 89B2     		uxth	r1, r1	@ D.7607, tmp170
 1098 003c 0132     		add	r2, r2, #1	@ ivtmp.86,
 1099              	.LVL129:
ARM GAS  /tmp/ccQWJFys.s 			page 33


 1100 003e 4B40     		eor	r3, r1	@ remainder, D.7607
 1101              	.LVL130:
 490:../../lpc11cx4-library/evt_lib/src/ltc6804.c **** 	{
 1102              		.loc 1 490 0
 1103 0040 6245     		cmp	r2, ip	@ ivtmp.86, D.7615
 1104 0042 F3D1     		bne	.L79	@,
 1105              	.LBE76:
 1106              	.LBE78:
  88:../../lpc11cx4-library/evt_lib/src/ltc6804.c **** 	state->tx_buf[11] = pec & 0xFF;
 1107              		.loc 1 88 0
 1108 0044 4946     		mov	r1, r9	@ D.7605, D.7605
 1109              	.LBB79:
 1110              	.LBB77:
 1111              		.loc 1 495 0
 1112 0046 5B00     		lsl	r3, r3, #1	@ tmp188, remainder,
 1113              	.LVL131:
 1114 0048 9BB2     		uxth	r3, r3	@ D.7614, tmp188
 1115              	.LBE77:
 1116              	.LBE79:
  88:../../lpc11cx4-library/evt_lib/src/ltc6804.c **** 	state->tx_buf[11] = pec & 0xFF;
 1117              		.loc 1 88 0
 1118 004a 1A0A     		lsr	r2, r3, #8	@ tmp189, D.7614,
 1119 004c 8A72     		strb	r2, [r1, #10]	@ tmp189, MEM[(uint8_t *)_9 + 10B]
  89:../../lpc11cx4-library/evt_lib/src/ltc6804.c **** 
 1120              		.loc 1 89 0
 1121 004e 6268     		ldr	r2, [r4, #4]	@ tmp211, state_4(D)->tx_buf
  92:../../lpc11cx4-library/evt_lib/src/ltc6804.c **** 		memcpy(state->tx_buf+4+8*i, state->tx_buf+4, 8);
 1122              		.loc 1 92 0
 1123 0050 0426     		mov	r6, #4	@ ivtmp.78,
  89:../../lpc11cx4-library/evt_lib/src/ltc6804.c **** 
 1124              		.loc 1 89 0
 1125 0052 D372     		strb	r3, [r2, #11]	@ D.7614, MEM[(uint8_t *)_13 + 11B]
 1126              	.LVL132:
  92:../../lpc11cx4-library/evt_lib/src/ltc6804.c **** 		memcpy(state->tx_buf+4+8*i, state->tx_buf+4, 8);
 1127              		.loc 1 92 0
 1128 0054 AB7A     		ldrb	r3, [r5, #10]	@ tmp192,
 1129 0056 0027     		mov	r7, #0	@ i,
 1130 0058 002B     		cmp	r3, #0	@ tmp192,
 1131 005a 0AD0     		beq	.L81	@,
 1132              	.LVL133:
 1133              	.L83:
  93:../../lpc11cx4-library/evt_lib/src/ltc6804.c **** 	}
 1134              		.loc 1 93 0 discriminator 3
 1135 005c 6168     		ldr	r1, [r4, #4]	@ D.7605, state_4(D)->tx_buf
 1136 005e 0822     		mov	r2, #8	@,
 1137 0060 8819     		add	r0, r1, r6	@ D.7605, D.7605, ivtmp.78
 1138 0062 0431     		add	r1, r1, #4	@ D.7610,
 1139 0064 FFF7FEFF 		bl	memcpy	@
 1140              	.LVL134:
  92:../../lpc11cx4-library/evt_lib/src/ltc6804.c **** 		memcpy(state->tx_buf+4+8*i, state->tx_buf+4, 8);
 1141              		.loc 1 92 0 discriminator 3
 1142 0068 AB7A     		ldrb	r3, [r5, #10]	@ D.7609,
 1143 006a 0137     		add	r7, r7, #1	@ i,
 1144              	.LVL135:
 1145 006c 0836     		add	r6, r6, #8	@ ivtmp.78,
 1146 006e BB42     		cmp	r3, r7	@ D.7609, i
 1147 0070 F4DC     		bgt	.L83	@,
ARM GAS  /tmp/ccQWJFys.s 			page 34


 1148              	.LVL136:
 1149              	.L81:
  96:../../lpc11cx4-library/evt_lib/src/ltc6804.c **** }
 1150              		.loc 1 96 0
 1151 0072 281C     		mov	r0, r5	@, config
 1152 0074 4346     		mov	r3, r8	@, msTicks
 1153 0076 211C     		mov	r1, r4	@, state
 1154 0078 0122     		mov	r2, #1	@,
 1155 007a FFF7FEFF 		bl	_write	@
 1156              	.LVL137:
  97:../../lpc11cx4-library/evt_lib/src/ltc6804.c **** 
 1157              		.loc 1 97 0
 1158              		@ sp needed	@
 1159              	.LVL138:
 1160              	.LVL139:
 1161              	.LVL140:
 1162              	.LVL141:
 1163 007e 0CBC     		pop	{r2, r3}
 1164 0080 9046     		mov	r8, r2
 1165 0082 9946     		mov	r9, r3
 1166 0084 F8BD     		pop	{r3, r4, r5, r6, r7, pc}
 1167              	.L88:
 1168 0086 C046     		.align	2
 1169              	.L87:
 1170 0088 00000000 		.word	.LANCHOR0
 1171              		.cfi_endproc
 1172              	.LFE200:
 1173              		.size	LTC6804_WriteCFG, .-LTC6804_WriteCFG
 1174              		.global	__aeabi_uidiv
 1175              		.section	.text.LTC6804_Init,"ax",%progbits
 1176              		.align	2
 1177              		.global	LTC6804_Init
 1178              		.code	16
 1179              		.thumb_func
 1180              		.type	LTC6804_Init, %function
 1181              	LTC6804_Init:
 1182              	.LFB199:
  46:../../lpc11cx4-library/evt_lib/src/ltc6804.c **** 	Chip_GPIO_WriteDirBit(LPC_GPIO, config->cs_gpio, config->cs_pin, true);
 1183              		.loc 1 46 0
 1184              		.cfi_startproc
 1185              	.LVL142:
 1186 0000 F8B5     		push	{r3, r4, r5, r6, r7, lr}	@
 1187              		.cfi_def_cfa_offset 24
 1188              		.cfi_offset 3, -24
 1189              		.cfi_offset 4, -20
 1190              		.cfi_offset 5, -16
 1191              		.cfi_offset 6, -12
 1192              		.cfi_offset 7, -8
 1193              		.cfi_offset 14, -4
  46:../../lpc11cx4-library/evt_lib/src/ltc6804.c **** 	Chip_GPIO_WriteDirBit(LPC_GPIO, config->cs_gpio, config->cs_pin, true);
 1194              		.loc 1 46 0
 1195 0002 0C1C     		mov	r4, r1	@ state, state
 1196 0004 051C     		mov	r5, r0	@ config, config
 1197 0006 161C     		mov	r6, r2	@ msTicks, msTicks
  47:../../lpc11cx4-library/evt_lib/src/ltc6804.c **** 	Chip_GPIO_SetPinState(LPC_GPIO, config->cs_gpio, config->cs_pin, true);
 1198              		.loc 1 47 0
 1199 0008 017A     		ldrb	r1, [r0, #8]	@ D.7627,
ARM GAS  /tmp/ccQWJFys.s 			page 35


 1200              	.LVL143:
 1201 000a 427A     		ldrb	r2, [r0, #9]	@ tmp176,
 1202              	.LVL144:
 1203 000c A020     		mov	r0, #160	@,
 1204              	.LVL145:
 1205 000e 0123     		mov	r3, #1	@,
 1206 0010 C005     		lsl	r0, r0, #23	@,,
 1207 0012 FFF7FEFF 		bl	Chip_GPIO_WriteDirBit	@
 1208              	.LVL146:
 1209              	.LBB80:
 1210              	.LBB81:
 1211              		.loc 2 104 0
 1212 0016 A022     		mov	r2, #160	@ tmp260,
 1213 0018 D205     		lsl	r2, r2, #23	@ tmp260, tmp260,
 1214 001a 9446     		mov	ip, r2	@ tmp260, tmp260
 1215 001c 0122     		mov	r2, #1	@ tmp180,
 1216 001e 697A     		ldrb	r1, [r5, #9]	@ D.7632,
 1217 0020 2B7A     		ldrb	r3, [r5, #8]	@ D.7637,
 1218 0022 8A40     		lsl	r2, r2, r1	@ D.7632, tmp180, D.7632
 1219 0024 1B04     		lsl	r3, r3, #16	@ D.7637, D.7637,
 1220 0026 6344     		add	r3, r3, ip	@ D.7638, tmp260
 1221 0028 9100     		lsl	r1, r2, #2	@ tmp181, D.7632,
 1222 002a CA50     		str	r2, [r1, r3]	@ D.7632, _80->DATA
 1223              	.LVL147:
 1224              	.LBE81:
 1225              	.LBE80:
  50:../../lpc11cx4-library/evt_lib/src/ltc6804.c **** 	Chip_SSP_SetBitRate(config->pSSP, config->baud);
 1226              		.loc 1 50 0
 1227 002c 2868     		ldr	r0, [r5]	@, config_2(D)->pSSP
 1228 002e FFF7FEFF 		bl	Chip_SSP_Init	@
 1229              	.LVL148:
  51:../../lpc11cx4-library/evt_lib/src/ltc6804.c **** 	Chip_SSP_SetFormat(config->pSSP, SSP_BITS_8, SSP_FRAMEFORMAT_SPI, SSP_CLOCK_MODE3);
 1230              		.loc 1 51 0
 1231 0032 2868     		ldr	r0, [r5]	@, config_2(D)->pSSP
 1232 0034 6968     		ldr	r1, [r5, #4]	@, config_2(D)->baud
 1233 0036 FFF7FEFF 		bl	Chip_SSP_SetBitRate	@
 1234              	.LVL149:
 1235              	.LBB82:
 1236              	.LBB83:
 1237              		.file 3 "../../lpc11cx4-library/lpc_chip_11cxx_lib/inc/ssp_11xx.h"
   1:../../lpc11cx4-library/lpc_chip_11cxx_lib/inc/ssp_11xx.h **** /*
   2:../../lpc11cx4-library/lpc_chip_11cxx_lib/inc/ssp_11xx.h ****  * @brief LPC11xx SSP Registers and control functions
   3:../../lpc11cx4-library/lpc_chip_11cxx_lib/inc/ssp_11xx.h ****  *
   4:../../lpc11cx4-library/lpc_chip_11cxx_lib/inc/ssp_11xx.h ****  * @note
   5:../../lpc11cx4-library/lpc_chip_11cxx_lib/inc/ssp_11xx.h ****  * Copyright(C) NXP Semiconductors, 2012
   6:../../lpc11cx4-library/lpc_chip_11cxx_lib/inc/ssp_11xx.h ****  * All rights reserved.
   7:../../lpc11cx4-library/lpc_chip_11cxx_lib/inc/ssp_11xx.h ****  *
   8:../../lpc11cx4-library/lpc_chip_11cxx_lib/inc/ssp_11xx.h ****  * @par
   9:../../lpc11cx4-library/lpc_chip_11cxx_lib/inc/ssp_11xx.h ****  * Software that is described herein is for illustrative purposes only
  10:../../lpc11cx4-library/lpc_chip_11cxx_lib/inc/ssp_11xx.h ****  * which provides customers with programming information regarding the
  11:../../lpc11cx4-library/lpc_chip_11cxx_lib/inc/ssp_11xx.h ****  * LPC products.  This software is supplied "AS IS" without any warranties of
  12:../../lpc11cx4-library/lpc_chip_11cxx_lib/inc/ssp_11xx.h ****  * any kind, and NXP Semiconductors and its licensor disclaim any and
  13:../../lpc11cx4-library/lpc_chip_11cxx_lib/inc/ssp_11xx.h ****  * all warranties, express or implied, including all implied warranties of
  14:../../lpc11cx4-library/lpc_chip_11cxx_lib/inc/ssp_11xx.h ****  * merchantability, fitness for a particular purpose and non-infringement of
  15:../../lpc11cx4-library/lpc_chip_11cxx_lib/inc/ssp_11xx.h ****  * intellectual property rights.  NXP Semiconductors assumes no responsibility
  16:../../lpc11cx4-library/lpc_chip_11cxx_lib/inc/ssp_11xx.h ****  * or liability for the use of the software, conveys no license or rights under any
  17:../../lpc11cx4-library/lpc_chip_11cxx_lib/inc/ssp_11xx.h ****  * patent, copyright, mask work right, or any other intellectual property rights in
ARM GAS  /tmp/ccQWJFys.s 			page 36


  18:../../lpc11cx4-library/lpc_chip_11cxx_lib/inc/ssp_11xx.h ****  * or to any products. NXP Semiconductors reserves the right to make changes
  19:../../lpc11cx4-library/lpc_chip_11cxx_lib/inc/ssp_11xx.h ****  * in the software without notification. NXP Semiconductors also makes no
  20:../../lpc11cx4-library/lpc_chip_11cxx_lib/inc/ssp_11xx.h ****  * representation or warranty that such application will be suitable for the
  21:../../lpc11cx4-library/lpc_chip_11cxx_lib/inc/ssp_11xx.h ****  * specified use without further testing or modification.
  22:../../lpc11cx4-library/lpc_chip_11cxx_lib/inc/ssp_11xx.h ****  *
  23:../../lpc11cx4-library/lpc_chip_11cxx_lib/inc/ssp_11xx.h ****  * @par
  24:../../lpc11cx4-library/lpc_chip_11cxx_lib/inc/ssp_11xx.h ****  * Permission to use, copy, modify, and distribute this software and its
  25:../../lpc11cx4-library/lpc_chip_11cxx_lib/inc/ssp_11xx.h ****  * documentation is hereby granted, under NXP Semiconductors' and its
  26:../../lpc11cx4-library/lpc_chip_11cxx_lib/inc/ssp_11xx.h ****  * licensor's relevant copyrights in the software, without fee, provided that it
  27:../../lpc11cx4-library/lpc_chip_11cxx_lib/inc/ssp_11xx.h ****  * is used in conjunction with NXP Semiconductors microcontrollers.  This
  28:../../lpc11cx4-library/lpc_chip_11cxx_lib/inc/ssp_11xx.h ****  * copyright, permission, and disclaimer notice must appear in all copies of
  29:../../lpc11cx4-library/lpc_chip_11cxx_lib/inc/ssp_11xx.h ****  * this code.
  30:../../lpc11cx4-library/lpc_chip_11cxx_lib/inc/ssp_11xx.h ****  */
  31:../../lpc11cx4-library/lpc_chip_11cxx_lib/inc/ssp_11xx.h **** 
  32:../../lpc11cx4-library/lpc_chip_11cxx_lib/inc/ssp_11xx.h **** #ifndef __SSP_11XX_H_
  33:../../lpc11cx4-library/lpc_chip_11cxx_lib/inc/ssp_11xx.h **** #define __SSP_11XX_H_
  34:../../lpc11cx4-library/lpc_chip_11cxx_lib/inc/ssp_11xx.h **** 
  35:../../lpc11cx4-library/lpc_chip_11cxx_lib/inc/ssp_11xx.h **** #ifdef __cplusplus
  36:../../lpc11cx4-library/lpc_chip_11cxx_lib/inc/ssp_11xx.h **** extern "C" {
  37:../../lpc11cx4-library/lpc_chip_11cxx_lib/inc/ssp_11xx.h **** #endif
  38:../../lpc11cx4-library/lpc_chip_11cxx_lib/inc/ssp_11xx.h **** 
  39:../../lpc11cx4-library/lpc_chip_11cxx_lib/inc/ssp_11xx.h **** /** @defgroup SSP_11XX CHIP: LPC11xx SSP register block and driver
  40:../../lpc11cx4-library/lpc_chip_11cxx_lib/inc/ssp_11xx.h ****  * @ingroup CHIP_11XX_Drivers
  41:../../lpc11cx4-library/lpc_chip_11cxx_lib/inc/ssp_11xx.h ****  * @{
  42:../../lpc11cx4-library/lpc_chip_11cxx_lib/inc/ssp_11xx.h ****  */
  43:../../lpc11cx4-library/lpc_chip_11cxx_lib/inc/ssp_11xx.h **** 
  44:../../lpc11cx4-library/lpc_chip_11cxx_lib/inc/ssp_11xx.h **** /**
  45:../../lpc11cx4-library/lpc_chip_11cxx_lib/inc/ssp_11xx.h ****  * @brief SSP register block structure
  46:../../lpc11cx4-library/lpc_chip_11cxx_lib/inc/ssp_11xx.h ****  */
  47:../../lpc11cx4-library/lpc_chip_11cxx_lib/inc/ssp_11xx.h **** typedef struct {			/*!< SSPn Structure         */
  48:../../lpc11cx4-library/lpc_chip_11cxx_lib/inc/ssp_11xx.h **** 	__IO uint32_t CR0;		/*!< Control Register 0. Selects the serial clock rate, bus type, and data siz
  49:../../lpc11cx4-library/lpc_chip_11cxx_lib/inc/ssp_11xx.h **** 	__IO uint32_t CR1;		/*!< Control Register 1. Selects master/slave and other modes. */
  50:../../lpc11cx4-library/lpc_chip_11cxx_lib/inc/ssp_11xx.h **** 	__IO uint32_t DR;		/*!< Data Register. Writes fill the transmit FIFO, and reads empty the receive 
  51:../../lpc11cx4-library/lpc_chip_11cxx_lib/inc/ssp_11xx.h **** 	__I  uint32_t SR;		/*!< Status Register        */
  52:../../lpc11cx4-library/lpc_chip_11cxx_lib/inc/ssp_11xx.h **** 	__IO uint32_t CPSR;		/*!< Clock Prescale Register */
  53:../../lpc11cx4-library/lpc_chip_11cxx_lib/inc/ssp_11xx.h **** 	__IO uint32_t IMSC;		/*!< Interrupt Mask Set and Clear Register */
  54:../../lpc11cx4-library/lpc_chip_11cxx_lib/inc/ssp_11xx.h **** 	__I  uint32_t RIS;		/*!< Raw Interrupt Status Register */
  55:../../lpc11cx4-library/lpc_chip_11cxx_lib/inc/ssp_11xx.h **** 	__I  uint32_t MIS;		/*!< Masked Interrupt Status Register */
  56:../../lpc11cx4-library/lpc_chip_11cxx_lib/inc/ssp_11xx.h **** 	__O  uint32_t ICR;		/*!< SSPICR Interrupt Clear Register */
  57:../../lpc11cx4-library/lpc_chip_11cxx_lib/inc/ssp_11xx.h **** } LPC_SSP_T;
  58:../../lpc11cx4-library/lpc_chip_11cxx_lib/inc/ssp_11xx.h **** 
  59:../../lpc11cx4-library/lpc_chip_11cxx_lib/inc/ssp_11xx.h **** /**
  60:../../lpc11cx4-library/lpc_chip_11cxx_lib/inc/ssp_11xx.h ****  * Macro defines for CR0 register
  61:../../lpc11cx4-library/lpc_chip_11cxx_lib/inc/ssp_11xx.h ****  */
  62:../../lpc11cx4-library/lpc_chip_11cxx_lib/inc/ssp_11xx.h **** 
  63:../../lpc11cx4-library/lpc_chip_11cxx_lib/inc/ssp_11xx.h **** /** SSP data size select, must be 4 bits to 16 bits */
  64:../../lpc11cx4-library/lpc_chip_11cxx_lib/inc/ssp_11xx.h **** #define SSP_CR0_DSS(n)          ((uint32_t) ((n) & 0xF))
  65:../../lpc11cx4-library/lpc_chip_11cxx_lib/inc/ssp_11xx.h **** /** SSP control 0 Motorola SPI mode */
  66:../../lpc11cx4-library/lpc_chip_11cxx_lib/inc/ssp_11xx.h **** #define SSP_CR0_FRF_SPI         ((uint32_t) (0 << 4))
  67:../../lpc11cx4-library/lpc_chip_11cxx_lib/inc/ssp_11xx.h **** /** SSP control 0 TI synchronous serial mode */
  68:../../lpc11cx4-library/lpc_chip_11cxx_lib/inc/ssp_11xx.h **** #define SSP_CR0_FRF_TI          ((uint32_t) (1 << 4))
  69:../../lpc11cx4-library/lpc_chip_11cxx_lib/inc/ssp_11xx.h **** /** SSP control 0 National Micro-wire mode */
  70:../../lpc11cx4-library/lpc_chip_11cxx_lib/inc/ssp_11xx.h **** #define SSP_CR0_FRF_MICROWIRE   ((uint32_t) (2 << 4))
  71:../../lpc11cx4-library/lpc_chip_11cxx_lib/inc/ssp_11xx.h **** /** SPI clock polarity bit (used in SPI mode only), (1) = maintains the
  72:../../lpc11cx4-library/lpc_chip_11cxx_lib/inc/ssp_11xx.h ****    bus clock high between frames, (0) = low */
  73:../../lpc11cx4-library/lpc_chip_11cxx_lib/inc/ssp_11xx.h **** #define SSP_CR0_CPOL_LO     ((uint32_t) (0))
  74:../../lpc11cx4-library/lpc_chip_11cxx_lib/inc/ssp_11xx.h **** #define SSP_CR0_CPOL_HI     ((uint32_t) (1 << 6))
ARM GAS  /tmp/ccQWJFys.s 			page 37


  75:../../lpc11cx4-library/lpc_chip_11cxx_lib/inc/ssp_11xx.h **** /** SPI clock out phase bit (used in SPI mode only), (1) = captures data
  76:../../lpc11cx4-library/lpc_chip_11cxx_lib/inc/ssp_11xx.h ****    on the second clock transition of the frame, (0) = first */
  77:../../lpc11cx4-library/lpc_chip_11cxx_lib/inc/ssp_11xx.h **** #define SSP_CR0_CPHA_FIRST  ((uint32_t) (0))
  78:../../lpc11cx4-library/lpc_chip_11cxx_lib/inc/ssp_11xx.h **** #define SSP_CR0_CPHA_SECOND ((uint32_t) (1 << 7))
  79:../../lpc11cx4-library/lpc_chip_11cxx_lib/inc/ssp_11xx.h **** /** SSP serial clock rate value load macro, divider rate is
  80:../../lpc11cx4-library/lpc_chip_11cxx_lib/inc/ssp_11xx.h ****    PERIPH_CLK / (cpsr * (SCR + 1)) */
  81:../../lpc11cx4-library/lpc_chip_11cxx_lib/inc/ssp_11xx.h **** #define SSP_CR0_SCR(n)      ((uint32_t) ((n & 0xFF) << 8))
  82:../../lpc11cx4-library/lpc_chip_11cxx_lib/inc/ssp_11xx.h **** /** SSP CR0 bit mask */
  83:../../lpc11cx4-library/lpc_chip_11cxx_lib/inc/ssp_11xx.h **** #define SSP_CR0_BITMASK     ((uint32_t) (0xFFFF))
  84:../../lpc11cx4-library/lpc_chip_11cxx_lib/inc/ssp_11xx.h **** /** SSP CR0 bit mask */
  85:../../lpc11cx4-library/lpc_chip_11cxx_lib/inc/ssp_11xx.h **** #define SSP_CR0_BITMASK     ((uint32_t) (0xFFFF))
  86:../../lpc11cx4-library/lpc_chip_11cxx_lib/inc/ssp_11xx.h **** /** SSP serial clock rate value load macro, divider rate is
  87:../../lpc11cx4-library/lpc_chip_11cxx_lib/inc/ssp_11xx.h ****    PERIPH_CLK / (cpsr * (SCR + 1)) */
  88:../../lpc11cx4-library/lpc_chip_11cxx_lib/inc/ssp_11xx.h **** #define SSP_CR0_SCR(n)      ((uint32_t) ((n & 0xFF) << 8))
  89:../../lpc11cx4-library/lpc_chip_11cxx_lib/inc/ssp_11xx.h **** 
  90:../../lpc11cx4-library/lpc_chip_11cxx_lib/inc/ssp_11xx.h **** /**
  91:../../lpc11cx4-library/lpc_chip_11cxx_lib/inc/ssp_11xx.h ****  * Macro defines for CR1 register
  92:../../lpc11cx4-library/lpc_chip_11cxx_lib/inc/ssp_11xx.h ****  */
  93:../../lpc11cx4-library/lpc_chip_11cxx_lib/inc/ssp_11xx.h **** 
  94:../../lpc11cx4-library/lpc_chip_11cxx_lib/inc/ssp_11xx.h **** /** SSP control 1 loopback mode enable bit */
  95:../../lpc11cx4-library/lpc_chip_11cxx_lib/inc/ssp_11xx.h **** #define SSP_CR1_LBM_EN      ((uint32_t) (1 << 0))
  96:../../lpc11cx4-library/lpc_chip_11cxx_lib/inc/ssp_11xx.h **** /** SSP control 1 enable bit */
  97:../../lpc11cx4-library/lpc_chip_11cxx_lib/inc/ssp_11xx.h **** #define SSP_CR1_SSP_EN      ((uint32_t) (1 << 1))
  98:../../lpc11cx4-library/lpc_chip_11cxx_lib/inc/ssp_11xx.h **** /** SSP control 1 slave enable */
  99:../../lpc11cx4-library/lpc_chip_11cxx_lib/inc/ssp_11xx.h **** #define SSP_CR1_SLAVE_EN    ((uint32_t) (1 << 2))
 100:../../lpc11cx4-library/lpc_chip_11cxx_lib/inc/ssp_11xx.h **** #define SSP_CR1_MASTER_EN   ((uint32_t) (0))
 101:../../lpc11cx4-library/lpc_chip_11cxx_lib/inc/ssp_11xx.h **** /** SSP control 1 slave out disable bit, disables transmit line in slave
 102:../../lpc11cx4-library/lpc_chip_11cxx_lib/inc/ssp_11xx.h ****    mode */
 103:../../lpc11cx4-library/lpc_chip_11cxx_lib/inc/ssp_11xx.h **** #define SSP_CR1_SO_DISABLE  ((uint32_t) (1 << 3))
 104:../../lpc11cx4-library/lpc_chip_11cxx_lib/inc/ssp_11xx.h **** /** SSP CR1 bit mask */
 105:../../lpc11cx4-library/lpc_chip_11cxx_lib/inc/ssp_11xx.h **** #define SSP_CR1_BITMASK     ((uint32_t) (0x0F))
 106:../../lpc11cx4-library/lpc_chip_11cxx_lib/inc/ssp_11xx.h **** 
 107:../../lpc11cx4-library/lpc_chip_11cxx_lib/inc/ssp_11xx.h **** /** SSP CPSR bit mask */
 108:../../lpc11cx4-library/lpc_chip_11cxx_lib/inc/ssp_11xx.h **** #define SSP_CPSR_BITMASK    ((uint32_t) (0xFF))
 109:../../lpc11cx4-library/lpc_chip_11cxx_lib/inc/ssp_11xx.h **** /**
 110:../../lpc11cx4-library/lpc_chip_11cxx_lib/inc/ssp_11xx.h ****  * Macro defines for DR register
 111:../../lpc11cx4-library/lpc_chip_11cxx_lib/inc/ssp_11xx.h ****  */
 112:../../lpc11cx4-library/lpc_chip_11cxx_lib/inc/ssp_11xx.h **** 
 113:../../lpc11cx4-library/lpc_chip_11cxx_lib/inc/ssp_11xx.h **** /** SSP data bit mask */
 114:../../lpc11cx4-library/lpc_chip_11cxx_lib/inc/ssp_11xx.h **** #define SSP_DR_BITMASK(n)   ((n) & 0xFFFF)
 115:../../lpc11cx4-library/lpc_chip_11cxx_lib/inc/ssp_11xx.h **** 
 116:../../lpc11cx4-library/lpc_chip_11cxx_lib/inc/ssp_11xx.h **** /**
 117:../../lpc11cx4-library/lpc_chip_11cxx_lib/inc/ssp_11xx.h ****  * Macro defines for SR register
 118:../../lpc11cx4-library/lpc_chip_11cxx_lib/inc/ssp_11xx.h ****  */
 119:../../lpc11cx4-library/lpc_chip_11cxx_lib/inc/ssp_11xx.h **** 
 120:../../lpc11cx4-library/lpc_chip_11cxx_lib/inc/ssp_11xx.h **** /** SSP SR bit mask */
 121:../../lpc11cx4-library/lpc_chip_11cxx_lib/inc/ssp_11xx.h **** #define SSP_SR_BITMASK  ((uint32_t) (0x1F))
 122:../../lpc11cx4-library/lpc_chip_11cxx_lib/inc/ssp_11xx.h **** 
 123:../../lpc11cx4-library/lpc_chip_11cxx_lib/inc/ssp_11xx.h **** /** ICR bit mask */
 124:../../lpc11cx4-library/lpc_chip_11cxx_lib/inc/ssp_11xx.h **** #define SSP_ICR_BITMASK ((uint32_t) (0x03))
 125:../../lpc11cx4-library/lpc_chip_11cxx_lib/inc/ssp_11xx.h **** 
 126:../../lpc11cx4-library/lpc_chip_11cxx_lib/inc/ssp_11xx.h **** /**
 127:../../lpc11cx4-library/lpc_chip_11cxx_lib/inc/ssp_11xx.h ****  * @brief SSP Type of Status
 128:../../lpc11cx4-library/lpc_chip_11cxx_lib/inc/ssp_11xx.h ****  */
 129:../../lpc11cx4-library/lpc_chip_11cxx_lib/inc/ssp_11xx.h **** typedef enum _SSP_STATUS {
 130:../../lpc11cx4-library/lpc_chip_11cxx_lib/inc/ssp_11xx.h **** 	SSP_STAT_TFE = ((uint32_t)(1 << 0)),/**< TX FIFO Empty */
 131:../../lpc11cx4-library/lpc_chip_11cxx_lib/inc/ssp_11xx.h **** 	SSP_STAT_TNF = ((uint32_t)(1 << 1)),/**< TX FIFO not full */
ARM GAS  /tmp/ccQWJFys.s 			page 38


 132:../../lpc11cx4-library/lpc_chip_11cxx_lib/inc/ssp_11xx.h **** 	SSP_STAT_RNE = ((uint32_t)(1 << 2)),/**< RX FIFO not empty */
 133:../../lpc11cx4-library/lpc_chip_11cxx_lib/inc/ssp_11xx.h **** 	SSP_STAT_RFF = ((uint32_t)(1 << 3)),/**< RX FIFO full */
 134:../../lpc11cx4-library/lpc_chip_11cxx_lib/inc/ssp_11xx.h **** 	SSP_STAT_BSY = ((uint32_t)(1 << 4)),/**< SSP Busy */
 135:../../lpc11cx4-library/lpc_chip_11cxx_lib/inc/ssp_11xx.h **** } SSP_STATUS_T;
 136:../../lpc11cx4-library/lpc_chip_11cxx_lib/inc/ssp_11xx.h **** 
 137:../../lpc11cx4-library/lpc_chip_11cxx_lib/inc/ssp_11xx.h **** /**
 138:../../lpc11cx4-library/lpc_chip_11cxx_lib/inc/ssp_11xx.h ****  * @brief SSP Type of Interrupt Mask
 139:../../lpc11cx4-library/lpc_chip_11cxx_lib/inc/ssp_11xx.h ****  */
 140:../../lpc11cx4-library/lpc_chip_11cxx_lib/inc/ssp_11xx.h **** typedef enum _SSP_INTMASK {
 141:../../lpc11cx4-library/lpc_chip_11cxx_lib/inc/ssp_11xx.h **** 	SSP_RORIM = ((uint32_t)(1 << 0)),	/**< Overun */
 142:../../lpc11cx4-library/lpc_chip_11cxx_lib/inc/ssp_11xx.h **** 	SSP_RTIM = ((uint32_t)(1 << 1)),/**< TimeOut */
 143:../../lpc11cx4-library/lpc_chip_11cxx_lib/inc/ssp_11xx.h **** 	SSP_RXIM = ((uint32_t)(1 << 2)),/**< Rx FIFO is at least half full */
 144:../../lpc11cx4-library/lpc_chip_11cxx_lib/inc/ssp_11xx.h **** 	SSP_TXIM = ((uint32_t)(1 << 3)),/**< Tx FIFO is at least half empty */
 145:../../lpc11cx4-library/lpc_chip_11cxx_lib/inc/ssp_11xx.h **** 	SSP_INT_MASK_BITMASK = ((uint32_t)(0xF)),
 146:../../lpc11cx4-library/lpc_chip_11cxx_lib/inc/ssp_11xx.h **** } SSP_INTMASK_T;
 147:../../lpc11cx4-library/lpc_chip_11cxx_lib/inc/ssp_11xx.h **** 
 148:../../lpc11cx4-library/lpc_chip_11cxx_lib/inc/ssp_11xx.h **** /**
 149:../../lpc11cx4-library/lpc_chip_11cxx_lib/inc/ssp_11xx.h ****  * @brief SSP Type of Mask Interrupt Status
 150:../../lpc11cx4-library/lpc_chip_11cxx_lib/inc/ssp_11xx.h ****  */
 151:../../lpc11cx4-library/lpc_chip_11cxx_lib/inc/ssp_11xx.h **** typedef enum _SSP_MASKINTSTATUS {
 152:../../lpc11cx4-library/lpc_chip_11cxx_lib/inc/ssp_11xx.h **** 	SSP_RORMIS = ((uint32_t)(1 << 0)),	/**< Overun */
 153:../../lpc11cx4-library/lpc_chip_11cxx_lib/inc/ssp_11xx.h **** 	SSP_RTMIS = ((uint32_t)(1 << 1)),	/**< TimeOut */
 154:../../lpc11cx4-library/lpc_chip_11cxx_lib/inc/ssp_11xx.h **** 	SSP_RXMIS = ((uint32_t)(1 << 2)),	/**< Rx FIFO is at least half full */
 155:../../lpc11cx4-library/lpc_chip_11cxx_lib/inc/ssp_11xx.h **** 	SSP_TXMIS = ((uint32_t)(1 << 3)),	/**< Tx FIFO is at least half empty */
 156:../../lpc11cx4-library/lpc_chip_11cxx_lib/inc/ssp_11xx.h **** 	SSP_MASK_INT_STAT_BITMASK = ((uint32_t)(0xF)),
 157:../../lpc11cx4-library/lpc_chip_11cxx_lib/inc/ssp_11xx.h **** } SSP_MASKINTSTATUS_T;
 158:../../lpc11cx4-library/lpc_chip_11cxx_lib/inc/ssp_11xx.h **** 
 159:../../lpc11cx4-library/lpc_chip_11cxx_lib/inc/ssp_11xx.h **** /**
 160:../../lpc11cx4-library/lpc_chip_11cxx_lib/inc/ssp_11xx.h ****  * @brief SSP Type of Raw Interrupt Status
 161:../../lpc11cx4-library/lpc_chip_11cxx_lib/inc/ssp_11xx.h ****  */
 162:../../lpc11cx4-library/lpc_chip_11cxx_lib/inc/ssp_11xx.h **** typedef enum _SSP_RAWINTSTATUS {
 163:../../lpc11cx4-library/lpc_chip_11cxx_lib/inc/ssp_11xx.h **** 	SSP_RORRIS = ((uint32_t)(1 << 0)),	/**< Overun */
 164:../../lpc11cx4-library/lpc_chip_11cxx_lib/inc/ssp_11xx.h **** 	SSP_RTRIS = ((uint32_t)(1 << 1)),	/**< TimeOut */
 165:../../lpc11cx4-library/lpc_chip_11cxx_lib/inc/ssp_11xx.h **** 	SSP_RXRIS = ((uint32_t)(1 << 2)),	/**< Rx FIFO is at least half full */
 166:../../lpc11cx4-library/lpc_chip_11cxx_lib/inc/ssp_11xx.h **** 	SSP_TXRIS = ((uint32_t)(1 << 3)),	/**< Tx FIFO is at least half empty */
 167:../../lpc11cx4-library/lpc_chip_11cxx_lib/inc/ssp_11xx.h **** 	SSP_RAW_INT_STAT_BITMASK = ((uint32_t)(0xF)),
 168:../../lpc11cx4-library/lpc_chip_11cxx_lib/inc/ssp_11xx.h **** } SSP_RAWINTSTATUS_T;
 169:../../lpc11cx4-library/lpc_chip_11cxx_lib/inc/ssp_11xx.h **** 
 170:../../lpc11cx4-library/lpc_chip_11cxx_lib/inc/ssp_11xx.h **** typedef enum _SSP_INTCLEAR {
 171:../../lpc11cx4-library/lpc_chip_11cxx_lib/inc/ssp_11xx.h **** 	SSP_RORIC = 0x0,
 172:../../lpc11cx4-library/lpc_chip_11cxx_lib/inc/ssp_11xx.h **** 	SSP_RTIC = 0x1,
 173:../../lpc11cx4-library/lpc_chip_11cxx_lib/inc/ssp_11xx.h **** 	SSP_INT_CLEAR_BITMASK = 0x3,
 174:../../lpc11cx4-library/lpc_chip_11cxx_lib/inc/ssp_11xx.h **** } SSP_INTCLEAR_T;
 175:../../lpc11cx4-library/lpc_chip_11cxx_lib/inc/ssp_11xx.h **** 
 176:../../lpc11cx4-library/lpc_chip_11cxx_lib/inc/ssp_11xx.h **** /*
 177:../../lpc11cx4-library/lpc_chip_11cxx_lib/inc/ssp_11xx.h ****  * @brief SSP clock format
 178:../../lpc11cx4-library/lpc_chip_11cxx_lib/inc/ssp_11xx.h ****  */
 179:../../lpc11cx4-library/lpc_chip_11cxx_lib/inc/ssp_11xx.h **** typedef enum CHIP_SSP_CLOCK_FORMAT {
 180:../../lpc11cx4-library/lpc_chip_11cxx_lib/inc/ssp_11xx.h **** 	SSP_CLOCK_CPHA0_CPOL0 = (0 << 6),		/**< CPHA = 0, CPOL = 0 */
 181:../../lpc11cx4-library/lpc_chip_11cxx_lib/inc/ssp_11xx.h **** 	SSP_CLOCK_CPHA0_CPOL1 = (1u << 6),		/**< CPHA = 0, CPOL = 1 */
 182:../../lpc11cx4-library/lpc_chip_11cxx_lib/inc/ssp_11xx.h **** 	SSP_CLOCK_CPHA1_CPOL0 = (2u << 6),		/**< CPHA = 1, CPOL = 0 */
 183:../../lpc11cx4-library/lpc_chip_11cxx_lib/inc/ssp_11xx.h **** 	SSP_CLOCK_CPHA1_CPOL1 = (3u << 6),		/**< CPHA = 1, CPOL = 1 */
 184:../../lpc11cx4-library/lpc_chip_11cxx_lib/inc/ssp_11xx.h **** 	SSP_CLOCK_MODE0 = SSP_CLOCK_CPHA0_CPOL0,/**< alias */
 185:../../lpc11cx4-library/lpc_chip_11cxx_lib/inc/ssp_11xx.h **** 	SSP_CLOCK_MODE1 = SSP_CLOCK_CPHA1_CPOL0,/**< alias */
 186:../../lpc11cx4-library/lpc_chip_11cxx_lib/inc/ssp_11xx.h **** 	SSP_CLOCK_MODE2 = SSP_CLOCK_CPHA0_CPOL1,/**< alias */
 187:../../lpc11cx4-library/lpc_chip_11cxx_lib/inc/ssp_11xx.h **** 	SSP_CLOCK_MODE3 = SSP_CLOCK_CPHA1_CPOL1,/**< alias */
 188:../../lpc11cx4-library/lpc_chip_11cxx_lib/inc/ssp_11xx.h **** } CHIP_SSP_CLOCK_MODE_T;
ARM GAS  /tmp/ccQWJFys.s 			page 39


 189:../../lpc11cx4-library/lpc_chip_11cxx_lib/inc/ssp_11xx.h **** 
 190:../../lpc11cx4-library/lpc_chip_11cxx_lib/inc/ssp_11xx.h **** /*
 191:../../lpc11cx4-library/lpc_chip_11cxx_lib/inc/ssp_11xx.h ****  * @brief SSP frame format
 192:../../lpc11cx4-library/lpc_chip_11cxx_lib/inc/ssp_11xx.h ****  */
 193:../../lpc11cx4-library/lpc_chip_11cxx_lib/inc/ssp_11xx.h **** typedef enum CHIP_SSP_FRAME_FORMAT {
 194:../../lpc11cx4-library/lpc_chip_11cxx_lib/inc/ssp_11xx.h **** 	SSP_FRAMEFORMAT_SPI = (0 << 4),			/**< Frame format: SPI */
 195:../../lpc11cx4-library/lpc_chip_11cxx_lib/inc/ssp_11xx.h **** 	CHIP_SSP_FRAME_FORMAT_TI = (1u << 4),			/**< Frame format: TI SSI */
 196:../../lpc11cx4-library/lpc_chip_11cxx_lib/inc/ssp_11xx.h **** 	SSP_FRAMEFORMAT_MICROWIRE = (2u << 4),	/**< Frame format: Microwire */
 197:../../lpc11cx4-library/lpc_chip_11cxx_lib/inc/ssp_11xx.h **** } CHIP_SSP_FRAME_FORMAT_T;
 198:../../lpc11cx4-library/lpc_chip_11cxx_lib/inc/ssp_11xx.h **** 
 199:../../lpc11cx4-library/lpc_chip_11cxx_lib/inc/ssp_11xx.h **** /*
 200:../../lpc11cx4-library/lpc_chip_11cxx_lib/inc/ssp_11xx.h ****  * @brief Number of bits per frame
 201:../../lpc11cx4-library/lpc_chip_11cxx_lib/inc/ssp_11xx.h ****  */
 202:../../lpc11cx4-library/lpc_chip_11cxx_lib/inc/ssp_11xx.h **** typedef enum CHIP_SSP_BITS {
 203:../../lpc11cx4-library/lpc_chip_11cxx_lib/inc/ssp_11xx.h **** 	SSP_BITS_4 = (3u << 0),		/*!< 4 bits/frame */
 204:../../lpc11cx4-library/lpc_chip_11cxx_lib/inc/ssp_11xx.h **** 	SSP_BITS_5 = (4u << 0),		/*!< 5 bits/frame */
 205:../../lpc11cx4-library/lpc_chip_11cxx_lib/inc/ssp_11xx.h **** 	SSP_BITS_6 = (5u << 0),		/*!< 6 bits/frame */
 206:../../lpc11cx4-library/lpc_chip_11cxx_lib/inc/ssp_11xx.h **** 	SSP_BITS_7 = (6u << 0),		/*!< 7 bits/frame */
 207:../../lpc11cx4-library/lpc_chip_11cxx_lib/inc/ssp_11xx.h **** 	SSP_BITS_8 = (7u << 0),		/*!< 8 bits/frame */
 208:../../lpc11cx4-library/lpc_chip_11cxx_lib/inc/ssp_11xx.h **** 	SSP_BITS_9 = (8u << 0),		/*!< 9 bits/frame */
 209:../../lpc11cx4-library/lpc_chip_11cxx_lib/inc/ssp_11xx.h **** 	SSP_BITS_10 = (9u << 0),	/*!< 10 bits/frame */
 210:../../lpc11cx4-library/lpc_chip_11cxx_lib/inc/ssp_11xx.h **** 	SSP_BITS_11 = (10u << 0),	/*!< 11 bits/frame */
 211:../../lpc11cx4-library/lpc_chip_11cxx_lib/inc/ssp_11xx.h **** 	SSP_BITS_12 = (11u << 0),	/*!< 12 bits/frame */
 212:../../lpc11cx4-library/lpc_chip_11cxx_lib/inc/ssp_11xx.h **** 	SSP_BITS_13 = (12u << 0),	/*!< 13 bits/frame */
 213:../../lpc11cx4-library/lpc_chip_11cxx_lib/inc/ssp_11xx.h **** 	SSP_BITS_14 = (13u << 0),	/*!< 14 bits/frame */
 214:../../lpc11cx4-library/lpc_chip_11cxx_lib/inc/ssp_11xx.h **** 	SSP_BITS_15 = (14u << 0),	/*!< 15 bits/frame */
 215:../../lpc11cx4-library/lpc_chip_11cxx_lib/inc/ssp_11xx.h **** 	SSP_BITS_16 = (15u << 0),	/*!< 16 bits/frame */
 216:../../lpc11cx4-library/lpc_chip_11cxx_lib/inc/ssp_11xx.h **** } CHIP_SSP_BITS_T;
 217:../../lpc11cx4-library/lpc_chip_11cxx_lib/inc/ssp_11xx.h **** 
 218:../../lpc11cx4-library/lpc_chip_11cxx_lib/inc/ssp_11xx.h **** /*
 219:../../lpc11cx4-library/lpc_chip_11cxx_lib/inc/ssp_11xx.h ****  * @brief SSP config format
 220:../../lpc11cx4-library/lpc_chip_11cxx_lib/inc/ssp_11xx.h ****  */
 221:../../lpc11cx4-library/lpc_chip_11cxx_lib/inc/ssp_11xx.h **** typedef struct SSP_ConfigFormat {
 222:../../lpc11cx4-library/lpc_chip_11cxx_lib/inc/ssp_11xx.h **** 	CHIP_SSP_BITS_T bits;					/*!< Format config: bits/frame */
 223:../../lpc11cx4-library/lpc_chip_11cxx_lib/inc/ssp_11xx.h **** 	CHIP_SSP_CLOCK_MODE_T clockMode;	/*!< Format config: clock phase/polarity */
 224:../../lpc11cx4-library/lpc_chip_11cxx_lib/inc/ssp_11xx.h **** 	CHIP_SSP_FRAME_FORMAT_T frameFormat;	/*!< Format config: SPI/TI/Microwire */
 225:../../lpc11cx4-library/lpc_chip_11cxx_lib/inc/ssp_11xx.h **** } SSP_ConfigFormat;
 226:../../lpc11cx4-library/lpc_chip_11cxx_lib/inc/ssp_11xx.h **** 
 227:../../lpc11cx4-library/lpc_chip_11cxx_lib/inc/ssp_11xx.h **** /**
 228:../../lpc11cx4-library/lpc_chip_11cxx_lib/inc/ssp_11xx.h ****  * @brief	Enable SSP operation
 229:../../lpc11cx4-library/lpc_chip_11cxx_lib/inc/ssp_11xx.h ****  * @param	pSSP		: The base of SSP peripheral on the chip
 230:../../lpc11cx4-library/lpc_chip_11cxx_lib/inc/ssp_11xx.h ****  * @return	 Nothing
 231:../../lpc11cx4-library/lpc_chip_11cxx_lib/inc/ssp_11xx.h ****  */
 232:../../lpc11cx4-library/lpc_chip_11cxx_lib/inc/ssp_11xx.h **** STATIC INLINE void Chip_SSP_Enable(LPC_SSP_T *pSSP)
 233:../../lpc11cx4-library/lpc_chip_11cxx_lib/inc/ssp_11xx.h **** {
 234:../../lpc11cx4-library/lpc_chip_11cxx_lib/inc/ssp_11xx.h **** 	pSSP->CR1 |= SSP_CR1_SSP_EN;
 235:../../lpc11cx4-library/lpc_chip_11cxx_lib/inc/ssp_11xx.h **** }
 236:../../lpc11cx4-library/lpc_chip_11cxx_lib/inc/ssp_11xx.h **** 
 237:../../lpc11cx4-library/lpc_chip_11cxx_lib/inc/ssp_11xx.h **** /**
 238:../../lpc11cx4-library/lpc_chip_11cxx_lib/inc/ssp_11xx.h ****  * @brief	Disable SSP operation
 239:../../lpc11cx4-library/lpc_chip_11cxx_lib/inc/ssp_11xx.h ****  * @param	pSSP		: The base of SSP peripheral on the chip
 240:../../lpc11cx4-library/lpc_chip_11cxx_lib/inc/ssp_11xx.h ****  * @return	 Nothing
 241:../../lpc11cx4-library/lpc_chip_11cxx_lib/inc/ssp_11xx.h ****  */
 242:../../lpc11cx4-library/lpc_chip_11cxx_lib/inc/ssp_11xx.h **** STATIC INLINE void Chip_SSP_Disable(LPC_SSP_T *pSSP)
 243:../../lpc11cx4-library/lpc_chip_11cxx_lib/inc/ssp_11xx.h **** {
 244:../../lpc11cx4-library/lpc_chip_11cxx_lib/inc/ssp_11xx.h **** 	pSSP->CR1 &= (~SSP_CR1_SSP_EN) & SSP_CR1_BITMASK;
 245:../../lpc11cx4-library/lpc_chip_11cxx_lib/inc/ssp_11xx.h **** }
ARM GAS  /tmp/ccQWJFys.s 			page 40


 246:../../lpc11cx4-library/lpc_chip_11cxx_lib/inc/ssp_11xx.h **** 
 247:../../lpc11cx4-library/lpc_chip_11cxx_lib/inc/ssp_11xx.h **** /**
 248:../../lpc11cx4-library/lpc_chip_11cxx_lib/inc/ssp_11xx.h ****  * @brief	Enable loopback mode
 249:../../lpc11cx4-library/lpc_chip_11cxx_lib/inc/ssp_11xx.h ****  * @param	pSSP		: The base of SSP peripheral on the chip
 250:../../lpc11cx4-library/lpc_chip_11cxx_lib/inc/ssp_11xx.h ****  * @return	 Nothing
 251:../../lpc11cx4-library/lpc_chip_11cxx_lib/inc/ssp_11xx.h ****  * @note	Serial input is taken from the serial output (MOSI or MISO) rather
 252:../../lpc11cx4-library/lpc_chip_11cxx_lib/inc/ssp_11xx.h ****  * than the serial input pin
 253:../../lpc11cx4-library/lpc_chip_11cxx_lib/inc/ssp_11xx.h ****  */
 254:../../lpc11cx4-library/lpc_chip_11cxx_lib/inc/ssp_11xx.h **** STATIC INLINE void Chip_SSP_EnableLoopBack(LPC_SSP_T *pSSP)
 255:../../lpc11cx4-library/lpc_chip_11cxx_lib/inc/ssp_11xx.h **** {
 256:../../lpc11cx4-library/lpc_chip_11cxx_lib/inc/ssp_11xx.h **** 	pSSP->CR1 |= SSP_CR1_LBM_EN;
 257:../../lpc11cx4-library/lpc_chip_11cxx_lib/inc/ssp_11xx.h **** }
 258:../../lpc11cx4-library/lpc_chip_11cxx_lib/inc/ssp_11xx.h **** 
 259:../../lpc11cx4-library/lpc_chip_11cxx_lib/inc/ssp_11xx.h **** /**
 260:../../lpc11cx4-library/lpc_chip_11cxx_lib/inc/ssp_11xx.h ****  * @brief	Disable loopback mode
 261:../../lpc11cx4-library/lpc_chip_11cxx_lib/inc/ssp_11xx.h ****  * @param	pSSP		: The base of SSP peripheral on the chip
 262:../../lpc11cx4-library/lpc_chip_11cxx_lib/inc/ssp_11xx.h ****  * @return	 Nothing
 263:../../lpc11cx4-library/lpc_chip_11cxx_lib/inc/ssp_11xx.h ****  * @note	Serial input is taken from the serial output (MOSI or MISO) rather
 264:../../lpc11cx4-library/lpc_chip_11cxx_lib/inc/ssp_11xx.h ****  * than the serial input pin
 265:../../lpc11cx4-library/lpc_chip_11cxx_lib/inc/ssp_11xx.h ****  */
 266:../../lpc11cx4-library/lpc_chip_11cxx_lib/inc/ssp_11xx.h **** STATIC INLINE void Chip_SSP_DisableLoopBack(LPC_SSP_T *pSSP)
 267:../../lpc11cx4-library/lpc_chip_11cxx_lib/inc/ssp_11xx.h **** {
 268:../../lpc11cx4-library/lpc_chip_11cxx_lib/inc/ssp_11xx.h **** 	pSSP->CR1 &= (~SSP_CR1_LBM_EN) & SSP_CR1_BITMASK;
 269:../../lpc11cx4-library/lpc_chip_11cxx_lib/inc/ssp_11xx.h **** }
 270:../../lpc11cx4-library/lpc_chip_11cxx_lib/inc/ssp_11xx.h **** 
 271:../../lpc11cx4-library/lpc_chip_11cxx_lib/inc/ssp_11xx.h **** /**
 272:../../lpc11cx4-library/lpc_chip_11cxx_lib/inc/ssp_11xx.h ****  * @brief	Get the current status of SSP controller
 273:../../lpc11cx4-library/lpc_chip_11cxx_lib/inc/ssp_11xx.h ****  * @param	pSSP	: The base of SSP peripheral on the chip
 274:../../lpc11cx4-library/lpc_chip_11cxx_lib/inc/ssp_11xx.h ****  * @param	Stat	: Type of status, should be :
 275:../../lpc11cx4-library/lpc_chip_11cxx_lib/inc/ssp_11xx.h ****  *						- SSP_STAT_TFE
 276:../../lpc11cx4-library/lpc_chip_11cxx_lib/inc/ssp_11xx.h ****  *						- SSP_STAT_TNF
 277:../../lpc11cx4-library/lpc_chip_11cxx_lib/inc/ssp_11xx.h ****  *						- SSP_STAT_RNE
 278:../../lpc11cx4-library/lpc_chip_11cxx_lib/inc/ssp_11xx.h ****  *						- SSP_STAT_RFF
 279:../../lpc11cx4-library/lpc_chip_11cxx_lib/inc/ssp_11xx.h ****  *						- SSP_STAT_BSY
 280:../../lpc11cx4-library/lpc_chip_11cxx_lib/inc/ssp_11xx.h ****  * @return	 SSP controller status, SET or RESET
 281:../../lpc11cx4-library/lpc_chip_11cxx_lib/inc/ssp_11xx.h ****  */
 282:../../lpc11cx4-library/lpc_chip_11cxx_lib/inc/ssp_11xx.h **** STATIC INLINE FlagStatus Chip_SSP_GetStatus(LPC_SSP_T *pSSP, SSP_STATUS_T Stat)
 283:../../lpc11cx4-library/lpc_chip_11cxx_lib/inc/ssp_11xx.h **** {
 284:../../lpc11cx4-library/lpc_chip_11cxx_lib/inc/ssp_11xx.h **** 	return (pSSP->SR & Stat) ? SET : RESET;
 285:../../lpc11cx4-library/lpc_chip_11cxx_lib/inc/ssp_11xx.h **** }
 286:../../lpc11cx4-library/lpc_chip_11cxx_lib/inc/ssp_11xx.h **** 
 287:../../lpc11cx4-library/lpc_chip_11cxx_lib/inc/ssp_11xx.h **** /**
 288:../../lpc11cx4-library/lpc_chip_11cxx_lib/inc/ssp_11xx.h ****  * @brief	Get the masked interrupt status
 289:../../lpc11cx4-library/lpc_chip_11cxx_lib/inc/ssp_11xx.h ****  * @param	pSSP	: The base of SSP peripheral on the chip
 290:../../lpc11cx4-library/lpc_chip_11cxx_lib/inc/ssp_11xx.h ****  * @return	 SSP Masked Interrupt Status Register value
 291:../../lpc11cx4-library/lpc_chip_11cxx_lib/inc/ssp_11xx.h ****  * @note	The return value contains a 1 for each interrupt condition that is asserted and enabled (m
 292:../../lpc11cx4-library/lpc_chip_11cxx_lib/inc/ssp_11xx.h ****  */
 293:../../lpc11cx4-library/lpc_chip_11cxx_lib/inc/ssp_11xx.h **** STATIC INLINE uint32_t Chip_SSP_GetIntStatus(LPC_SSP_T *pSSP)
 294:../../lpc11cx4-library/lpc_chip_11cxx_lib/inc/ssp_11xx.h **** {
 295:../../lpc11cx4-library/lpc_chip_11cxx_lib/inc/ssp_11xx.h **** 	return pSSP->MIS;
 296:../../lpc11cx4-library/lpc_chip_11cxx_lib/inc/ssp_11xx.h **** }
 297:../../lpc11cx4-library/lpc_chip_11cxx_lib/inc/ssp_11xx.h **** 
 298:../../lpc11cx4-library/lpc_chip_11cxx_lib/inc/ssp_11xx.h **** /**
 299:../../lpc11cx4-library/lpc_chip_11cxx_lib/inc/ssp_11xx.h ****  * @brief	Get the raw interrupt status
 300:../../lpc11cx4-library/lpc_chip_11cxx_lib/inc/ssp_11xx.h ****  * @param	pSSP	: The base of SSP peripheral on the chip
 301:../../lpc11cx4-library/lpc_chip_11cxx_lib/inc/ssp_11xx.h ****  * @param	RawInt	: Interrupt condition to be get status, shoud be :
 302:../../lpc11cx4-library/lpc_chip_11cxx_lib/inc/ssp_11xx.h ****  *						- SSP_RORRIS
ARM GAS  /tmp/ccQWJFys.s 			page 41


 303:../../lpc11cx4-library/lpc_chip_11cxx_lib/inc/ssp_11xx.h ****  *						- SSP_RTRIS
 304:../../lpc11cx4-library/lpc_chip_11cxx_lib/inc/ssp_11xx.h ****  *						- SSP_RXRIS
 305:../../lpc11cx4-library/lpc_chip_11cxx_lib/inc/ssp_11xx.h ****  *						- SSP_TXRIS
 306:../../lpc11cx4-library/lpc_chip_11cxx_lib/inc/ssp_11xx.h ****  * @return	 Raw interrupt status corresponding to interrupt condition , SET or RESET
 307:../../lpc11cx4-library/lpc_chip_11cxx_lib/inc/ssp_11xx.h ****  * @note	Get the status of each interrupt condition ,regardless of whether or not the interrupt is 
 308:../../lpc11cx4-library/lpc_chip_11cxx_lib/inc/ssp_11xx.h ****  */
 309:../../lpc11cx4-library/lpc_chip_11cxx_lib/inc/ssp_11xx.h **** STATIC INLINE IntStatus Chip_SSP_GetRawIntStatus(LPC_SSP_T *pSSP, SSP_RAWINTSTATUS_T RawInt)
 310:../../lpc11cx4-library/lpc_chip_11cxx_lib/inc/ssp_11xx.h **** {
 311:../../lpc11cx4-library/lpc_chip_11cxx_lib/inc/ssp_11xx.h **** 	return (pSSP->RIS & RawInt) ? SET : RESET;
 312:../../lpc11cx4-library/lpc_chip_11cxx_lib/inc/ssp_11xx.h **** }
 313:../../lpc11cx4-library/lpc_chip_11cxx_lib/inc/ssp_11xx.h **** 
 314:../../lpc11cx4-library/lpc_chip_11cxx_lib/inc/ssp_11xx.h **** /**
 315:../../lpc11cx4-library/lpc_chip_11cxx_lib/inc/ssp_11xx.h ****  * @brief	Get the number of bits transferred in each frame
 316:../../lpc11cx4-library/lpc_chip_11cxx_lib/inc/ssp_11xx.h ****  * @param	pSSP	: The base of SSP peripheral on the chip
 317:../../lpc11cx4-library/lpc_chip_11cxx_lib/inc/ssp_11xx.h ****  * @return	 the number of bits transferred in each frame minus one
 318:../../lpc11cx4-library/lpc_chip_11cxx_lib/inc/ssp_11xx.h ****  * @note	The return value is 0x03 -> 0xF corresponding to 4bit -> 16bit transfer
 319:../../lpc11cx4-library/lpc_chip_11cxx_lib/inc/ssp_11xx.h ****  */
 320:../../lpc11cx4-library/lpc_chip_11cxx_lib/inc/ssp_11xx.h **** STATIC INLINE uint8_t Chip_SSP_GetDataSize(LPC_SSP_T *pSSP)
 321:../../lpc11cx4-library/lpc_chip_11cxx_lib/inc/ssp_11xx.h **** {
 322:../../lpc11cx4-library/lpc_chip_11cxx_lib/inc/ssp_11xx.h **** 	return SSP_CR0_DSS(pSSP->CR0);
 323:../../lpc11cx4-library/lpc_chip_11cxx_lib/inc/ssp_11xx.h **** }
 324:../../lpc11cx4-library/lpc_chip_11cxx_lib/inc/ssp_11xx.h **** 
 325:../../lpc11cx4-library/lpc_chip_11cxx_lib/inc/ssp_11xx.h **** /**
 326:../../lpc11cx4-library/lpc_chip_11cxx_lib/inc/ssp_11xx.h ****  * @brief	Clear the corresponding interrupt condition(s) in the SSP controller
 327:../../lpc11cx4-library/lpc_chip_11cxx_lib/inc/ssp_11xx.h ****  * @param	pSSP	: The base of SSP peripheral on the chip
 328:../../lpc11cx4-library/lpc_chip_11cxx_lib/inc/ssp_11xx.h ****  * @param	IntClear: Type of cleared interrupt, should be :
 329:../../lpc11cx4-library/lpc_chip_11cxx_lib/inc/ssp_11xx.h ****  *						- SSP_RORIC
 330:../../lpc11cx4-library/lpc_chip_11cxx_lib/inc/ssp_11xx.h ****  *						- SSP_RTIC
 331:../../lpc11cx4-library/lpc_chip_11cxx_lib/inc/ssp_11xx.h ****  * @return	 Nothing
 332:../../lpc11cx4-library/lpc_chip_11cxx_lib/inc/ssp_11xx.h ****  * @note	Software can clear one or more interrupt condition(s) in the SSP controller
 333:../../lpc11cx4-library/lpc_chip_11cxx_lib/inc/ssp_11xx.h ****  */
 334:../../lpc11cx4-library/lpc_chip_11cxx_lib/inc/ssp_11xx.h **** STATIC INLINE void Chip_SSP_ClearIntPending(LPC_SSP_T *pSSP, SSP_INTCLEAR_T IntClear)
 335:../../lpc11cx4-library/lpc_chip_11cxx_lib/inc/ssp_11xx.h **** {
 336:../../lpc11cx4-library/lpc_chip_11cxx_lib/inc/ssp_11xx.h **** 	pSSP->ICR = IntClear;
 337:../../lpc11cx4-library/lpc_chip_11cxx_lib/inc/ssp_11xx.h **** }
 338:../../lpc11cx4-library/lpc_chip_11cxx_lib/inc/ssp_11xx.h **** 
 339:../../lpc11cx4-library/lpc_chip_11cxx_lib/inc/ssp_11xx.h **** /**
 340:../../lpc11cx4-library/lpc_chip_11cxx_lib/inc/ssp_11xx.h ****  * @brief	Enable interrupt for the SSP
 341:../../lpc11cx4-library/lpc_chip_11cxx_lib/inc/ssp_11xx.h ****  * @param	pSSP		: The base of SSP peripheral on the chip
 342:../../lpc11cx4-library/lpc_chip_11cxx_lib/inc/ssp_11xx.h ****  * @return	 Nothing
 343:../../lpc11cx4-library/lpc_chip_11cxx_lib/inc/ssp_11xx.h ****  */
 344:../../lpc11cx4-library/lpc_chip_11cxx_lib/inc/ssp_11xx.h **** STATIC INLINE void Chip_SSP_Int_Enable(LPC_SSP_T *pSSP)
 345:../../lpc11cx4-library/lpc_chip_11cxx_lib/inc/ssp_11xx.h **** {
 346:../../lpc11cx4-library/lpc_chip_11cxx_lib/inc/ssp_11xx.h **** 	pSSP->IMSC |= SSP_TXIM;
 347:../../lpc11cx4-library/lpc_chip_11cxx_lib/inc/ssp_11xx.h **** }
 348:../../lpc11cx4-library/lpc_chip_11cxx_lib/inc/ssp_11xx.h **** 
 349:../../lpc11cx4-library/lpc_chip_11cxx_lib/inc/ssp_11xx.h **** /**
 350:../../lpc11cx4-library/lpc_chip_11cxx_lib/inc/ssp_11xx.h ****  * @brief	Disable interrupt for the SSP
 351:../../lpc11cx4-library/lpc_chip_11cxx_lib/inc/ssp_11xx.h ****  * @param	pSSP		: The base of SSP peripheral on the chip
 352:../../lpc11cx4-library/lpc_chip_11cxx_lib/inc/ssp_11xx.h ****  * @return	 Nothing
 353:../../lpc11cx4-library/lpc_chip_11cxx_lib/inc/ssp_11xx.h ****  */
 354:../../lpc11cx4-library/lpc_chip_11cxx_lib/inc/ssp_11xx.h **** STATIC INLINE void Chip_SSP_Int_Disable(LPC_SSP_T *pSSP)
 355:../../lpc11cx4-library/lpc_chip_11cxx_lib/inc/ssp_11xx.h **** {
 356:../../lpc11cx4-library/lpc_chip_11cxx_lib/inc/ssp_11xx.h **** 	pSSP->IMSC &= (~SSP_TXIM);
 357:../../lpc11cx4-library/lpc_chip_11cxx_lib/inc/ssp_11xx.h **** }
 358:../../lpc11cx4-library/lpc_chip_11cxx_lib/inc/ssp_11xx.h **** 
 359:../../lpc11cx4-library/lpc_chip_11cxx_lib/inc/ssp_11xx.h **** /**
ARM GAS  /tmp/ccQWJFys.s 			page 42


 360:../../lpc11cx4-library/lpc_chip_11cxx_lib/inc/ssp_11xx.h ****  * @brief	Get received SSP data
 361:../../lpc11cx4-library/lpc_chip_11cxx_lib/inc/ssp_11xx.h ****  * @param	pSSP	: The base of SSP peripheral on the chip
 362:../../lpc11cx4-library/lpc_chip_11cxx_lib/inc/ssp_11xx.h ****  * @return	 SSP 16-bit data received
 363:../../lpc11cx4-library/lpc_chip_11cxx_lib/inc/ssp_11xx.h ****  */
 364:../../lpc11cx4-library/lpc_chip_11cxx_lib/inc/ssp_11xx.h **** STATIC INLINE uint16_t Chip_SSP_ReceiveFrame(LPC_SSP_T *pSSP)
 365:../../lpc11cx4-library/lpc_chip_11cxx_lib/inc/ssp_11xx.h **** {
 366:../../lpc11cx4-library/lpc_chip_11cxx_lib/inc/ssp_11xx.h **** 	return (uint16_t) (SSP_DR_BITMASK(pSSP->DR));
 367:../../lpc11cx4-library/lpc_chip_11cxx_lib/inc/ssp_11xx.h **** }
 368:../../lpc11cx4-library/lpc_chip_11cxx_lib/inc/ssp_11xx.h **** 
 369:../../lpc11cx4-library/lpc_chip_11cxx_lib/inc/ssp_11xx.h **** /**
 370:../../lpc11cx4-library/lpc_chip_11cxx_lib/inc/ssp_11xx.h ****  * @brief	Send SSP 16-bit data
 371:../../lpc11cx4-library/lpc_chip_11cxx_lib/inc/ssp_11xx.h ****  * @param	pSSP	: The base of SSP peripheral on the chip
 372:../../lpc11cx4-library/lpc_chip_11cxx_lib/inc/ssp_11xx.h ****  * @param	tx_data	: SSP 16-bit data to be transmited
 373:../../lpc11cx4-library/lpc_chip_11cxx_lib/inc/ssp_11xx.h ****  * @return	 Nothing
 374:../../lpc11cx4-library/lpc_chip_11cxx_lib/inc/ssp_11xx.h ****  */
 375:../../lpc11cx4-library/lpc_chip_11cxx_lib/inc/ssp_11xx.h **** STATIC INLINE void Chip_SSP_SendFrame(LPC_SSP_T *pSSP, uint16_t tx_data)
 376:../../lpc11cx4-library/lpc_chip_11cxx_lib/inc/ssp_11xx.h **** {
 377:../../lpc11cx4-library/lpc_chip_11cxx_lib/inc/ssp_11xx.h **** 	pSSP->DR = SSP_DR_BITMASK(tx_data);
 378:../../lpc11cx4-library/lpc_chip_11cxx_lib/inc/ssp_11xx.h **** }
 379:../../lpc11cx4-library/lpc_chip_11cxx_lib/inc/ssp_11xx.h **** 
 380:../../lpc11cx4-library/lpc_chip_11cxx_lib/inc/ssp_11xx.h **** /**
 381:../../lpc11cx4-library/lpc_chip_11cxx_lib/inc/ssp_11xx.h ****  * @brief	Set up output clocks per bit for SSP bus
 382:../../lpc11cx4-library/lpc_chip_11cxx_lib/inc/ssp_11xx.h ****  * @param	pSSP		: The base of SSP peripheral on the chip
 383:../../lpc11cx4-library/lpc_chip_11cxx_lib/inc/ssp_11xx.h ****  * @param	clk_rate	fs: The number of prescaler-output clocks per bit on the bus, minus one
 384:../../lpc11cx4-library/lpc_chip_11cxx_lib/inc/ssp_11xx.h ****  * @param	prescale	: The factor by which the Prescaler divides the SSP peripheral clock PCLK
 385:../../lpc11cx4-library/lpc_chip_11cxx_lib/inc/ssp_11xx.h ****  * @return	 Nothing
 386:../../lpc11cx4-library/lpc_chip_11cxx_lib/inc/ssp_11xx.h ****  * @note	The bit frequency is PCLK / (prescale x[clk_rate+1])
 387:../../lpc11cx4-library/lpc_chip_11cxx_lib/inc/ssp_11xx.h ****  */
 388:../../lpc11cx4-library/lpc_chip_11cxx_lib/inc/ssp_11xx.h **** void Chip_SSP_SetClockRate(LPC_SSP_T *pSSP, uint32_t clk_rate, uint32_t prescale);
 389:../../lpc11cx4-library/lpc_chip_11cxx_lib/inc/ssp_11xx.h **** 
 390:../../lpc11cx4-library/lpc_chip_11cxx_lib/inc/ssp_11xx.h **** /**
 391:../../lpc11cx4-library/lpc_chip_11cxx_lib/inc/ssp_11xx.h ****  * @brief	Set up the SSP frame format
 392:../../lpc11cx4-library/lpc_chip_11cxx_lib/inc/ssp_11xx.h ****  * @param	pSSP		: The base of SSP peripheral on the chip
 393:../../lpc11cx4-library/lpc_chip_11cxx_lib/inc/ssp_11xx.h ****  * @param	bits		: The number of bits transferred in each frame, should be SSP_BITS_4 to SSP_BITS_16
 394:../../lpc11cx4-library/lpc_chip_11cxx_lib/inc/ssp_11xx.h ****  * @param	frameFormat	: Frame format, should be :
 395:../../lpc11cx4-library/lpc_chip_11cxx_lib/inc/ssp_11xx.h ****  *							- SSP_FRAMEFORMAT_SPI
 396:../../lpc11cx4-library/lpc_chip_11cxx_lib/inc/ssp_11xx.h ****  *							- SSP_FRAME_FORMAT_TI
 397:../../lpc11cx4-library/lpc_chip_11cxx_lib/inc/ssp_11xx.h ****  *							- SSP_FRAMEFORMAT_MICROWIRE
 398:../../lpc11cx4-library/lpc_chip_11cxx_lib/inc/ssp_11xx.h ****  * @param	clockMode	: Select Clock polarity and Clock phase, should be :
 399:../../lpc11cx4-library/lpc_chip_11cxx_lib/inc/ssp_11xx.h ****  *							- SSP_CLOCK_CPHA0_CPOL0
 400:../../lpc11cx4-library/lpc_chip_11cxx_lib/inc/ssp_11xx.h ****  *							- SSP_CLOCK_CPHA0_CPOL1
 401:../../lpc11cx4-library/lpc_chip_11cxx_lib/inc/ssp_11xx.h ****  *							- SSP_CLOCK_CPHA1_CPOL0
 402:../../lpc11cx4-library/lpc_chip_11cxx_lib/inc/ssp_11xx.h ****  *							- SSP_CLOCK_CPHA1_CPOL1
 403:../../lpc11cx4-library/lpc_chip_11cxx_lib/inc/ssp_11xx.h ****  * @return	 Nothing
 404:../../lpc11cx4-library/lpc_chip_11cxx_lib/inc/ssp_11xx.h ****  * @note	Note: The clockFormat is only used in SPI mode
 405:../../lpc11cx4-library/lpc_chip_11cxx_lib/inc/ssp_11xx.h ****  */
 406:../../lpc11cx4-library/lpc_chip_11cxx_lib/inc/ssp_11xx.h **** STATIC INLINE void Chip_SSP_SetFormat(LPC_SSP_T *pSSP, uint32_t bits, uint32_t frameFormat, uint32_
 407:../../lpc11cx4-library/lpc_chip_11cxx_lib/inc/ssp_11xx.h **** {
 408:../../lpc11cx4-library/lpc_chip_11cxx_lib/inc/ssp_11xx.h **** 	pSSP->CR0 = (pSSP->CR0 & ~0xFF) | bits | frameFormat | clockMode;
 1238              		.loc 3 408 0
 1239 003a FF22     		mov	r2, #255	@ tmp186,
 1240              	.LBE83:
 1241              	.LBE82:
  52:../../lpc11cx4-library/evt_lib/src/ltc6804.c **** 	Chip_SSP_SetMaster(config->pSSP, true);
 1242              		.loc 1 52 0
 1243 003c 2868     		ldr	r0, [r5]	@ D.7628, config_2(D)->pSSP
 1244              	.LVL150:
ARM GAS  /tmp/ccQWJFys.s 			page 43


  53:../../lpc11cx4-library/evt_lib/src/ltc6804.c **** 	Chip_SSP_Enable(config->pSSP);
 1245              		.loc 1 53 0
 1246 003e 0121     		mov	r1, #1	@,
 1247              	.LBB86:
 1248              	.LBB84:
 1249              		.loc 3 408 0
 1250 0040 0368     		ldr	r3, [r0]	@ D.7627, _15->CR0
 1251              	.LBE84:
 1252              	.LBE86:
  64:../../lpc11cx4-library/evt_lib/src/ltc6804.c **** 	state->cfg[5] = 0x00; // [TODO] Consider using DCTO
 1253              		.loc 1 64 0
 1254 0042 0027     		mov	r7, #0	@ tmp221,
 1255              	.LBB87:
 1256              	.LBB85:
 1257              		.loc 3 408 0
 1258 0044 9343     		bic	r3, r2	@ D.7627, tmp186
 1259 0046 383A     		sub	r2, r2, #56	@ tmp187,
 1260 0048 1343     		orr	r3, r2	@ D.7627, tmp187
 1261 004a 0360     		str	r3, [r0]	@ D.7627, _15->CR0
 1262              	.LBE85:
 1263              	.LBE87:
  53:../../lpc11cx4-library/evt_lib/src/ltc6804.c **** 	Chip_SSP_Enable(config->pSSP);
 1264              		.loc 1 53 0
 1265 004c FFF7FEFF 		bl	Chip_SSP_SetMaster	@
 1266              	.LVL151:
 1267              	.LBB88:
 1268              	.LBB89:
 234:../../lpc11cx4-library/lpc_chip_11cxx_lib/inc/ssp_11xx.h **** }
 1269              		.loc 3 234 0
 1270 0050 0223     		mov	r3, #2	@ tmp188,
 1271              	.LBE89:
 1272              	.LBE88:
  54:../../lpc11cx4-library/evt_lib/src/ltc6804.c **** 
 1273              		.loc 1 54 0
 1274 0052 2A68     		ldr	r2, [r5]	@ D.7628, config_2(D)->pSSP
 1275              	.LVL152:
  59:../../lpc11cx4-library/evt_lib/src/ltc6804.c **** 	state->cfg[0] = 0xBC; 
 1276              		.loc 1 59 0
 1277 0054 A068     		ldr	r0, [r4, #8]	@ tmp262, state_28(D)->rx_buf
 1278              	.LBB92:
 1279              	.LBB90:
 234:../../lpc11cx4-library/lpc_chip_11cxx_lib/inc/ssp_11xx.h **** }
 1280              		.loc 3 234 0
 1281 0056 5168     		ldr	r1, [r2, #4]	@ D.7627, _18->CR1
 1282              	.LBE90:
 1283              	.LBE92:
  82:../../lpc11cx4-library/evt_lib/src/ltc6804.c **** 
 1284              		.loc 1 82 0
 1285              		@ sp needed	@
 1286              	.LBB93:
 1287              	.LBB91:
 234:../../lpc11cx4-library/lpc_chip_11cxx_lib/inc/ssp_11xx.h **** }
 1288              		.loc 3 234 0
 1289 0058 0B43     		orr	r3, r1	@ D.7627, D.7627
 1290 005a 5360     		str	r3, [r2, #4]	@ D.7627, _18->CR1
 1291              	.LBE91:
 1292              	.LBE93:
ARM GAS  /tmp/ccQWJFys.s 			page 44


  56:../../lpc11cx4-library/evt_lib/src/ltc6804.c **** 	uint16_t VOV = config->max_cell_mV * 10 / 16;
 1293              		.loc 1 56 0
 1294 005c 2B69     		ldr	r3, [r5, #16]	@ config_2(D)->min_cell_mV, config_2(D)->min_cell_mV
 1295 005e 9A00     		lsl	r2, r3, #2	@ tmp191, config_2(D)->min_cell_mV,
 1296              	.LVL153:
 1297 0060 D318     		add	r3, r2, r3	@ D.7627, tmp191, config_2(D)->min_cell_mV
  57:../../lpc11cx4-library/evt_lib/src/ltc6804.c **** 
 1298              		.loc 1 57 0
 1299 0062 6A69     		ldr	r2, [r5, #20]	@ config_2(D)->max_cell_mV, config_2(D)->max_cell_mV
  56:../../lpc11cx4-library/evt_lib/src/ltc6804.c **** 	uint16_t VOV = config->max_cell_mV * 10 / 16;
 1300              		.loc 1 56 0
 1301 0064 5B00     		lsl	r3, r3, #1	@ tmp193, D.7627,
  57:../../lpc11cx4-library/evt_lib/src/ltc6804.c **** 
 1302              		.loc 1 57 0
 1303 0066 9100     		lsl	r1, r2, #2	@ tmp199, config_2(D)->max_cell_mV,
 1304 0068 8A18     		add	r2, r1, r2	@ D.7627, tmp199, config_2(D)->max_cell_mV
  59:../../lpc11cx4-library/evt_lib/src/ltc6804.c **** 	state->cfg[0] = 0xBC; 
 1305              		.loc 1 59 0
 1306 006a 2168     		ldr	r1, [r4]	@ state_28(D)->xf, state_28(D)->xf
  56:../../lpc11cx4-library/evt_lib/src/ltc6804.c **** 	uint16_t VOV = config->max_cell_mV * 10 / 16;
 1307              		.loc 1 56 0
 1308 006c 1B09     		lsr	r3, r3, #4	@ D.7627, tmp193,
  59:../../lpc11cx4-library/evt_lib/src/ltc6804.c **** 	state->cfg[0] = 0xBC; 
 1309              		.loc 1 59 0
 1310 006e 8860     		str	r0, [r1, #8]	@ tmp262, _29->rx_data
  60:../../lpc11cx4-library/evt_lib/src/ltc6804.c **** 	state->cfg[1] = VUV & 0xFF;
 1311              		.loc 1 60 0
 1312 0070 BC21     		mov	r1, #188	@ tmp204,
 1313 0072 6069     		ldr	r0, [r4, #20]	@ tmp263, state_28(D)->cfg
  56:../../lpc11cx4-library/evt_lib/src/ltc6804.c **** 	uint16_t VOV = config->max_cell_mV * 10 / 16;
 1314              		.loc 1 56 0
 1315 0074 013B     		sub	r3, r3, #1	@ tmp196,
  60:../../lpc11cx4-library/evt_lib/src/ltc6804.c **** 	state->cfg[1] = VUV & 0xFF;
 1316              		.loc 1 60 0
 1317 0076 0170     		strb	r1, [r0]	@ tmp204, *_32
 1318              	.LVL154:
  61:../../lpc11cx4-library/evt_lib/src/ltc6804.c **** 	state->cfg[2] = (VUV & 0xF00) >> 8 | (VOV & 0xF) << 4; 
 1319              		.loc 1 61 0
 1320 0078 6169     		ldr	r1, [r4, #20]	@ tmp264, state_28(D)->cfg
  56:../../lpc11cx4-library/evt_lib/src/ltc6804.c **** 	uint16_t VOV = config->max_cell_mV * 10 / 16;
 1321              		.loc 1 56 0
 1322 007a 9BB2     		uxth	r3, r3	@ VUV, tmp196
 1323              	.LVL155:
 1324 007c 5203     		lsl	r2, r2, #13	@ tmp207, D.7627,
 1325              	.LVL156:
  61:../../lpc11cx4-library/evt_lib/src/ltc6804.c **** 	state->cfg[2] = (VUV & 0xF00) >> 8 | (VOV & 0xF) << 4; 
 1326              		.loc 1 61 0
 1327 007e 4B70     		strb	r3, [r1, #1]	@ VUV, MEM[(uint8_t *)_34 + 1B]
 1328 0080 120C     		lsr	r2, r2, #16	@ D.7632, tmp207,
  62:../../lpc11cx4-library/evt_lib/src/ltc6804.c **** 	state->cfg[3] = (VOV & 0xFF0) >> 4;
 1329              		.loc 1 62 0
 1330 0082 1B05     		lsl	r3, r3, #20	@ D.7632, VUV,
 1331              	.LVL157:
 1332 0084 1101     		lsl	r1, r2, #4	@ D.7632, D.7632,
 1333 0086 1B0F     		lsr	r3, r3, #28	@ D.7632, D.7632,
 1334 0088 0B43     		orr	r3, r1	@ tmp215, D.7632
 1335 008a 6169     		ldr	r1, [r4, #20]	@ tmp265, state_28(D)->cfg
ARM GAS  /tmp/ccQWJFys.s 			page 45


  63:../../lpc11cx4-library/evt_lib/src/ltc6804.c **** 	state->cfg[4] = 0x00; 
 1336              		.loc 1 63 0
 1337 008c 1209     		lsr	r2, r2, #4	@ D.7632, D.7632,
  62:../../lpc11cx4-library/evt_lib/src/ltc6804.c **** 	state->cfg[3] = (VOV & 0xFF0) >> 4;
 1338              		.loc 1 62 0
 1339 008e 8B70     		strb	r3, [r1, #2]	@ tmp215, MEM[(uint8_t *)_37 + 2B]
  63:../../lpc11cx4-library/evt_lib/src/ltc6804.c **** 	state->cfg[4] = 0x00; 
 1340              		.loc 1 63 0
 1341 0090 6369     		ldr	r3, [r4, #20]	@ tmp266, state_28(D)->cfg
  68:../../lpc11cx4-library/evt_lib/src/ltc6804.c **** 	state->waiting = false;
 1342              		.loc 1 68 0
 1343 0092 1749     		ldr	r1, .L90	@,
  63:../../lpc11cx4-library/evt_lib/src/ltc6804.c **** 	state->cfg[4] = 0x00; 
 1344              		.loc 1 63 0
 1345 0094 DA70     		strb	r2, [r3, #3]	@ D.7632, MEM[(uint8_t *)_47 + 3B]
  64:../../lpc11cx4-library/evt_lib/src/ltc6804.c **** 	state->cfg[5] = 0x00; // [TODO] Consider using DCTO
 1346              		.loc 1 64 0
 1347 0096 6369     		ldr	r3, [r4, #20]	@ tmp267, state_28(D)->cfg
 1348 0098 1F71     		strb	r7, [r3, #4]	@ tmp221, MEM[(uint8_t *)_52 + 4B]
  65:../../lpc11cx4-library/evt_lib/src/ltc6804.c **** 
 1349              		.loc 1 65 0
 1350 009a 6369     		ldr	r3, [r4, #20]	@ tmp268, state_28(D)->cfg
 1351 009c 5F71     		strb	r7, [r3, #5]	@ tmp221, MEM[(uint8_t *)_55 + 5B]
  68:../../lpc11cx4-library/evt_lib/src/ltc6804.c **** 	state->waiting = false;
 1352              		.loc 1 68 0
 1353 009e 6B68     		ldr	r3, [r5, #4]	@ config_2(D)->baud, config_2(D)->baud
  67:../../lpc11cx4-library/evt_lib/src/ltc6804.c **** 	state->wake_length = 3*config->baud/80000 + 1; // [TODO] Remember how this was calculated
 1354              		.loc 1 67 0
 1355 00a0 E660     		str	r6, [r4, #12]	@ msTicks, state_28(D)->last_message
  68:../../lpc11cx4-library/evt_lib/src/ltc6804.c **** 	state->waiting = false;
 1356              		.loc 1 68 0
 1357 00a2 5800     		lsl	r0, r3, #1	@ tmp227, config_2(D)->baud,
 1358 00a4 C018     		add	r0, r0, r3	@ D.7627, tmp227, config_2(D)->baud
 1359 00a6 FFF7FEFF 		bl	__aeabi_uidiv	@
 1360              	.LVL158:
 1361 00aa 0130     		add	r0, r0, #1	@ D.7627,
 1362 00ac 2061     		str	r0, [r4, #16]	@ D.7627, state_28(D)->wake_length
  69:../../lpc11cx4-library/evt_lib/src/ltc6804.c **** 	state->wait_time = LTC6804_ADC_MODE_WAIT_TIMES[config->adc_mode];
 1363              		.loc 1 69 0
 1364 00ae 2776     		strb	r7, [r4, #24]	@ tmp221, state_28(D)->waiting
  70:../../lpc11cx4-library/evt_lib/src/ltc6804.c **** 	// state->wait_time = 7; // [TODO] Remove
 1365              		.loc 1 70 0
 1366 00b0 2B7E     		ldrb	r3, [r5, #24]	@ D.7632,
 1367 00b2 104A     		ldr	r2, .L90+4	@ tmp236,
  72:../../lpc11cx4-library/evt_lib/src/ltc6804.c **** 	state->balancing = false;
 1368              		.loc 1 72 0
 1369 00b4 6662     		str	r6, [r4, #36]	@ msTicks, state_28(D)->last_sleep_wake
  70:../../lpc11cx4-library/evt_lib/src/ltc6804.c **** 	// state->wait_time = 7; // [TODO] Remove
 1370              		.loc 1 70 0
 1371 00b6 D35C     		ldrb	r3, [r2, r3]	@ tmp238, LTC6804_ADC_MODE_WAIT_TIMES
  79:../../lpc11cx4-library/evt_lib/src/ltc6804.c **** 
 1372              		.loc 1 79 0
 1373 00b8 281C     		mov	r0, r5	@, config
  70:../../lpc11cx4-library/evt_lib/src/ltc6804.c **** 	// state->wait_time = 7; // [TODO] Remove
 1374              		.loc 1 70 0
 1375 00ba E361     		str	r3, [r4, #28]	@ tmp238, state_28(D)->wait_time
  73:../../lpc11cx4-library/evt_lib/src/ltc6804.c **** 
ARM GAS  /tmp/ccQWJFys.s 			page 46


 1376              		.loc 1 73 0
 1377 00bc 2823     		mov	r3, #40	@ tmp239,
 1378 00be E754     		strb	r7, [r4, r3]	@ tmp221, state_28(D)->balancing
  75:../../lpc11cx4-library/evt_lib/src/ltc6804.c **** 
 1379              		.loc 1 75 0
 1380 00c0 0D4B     		ldr	r3, .L90+8	@ tmp242,
  79:../../lpc11cx4-library/evt_lib/src/ltc6804.c **** 
 1381              		.loc 1 79 0
 1382 00c2 321C     		mov	r2, r6	@, msTicks
  75:../../lpc11cx4-library/evt_lib/src/ltc6804.c **** 
 1383              		.loc 1 75 0
 1384 00c4 1F80     		strh	r7, [r3]	@ tmp221, owt_state
  77:../../lpc11cx4-library/evt_lib/src/ltc6804.c **** 
 1385              		.loc 1 77 0
 1386 00c6 0D4B     		ldr	r3, .L90+12	@ tmp245,
  79:../../lpc11cx4-library/evt_lib/src/ltc6804.c **** 
 1387              		.loc 1 79 0
 1388 00c8 211C     		mov	r1, r4	@, state
  77:../../lpc11cx4-library/evt_lib/src/ltc6804.c **** 
 1389              		.loc 1 77 0
 1390 00ca 1F60     		str	r7, [r3]	@ tmp221, MEM[(void *)&wake_buf]
 1391 00cc 5F60     		str	r7, [r3, #4]	@ tmp221, MEM[(void *)&wake_buf]
 1392 00ce 9F60     		str	r7, [r3, #8]	@ tmp221, MEM[(void *)&wake_buf]
 1393 00d0 DF60     		str	r7, [r3, #12]	@ tmp221, MEM[(void *)&wake_buf]
 1394 00d2 1F61     		str	r7, [r3, #16]	@ tmp221, MEM[(void *)&wake_buf]
 1395 00d4 5F61     		str	r7, [r3, #20]	@ tmp221, MEM[(void *)&wake_buf]
 1396 00d6 9F61     		str	r7, [r3, #24]	@ tmp221, MEM[(void *)&wake_buf]
 1397 00d8 DF61     		str	r7, [r3, #28]	@ tmp221, MEM[(void *)&wake_buf]
 1398 00da 1F62     		str	r7, [r3, #32]	@ tmp221, MEM[(void *)&wake_buf]
 1399 00dc 5F62     		str	r7, [r3, #36]	@ tmp221, MEM[(void *)&wake_buf]
  79:../../lpc11cx4-library/evt_lib/src/ltc6804.c **** 
 1400              		.loc 1 79 0
 1401 00de 0123     		mov	r3, #1	@,
 1402 00e0 FFF7FEFF 		bl	_wake	@
 1403              	.LVL159:
  81:../../lpc11cx4-library/evt_lib/src/ltc6804.c **** }
 1404              		.loc 1 81 0
 1405 00e4 281C     		mov	r0, r5	@, config
 1406 00e6 321C     		mov	r2, r6	@, msTicks
 1407 00e8 211C     		mov	r1, r4	@, state
 1408 00ea FFF7FEFF 		bl	LTC6804_WriteCFG	@
 1409              	.LVL160:
 1410              	.LVL161:
 1411              	.LVL162:
 1412              	.LVL163:
  82:../../lpc11cx4-library/evt_lib/src/ltc6804.c **** 
 1413              		.loc 1 82 0
 1414 00ee F8BD     		pop	{r3, r4, r5, r6, r7, pc}
 1415              	.L91:
 1416              		.align	2
 1417              	.L90:
 1418 00f0 80380100 		.word	80000
 1419 00f4 00000000 		.word	.LANCHOR2
 1420 00f8 00000000 		.word	.LANCHOR3
 1421 00fc 00000000 		.word	.LANCHOR1
 1422              		.cfi_endproc
 1423              	.LFE199:
ARM GAS  /tmp/ccQWJFys.s 			page 47


 1424              		.size	LTC6804_Init, .-LTC6804_Init
 1425              		.section	.text._read,"ax",%progbits
 1426              		.align	2
 1427              		.global	_read
 1428              		.code	16
 1429              		.thumb_func
 1430              		.type	_read, %function
 1431              	_read:
 1432              	.LFB209:
 385:../../lpc11cx4-library/evt_lib/src/ltc6804.c **** 	_wake(config, state, msTicks, false);
 1433              		.loc 1 385 0
 1434              		.cfi_startproc
 1435              	.LVL164:
 1436 0000 F8B5     		push	{r3, r4, r5, r6, r7, lr}	@
 1437              		.cfi_def_cfa_offset 24
 1438              		.cfi_offset 3, -24
 1439              		.cfi_offset 4, -20
 1440              		.cfi_offset 5, -16
 1441              		.cfi_offset 6, -12
 1442              		.cfi_offset 7, -8
 1443              		.cfi_offset 14, -4
 385:../../lpc11cx4-library/evt_lib/src/ltc6804.c **** 	_wake(config, state, msTicks, false);
 1444              		.loc 1 385 0
 1445 0002 0E1C     		mov	r6, r1	@ state, state
 1446 0004 141C     		mov	r4, r2	@ cmd, cmd
 1447 0006 1F1C     		mov	r7, r3	@ msTicks, msTicks
 386:../../lpc11cx4-library/evt_lib/src/ltc6804.c **** 
 1448              		.loc 1 386 0
 1449 0008 1A1C     		mov	r2, r3	@, msTicks
 1450              	.LVL165:
 1451 000a 0023     		mov	r3, #0	@,
 1452              	.LVL166:
 385:../../lpc11cx4-library/evt_lib/src/ltc6804.c **** 	_wake(config, state, msTicks, false);
 1453              		.loc 1 385 0
 1454 000c 051C     		mov	r5, r0	@ config, config
 386:../../lpc11cx4-library/evt_lib/src/ltc6804.c **** 
 1455              		.loc 1 386 0
 1456 000e FFF7FEFF 		bl	_wake	@
 1457              	.LVL167:
 1458              	.LBB94:
 1459              	.LBB95:
 493:../../lpc11cx4-library/evt_lib/src/ltc6804.c **** 	}
 1460              		.loc 1 493 0
 1461 0012 8021     		mov	r1, #128	@ tmp220,
 1462              	.LBE95:
 1463              	.LBE94:
 388:../../lpc11cx4-library/evt_lib/src/ltc6804.c **** 	state->tx_buf[1] = cmd & 0xFF;
 1464              		.loc 1 388 0
 1465 0014 7268     		ldr	r2, [r6, #4]	@ tmp301, state_5(D)->tx_buf
 1466 0016 230A     		lsr	r3, r4, #8	@ tmp210, cmd,
 1467 0018 1370     		strb	r3, [r2]	@ tmp210, *_8
 389:../../lpc11cx4-library/evt_lib/src/ltc6804.c **** 	uint16_t pec = _calculate_pec(state->tx_buf, 2);
 1468              		.loc 1 389 0
 1469 001a 7368     		ldr	r3, [r6, #4]	@ tmp302, state_5(D)->tx_buf
 1470              	.LBB98:
 1471              	.LBB96:
 493:../../lpc11cx4-library/evt_lib/src/ltc6804.c **** 	}
ARM GAS  /tmp/ccQWJFys.s 			page 48


 1472              		.loc 1 493 0
 1473 001c 4901     		lsl	r1, r1, #5	@ tmp220, tmp220,
 1474              	.LBE96:
 1475              	.LBE98:
 389:../../lpc11cx4-library/evt_lib/src/ltc6804.c **** 	uint16_t pec = _calculate_pec(state->tx_buf, 2);
 1476              		.loc 1 389 0
 1477 001e 5C70     		strb	r4, [r3, #1]	@ cmd, MEM[(uint8_t *)_13 + 1B]
 390:../../lpc11cx4-library/evt_lib/src/ltc6804.c **** 	state->tx_buf[2] = pec >> 8;
 1478              		.loc 1 390 0
 1479 0020 7268     		ldr	r2, [r6, #4]	@ D.7659, state_5(D)->tx_buf
 1480              	.LVL168:
 1481              	.LBB99:
 1482              	.LBB97:
 493:../../lpc11cx4-library/evt_lib/src/ltc6804.c **** 	}
 1483              		.loc 1 493 0
 1484 0022 374C     		ldr	r4, .L103	@ tmp296,
 492:../../lpc11cx4-library/evt_lib/src/ltc6804.c **** 		remainder = (remainder<<8)^crc15Table[addr];
 1485              		.loc 1 492 0
 1486 0024 1378     		ldrb	r3, [r2]	@ addr, *_16
 1487              	.LVL169:
 1488 0026 5078     		ldrb	r0, [r2, #1]	@ MEM[(uint8_t *)_16 + 1B], MEM[(uint8_t *)_16 + 1B]
 493:../../lpc11cx4-library/evt_lib/src/ltc6804.c **** 	}
 1489              		.loc 1 493 0
 1490 0028 9B00     		lsl	r3, r3, #2	@ tmp216, addr,
 1491              	.LVL170:
 1492 002a E35A     		ldrh	r3, [r4, r3]	@ tmp219, crc15Table
 1493 002c 4B40     		eor	r3, r1	@ remainder, tmp220
 1494              	.LVL171:
 1495 002e 1902     		lsl	r1, r3, #8	@ tmp221, remainder,
 492:../../lpc11cx4-library/evt_lib/src/ltc6804.c **** 		remainder = (remainder<<8)^crc15Table[addr];
 1496              		.loc 1 492 0
 1497 0030 DB09     		lsr	r3, r3, #7	@ tmp223, remainder,
 1498              	.LVL172:
 1499 0032 4340     		eor	r3, r0	@ tmp227, MEM[(uint8_t *)_16 + 1B]
 493:../../lpc11cx4-library/evt_lib/src/ltc6804.c **** 	}
 1500              		.loc 1 493 0
 1501 0034 FF20     		mov	r0, #255	@ tmp232,
 1502 0036 0340     		and	r3, r0	@ D.7663, tmp232
 1503 0038 9B00     		lsl	r3, r3, #2	@ tmp234, D.7663,
 1504 003a E35A     		ldrh	r3, [r4, r3]	@ D.7660, crc15Table
 1505              	.LVL173:
 1506 003c 89B2     		uxth	r1, r1	@ D.7660, tmp221
 1507              	.LVL174:
 1508 003e 4B40     		eor	r3, r1	@ tmp237, D.7660
 1509              	.LVL175:
 1510              		.loc 1 495 0
 1511 0040 5B00     		lsl	r3, r3, #1	@ tmp239, tmp237,
 1512 0042 9BB2     		uxth	r3, r3	@ D.7669, tmp239
 1513              	.LBE97:
 1514              	.LBE99:
 391:../../lpc11cx4-library/evt_lib/src/ltc6804.c **** 	state->tx_buf[3] = pec & 0xFF;
 1515              		.loc 1 391 0
 1516 0044 190A     		lsr	r1, r3, #8	@ tmp240, D.7669,
 1517              	.LVL176:
 1518 0046 9170     		strb	r1, [r2, #2]	@ tmp240, MEM[(uint8_t *)_16 + 2B]
 1519              	.LVL177:
 392:../../lpc11cx4-library/evt_lib/src/ltc6804.c **** 
ARM GAS  /tmp/ccQWJFys.s 			page 49


 1520              		.loc 1 392 0
 1521 0048 7268     		ldr	r2, [r6, #4]	@ tmp303, state_5(D)->tx_buf
 1522              	.LVL178:
 394:../../lpc11cx4-library/evt_lib/src/ltc6804.c **** 
 1523              		.loc 1 394 0
 1524 004a 0021     		mov	r1, #0	@,
 392:../../lpc11cx4-library/evt_lib/src/ltc6804.c **** 
 1525              		.loc 1 392 0
 1526 004c D370     		strb	r3, [r2, #3]	@ D.7669, MEM[(uint8_t *)_20 + 3B]
 394:../../lpc11cx4-library/evt_lib/src/ltc6804.c **** 
 1527              		.loc 1 394 0
 1528 004e 7368     		ldr	r3, [r6, #4]	@ tmp304, state_5(D)->tx_buf
 1529 0050 AA7A     		ldrb	r2, [r5, #10]	@ D.7663,
 1530 0052 181D     		add	r0, r3, #4	@ D.7662, tmp304,
 1531 0054 D200     		lsl	r2, r2, #3	@ D.7663, D.7663,
 1532 0056 FFF7FEFF 		bl	memset	@
 1533              	.LVL179:
 1534              	.LBB100:
 1535              	.LBB101:
 1536              		.loc 2 104 0
 1537 005a A022     		mov	r2, #160	@ tmp307,
 1538              	.LBE101:
 1539              	.LBE100:
 396:../../lpc11cx4-library/evt_lib/src/ltc6804.c **** 	state->xf->rx_data = state->rx_buf;
 1540              		.loc 1 396 0
 1541 005c 0020     		mov	r0, #0	@ tmp254,
 1542 005e AB7A     		ldrb	r3, [r5, #10]	@ D.7663,
 1543 0060 3168     		ldr	r1, [r6]	@ D.7665, state_5(D)->xf
 1544 0062 DB00     		lsl	r3, r3, #3	@ D.7663, D.7663,
 1545 0064 0433     		add	r3, r3, #4	@ D.7663,
 1546 0066 0B61     		str	r3, [r1, #16]	@ D.7663, _30->length
 397:../../lpc11cx4-library/evt_lib/src/ltc6804.c **** 	state->xf->tx_data = state->tx_buf;
 1547              		.loc 1 397 0
 1548 0068 B368     		ldr	r3, [r6, #8]	@ tmp305, state_5(D)->rx_buf
 1549              	.LBB105:
 1550              	.LBB102:
 1551              		.loc 2 104 0
 1552 006a D205     		lsl	r2, r2, #23	@ tmp307, tmp307,
 1553              	.LBE102:
 1554              	.LBE105:
 397:../../lpc11cx4-library/evt_lib/src/ltc6804.c **** 	state->xf->tx_data = state->tx_buf;
 1555              		.loc 1 397 0
 1556 006c 8B60     		str	r3, [r1, #8]	@ tmp305, _30->rx_data
 398:../../lpc11cx4-library/evt_lib/src/ltc6804.c **** 
 1557              		.loc 1 398 0
 1558 006e 7368     		ldr	r3, [r6, #4]	@ tmp306, state_5(D)->tx_buf
 396:../../lpc11cx4-library/evt_lib/src/ltc6804.c **** 	state->xf->rx_data = state->rx_buf;
 1559              		.loc 1 396 0
 1560 0070 C860     		str	r0, [r1, #12]	@ tmp254, _30->rx_cnt
 1561 0072 4860     		str	r0, [r1, #4]	@ tmp254, _30->tx_cnt
 398:../../lpc11cx4-library/evt_lib/src/ltc6804.c **** 
 1562              		.loc 1 398 0
 1563 0074 0B60     		str	r3, [r1]	@ tmp306, _30->tx_data
 1564              	.LBB106:
 1565              	.LBB103:
 1566              		.loc 2 104 0
 1567 0076 9446     		mov	ip, r2	@ tmp307, tmp307
ARM GAS  /tmp/ccQWJFys.s 			page 50


 1568              	.LBE103:
 1569              	.LBE106:
 400:../../lpc11cx4-library/evt_lib/src/ltc6804.c **** 	Chip_GPIO_SetPinState(LPC_GPIO, config->cs_gpio, config->cs_pin, false);
 1570              		.loc 1 400 0
 1571 0078 F760     		str	r7, [r6, #12]	@ msTicks, state_5(D)->last_message
 1572              	.LVL180:
 1573              	.LBB107:
 1574              	.LBB104:
 1575              		.loc 2 104 0
 1576 007a 0127     		mov	r7, #1	@ tmp261,
 1577              	.LVL181:
 1578 007c 2B7A     		ldrb	r3, [r5, #8]	@ D.7664,
 1579 007e 6A7A     		ldrb	r2, [r5, #9]	@ D.7663,
 1580 0080 1B04     		lsl	r3, r3, #16	@ D.7664, D.7664,
 1581 0082 9C44     		add	ip, ip, r3	@ D.7670, D.7664
 1582 0084 3B1C     		mov	r3, r7	@ D.7663, tmp261
 1583 0086 9340     		lsl	r3, r3, r2	@ D.7663, D.7663, D.7663
 1584 0088 9A00     		lsl	r2, r3, #2	@ tmp262, D.7663,
 1585 008a 6346     		mov	r3, ip	@ D.7670, D.7670
 1586 008c D050     		str	r0, [r2, r3]	@ tmp254, _87->DATA
 1587              	.LVL182:
 1588              	.LBE104:
 1589              	.LBE107:
 402:../../lpc11cx4-library/evt_lib/src/ltc6804.c **** 	Chip_GPIO_SetPinState(LPC_GPIO, config->cs_gpio, config->cs_pin, true);
 1590              		.loc 1 402 0
 1591 008e 2868     		ldr	r0, [r5]	@, config_4(D)->pSSP
 1592 0090 FFF7FEFF 		bl	Chip_SSP_RWFrames_Blocking	@
 1593              	.LVL183:
 1594              	.LBB108:
 1595              	.LBB109:
 1596              		.loc 2 104 0
 1597 0094 A022     		mov	r2, #160	@ tmp310,
 1598 0096 D205     		lsl	r2, r2, #23	@ tmp310, tmp310,
 1599 0098 9446     		mov	ip, r2	@ tmp310, tmp310
 1600 009a 6A7A     		ldrb	r2, [r5, #9]	@ D.7663,
 1601 009c 2B7A     		ldrb	r3, [r5, #8]	@ D.7664,
 1602 009e 9740     		lsl	r7, r7, r2	@ D.7663, tmp261, D.7663
 1603 00a0 1B04     		lsl	r3, r3, #16	@ D.7664, D.7664,
 1604 00a2 6344     		add	r3, r3, ip	@ D.7670, tmp310
 1605 00a4 BA00     		lsl	r2, r7, #2	@ tmp269, D.7663,
 1606 00a6 D750     		str	r7, [r2, r3]	@ D.7663, _91->DATA
 1607              	.LVL184:
 1608              	.LBE109:
 1609              	.LBE108:
 405:../../lpc11cx4-library/evt_lib/src/ltc6804.c **** 
 1610              		.loc 1 405 0
 1611 00a8 0323     		mov	r3, #3	@ D.7658,
 1612 00aa 0028     		cmp	r0, #0	@ res,
 1613 00ac 01D1     		bne	.L102	@,
 1614              	.LVL185:
 1615              	.L93:
 416:../../lpc11cx4-library/evt_lib/src/ltc6804.c **** 
 1616              		.loc 1 416 0
 1617 00ae 181C     		mov	r0, r3	@, D.7658
 1618              		@ sp needed	@
 1619 00b0 F8BD     		pop	{r3, r4, r5, r6, r7, pc}
 1620              	.LVL186:
ARM GAS  /tmp/ccQWJFys.s 			page 51


 1621              	.L102:
 409:../../lpc11cx4-library/evt_lib/src/ltc6804.c **** 		uint8_t *rx_ptr = state->rx_buf + 4 + 8 * i;
 1622              		.loc 1 409 0 discriminator 1
 1623 00b2 AB7A     		ldrb	r3, [r5, #10]	@ D.7663,
 1624 00b4 9C46     		mov	ip, r3	@ D.7663, D.7663
 1625 00b6 002B     		cmp	r3, #0	@ D.7663,
 1626 00b8 1ED0     		beq	.L97	@,
 409:../../lpc11cx4-library/evt_lib/src/ltc6804.c **** 		uint8_t *rx_ptr = state->rx_buf + 4 + 8 * i;
 1627              		.loc 1 409 0 is_stmt 0
 1628 00ba 0020     		mov	r0, #0	@ i,
 1629              	.LVL187:
 1630              	.LBB110:
 1631              	.LBB111:
 1632              	.LBB112:
 492:../../lpc11cx4-library/evt_lib/src/ltc6804.c **** 		remainder = (remainder<<8)^crc15Table[addr];
 1633              		.loc 1 492 0 is_stmt 1
 1634 00bc FF21     		mov	r1, #255	@ tmp299,
 1635 00be B768     		ldr	r7, [r6, #8]	@ state_5(D)->rx_buf, state_5(D)->rx_buf
 1636 00c0 0A37     		add	r7, r7, #10	@ ivtmp.101,
 1637              	.LVL188:
 1638              	.L95:
 488:../../lpc11cx4-library/evt_lib/src/ltc6804.c **** 	uint8_t i;
 1639              		.loc 1 488 0
 1640 00c2 1023     		mov	r3, #16	@ remainder,
 1641 00c4 BA1F     		sub	r2, r7, #6	@ ivtmp.98, ivtmp.101,
 1642              	.LVL189:
 1643              	.L94:
 492:../../lpc11cx4-library/evt_lib/src/ltc6804.c **** 		remainder = (remainder<<8)^crc15Table[addr];
 1644              		.loc 1 492 0
 1645 00c6 1578     		ldrb	r5, [r2]	@ MEM[base: _195, offset: 0B], MEM[base: _195, offset: 0B]
 493:../../lpc11cx4-library/evt_lib/src/ltc6804.c **** 	}
 1646              		.loc 1 493 0
 1647 00c8 1E02     		lsl	r6, r3, #8	@ tmp271, remainder,
 492:../../lpc11cx4-library/evt_lib/src/ltc6804.c **** 		remainder = (remainder<<8)^crc15Table[addr];
 1648              		.loc 1 492 0
 1649 00ca DB09     		lsr	r3, r3, #7	@ tmp275, remainder,
 1650              	.LVL190:
 1651 00cc 6B40     		eor	r3, r5	@ tmp277, MEM[base: _195, offset: 0B]
 493:../../lpc11cx4-library/evt_lib/src/ltc6804.c **** 	}
 1652              		.loc 1 493 0
 1653 00ce 0B40     		and	r3, r1	@ D.7663, tmp299
 1654 00d0 9B00     		lsl	r3, r3, #2	@ tmp284, D.7663,
 1655 00d2 E35A     		ldrh	r3, [r4, r3]	@ D.7660, crc15Table
 1656 00d4 B6B2     		uxth	r6, r6	@ D.7660, tmp271
 1657 00d6 0132     		add	r2, r2, #1	@ ivtmp.98,
 1658              	.LVL191:
 1659 00d8 7340     		eor	r3, r6	@ remainder, D.7660
 1660              	.LVL192:
 490:../../lpc11cx4-library/evt_lib/src/ltc6804.c **** 	{
 1661              		.loc 1 490 0
 1662 00da BA42     		cmp	r2, r7	@ ivtmp.98, ivtmp.101
 1663 00dc F3D1     		bne	.L94	@,
 1664              	.LBE112:
 1665              	.LBE111:
 412:../../lpc11cx4-library/evt_lib/src/ltc6804.c **** 	}
 1666              		.loc 1 412 0
 1667 00de 1678     		ldrb	r6, [r2]	@ D.7663, MEM[base: _98, offset: 0B]
ARM GAS  /tmp/ccQWJFys.s 			page 52


 1668              	.LBB114:
 1669              	.LBB113:
 1670              		.loc 1 495 0
 1671 00e0 5B00     		lsl	r3, r3, #1	@ tmp289, remainder,
 1672              	.LVL193:
 1673              	.LBE113:
 1674              	.LBE114:
 412:../../lpc11cx4-library/evt_lib/src/ltc6804.c **** 	}
 1675              		.loc 1 412 0
 1676 00e2 5778     		ldrb	r7, [r2, #1]	@ D.7663, MEM[base: _98, offset: 1B]
 1677              	.LVL194:
 1678 00e4 3602     		lsl	r6, r6, #8	@ D.7663, D.7663,
 1679 00e6 9BB2     		uxth	r3, r3	@ D.7663, tmp289
 1680 00e8 3E43     		orr	r6, r7	@ D.7663, D.7663
 1681 00ea B342     		cmp	r3, r6	@ D.7663, D.7663
 1682 00ec 06D1     		bne	.L98	@,
 1683 00ee 0832     		add	r2, r2, #8	@ ivtmp.101,
 1684              	.LBE110:
 409:../../lpc11cx4-library/evt_lib/src/ltc6804.c **** 		uint8_t *rx_ptr = state->rx_buf + 4 + 8 * i;
 1685              		.loc 1 409 0 discriminator 2
 1686 00f0 0130     		add	r0, r0, #1	@ i,
 1687              	.LVL195:
 1688 00f2 171C     		mov	r7, r2	@ ivtmp.101, ivtmp.101
 1689 00f4 6045     		cmp	r0, ip	@ i, D.7663
 1690 00f6 E4DB     		blt	.L95	@,
 1691              	.LVL196:
 1692              	.L97:
 415:../../lpc11cx4-library/evt_lib/src/ltc6804.c **** }
 1693              		.loc 1 415 0
 1694 00f8 0123     		mov	r3, #1	@ D.7658,
 1695 00fa D8E7     		b	.L93	@
 1696              	.LVL197:
 1697              	.L98:
 1698              	.LBB115:
 412:../../lpc11cx4-library/evt_lib/src/ltc6804.c **** 	}
 1699              		.loc 1 412 0
 1700 00fc 0423     		mov	r3, #4	@ D.7658,
 1701 00fe D6E7     		b	.L93	@
 1702              	.L104:
 1703              		.align	2
 1704              	.L103:
 1705 0100 00000000 		.word	.LANCHOR0
 1706              	.LBE115:
 1707              		.cfi_endproc
 1708              	.LFE209:
 1709              		.size	_read, .-_read
 1710              		.section	.text.LTC6804_VerifyCFG,"ax",%progbits
 1711              		.align	2
 1712              		.global	LTC6804_VerifyCFG
 1713              		.code	16
 1714              		.thumb_func
 1715              		.type	LTC6804_VerifyCFG, %function
 1716              	LTC6804_VerifyCFG:
 1717              	.LFB201:
  99:../../lpc11cx4-library/evt_lib/src/ltc6804.c **** 	LTC6804_STATUS_T res = _read(config, state, RDCFG, msTicks);
 1718              		.loc 1 99 0
 1719              		.cfi_startproc
ARM GAS  /tmp/ccQWJFys.s 			page 53


 1720              	.LVL198:
 1721 0000 F0B5     		push	{r4, r5, r6, r7, lr}	@
 1722              		.cfi_def_cfa_offset 20
 1723              		.cfi_offset 4, -20
 1724              		.cfi_offset 5, -16
 1725              		.cfi_offset 6, -12
 1726              		.cfi_offset 7, -8
 1727              		.cfi_offset 14, -4
 1728 0002 4746     		mov	r7, r8	@,
 1729 0004 131C     		mov	r3, r2	@ msTicks, msTicks
 1730 0006 80B4     		push	{r7}	@
 1731              		.cfi_def_cfa_offset 24
 1732              		.cfi_offset 8, -24
 100:../../lpc11cx4-library/evt_lib/src/ltc6804.c **** 	if (res != LTC6804_PASS) return false;
 1733              		.loc 1 100 0
 1734 0008 0222     		mov	r2, #2	@,
 1735              	.LVL199:
  99:../../lpc11cx4-library/evt_lib/src/ltc6804.c **** 	LTC6804_STATUS_T res = _read(config, state, RDCFG, msTicks);
 1736              		.loc 1 99 0
 1737 000a 041C     		mov	r4, r0	@ config, config
 1738 000c 0E1C     		mov	r6, r1	@ state, state
 100:../../lpc11cx4-library/evt_lib/src/ltc6804.c **** 	if (res != LTC6804_PASS) return false;
 1739              		.loc 1 100 0
 1740 000e FFF7FEFF 		bl	_read	@
 1741              	.LVL200:
 101:../../lpc11cx4-library/evt_lib/src/ltc6804.c **** 
 1742              		.loc 1 101 0
 1743 0012 0023     		mov	r3, #0	@ D.7687,
 1744 0014 0128     		cmp	r0, #1	@ tmp135,
 1745 0016 03D0     		beq	.L118	@,
 1746              	.LVL201:
 1747              	.L106:
 113:../../lpc11cx4-library/evt_lib/src/ltc6804.c **** 
 1748              		.loc 1 113 0
 1749 0018 181C     		mov	r0, r3	@, D.7687
 1750              		@ sp needed	@
 1751 001a 04BC     		pop	{r2}
 1752 001c 9046     		mov	r8, r2
 1753 001e F0BD     		pop	{r4, r5, r6, r7, pc}
 1754              	.LVL202:
 1755              	.L118:
 104:../../lpc11cx4-library/evt_lib/src/ltc6804.c **** 		uint8_t *rx_ptr = state->rx_buf+4+8*i;
 1756              		.loc 1 104 0 discriminator 1
 1757 0020 A47A     		ldrb	r4, [r4, #10]	@ D.7691,
 1758              	.LVL203:
 1759 0022 002C     		cmp	r4, #0	@ D.7691,
 1760 0024 29D0     		beq	.L110	@,
 1761              	.LBB116:
 105:../../lpc11cx4-library/evt_lib/src/ltc6804.c **** 		if (rx_ptr[1] != state->cfg[1]) return false;
 1762              		.loc 1 105 0
 1763 0026 B168     		ldr	r1, [r6, #8]	@ D.7690, state_5(D)->rx_buf
 106:../../lpc11cx4-library/evt_lib/src/ltc6804.c **** 		if (rx_ptr[2] != state->cfg[2]) return false;
 1764              		.loc 1 106 0
 1765 0028 7069     		ldr	r0, [r6, #20]	@ D.7690, state_5(D)->cfg
 1766              	.LVL204:
 1767 002a 4D79     		ldrb	r5, [r1, #5]	@ D.7689, MEM[(uint8_t *)_29 + 5B]
 1768 002c 4678     		ldrb	r6, [r0, #1]	@ MEM[(uint8_t *)_38 + 1B], MEM[(uint8_t *)_38 + 1B]
ARM GAS  /tmp/ccQWJFys.s 			page 54


 1769              	.LVL205:
 105:../../lpc11cx4-library/evt_lib/src/ltc6804.c **** 		if (rx_ptr[1] != state->cfg[1]) return false;
 1770              		.loc 1 105 0
 1771 002e 0A1D     		add	r2, r1, #4	@ rx_ptr, D.7690,
 1772              	.LVL206:
 106:../../lpc11cx4-library/evt_lib/src/ltc6804.c **** 		if (rx_ptr[2] != state->cfg[2]) return false;
 1773              		.loc 1 106 0
 1774 0030 AE42     		cmp	r6, r5	@ MEM[(uint8_t *)_38 + 1B], D.7689
 1775 0032 F1D1     		bne	.L106	@,
 107:../../lpc11cx4-library/evt_lib/src/ltc6804.c **** 		if (rx_ptr[3] != state->cfg[3]) return false;
 1776              		.loc 1 107 0
 1777 0034 8E79     		ldrb	r6, [r1, #6]	@ D.7689, MEM[(uint8_t *)_29 + 6B]
 1778 0036 8778     		ldrb	r7, [r0, #2]	@ MEM[(uint8_t *)_38 + 2B], MEM[(uint8_t *)_38 + 2B]
 1779 0038 B742     		cmp	r7, r6	@ MEM[(uint8_t *)_38 + 2B], D.7689
 1780 003a EDD1     		bne	.L106	@,
 108:../../lpc11cx4-library/evt_lib/src/ltc6804.c **** 		if ((rx_ptr[5] & 0xF0) != (state->cfg[5] & 0xF0)) return false;
 1781              		.loc 1 108 0
 1782 003c CF79     		ldrb	r7, [r1, #7]	@ D.7689, MEM[(uint8_t *)_29 + 7B]
 1783 003e C178     		ldrb	r1, [r0, #3]	@ MEM[(uint8_t *)_38 + 3B], MEM[(uint8_t *)_38 + 3B]
 1784 0040 B942     		cmp	r1, r7	@ MEM[(uint8_t *)_38 + 3B], D.7689
 1785 0042 E9D1     		bne	.L106	@,
 1786 0044 4379     		ldrb	r3, [r0, #5]	@ D.7688, MEM[(uint8_t *)_38 + 5B]
 1787 0046 0021     		mov	r1, #0	@ i,
 1788 0048 9C46     		mov	ip, r3	@ D.7688, D.7688
 109:../../lpc11cx4-library/evt_lib/src/ltc6804.c **** 	}
 1789              		.loc 1 109 0
 1790 004a 0F23     		mov	r3, #15	@ tmp152,
 1791 004c 9846     		mov	r8, r3	@ tmp152, tmp152
 1792 004e 0CE0     		b	.L107	@
 1793              	.LVL207:
 1794              	.L119:
 1795              	.LBE116:
 104:../../lpc11cx4-library/evt_lib/src/ltc6804.c **** 		uint8_t *rx_ptr = state->rx_buf+4+8*i;
 1796              		.loc 1 104 0 discriminator 2
 1797 0050 0131     		add	r1, r1, #1	@ i,
 1798              	.LVL208:
 1799 0052 A142     		cmp	r1, r4	@ i, D.7691
 1800 0054 11DA     		bge	.L110	@,
 1801              	.LBB117:
 105:../../lpc11cx4-library/evt_lib/src/ltc6804.c **** 		if (rx_ptr[1] != state->cfg[1]) return false;
 1802              		.loc 1 105 0
 1803 0056 0832     		add	r2, r2, #8	@ rx_ptr,
 1804              	.LVL209:
 106:../../lpc11cx4-library/evt_lib/src/ltc6804.c **** 		if (rx_ptr[2] != state->cfg[2]) return false;
 1805              		.loc 1 106 0
 1806 0058 5378     		ldrb	r3, [r2, #1]	@ MEM[base: rx_ptr_15, offset: 1B], MEM[base: rx_ptr_15, offset: 1B]
 1807 005a AB42     		cmp	r3, r5	@ MEM[base: rx_ptr_15, offset: 1B], D.7689
 1808 005c 0BD1     		bne	.L117	@,
 107:../../lpc11cx4-library/evt_lib/src/ltc6804.c **** 		if (rx_ptr[3] != state->cfg[3]) return false;
 1809              		.loc 1 107 0
 1810 005e 9378     		ldrb	r3, [r2, #2]	@ MEM[base: rx_ptr_15, offset: 2B], MEM[base: rx_ptr_15, offset: 2B]
 1811 0060 B342     		cmp	r3, r6	@ MEM[base: rx_ptr_15, offset: 2B], D.7689
 1812 0062 08D1     		bne	.L117	@,
 108:../../lpc11cx4-library/evt_lib/src/ltc6804.c **** 		if ((rx_ptr[5] & 0xF0) != (state->cfg[5] & 0xF0)) return false;
 1813              		.loc 1 108 0
 1814 0064 D378     		ldrb	r3, [r2, #3]	@ MEM[base: rx_ptr_15, offset: 3B], MEM[base: rx_ptr_15, offset: 3B]
 1815 0066 BB42     		cmp	r3, r7	@ MEM[base: rx_ptr_15, offset: 3B], D.7689
ARM GAS  /tmp/ccQWJFys.s 			page 55


 1816 0068 05D1     		bne	.L117	@,
 1817              	.LVL210:
 1818              	.L107:
 109:../../lpc11cx4-library/evt_lib/src/ltc6804.c **** 	}
 1819              		.loc 1 109 0
 1820 006a 6046     		mov	r0, ip	@ D.7688, D.7688
 1821 006c 5379     		ldrb	r3, [r2, #5]	@ MEM[base: rx_ptr_45, offset: 5B], MEM[base: rx_ptr_45, offset: 5B]
 1822 006e 4340     		eor	r3, r0	@ tmp145, D.7688
 1823 0070 4046     		mov	r0, r8	@ tmp152, tmp152
 1824 0072 8343     		bic	r3, r0	@ tmp150, tmp152
 1825 0074 ECD0     		beq	.L119	@,
 1826              	.L117:
 1827              	.LBE117:
 101:../../lpc11cx4-library/evt_lib/src/ltc6804.c **** 
 1828              		.loc 1 101 0
 1829 0076 0023     		mov	r3, #0	@ D.7687,
 1830 0078 CEE7     		b	.L106	@
 1831              	.LVL211:
 1832              	.L110:
 112:../../lpc11cx4-library/evt_lib/src/ltc6804.c **** }
 1833              		.loc 1 112 0
 1834 007a 0123     		mov	r3, #1	@ D.7687,
 1835 007c CCE7     		b	.L106	@
 1836              		.cfi_endproc
 1837              	.LFE201:
 1838              		.size	LTC6804_VerifyCFG, .-LTC6804_VerifyCFG
 1839 007e C046     		.section	.text.LTC6804_GetCellVoltages,"ax",%progbits
 1840              		.align	2
 1841              		.global	LTC6804_GetCellVoltages
 1842              		.code	16
 1843              		.thumb_func
 1844              		.type	LTC6804_GetCellVoltages, %function
 1845              	LTC6804_GetCellVoltages:
 1846              	.LFB205:
 255:../../lpc11cx4-library/evt_lib/src/ltc6804.c **** 	if (_IS_ASLEEP(state, msTicks)) {
 1847              		.loc 1 255 0
 1848              		.cfi_startproc
 1849              	.LVL212:
 1850 0000 F0B5     		push	{r4, r5, r6, r7, lr}	@
 1851              		.cfi_def_cfa_offset 20
 1852              		.cfi_offset 4, -20
 1853              		.cfi_offset 5, -16
 1854              		.cfi_offset 6, -12
 1855              		.cfi_offset 7, -8
 1856              		.cfi_offset 14, -4
 1857 0002 4446     		mov	r4, r8	@,
 1858 0004 5F46     		mov	r7, fp	@,
 1859 0006 5646     		mov	r6, r10	@,
 1860 0008 4D46     		mov	r5, r9	@,
 1861 000a F0B4     		push	{r4, r5, r6, r7}	@
 1862              		.cfi_def_cfa_offset 36
 1863              		.cfi_offset 8, -36
 1864              		.cfi_offset 9, -32
 1865              		.cfi_offset 10, -28
 1866              		.cfi_offset 11, -24
 1867 000c 87B0     		sub	sp, sp, #28	@,,
 1868              		.cfi_def_cfa_offset 64
ARM GAS  /tmp/ccQWJFys.s 			page 56


 255:../../lpc11cx4-library/evt_lib/src/ltc6804.c **** 	if (_IS_ASLEEP(state, msTicks)) {
 1869              		.loc 1 255 0
 1870 000e 0492     		str	r2, [sp, #16]	@ res, %sfp
 256:../../lpc11cx4-library/evt_lib/src/ltc6804.c **** 		_wake(config, state, msTicks, false);
 1871              		.loc 1 256 0
 1872 0010 CA68     		ldr	r2, [r1, #12]	@ tmp433, state_40(D)->last_message
 1873              	.LVL213:
 255:../../lpc11cx4-library/evt_lib/src/ltc6804.c **** 	if (_IS_ASLEEP(state, msTicks)) {
 1874              		.loc 1 255 0
 1875 0012 0293     		str	r3, [sp, #8]	@ msTicks, %sfp
 256:../../lpc11cx4-library/evt_lib/src/ltc6804.c **** 		_wake(config, state, msTicks, false);
 1876              		.loc 1 256 0
 1877 0014 9B1A     		sub	r3, r3, r2	@ D.7767, msTicks, tmp433
 1878              	.LVL214:
 1879 0016 E122     		mov	r2, #225	@ tmp289,
 255:../../lpc11cx4-library/evt_lib/src/ltc6804.c **** 	if (_IS_ASLEEP(state, msTicks)) {
 1880              		.loc 1 255 0
 1881 0018 0190     		str	r0, [sp, #4]	@ config, %sfp
 1882 001a 8846     		mov	r8, r1	@ state, state
 256:../../lpc11cx4-library/evt_lib/src/ltc6804.c **** 		_wake(config, state, msTicks, false);
 1883              		.loc 1 256 0
 1884 001c D200     		lsl	r2, r2, #3	@ tmp289, tmp289,
 1885 001e 9342     		cmp	r3, r2	@ D.7767, tmp289
 1886 0020 00D9     		bls	.LCB1949	@
 1887 0022 57E1     		b	.L187	@long jump	@
 1888              	.LCB1949:
 259:../../lpc11cx4-library/evt_lib/src/ltc6804.c **** 		return LTC6804_WAITING_REFUP;
 1889              		.loc 1 259 0
 1890 0024 029A     		ldr	r2, [sp, #8]	@ msTicks, %sfp
 1891 0026 4B6A     		ldr	r3, [r1, #36]	@ tmp436, state_40(D)->last_sleep_wake
 260:../../lpc11cx4-library/evt_lib/src/ltc6804.c **** 	}
 1892              		.loc 1 260 0
 1893 0028 0520     		mov	r0, #5	@ D.7766,
 1894              	.LVL215:
 259:../../lpc11cx4-library/evt_lib/src/ltc6804.c **** 		return LTC6804_WAITING_REFUP;
 1895              		.loc 1 259 0
 1896 002a D31A     		sub	r3, r2, r3	@ D.7767, msTicks, tmp436
 1897 002c 052B     		cmp	r3, #5	@ D.7767,
 1898 002e 06D8     		bhi	.L188	@,
 1899              	.LVL216:
 1900              	.L122:
 340:../../lpc11cx4-library/evt_lib/src/ltc6804.c **** 
 1901              		.loc 1 340 0
 1902 0030 07B0     		add	sp, sp, #28	@,,
 1903              		@ sp needed	@
 1904 0032 3CBC     		pop	{r2, r3, r4, r5}
 1905 0034 9046     		mov	r8, r2
 1906 0036 9946     		mov	r9, r3
 1907 0038 A246     		mov	r10, r4
 1908 003a AB46     		mov	fp, r5
 1909 003c F0BD     		pop	{r4, r5, r6, r7, pc}
 1910              	.LVL217:
 1911              	.L188:
 263:../../lpc11cx4-library/evt_lib/src/ltc6804.c **** 		state->waiting = true;
 1912              		.loc 1 263 0
 1913 003e 0B7E     		ldrb	r3, [r1, #24]	@ tmp292,
 1914 0040 002B     		cmp	r3, #0	@ tmp292,
ARM GAS  /tmp/ccQWJFys.s 			page 57


 1915 0042 00D1     		bne	.LCB1982	@
 1916 0044 4CE1     		b	.L189	@long jump	@
 1917              	.LCB1982:
 270:../../lpc11cx4-library/evt_lib/src/ltc6804.c **** 			state->waiting = false;
 1918              		.loc 1 270 0
 1919 0046 029A     		ldr	r2, [sp, #8]	@ msTicks, %sfp
 1920              	.LVL218:
 1921 0048 0B6A     		ldr	r3, [r1, #32]	@ tmp444, state_40(D)->flight_time
 337:../../lpc11cx4-library/evt_lib/src/ltc6804.c **** 		}
 1922              		.loc 1 337 0
 1923 004a 0020     		mov	r0, #0	@ D.7766,
 270:../../lpc11cx4-library/evt_lib/src/ltc6804.c **** 			state->waiting = false;
 1924              		.loc 1 270 0
 1925 004c D31A     		sub	r3, r2, r3	@ D.7767, msTicks, tmp444
 1926 004e CA69     		ldr	r2, [r1, #28]	@ tmp446, state_40(D)->wait_time
 1927 0050 9342     		cmp	r3, r2	@ D.7767, tmp446
 1928 0052 EDD9     		bls	.L122	@,
 1929              	.LBB118:
 273:../../lpc11cx4-library/evt_lib/src/ltc6804.c **** 			uint32_t min = UINT32_MAX;
 1930              		.loc 1 273 0
 1931 0054 049B     		ldr	r3, [sp, #16]	@ res, %sfp
 282:../../lpc11cx4-library/evt_lib/src/ltc6804.c **** 			if (r == LTC6804_SPI_ERROR || r == LTC6804_PEC_ERROR) return r;
 1932              		.loc 1 282 0
 1933 0056 019C     		ldr	r4, [sp, #4]	@ config, %sfp
 273:../../lpc11cx4-library/evt_lib/src/ltc6804.c **** 			uint32_t min = UINT32_MAX;
 1934              		.loc 1 273 0
 1935 0058 1B68     		ldr	r3, [r3]	@ vol_ptr, res_62(D)->cell_voltages_mV
 271:../../lpc11cx4-library/evt_lib/src/ltc6804.c **** 			int i, j;
 1936              		.loc 1 271 0
 1937 005a 0876     		strb	r0, [r1, #24]	@ D.7766, state_40(D)->waiting
 273:../../lpc11cx4-library/evt_lib/src/ltc6804.c **** 			uint32_t min = UINT32_MAX;
 1938              		.loc 1 273 0
 1939 005c 1D1C     		mov	r5, r3	@ vol_ptr, vol_ptr
 1940              	.LVL219:
 282:../../lpc11cx4-library/evt_lib/src/ltc6804.c **** 			if (r == LTC6804_SPI_ERROR || r == LTC6804_PEC_ERROR) return r;
 1941              		.loc 1 282 0
 1942 005e 201C     		mov	r0, r4	@, config
 1943 0060 029B     		ldr	r3, [sp, #8]	@, %sfp
 1944              	.LVL220:
 1945 0062 0422     		mov	r2, #4	@,
 1946 0064 FFF7FEFF 		bl	_read	@
 1947              	.LVL221:
 283:../../lpc11cx4-library/evt_lib/src/ltc6804.c **** 			for (i = 0; i < config->num_modules; i++) {
 1948              		.loc 1 283 0
 1949 0068 C31E     		sub	r3, r0, #3	@ tmp308, tmp306,
 1950 006a DBB2     		uxtb	r3, r3	@ tmp309, tmp308
 1951 006c 012B     		cmp	r3, #1	@ tmp309,
 1952 006e DFD9     		bls	.L122	@,
 1953              	.LVL222:
 284:../../lpc11cx4-library/evt_lib/src/ltc6804.c **** 				uint8_t *rx_ptr = state->rx_buf + 4 + 8 * i;
 1954              		.loc 1 284 0 discriminator 1
 1955 0070 A27A     		ldrb	r2, [r4, #10]	@ D.7770,
 1956 0072 002A     		cmp	r2, #0	@ D.7770,
 1957 0074 00D1     		bne	.LCB2021	@
 1958 0076 43E1     		b	.L151	@long jump	@
 1959              	.LCB2021:
 1960 0078 E368     		ldr	r3, [r4, #12]	@ D.7778, config_44(D)->module_cell_count
ARM GAS  /tmp/ccQWJFys.s 			page 58


 284:../../lpc11cx4-library/evt_lib/src/ltc6804.c **** 				uint8_t *rx_ptr = state->rx_buf + 4 + 8 * i;
 1961              		.loc 1 284 0 is_stmt 0
 1962 007a 0024     		mov	r4, #0	@ max,
 1963 007c 9A46     		mov	r10, r3	@ D.7778, D.7778
 1964 007e 4346     		mov	r3, r8	@ state, state
 1965 0080 9B68     		ldr	r3, [r3, #8]	@ tmp456, state_40(D)->rx_buf
 1966 0082 A946     		mov	r9, r5	@ vol_ptr, vol_ptr
 1967 0084 0433     		add	r3, r3, #4	@ ivtmp.187,
 1968 0086 0393     		str	r3, [sp, #12]	@ ivtmp.187, %sfp
 1969 0088 0123     		mov	r3, #1	@ min,
 1970 008a 5B42     		neg	r3, r3	@ min, min
 1971 008c 9B46     		mov	fp, r3	@ min, min
 1972 008e 4346     		mov	r3, r8	@ state, state
 1973 0090 A046     		mov	r8, r4	@ max, max
 1974              	.LVL223:
 1975 0092 0593     		str	r3, [sp, #20]	@ state, %sfp
 1976              	.LVL224:
 1977              	.L129:
 1978              	.LBB119:
 286:../../lpc11cx4-library/evt_lib/src/ltc6804.c **** 					vol_ptr[j] = divu10((rx_ptr[2*j + 1] << 8 | rx_ptr[2*j]));
 1979              		.loc 1 286 0 is_stmt 1
 1980 0094 5346     		mov	r3, r10	@ D.7778, D.7778
 1981 0096 1B5D     		ldrb	r3, [r3, r4]	@ D.7773, MEM[base: _499, index: _84, offset: 0B]
 1982 0098 002B     		cmp	r3, #0	@ D.7773,
 1983 009a 21D0     		beq	.L125	@,
 1984 009c 231C     		mov	r3, r4	@ i, i
 1985 009e 4F46     		mov	r7, r9	@ ivtmp.182, vol_ptr
 1986 00a0 4446     		mov	r4, r8	@ max, max
 1987              	.LVL225:
 1988 00a2 0025     		mov	r5, #0	@ j,
 1989 00a4 9846     		mov	r8, r3	@ i, i
 1990              	.LVL226:
 1991 00a6 039E     		ldr	r6, [sp, #12]	@ ivtmp.181, %sfp
 1992              	.LVL227:
 1993              	.L128:
 287:../../lpc11cx4-library/evt_lib/src/ltc6804.c **** 					max = (vol_ptr[j] > max) ? vol_ptr[j] : max;
 1994              		.loc 1 287 0 discriminator 4
 1995 00a8 7078     		ldrb	r0, [r6, #1]	@ D.7770, MEM[base: _74, offset: 1B]
 1996 00aa 3378     		ldrb	r3, [r6]	@ D.7770, MEM[base: _74, offset: 0B]
 1997 00ac 0002     		lsl	r0, r0, #8	@ D.7770, D.7770,
 1998 00ae 1843     		orr	r0, r3	@ D.7770, D.7770
 1999 00b0 FFF7FEFF 		bl	divu10	@
 2000              	.LVL228:
 2001 00b4 3860     		str	r0, [r7]	@ D.7767, MEM[base: _128, offset: 0B]
 288:../../lpc11cx4-library/evt_lib/src/ltc6804.c **** 					min = (vol_ptr[j] < min) ? vol_ptr[j] : min;
 2002              		.loc 1 288 0 discriminator 4
 2003 00b6 8442     		cmp	r4, r0	@ max, D.7767
 2004 00b8 00D2     		bcs	.L126	@,
 2005 00ba 041C     		mov	r4, r0	@ max, D.7767
 2006              	.LVL229:
 2007              	.L126:
 289:../../lpc11cx4-library/evt_lib/src/ltc6804.c **** 				}
 2008              		.loc 1 289 0 discriminator 4
 2009 00bc 8345     		cmp	fp, r0	@ min, D.7767
 2010 00be 00D9     		bls	.L127	@,
 2011 00c0 8346     		mov	fp, r0	@ min, D.7767
 2012              	.LVL230:
ARM GAS  /tmp/ccQWJFys.s 			page 59


 2013              	.L127:
 286:../../lpc11cx4-library/evt_lib/src/ltc6804.c **** 					vol_ptr[j] = divu10((rx_ptr[2*j + 1] << 8 | rx_ptr[2*j]));
 2014              		.loc 1 286 0 discriminator 4
 2015 00c2 5346     		mov	r3, r10	@ D.7778, D.7778
 2016 00c4 4246     		mov	r2, r8	@ i, i
 2017 00c6 9B5C     		ldrb	r3, [r3, r2]	@ D.7773, MEM[base: _499, index: _84, offset: 0B]
 2018 00c8 0135     		add	r5, r5, #1	@ j,
 2019              	.LVL231:
 2020 00ca AB42     		cmp	r3, r5	@ D.7773, j
 2021 00cc 04DD     		ble	.L183	@,
 2022              	.LVL232:
 2023 00ce 0236     		add	r6, r6, #2	@ ivtmp.181,
 2024 00d0 0437     		add	r7, r7, #4	@ ivtmp.182,
 286:../../lpc11cx4-library/evt_lib/src/ltc6804.c **** 					vol_ptr[j] = divu10((rx_ptr[2*j + 1] << 8 | rx_ptr[2*j]));
 2025              		.loc 1 286 0 is_stmt 0 discriminator 3
 2026 00d2 032D     		cmp	r5, #3	@ j,
 2027 00d4 E8D1     		bne	.L128	@,
 2028 00d6 4246     		mov	r2, r8	@ i, i
 2029              	.LVL233:
 2030              	.L183:
 2031 00d8 A046     		mov	r8, r4	@ max, max
 2032 00da 141C     		mov	r4, r2	@ i, i
 2033              	.LVL234:
 2034 00dc 019A     		ldr	r2, [sp, #4]	@ config, %sfp
 2035              	.LVL235:
 2036 00de 927A     		ldrb	r2, [r2, #10]	@ D.7770,
 2037              	.LVL236:
 2038              	.L125:
 291:../../lpc11cx4-library/evt_lib/src/ltc6804.c **** 			}
 2039              		.loc 1 291 0 is_stmt 1 discriminator 2
 2040 00e0 9B00     		lsl	r3, r3, #2	@ D.7777, D.7773,
 2041 00e2 9944     		add	r9, r9, r3	@ vol_ptr, D.7777
 2042              	.LVL237:
 2043 00e4 039B     		ldr	r3, [sp, #12]	@ ivtmp.187, %sfp
 2044              	.LBE119:
 284:../../lpc11cx4-library/evt_lib/src/ltc6804.c **** 				uint8_t *rx_ptr = state->rx_buf + 4 + 8 * i;
 2045              		.loc 1 284 0 discriminator 2
 2046 00e6 0134     		add	r4, r4, #1	@ i,
 2047              	.LVL238:
 2048 00e8 0833     		add	r3, r3, #8	@ ivtmp.187,
 2049 00ea 0393     		str	r3, [sp, #12]	@ ivtmp.187, %sfp
 2050              	.LVL239:
 2051 00ec A242     		cmp	r2, r4	@ D.7770, i
 2052 00ee D1DC     		bgt	.L129	@,
 2053 00f0 059B     		ldr	r3, [sp, #20]	@ state, %sfp
 2054 00f2 4446     		mov	r4, r8	@ max, max
 2055              	.LVL240:
 2056 00f4 9846     		mov	r8, r3	@ state, state
 2057              	.LVL241:
 2058              	.L124:
 294:../../lpc11cx4-library/evt_lib/src/ltc6804.c **** 			if (r == LTC6804_SPI_ERROR || r == LTC6804_PEC_ERROR) return r;
 2059              		.loc 1 294 0
 2060 00f6 019D     		ldr	r5, [sp, #4]	@ config, %sfp
 2061 00f8 029B     		ldr	r3, [sp, #8]	@, %sfp
 2062 00fa 281C     		mov	r0, r5	@, config
 2063 00fc 4146     		mov	r1, r8	@, state
 2064 00fe 0622     		mov	r2, #6	@,
ARM GAS  /tmp/ccQWJFys.s 			page 60


 2065 0100 FFF7FEFF 		bl	_read	@
 2066              	.LVL242:
 295:../../lpc11cx4-library/evt_lib/src/ltc6804.c **** 			vol_ptr = res->cell_voltages_mV;
 2067              		.loc 1 295 0
 2068 0104 C31E     		sub	r3, r0, #3	@ tmp320, tmp318,
 2069 0106 DBB2     		uxtb	r3, r3	@ tmp321, tmp320
 2070 0108 012B     		cmp	r3, #1	@ tmp321,
 2071 010a 91D9     		bls	.L122	@,
 2072              	.LVL243:
 296:../../lpc11cx4-library/evt_lib/src/ltc6804.c **** 			for (i = 0; i < config->num_modules; i++) {
 2073              		.loc 1 296 0
 2074 010c 049A     		ldr	r2, [sp, #16]	@ res, %sfp
 2075 010e 1268     		ldr	r2, [r2]	@ vol_ptr, res_62(D)->cell_voltages_mV
 2076 0110 111C     		mov	r1, r2	@ vol_ptr, vol_ptr
 2077              	.LVL244:
 297:../../lpc11cx4-library/evt_lib/src/ltc6804.c **** 				uint8_t *rx_ptr = state->rx_buf + 4 + 8 * i;
 2078              		.loc 1 297 0
 2079 0112 AA7A     		ldrb	r2, [r5, #10]	@ D.7770,
 2080 0114 002A     		cmp	r2, #0	@ D.7770,
 2081 0116 3FD0     		beq	.L130	@,
 2082 0118 EB68     		ldr	r3, [r5, #12]	@ D.7778, config_44(D)->module_cell_count
 2083 011a 9A46     		mov	r10, r3	@ D.7778, D.7778
 2084 011c 4346     		mov	r3, r8	@ state, state
 2085 011e 9B68     		ldr	r3, [r3, #8]	@ tmp479, state_40(D)->rx_buf
 2086 0120 0433     		add	r3, r3, #4	@ ivtmp.171,
 2087 0122 0393     		str	r3, [sp, #12]	@ ivtmp.171, %sfp
 2088 0124 0023     		mov	r3, #0	@ i,
 2089 0126 9946     		mov	r9, r3	@ i, i
 2090 0128 4346     		mov	r3, r8	@ state, state
 2091 012a A046     		mov	r8, r4	@ max, max
 2092 012c 4C46     		mov	r4, r9	@ i, i
 2093              	.LVL245:
 2094 012e 8946     		mov	r9, r1	@ vol_ptr, vol_ptr
 2095 0130 0593     		str	r3, [sp, #20]	@ state, %sfp
 2096              	.LVL246:
 2097              	.L135:
 2098              	.LBB120:
 299:../../lpc11cx4-library/evt_lib/src/ltc6804.c **** 					vol_ptr[j + 3] = divu10((rx_ptr[2 * j + 1] << 8 | rx_ptr[2* j]));
 2099              		.loc 1 299 0
 2100 0132 5346     		mov	r3, r10	@ D.7778, D.7778
 2101 0134 1B5D     		ldrb	r3, [r3, r4]	@ D.7773, MEM[base: _482, index: _127, offset: 0B]
 2102 0136 032B     		cmp	r3, #3	@ D.7773,
 2103 0138 23DD     		ble	.L131	@,
 2104 013a 231C     		mov	r3, r4	@ i, i
 2105 013c 4F46     		mov	r7, r9	@ ivtmp.164, vol_ptr
 2106 013e 4446     		mov	r4, r8	@ max, max
 2107              	.LVL247:
 2108 0140 0025     		mov	r5, #0	@ j,
 2109 0142 9846     		mov	r8, r3	@ i, i
 2110              	.LVL248:
 2111 0144 039E     		ldr	r6, [sp, #12]	@ ivtmp.163, %sfp
 2112 0146 0C37     		add	r7, r7, #12	@ ivtmp.164,
 2113              	.LVL249:
 2114              	.L134:
 300:../../lpc11cx4-library/evt_lib/src/ltc6804.c **** 					max = (vol_ptr[j + 3] > max) ? vol_ptr[j + 3] : max;
 2115              		.loc 1 300 0 discriminator 4
 2116 0148 7078     		ldrb	r0, [r6, #1]	@ D.7770, MEM[base: _302, offset: 1B]
ARM GAS  /tmp/ccQWJFys.s 			page 61


 2117 014a 3378     		ldrb	r3, [r6]	@ D.7770, MEM[base: _302, offset: 0B]
 2118 014c 0002     		lsl	r0, r0, #8	@ D.7770, D.7770,
 2119 014e 1843     		orr	r0, r3	@ D.7770, D.7770
 2120 0150 FFF7FEFF 		bl	divu10	@
 2121              	.LVL250:
 2122 0154 3860     		str	r0, [r7]	@ D.7767, MEM[base: _171, offset: 0B]
 301:../../lpc11cx4-library/evt_lib/src/ltc6804.c **** 					min = (vol_ptr[j + 3] < min) ? vol_ptr[j + 3] : min;
 2123              		.loc 1 301 0 discriminator 4
 2124 0156 8442     		cmp	r4, r0	@ max, D.7767
 2125 0158 00D2     		bcs	.L132	@,
 2126 015a 041C     		mov	r4, r0	@ max, D.7767
 2127              	.LVL251:
 2128              	.L132:
 302:../../lpc11cx4-library/evt_lib/src/ltc6804.c **** 				} 
 2129              		.loc 1 302 0 discriminator 4
 2130 015c 8345     		cmp	fp, r0	@ min, D.7767
 2131 015e 00D9     		bls	.L133	@,
 2132 0160 8346     		mov	fp, r0	@ min, D.7767
 2133              	.LVL252:
 2134              	.L133:
 299:../../lpc11cx4-library/evt_lib/src/ltc6804.c **** 					vol_ptr[j + 3] = divu10((rx_ptr[2 * j + 1] << 8 | rx_ptr[2* j]));
 2135              		.loc 1 299 0 discriminator 4
 2136 0162 4246     		mov	r2, r8	@ i, i
 2137 0164 5346     		mov	r3, r10	@ D.7778, D.7778
 2138 0166 0135     		add	r5, r5, #1	@ j,
 2139              	.LVL253:
 2140 0168 9B5C     		ldrb	r3, [r3, r2]	@ D.7773, MEM[base: _482, index: _127, offset: 0B]
 2141 016a EA1C     		add	r2, r5, #3	@ D.7779, j,
 2142 016c 9342     		cmp	r3, r2	@ D.7773, D.7779
 2143 016e 03DD     		ble	.L184	@,
 2144 0170 0236     		add	r6, r6, #2	@ ivtmp.163,
 2145 0172 0437     		add	r7, r7, #4	@ ivtmp.164,
 299:../../lpc11cx4-library/evt_lib/src/ltc6804.c **** 					vol_ptr[j + 3] = divu10((rx_ptr[2 * j + 1] << 8 | rx_ptr[2* j]));
 2146              		.loc 1 299 0 is_stmt 0 discriminator 3
 2147 0174 032D     		cmp	r5, #3	@ j,
 2148 0176 E7D1     		bne	.L134	@,
 2149              	.L184:
 2150 0178 4246     		mov	r2, r8	@ i, i
 2151 017a A046     		mov	r8, r4	@ max, max
 2152              	.LVL254:
 2153 017c 141C     		mov	r4, r2	@ i, i
 2154              	.LVL255:
 2155 017e 019A     		ldr	r2, [sp, #4]	@ config, %sfp
 2156              	.LVL256:
 2157 0180 927A     		ldrb	r2, [r2, #10]	@ D.7770,
 2158              	.LVL257:
 2159              	.L131:
 304:../../lpc11cx4-library/evt_lib/src/ltc6804.c **** 			}
 2160              		.loc 1 304 0 is_stmt 1 discriminator 2
 2161 0182 9B00     		lsl	r3, r3, #2	@ D.7777, D.7773,
 2162 0184 9944     		add	r9, r9, r3	@ vol_ptr, D.7777
 2163              	.LVL258:
 2164 0186 039B     		ldr	r3, [sp, #12]	@ ivtmp.171, %sfp
 2165              	.LBE120:
 297:../../lpc11cx4-library/evt_lib/src/ltc6804.c **** 				uint8_t *rx_ptr = state->rx_buf + 4 + 8 * i;
 2166              		.loc 1 297 0 discriminator 2
 2167 0188 0134     		add	r4, r4, #1	@ i,
ARM GAS  /tmp/ccQWJFys.s 			page 62


 2168              	.LVL259:
 2169 018a 0833     		add	r3, r3, #8	@ ivtmp.171,
 2170 018c 0393     		str	r3, [sp, #12]	@ ivtmp.171, %sfp
 2171              	.LVL260:
 2172 018e A242     		cmp	r2, r4	@ D.7770, i
 2173 0190 CFDC     		bgt	.L135	@,
 2174 0192 059B     		ldr	r3, [sp, #20]	@ state, %sfp
 2175 0194 4446     		mov	r4, r8	@ max, max
 2176              	.LVL261:
 2177 0196 9846     		mov	r8, r3	@ state, state
 2178              	.LVL262:
 2179              	.L130:
 307:../../lpc11cx4-library/evt_lib/src/ltc6804.c **** 			if (r == LTC6804_SPI_ERROR || r == LTC6804_PEC_ERROR) return r;
 2180              		.loc 1 307 0
 2181 0198 019D     		ldr	r5, [sp, #4]	@ config, %sfp
 2182 019a 029B     		ldr	r3, [sp, #8]	@, %sfp
 2183 019c 281C     		mov	r0, r5	@, config
 2184 019e 4146     		mov	r1, r8	@, state
 2185 01a0 0822     		mov	r2, #8	@,
 2186 01a2 FFF7FEFF 		bl	_read	@
 2187              	.LVL263:
 308:../../lpc11cx4-library/evt_lib/src/ltc6804.c **** 			vol_ptr = res->cell_voltages_mV;
 2188              		.loc 1 308 0
 2189 01a6 C31E     		sub	r3, r0, #3	@ tmp333, tmp331,
 2190 01a8 DBB2     		uxtb	r3, r3	@ tmp334, tmp333
 2191 01aa 012B     		cmp	r3, #1	@ tmp334,
 2192 01ac 00D8     		bhi	.LCB2344	@
 2193 01ae 3FE7     		b	.L122	@long jump	@
 2194              	.LCB2344:
 309:../../lpc11cx4-library/evt_lib/src/ltc6804.c **** 			for (i = 0; i < config->num_modules; i++) {
 2195              		.loc 1 309 0
 2196 01b0 049A     		ldr	r2, [sp, #16]	@ res, %sfp
 2197 01b2 1268     		ldr	r2, [r2]	@ vol_ptr, res_62(D)->cell_voltages_mV
 2198 01b4 111C     		mov	r1, r2	@ vol_ptr, vol_ptr
 2199              	.LVL264:
 310:../../lpc11cx4-library/evt_lib/src/ltc6804.c **** 				uint8_t *rx_ptr = state->rx_buf + 4 + 8 * i;
 2200              		.loc 1 310 0
 2201 01b6 AA7A     		ldrb	r2, [r5, #10]	@ D.7770,
 2202 01b8 002A     		cmp	r2, #0	@ D.7770,
 2203 01ba 3FD0     		beq	.L136	@,
 2204 01bc EB68     		ldr	r3, [r5, #12]	@ D.7778, config_44(D)->module_cell_count
 2205 01be 9A46     		mov	r10, r3	@ D.7778, D.7778
 2206 01c0 4346     		mov	r3, r8	@ state, state
 2207 01c2 9B68     		ldr	r3, [r3, #8]	@ tmp501, state_40(D)->rx_buf
 2208 01c4 0433     		add	r3, r3, #4	@ ivtmp.153,
 2209 01c6 0393     		str	r3, [sp, #12]	@ ivtmp.153, %sfp
 2210 01c8 0023     		mov	r3, #0	@ i,
 2211 01ca 9946     		mov	r9, r3	@ i, i
 2212 01cc 4346     		mov	r3, r8	@ state, state
 2213 01ce A046     		mov	r8, r4	@ max, max
 2214 01d0 4C46     		mov	r4, r9	@ i, i
 2215              	.LVL265:
 2216 01d2 8946     		mov	r9, r1	@ vol_ptr, vol_ptr
 2217 01d4 0593     		str	r3, [sp, #20]	@ state, %sfp
 2218              	.LVL266:
 2219              	.L141:
 2220              	.LBB121:
ARM GAS  /tmp/ccQWJFys.s 			page 63


 312:../../lpc11cx4-library/evt_lib/src/ltc6804.c **** 					vol_ptr[j + 6] = divu10((rx_ptr[2 * j + 1] << 8 | rx_ptr[2 * j]));
 2221              		.loc 1 312 0
 2222 01d6 5346     		mov	r3, r10	@ D.7778, D.7778
 2223 01d8 1B5D     		ldrb	r3, [r3, r4]	@ D.7773, MEM[base: _465, index: _170, offset: 0B]
 2224 01da 062B     		cmp	r3, #6	@ D.7773,
 2225 01dc 23DD     		ble	.L137	@,
 2226 01de 231C     		mov	r3, r4	@ i, i
 2227 01e0 4F46     		mov	r7, r9	@ ivtmp.146, vol_ptr
 2228 01e2 4446     		mov	r4, r8	@ max, max
 2229              	.LVL267:
 2230 01e4 0025     		mov	r5, #0	@ j,
 2231 01e6 9846     		mov	r8, r3	@ i, i
 2232              	.LVL268:
 2233 01e8 039E     		ldr	r6, [sp, #12]	@ ivtmp.145, %sfp
 2234 01ea 1837     		add	r7, r7, #24	@ ivtmp.146,
 2235              	.LVL269:
 2236              	.L140:
 313:../../lpc11cx4-library/evt_lib/src/ltc6804.c **** 					max = (vol_ptr[j + 6] > max) ? vol_ptr[j + 6] : max;
 2237              		.loc 1 313 0 discriminator 4
 2238 01ec 7078     		ldrb	r0, [r6, #1]	@ D.7770, MEM[base: _318, offset: 1B]
 2239 01ee 3378     		ldrb	r3, [r6]	@ D.7770, MEM[base: _318, offset: 0B]
 2240 01f0 0002     		lsl	r0, r0, #8	@ D.7770, D.7770,
 2241 01f2 1843     		orr	r0, r3	@ D.7770, D.7770
 2242 01f4 FFF7FEFF 		bl	divu10	@
 2243              	.LVL270:
 2244 01f8 3860     		str	r0, [r7]	@ D.7767, MEM[base: _214, offset: 0B]
 314:../../lpc11cx4-library/evt_lib/src/ltc6804.c **** 					min = (vol_ptr[j + 6] < min) ? vol_ptr[j + 6] : min;
 2245              		.loc 1 314 0 discriminator 4
 2246 01fa 8442     		cmp	r4, r0	@ max, D.7767
 2247 01fc 00D2     		bcs	.L138	@,
 2248 01fe 041C     		mov	r4, r0	@ max, D.7767
 2249              	.LVL271:
 2250              	.L138:
 315:../../lpc11cx4-library/evt_lib/src/ltc6804.c **** 				} 
 2251              		.loc 1 315 0 discriminator 4
 2252 0200 8345     		cmp	fp, r0	@ min, D.7767
 2253 0202 00D9     		bls	.L139	@,
 2254 0204 8346     		mov	fp, r0	@ min, D.7767
 2255              	.LVL272:
 2256              	.L139:
 312:../../lpc11cx4-library/evt_lib/src/ltc6804.c **** 					vol_ptr[j + 6] = divu10((rx_ptr[2 * j + 1] << 8 | rx_ptr[2 * j]));
 2257              		.loc 1 312 0 discriminator 4
 2258 0206 4246     		mov	r2, r8	@ i, i
 2259 0208 5346     		mov	r3, r10	@ D.7778, D.7778
 2260 020a 0135     		add	r5, r5, #1	@ j,
 2261              	.LVL273:
 2262 020c 9B5C     		ldrb	r3, [r3, r2]	@ D.7773, MEM[base: _465, index: _170, offset: 0B]
 2263 020e AA1D     		add	r2, r5, #6	@ D.7779, j,
 2264 0210 9342     		cmp	r3, r2	@ D.7773, D.7779
 2265 0212 03DD     		ble	.L185	@,
 2266 0214 0236     		add	r6, r6, #2	@ ivtmp.145,
 2267 0216 0437     		add	r7, r7, #4	@ ivtmp.146,
 312:../../lpc11cx4-library/evt_lib/src/ltc6804.c **** 					vol_ptr[j + 6] = divu10((rx_ptr[2 * j + 1] << 8 | rx_ptr[2 * j]));
 2268              		.loc 1 312 0 is_stmt 0 discriminator 3
 2269 0218 032D     		cmp	r5, #3	@ j,
 2270 021a E7D1     		bne	.L140	@,
 2271              	.L185:
ARM GAS  /tmp/ccQWJFys.s 			page 64


 2272 021c 4246     		mov	r2, r8	@ i, i
 2273 021e A046     		mov	r8, r4	@ max, max
 2274              	.LVL274:
 2275 0220 141C     		mov	r4, r2	@ i, i
 2276              	.LVL275:
 2277 0222 019A     		ldr	r2, [sp, #4]	@ config, %sfp
 2278              	.LVL276:
 2279 0224 927A     		ldrb	r2, [r2, #10]	@ D.7770,
 2280              	.LVL277:
 2281              	.L137:
 317:../../lpc11cx4-library/evt_lib/src/ltc6804.c **** 			}
 2282              		.loc 1 317 0 is_stmt 1 discriminator 2
 2283 0226 9B00     		lsl	r3, r3, #2	@ D.7777, D.7773,
 2284 0228 9944     		add	r9, r9, r3	@ vol_ptr, D.7777
 2285              	.LVL278:
 2286 022a 039B     		ldr	r3, [sp, #12]	@ ivtmp.153, %sfp
 2287              	.LBE121:
 310:../../lpc11cx4-library/evt_lib/src/ltc6804.c **** 				uint8_t *rx_ptr = state->rx_buf + 4 + 8 * i;
 2288              		.loc 1 310 0 discriminator 2
 2289 022c 0134     		add	r4, r4, #1	@ i,
 2290              	.LVL279:
 2291 022e 0833     		add	r3, r3, #8	@ ivtmp.153,
 2292 0230 0393     		str	r3, [sp, #12]	@ ivtmp.153, %sfp
 2293              	.LVL280:
 2294 0232 A242     		cmp	r2, r4	@ D.7770, i
 2295 0234 CFDC     		bgt	.L141	@,
 2296 0236 059B     		ldr	r3, [sp, #20]	@ state, %sfp
 2297 0238 4446     		mov	r4, r8	@ max, max
 2298              	.LVL281:
 2299 023a 9846     		mov	r8, r3	@ state, state
 2300              	.LVL282:
 2301              	.L136:
 320:../../lpc11cx4-library/evt_lib/src/ltc6804.c **** 			if (r == LTC6804_SPI_ERROR || r == LTC6804_PEC_ERROR) return r;
 2302              		.loc 1 320 0
 2303 023c 019D     		ldr	r5, [sp, #4]	@ config, %sfp
 2304 023e 029B     		ldr	r3, [sp, #8]	@, %sfp
 2305 0240 281C     		mov	r0, r5	@, config
 2306 0242 4146     		mov	r1, r8	@, state
 2307 0244 0A22     		mov	r2, #10	@,
 2308 0246 FFF7FEFF 		bl	_read	@
 2309              	.LVL283:
 321:../../lpc11cx4-library/evt_lib/src/ltc6804.c **** 			vol_ptr = res->cell_voltages_mV;
 2310              		.loc 1 321 0
 2311 024a C31E     		sub	r3, r0, #3	@ tmp346, tmp344,
 2312 024c DBB2     		uxtb	r3, r3	@ tmp347, tmp346
 2313 024e 012B     		cmp	r3, #1	@ tmp347,
 2314 0250 00D8     		bhi	.LCB2512	@
 2315 0252 EDE6     		b	.L122	@long jump	@
 2316              	.LCB2512:
 322:../../lpc11cx4-library/evt_lib/src/ltc6804.c **** 			for (i = 0; i < config->num_modules; i++) {
 2317              		.loc 1 322 0
 2318 0254 049A     		ldr	r2, [sp, #16]	@ res, %sfp
 2319 0256 1268     		ldr	r2, [r2]	@ vol_ptr, res_62(D)->cell_voltages_mV
 2320 0258 9246     		mov	r10, r2	@ vol_ptr, vol_ptr
 2321              	.LVL284:
 323:../../lpc11cx4-library/evt_lib/src/ltc6804.c **** 				uint8_t *rx_ptr = state->rx_buf + 4 + 8 * i;
 2322              		.loc 1 323 0
ARM GAS  /tmp/ccQWJFys.s 			page 65


 2323 025a AA7A     		ldrb	r2, [r5, #10]	@ D.7770,
 2324              	.LVL285:
 2325 025c 002A     		cmp	r2, #0	@ D.7770,
 2326 025e 33D0     		beq	.L142	@,
 2327 0260 EB68     		ldr	r3, [r5, #12]	@ D.7778, config_44(D)->module_cell_count
 2328 0262 9946     		mov	r9, r3	@ D.7778, D.7778
 2329 0264 4346     		mov	r3, r8	@ state, state
 2330 0266 9B68     		ldr	r3, [r3, #8]	@ state_40(D)->rx_buf, state_40(D)->rx_buf
 2331 0268 A046     		mov	r8, r4	@ max, max
 2332 026a 0433     		add	r3, r3, #4	@ ivtmp.135,
 2333 026c 0293     		str	r3, [sp, #8]	@ ivtmp.135, %sfp
 2334              	.LVL286:
 2335 026e 0023     		mov	r3, #0	@ i,
 2336 0270 1C1C     		mov	r4, r3	@ i, i
 2337              	.LVL287:
 2338              	.L147:
 2339              	.LBB122:
 325:../../lpc11cx4-library/evt_lib/src/ltc6804.c **** 					vol_ptr[j + 9] = divu10((rx_ptr[2 * j + 1] << 8 | rx_ptr[2 * j]));
 2340              		.loc 1 325 0
 2341 0272 4B46     		mov	r3, r9	@ D.7778, D.7778
 2342 0274 1B5D     		ldrb	r3, [r3, r4]	@ D.7773, MEM[base: _449, index: _213, offset: 0B]
 2343 0276 092B     		cmp	r3, #9	@ D.7773,
 2344 0278 1DDD     		ble	.L143	@,
 2345 027a 5746     		mov	r7, r10	@ ivtmp.128, vol_ptr
 2346 027c 0025     		mov	r5, #0	@ j,
 2347 027e 029E     		ldr	r6, [sp, #8]	@ ivtmp.127, %sfp
 2348 0280 2437     		add	r7, r7, #36	@ ivtmp.128,
 2349              	.LVL288:
 2350              	.L146:
 326:../../lpc11cx4-library/evt_lib/src/ltc6804.c **** 					max = (vol_ptr[j + 9] > max) ? vol_ptr[j + 9] : max;
 2351              		.loc 1 326 0 discriminator 4
 2352 0282 7078     		ldrb	r0, [r6, #1]	@ D.7770, MEM[base: _204, offset: 1B]
 2353 0284 3378     		ldrb	r3, [r6]	@ D.7770, MEM[base: _204, offset: 0B]
 2354 0286 0002     		lsl	r0, r0, #8	@ D.7770, D.7770,
 2355 0288 1843     		orr	r0, r3	@ D.7770, D.7770
 2356 028a FFF7FEFF 		bl	divu10	@
 2357              	.LVL289:
 2358 028e 3860     		str	r0, [r7]	@ D.7767, MEM[base: _408, offset: 0B]
 327:../../lpc11cx4-library/evt_lib/src/ltc6804.c **** 					min = (vol_ptr[j + 9] < min) ? vol_ptr[j + 9] : min;
 2359              		.loc 1 327 0 discriminator 4
 2360 0290 8045     		cmp	r8, r0	@ max, D.7767
 2361 0292 00D2     		bcs	.L144	@,
 2362 0294 8046     		mov	r8, r0	@ max, D.7767
 2363              	.LVL290:
 2364              	.L144:
 328:../../lpc11cx4-library/evt_lib/src/ltc6804.c **** 				} 
 2365              		.loc 1 328 0 discriminator 4
 2366 0296 8345     		cmp	fp, r0	@ min, D.7767
 2367 0298 00D9     		bls	.L145	@,
 2368 029a 8346     		mov	fp, r0	@ min, D.7767
 2369              	.LVL291:
 2370              	.L145:
 325:../../lpc11cx4-library/evt_lib/src/ltc6804.c **** 					vol_ptr[j + 9] = divu10((rx_ptr[2 * j + 1] << 8 | rx_ptr[2 * j]));
 2371              		.loc 1 325 0 discriminator 4
 2372 029c 0135     		add	r5, r5, #1	@ j,
 2373              	.LVL292:
 2374 029e 4B46     		mov	r3, r9	@ D.7778, D.7778
ARM GAS  /tmp/ccQWJFys.s 			page 66


 2375 02a0 2A1C     		mov	r2, r5	@ D.7779, j
 2376 02a2 1B5D     		ldrb	r3, [r3, r4]	@ D.7773, MEM[base: _449, index: _213, offset: 0B]
 2377 02a4 0932     		add	r2, r2, #9	@ D.7779,
 2378 02a6 9342     		cmp	r3, r2	@ D.7773, D.7779
 2379 02a8 03DD     		ble	.L186	@,
 2380 02aa 0236     		add	r6, r6, #2	@ ivtmp.127,
 2381 02ac 0437     		add	r7, r7, #4	@ ivtmp.128,
 325:../../lpc11cx4-library/evt_lib/src/ltc6804.c **** 					vol_ptr[j + 9] = divu10((rx_ptr[2 * j + 1] << 8 | rx_ptr[2 * j]));
 2382              		.loc 1 325 0 is_stmt 0 discriminator 3
 2383 02ae 032D     		cmp	r5, #3	@ j,
 2384 02b0 E7D1     		bne	.L146	@,
 2385              	.L186:
 2386 02b2 019A     		ldr	r2, [sp, #4]	@ config, %sfp
 2387 02b4 927A     		ldrb	r2, [r2, #10]	@ D.7770,
 2388              	.LVL293:
 2389              	.L143:
 330:../../lpc11cx4-library/evt_lib/src/ltc6804.c **** 			}
 2390              		.loc 1 330 0 is_stmt 1 discriminator 2
 2391 02b6 9B00     		lsl	r3, r3, #2	@ D.7777, D.7773,
 2392 02b8 9A44     		add	r10, r10, r3	@ vol_ptr, D.7777
 2393              	.LVL294:
 2394 02ba 029B     		ldr	r3, [sp, #8]	@ ivtmp.135, %sfp
 2395              	.LBE122:
 323:../../lpc11cx4-library/evt_lib/src/ltc6804.c **** 				uint8_t *rx_ptr = state->rx_buf + 4 + 8 * i;
 2396              		.loc 1 323 0 discriminator 2
 2397 02bc 0134     		add	r4, r4, #1	@ i,
 2398              	.LVL295:
 2399 02be 0833     		add	r3, r3, #8	@ ivtmp.135,
 2400 02c0 0293     		str	r3, [sp, #8]	@ ivtmp.135, %sfp
 2401              	.LVL296:
 2402 02c2 A242     		cmp	r2, r4	@ D.7770, i
 2403 02c4 D5DC     		bgt	.L147	@,
 2404 02c6 4446     		mov	r4, r8	@ max, max
 2405              	.LVL297:
 2406              	.L142:
 334:../../lpc11cx4-library/evt_lib/src/ltc6804.c **** 			return LTC6804_PASS;
 2407              		.loc 1 334 0
 2408 02c8 5A46     		mov	r2, fp	@ min, min
 333:../../lpc11cx4-library/evt_lib/src/ltc6804.c **** 			res->pack_cell_min_mV = min;
 2409              		.loc 1 333 0
 2410 02ca 049B     		ldr	r3, [sp, #16]	@ res, %sfp
 335:../../lpc11cx4-library/evt_lib/src/ltc6804.c **** 		} else { // Keep Waiting
 2411              		.loc 1 335 0
 2412 02cc 0120     		mov	r0, #1	@ D.7766,
 333:../../lpc11cx4-library/evt_lib/src/ltc6804.c **** 			res->pack_cell_min_mV = min;
 2413              		.loc 1 333 0
 2414 02ce 5C60     		str	r4, [r3, #4]	@ max, res_62(D)->pack_cell_max_mV
 334:../../lpc11cx4-library/evt_lib/src/ltc6804.c **** 			return LTC6804_PASS;
 2415              		.loc 1 334 0
 2416 02d0 9A60     		str	r2, [r3, #8]	@ min, res_62(D)->pack_cell_min_mV
 335:../../lpc11cx4-library/evt_lib/src/ltc6804.c **** 		} else { // Keep Waiting
 2417              		.loc 1 335 0
 2418 02d2 ADE6     		b	.L122	@
 2419              	.LVL298:
 2420              	.L187:
 2421              	.LBE118:
 257:../../lpc11cx4-library/evt_lib/src/ltc6804.c **** 		return LTC6804_WAITING;
ARM GAS  /tmp/ccQWJFys.s 			page 67


 2422              		.loc 1 257 0
 2423 02d4 029A     		ldr	r2, [sp, #8]	@, %sfp
 2424 02d6 0023     		mov	r3, #0	@,
 2425 02d8 FFF7FEFF 		bl	_wake	@
 2426              	.LVL299:
 258:../../lpc11cx4-library/evt_lib/src/ltc6804.c **** 	} else if (!_IS_REFUP(state, msTicks)) {
 2427              		.loc 1 258 0
 2428 02dc 0020     		mov	r0, #0	@ D.7766,
 2429 02de A7E6     		b	.L122	@
 2430              	.LVL300:
 2431              	.L189:
 264:../../lpc11cx4-library/evt_lib/src/ltc6804.c **** 		state->flight_time = msTicks;
 2432              		.loc 1 264 0
 2433 02e0 0A1C     		mov	r2, r1	@ state, state
 2434              	.LVL301:
 2435 02e2 0133     		add	r3, r3, #1	@ tmp293,
 2436 02e4 0B76     		strb	r3, [r1, #24]	@ tmp293, state_40(D)->waiting
 266:../../lpc11cx4-library/evt_lib/src/ltc6804.c **** 		return LTC6804_WAITING;
 2437              		.loc 1 266 0
 2438 02e6 9C23     		mov	r3, #156	@ tmp299,
 265:../../lpc11cx4-library/evt_lib/src/ltc6804.c **** 		_command(config, state, (config->adc_mode << 7) | 0x270, msTicks); // ADCV, All Channels, DCP=1
 2439              		.loc 1 265 0
 2440 02e8 029C     		ldr	r4, [sp, #8]	@ msTicks, %sfp
 266:../../lpc11cx4-library/evt_lib/src/ltc6804.c **** 		return LTC6804_WAITING;
 2441              		.loc 1 266 0
 2442 02ea 0198     		ldr	r0, [sp, #4]	@ config, %sfp
 265:../../lpc11cx4-library/evt_lib/src/ltc6804.c **** 		_command(config, state, (config->adc_mode << 7) | 0x270, msTicks); // ADCV, All Channels, DCP=1
 2443              		.loc 1 265 0
 2444 02ec 1462     		str	r4, [r2, #32]	@ msTicks, state_40(D)->flight_time
 266:../../lpc11cx4-library/evt_lib/src/ltc6804.c **** 		return LTC6804_WAITING;
 2445              		.loc 1 266 0
 2446 02ee 027E     		ldrb	r2, [r0, #24]	@ D.7770,
 2447 02f0 9B00     		lsl	r3, r3, #2	@ tmp299, tmp299,
 2448 02f2 D201     		lsl	r2, r2, #7	@ D.7770, D.7770,
 2449 02f4 1A43     		orr	r2, r3	@ tmp300, tmp299
 2450 02f6 231C     		mov	r3, r4	@, msTicks
 2451 02f8 FFF7FEFF 		bl	_command	@
 2452              	.LVL302:
 267:../../lpc11cx4-library/evt_lib/src/ltc6804.c **** 	} else {
 2453              		.loc 1 267 0
 2454 02fc 0020     		mov	r0, #0	@ D.7766,
 2455 02fe 97E6     		b	.L122	@
 2456              	.LVL303:
 2457              	.L151:
 2458              	.LBB123:
 284:../../lpc11cx4-library/evt_lib/src/ltc6804.c **** 				uint8_t *rx_ptr = state->rx_buf + 4 + 8 * i;
 2459              		.loc 1 284 0
 2460 0300 0123     		mov	r3, #1	@ min,
 2461 0302 5B42     		neg	r3, r3	@ min, min
 2462 0304 0024     		mov	r4, #0	@ max,
 2463 0306 9B46     		mov	fp, r3	@ min, min
 2464 0308 F5E6     		b	.L124	@
 2465              	.LBE123:
 2466              		.cfi_endproc
 2467              	.LFE205:
 2468              		.size	LTC6804_GetCellVoltages, .-LTC6804_GetCellVoltages
 2469 030a C046     		.section	.text._calculate_pec,"ax",%progbits
ARM GAS  /tmp/ccQWJFys.s 			page 68


 2470              		.align	2
 2471              		.global	_calculate_pec
 2472              		.code	16
 2473              		.thumb_func
 2474              		.type	_calculate_pec, %function
 2475              	_calculate_pec:
 2476              	.LFB212:
 485:../../lpc11cx4-library/evt_lib/src/ltc6804.c **** 	uint16_t remainder,addr;
 2477              		.loc 1 485 0
 2478              		.cfi_startproc
 2479              	.LVL304:
 2480 0000 70B5     		push	{r4, r5, r6, lr}	@
 2481              		.cfi_def_cfa_offset 16
 2482              		.cfi_offset 4, -16
 2483              		.cfi_offset 5, -12
 2484              		.cfi_offset 6, -8
 2485              		.cfi_offset 14, -4
 490:../../lpc11cx4-library/evt_lib/src/ltc6804.c **** 	{
 2486              		.loc 1 490 0
 2487 0002 0029     		cmp	r1, #0	@ len,
 2488 0004 15D0     		beq	.L193	@,
 2489 0006 1023     		mov	r3, #16	@ remainder,
 492:../../lpc11cx4-library/evt_lib/src/ltc6804.c **** 		remainder = (remainder<<8)^crc15Table[addr];
 2490              		.loc 1 492 0
 2491 0008 FF25     		mov	r5, #255	@ tmp158,
 2492 000a 4C1E     		sub	r4, r1, #1	@ tmp134, len,
 2493 000c E4B2     		uxtb	r4, r4	@ D.7795, tmp134
 2494 000e 0134     		add	r4, r4, #1	@ D.7795,
 2495 0010 094E     		ldr	r6, .L195	@ tmp157,
 2496 0012 0419     		add	r4, r0, r4	@ D.7793, ivtmp.195, D.7795
 2497              	.LVL305:
 2498              	.L192:
 492:../../lpc11cx4-library/evt_lib/src/ltc6804.c **** 		remainder = (remainder<<8)^crc15Table[addr];
 2499              		.loc 1 492 0 is_stmt 0 discriminator 3
 2500 0014 0178     		ldrb	r1, [r0]	@ MEM[base: _39, offset: 0B], MEM[base: _39, offset: 0B]
 493:../../lpc11cx4-library/evt_lib/src/ltc6804.c **** 	}
 2501              		.loc 1 493 0 is_stmt 1 discriminator 3
 2502 0016 1A02     		lsl	r2, r3, #8	@ tmp137, remainder,
 492:../../lpc11cx4-library/evt_lib/src/ltc6804.c **** 		remainder = (remainder<<8)^crc15Table[addr];
 2503              		.loc 1 492 0 discriminator 3
 2504 0018 DB09     		lsr	r3, r3, #7	@ tmp141, remainder,
 2505              	.LVL306:
 2506 001a 4B40     		eor	r3, r1	@ tmp143, MEM[base: _39, offset: 0B]
 493:../../lpc11cx4-library/evt_lib/src/ltc6804.c **** 	}
 2507              		.loc 1 493 0 discriminator 3
 2508 001c 2B40     		and	r3, r5	@ D.7791, tmp158
 2509 001e 9B00     		lsl	r3, r3, #2	@ tmp150, D.7791,
 2510 0020 F35A     		ldrh	r3, [r6, r3]	@ D.7788, crc15Table
 2511 0022 92B2     		uxth	r2, r2	@ D.7788, tmp137
 2512 0024 0130     		add	r0, r0, #1	@ ivtmp.195,
 2513              	.LVL307:
 2514 0026 5340     		eor	r3, r2	@ remainder, D.7788
 2515              	.LVL308:
 490:../../lpc11cx4-library/evt_lib/src/ltc6804.c **** 	{
 2516              		.loc 1 490 0 discriminator 3
 2517 0028 A042     		cmp	r0, r4	@ ivtmp.195, D.7793
 2518 002a F3D1     		bne	.L192	@,
ARM GAS  /tmp/ccQWJFys.s 			page 69


 2519 002c 5B00     		lsl	r3, r3, #1	@ tmp155, remainder,
 2520              	.LVL309:
 2521 002e 98B2     		uxth	r0, r3	@ D.7797, tmp155
 2522              	.L191:
 496:../../lpc11cx4-library/evt_lib/src/ltc6804.c **** 	// int i,j;
 497:../../lpc11cx4-library/evt_lib/src/ltc6804.c **** 	// uint16_t pec = 0x0010;
 498:../../lpc11cx4-library/evt_lib/src/ltc6804.c **** 
 499:../../lpc11cx4-library/evt_lib/src/ltc6804.c **** 	// for (i = 0; i < len; i++) {
 500:../../lpc11cx4-library/evt_lib/src/ltc6804.c **** 	// 	for (j = 0; j < 8; j++) {
 501:../../lpc11cx4-library/evt_lib/src/ltc6804.c **** 	// 		uint16_t din = data[i] >> (7-j) & 1;
 502:../../lpc11cx4-library/evt_lib/src/ltc6804.c **** 	// 		uint16_t in0 = din ^ (pec >> 14 & 1); 				//in0 = din ^ pec[14]
 503:../../lpc11cx4-library/evt_lib/src/ltc6804.c **** 	// 		uint16_t in3 = ((in0 << 2) ^ (pec & 0x0004)) << 1;	//in3 = in0 ^ pec[2]
 504:../../lpc11cx4-library/evt_lib/src/ltc6804.c **** 	// 		uint16_t in4 = ((in0 << 3) ^ (pec & 0x0008)) << 1;	//in4 = in0 ^ pec[3]
 505:../../lpc11cx4-library/evt_lib/src/ltc6804.c **** 	// 		uint16_t in7 = ((in0 << 6) ^ (pec & 0x0040)) << 1;	//in7 = in0 & pec[6]
 506:../../lpc11cx4-library/evt_lib/src/ltc6804.c **** 	// 		uint16_t in8 = ((in0 << 7) ^ (pec & 0x0080)) << 1;	//in8 = in0 & pec[7];
 507:../../lpc11cx4-library/evt_lib/src/ltc6804.c **** 	// 		uint16_t in10 = ((in0 << 9) ^ (pec & 0x0200)) << 1;	//in10 = in0 ^ pec[9]
 508:../../lpc11cx4-library/evt_lib/src/ltc6804.c **** 	// 		uint16_t in14 = ((in0 << 13) ^ (pec & 0x2000)) << 1; //in14 = in0 ^ pec[13];
 509:../../lpc11cx4-library/evt_lib/src/ltc6804.c **** 			
 510:../../lpc11cx4-library/evt_lib/src/ltc6804.c **** 	// 		pec = (pec & ~0x4000) + in14;					//pec14 = in14
 511:../../lpc11cx4-library/evt_lib/src/ltc6804.c **** 	// 		pec = (pec & ~0x2000) + ((pec & 0x1000) << 1);	//pec13 = pec12
 512:../../lpc11cx4-library/evt_lib/src/ltc6804.c **** 	// 		pec = (pec & ~0x1000) + ((pec & 0x0800) << 1);	//pec12 = pec11
 513:../../lpc11cx4-library/evt_lib/src/ltc6804.c **** 	// 		pec = (pec & ~0x0800) + ((pec & 0x0400) << 1);	//pec11 = pec10
 514:../../lpc11cx4-library/evt_lib/src/ltc6804.c **** 	// 		pec = (pec & ~0x0400) + in10;					//pec10 = in10
 515:../../lpc11cx4-library/evt_lib/src/ltc6804.c **** 	// 		pec = (pec & ~0x0200) + ((pec & 0x0100) << 1);	//pec9 = pec8
 516:../../lpc11cx4-library/evt_lib/src/ltc6804.c **** 	// 		pec = (pec & ~0x0100) + in8;					//pec8 = in8
 517:../../lpc11cx4-library/evt_lib/src/ltc6804.c **** 	// 		pec = (pec & ~0x0080) + in7;					//pec7 = in7
 518:../../lpc11cx4-library/evt_lib/src/ltc6804.c **** 	// 		pec = (pec & ~0x0040) + ((pec & 0x0020) << 1);	//pec6 = pec5
 519:../../lpc11cx4-library/evt_lib/src/ltc6804.c **** 	// 		pec = (pec & ~0x0020) + ((pec & 0x0010) << 1);	//pec5 = pec4
 520:../../lpc11cx4-library/evt_lib/src/ltc6804.c **** 	// 		pec = (pec & ~0x0010) + in4;					//pec4 = in4;
 521:../../lpc11cx4-library/evt_lib/src/ltc6804.c **** 	// 		pec = (pec & ~0x0008) + in3; 					//pec3 = in3
 522:../../lpc11cx4-library/evt_lib/src/ltc6804.c **** 	// 		pec = (pec & ~0x0004) + ((pec & 0x0002) << 1); 	//pec2 = pec1
 523:../../lpc11cx4-library/evt_lib/src/ltc6804.c **** 	// 		pec = (pec & ~0x0002) + ((pec & 0x0001) << 1); 	//pec1 = pec0
 524:../../lpc11cx4-library/evt_lib/src/ltc6804.c **** 	// 		pec = (pec & ~0x0001) + in0; 					//pec0 = in0
 525:../../lpc11cx4-library/evt_lib/src/ltc6804.c **** 	// 	}
 526:../../lpc11cx4-library/evt_lib/src/ltc6804.c **** 		
 527:../../lpc11cx4-library/evt_lib/src/ltc6804.c **** 	// }
 528:../../lpc11cx4-library/evt_lib/src/ltc6804.c **** 
 529:../../lpc11cx4-library/evt_lib/src/ltc6804.c **** 	// return pec << 1;
 530:../../lpc11cx4-library/evt_lib/src/ltc6804.c **** }
 2523              		.loc 1 530 0
 2524              		@ sp needed	@
 2525 0030 70BD     		pop	{r4, r5, r6, pc}
 2526              	.LVL310:
 2527              	.L193:
 490:../../lpc11cx4-library/evt_lib/src/ltc6804.c **** 	{
 2528              		.loc 1 490 0
 2529 0032 2020     		mov	r0, #32	@ D.7797,
 2530              	.LVL311:
 2531 0034 FCE7     		b	.L191	@
 2532              	.L196:
 2533 0036 C046     		.align	2
 2534              	.L195:
 2535 0038 00000000 		.word	.LANCHOR0
 2536              		.cfi_endproc
 2537              	.LFE212:
 2538              		.size	_calculate_pec, .-_calculate_pec
 2539              		.section	.text._check_st_results,"ax",%progbits
ARM GAS  /tmp/ccQWJFys.s 			page 70


 2540              		.align	2
 2541              		.global	_check_st_results
 2542              		.code	16
 2543              		.thumb_func
 2544              		.type	_check_st_results, %function
 2545              	_check_st_results:
 2546              	.LFB213:
 531:../../lpc11cx4-library/evt_lib/src/ltc6804.c **** 
 532:../../lpc11cx4-library/evt_lib/src/ltc6804.c **** bool _check_st_results(LTC6804_CONFIG_T *config, LTC6804_STATE_T *state) {
 2547              		.loc 1 532 0
 2548              		.cfi_startproc
 2549              	.LVL312:
 2550 0000 70B5     		push	{r4, r5, r6, lr}	@
 2551              		.cfi_def_cfa_offset 16
 2552              		.cfi_offset 4, -16
 2553              		.cfi_offset 5, -12
 2554              		.cfi_offset 6, -8
 2555              		.cfi_offset 14, -4
 533:../../lpc11cx4-library/evt_lib/src/ltc6804.c **** 	int i;
 534:../../lpc11cx4-library/evt_lib/src/ltc6804.c **** 	for (i = 0; i < config->num_modules; i++) {
 2556              		.loc 1 534 0
 2557 0002 857A     		ldrb	r5, [r0, #10]	@ D.7813,
 2558 0004 002D     		cmp	r5, #0	@ D.7813,
 2559 0006 26D0     		beq	.L202	@,
 2560              	.LBB124:
 535:../../lpc11cx4-library/evt_lib/src/ltc6804.c **** 		uint8_t *rx_ptr = state->rx_buf+4+8*i;
 2561              		.loc 1 535 0
 2562 0008 8A68     		ldr	r2, [r1, #8]	@ D.7815, state_7(D)->rx_buf
 536:../../lpc11cx4-library/evt_lib/src/ltc6804.c **** 		if ((rx_ptr[1] << 8 | rx_ptr[0]) != LTC6804_SELF_TEST_RES[config->adc_mode]) return false;
 2563              		.loc 1 536 0
 2564 000a 1449     		ldr	r1, .L209	@ tmp150,
 2565              	.LVL313:
 2566 000c 5479     		ldrb	r4, [r2, #5]	@ D.7813, MEM[(uint8_t *)_38 + 5B]
 535:../../lpc11cx4-library/evt_lib/src/ltc6804.c **** 		uint8_t *rx_ptr = state->rx_buf+4+8*i;
 2567              		.loc 1 535 0
 2568 000e 131D     		add	r3, r2, #4	@ rx_ptr, D.7815,
 2569              	.LVL314:
 2570              		.loc 1 536 0
 2571 0010 1279     		ldrb	r2, [r2, #4]	@ D.7813, MEM[(uint8_t *)_38 + 4B]
 2572 0012 2402     		lsl	r4, r4, #8	@ D.7813, D.7813,
 2573 0014 1443     		orr	r4, r2	@ D.7813, D.7813
 2574 0016 027E     		ldrb	r2, [r0, #24]	@ D.7813,
 2575 0018 0020     		mov	r0, #0	@ i,
 2576              	.LVL315:
 2577 001a 5200     		lsl	r2, r2, #1	@ tmp152, D.7813,
 2578 001c 565A     		ldrh	r6, [r2, r1]	@ D.7813, LTC6804_SELF_TEST_RES
 2579 001e B442     		cmp	r4, r6	@ D.7813, D.7813
 2580 0020 11D0     		beq	.L200	@,
 2581 0022 16E0     		b	.L206	@
 2582              	.LVL316:
 2583              	.L208:
 537:../../lpc11cx4-library/evt_lib/src/ltc6804.c **** 		if ((rx_ptr[3] << 8 | rx_ptr[2]) != LTC6804_SELF_TEST_RES[config->adc_mode]) return false;
 538:../../lpc11cx4-library/evt_lib/src/ltc6804.c **** 		if ((rx_ptr[5] << 8 | rx_ptr[4]) != LTC6804_SELF_TEST_RES[config->adc_mode]) return false;
 2584              		.loc 1 538 0
 2585 0024 5A79     		ldrb	r2, [r3, #5]	@ D.7813, MEM[base: rx_ptr_55, offset: 5B]
 2586 0026 1979     		ldrb	r1, [r3, #4]	@ D.7813, MEM[base: rx_ptr_55, offset: 4B]
 2587 0028 1202     		lsl	r2, r2, #8	@ D.7813, D.7813,
ARM GAS  /tmp/ccQWJFys.s 			page 71


 2588 002a 0A43     		orr	r2, r1	@ D.7813, D.7813
 2589 002c 9642     		cmp	r6, r2	@ D.7813, D.7813
 2590 002e 10D1     		bne	.L206	@,
 2591              	.LBE124:
 534:../../lpc11cx4-library/evt_lib/src/ltc6804.c **** 		uint8_t *rx_ptr = state->rx_buf+4+8*i;
 2592              		.loc 1 534 0 discriminator 2
 2593 0030 0130     		add	r0, r0, #1	@ i,
 2594              	.LVL317:
 2595 0032 A842     		cmp	r0, r5	@ i, D.7813
 2596 0034 0FDA     		bge	.L202	@,
 2597              	.LBB125:
 535:../../lpc11cx4-library/evt_lib/src/ltc6804.c **** 		if ((rx_ptr[1] << 8 | rx_ptr[0]) != LTC6804_SELF_TEST_RES[config->adc_mode]) return false;
 2598              		.loc 1 535 0
 2599 0036 0833     		add	r3, r3, #8	@ rx_ptr,
 2600              	.LVL318:
 536:../../lpc11cx4-library/evt_lib/src/ltc6804.c **** 		if ((rx_ptr[3] << 8 | rx_ptr[2]) != LTC6804_SELF_TEST_RES[config->adc_mode]) return false;
 2601              		.loc 1 536 0
 2602 0038 5A78     		ldrb	r2, [r3, #1]	@ D.7813, MEM[base: rx_ptr_12, offset: 1B]
 2603 003a 1978     		ldrb	r1, [r3]	@ D.7813, MEM[base: rx_ptr_12, offset: 0B]
 2604 003c 1202     		lsl	r2, r2, #8	@ D.7813, D.7813,
 2605 003e 0A43     		orr	r2, r1	@ D.7813, D.7813
 2606 0040 A242     		cmp	r2, r4	@ D.7813, D.7813
 2607 0042 06D1     		bne	.L206	@,
 2608 0044 261C     		mov	r6, r4	@ D.7813, D.7813
 2609              	.LVL319:
 2610              	.L200:
 537:../../lpc11cx4-library/evt_lib/src/ltc6804.c **** 		if ((rx_ptr[5] << 8 | rx_ptr[4]) != LTC6804_SELF_TEST_RES[config->adc_mode]) return false;
 2611              		.loc 1 537 0
 2612 0046 DA78     		ldrb	r2, [r3, #3]	@ D.7813, MEM[base: rx_ptr_55, offset: 3B]
 2613 0048 9978     		ldrb	r1, [r3, #2]	@ D.7813, MEM[base: rx_ptr_55, offset: 2B]
 2614 004a 1202     		lsl	r2, r2, #8	@ D.7813, D.7813,
 2615 004c 0A43     		orr	r2, r1	@ D.7813, D.7813
 2616 004e 9642     		cmp	r6, r2	@ D.7813, D.7813
 2617 0050 E8D0     		beq	.L208	@,
 2618              	.LVL320:
 2619              	.L206:
 536:../../lpc11cx4-library/evt_lib/src/ltc6804.c **** 		if ((rx_ptr[3] << 8 | rx_ptr[2]) != LTC6804_SELF_TEST_RES[config->adc_mode]) return false;
 2620              		.loc 1 536 0
 2621 0052 0020     		mov	r0, #0	@ D.7812,
 2622              	.LVL321:
 2623              	.L198:
 2624              	.LBE125:
 539:../../lpc11cx4-library/evt_lib/src/ltc6804.c **** 	}
 540:../../lpc11cx4-library/evt_lib/src/ltc6804.c **** 
 541:../../lpc11cx4-library/evt_lib/src/ltc6804.c **** 	return true;
 542:../../lpc11cx4-library/evt_lib/src/ltc6804.c **** }
 2625              		.loc 1 542 0
 2626              		@ sp needed	@
 2627 0054 70BD     		pop	{r4, r5, r6, pc}
