ARM GAS  /tmp/ccpSLu1L.s 			page 1


   1              		.cpu cortex-m0
   2              		.fpu softvfp
   3              		.eabi_attribute 20, 1	@ Tag_ABI_FP_denormal
   4              		.eabi_attribute 21, 1	@ Tag_ABI_FP_exceptions
   5              		.eabi_attribute 23, 3	@ Tag_ABI_FP_number_model
   6              		.eabi_attribute 24, 1	@ Tag_ABI_align8_needed
   7              		.eabi_attribute 25, 1	@ Tag_ABI_align8_preserved
   8              		.eabi_attribute 26, 1	@ Tag_ABI_enum_size
   9              		.eabi_attribute 30, 2	@ Tag_ABI_optimization_goals
  10              		.eabi_attribute 34, 0	@ Tag_CPU_unaligned_access
  11              		.eabi_attribute 18, 4	@ Tag_ABI_PCS_wchar_t
  12              		.file	"main.c"
  13              	@ GNU C (GNU Tools for ARM Embedded Processors) version 4.9.3 20150529 (release) [ARM/embedded-4_9-
  14              	@	compiled by GNU C version 4.8.4, GMP version 5.1.3, MPFR version 3.1.2-p3, MPC version 1.0.1
  15              	@ GGC heuristics: --param ggc-min-expand=98 --param ggc-min-heapsize=128397
  16              	@ options passed:  -I . -I inc/
  17              	@ -I ../../lpc11cx4-library/lpc_chip_11cxx_lib/inc
  18              	@ -I ../../lpc11cx4-library/evt_lib/inc/ -imultilib armv6-m
  19              	@ -iprefix /usr/bin/../lib/gcc/arm-none-eabi/4.9.3/
  20              	@ -isysroot /usr/bin/../arm-none-eabi -MD bin/main.d -MF bin/main.d -MP
  21              	@ -MQ bin/main.o -D__USES_INITFINI__ -D UART_BAUD=57600 -D CORE_M0
  22              	@ -D DEBUG_ENABLE src/main.c -mcpu=cortex-m0 -mthumb
  23              	@ -auxbase-strip bin/main.o -g -ggdb3 -O2 -Wall -Wstrict-prototypes -Wextra
  24              	@ -std=gnu90 -ffunction-sections -fdata-sections -fdiagnostics-color=always
  25              	@ -fverbose-asm
  26              	@ options enabled:  -faggressive-loop-optimizations -fauto-inc-dec
  27              	@ -fbranch-count-reg -fcaller-saves -fcombine-stack-adjustments -fcommon
  28              	@ -fcompare-elim -fcprop-registers -fcrossjumping -fcse-follow-jumps
  29              	@ -fdata-sections -fdefer-pop -fdelete-null-pointer-checks -fdevirtualize
  30              	@ -fdevirtualize-speculatively -fdwarf2-cfi-asm -fearly-inlining
  31              	@ -feliminate-unused-debug-types -fexpensive-optimizations
  32              	@ -fforward-propagate -ffunction-cse -ffunction-sections -fgcse -fgcse-lm
  33              	@ -fgnu-runtime -fgnu-unique -fguess-branch-probability
  34              	@ -fhoist-adjacent-loads -fident -fif-conversion -fif-conversion2
  35              	@ -findirect-inlining -finline -finline-atomics
  36              	@ -finline-functions-called-once -finline-small-functions -fipa-cp
  37              	@ -fipa-profile -fipa-pure-const -fipa-reference -fipa-sra
  38              	@ -fira-hoist-pressure -fira-share-save-slots -fira-share-spill-slots
  39              	@ -fisolate-erroneous-paths-dereference -fivopts -fkeep-static-consts
  40              	@ -fleading-underscore -flifetime-dse -fmath-errno -fmerge-constants
  41              	@ -fmerge-debug-strings -fmove-loop-invariants -fomit-frame-pointer
  42              	@ -foptimize-sibling-calls -foptimize-strlen -fpartial-inlining -fpeephole
  43              	@ -fpeephole2 -fprefetch-loop-arrays -freg-struct-return -freorder-blocks
  44              	@ -freorder-functions -frerun-cse-after-loop
  45              	@ -fsched-critical-path-heuristic -fsched-dep-count-heuristic
  46              	@ -fsched-group-heuristic -fsched-interblock -fsched-last-insn-heuristic
  47              	@ -fsched-pressure -fsched-rank-heuristic -fsched-spec
  48              	@ -fsched-spec-insn-heuristic -fsched-stalled-insns-dep -fschedule-insns2
  49              	@ -fsection-anchors -fshow-column -fshrink-wrap -fsigned-zeros
  50              	@ -fsplit-ivs-in-unroller -fsplit-wide-types -fstrict-aliasing
  51              	@ -fstrict-overflow -fstrict-volatile-bitfields -fsync-libcalls
  52              	@ -fthread-jumps -ftoplevel-reorder -ftrapping-math -ftree-bit-ccp
  53              	@ -ftree-builtin-call-dce -ftree-ccp -ftree-ch -ftree-coalesce-vars
  54              	@ -ftree-copy-prop -ftree-copyrename -ftree-cselim -ftree-dce
  55              	@ -ftree-dominator-opts -ftree-dse -ftree-forwprop -ftree-fre
  56              	@ -ftree-loop-if-convert -ftree-loop-im -ftree-loop-ivcanon
  57              	@ -ftree-loop-optimize -ftree-parallelize-loops= -ftree-phiprop -ftree-pre
ARM GAS  /tmp/ccpSLu1L.s 			page 2


  58              	@ -ftree-pta -ftree-reassoc -ftree-scev-cprop -ftree-sink -ftree-slsr
  59              	@ -ftree-sra -ftree-switch-conversion -ftree-tail-merge -ftree-ter
  60              	@ -ftree-vrp -funit-at-a-time -fvar-tracking -fvar-tracking-assignments
  61              	@ -fverbose-asm -fzero-initialized-in-bss -mlittle-endian -mlra
  62              	@ -mpic-data-is-text-relative -msched-prolog -mthumb
  63              	@ -mvectorize-with-neon-quad
  64              	
  65              		.text
  66              	.Ltext0:
  67              		.cfi_sections	.debug_frame
  68              		.section	.text._delay,"ax",%progbits
  69              		.align	2
  70              		.global	_delay
  71              		.code	16
  72              		.thumb_func
  73              		.type	_delay, %function
  74              	_delay:
  75              	.LFB198:
  76              		.file 1 "src/main.c"
   1:src/main.c    **** #include "board.h"
   2:src/main.c    **** #include "can.h"
   3:src/main.c    **** 
   4:src/main.c    **** // -------------------------------------------------------------
   5:src/main.c    **** // Macro Definitions
   6:src/main.c    **** 
   7:src/main.c    **** #define CCAN_BAUD_RATE 500000 					// Desired CAN Baud Rate
   8:src/main.c    **** #define UART_BAUD_RATE 57600 					// Desired UART Baud Rate
   9:src/main.c    **** 
  10:src/main.c    **** #define BUFFER_SIZE 8
  11:src/main.c    **** 
  12:src/main.c    **** // -------------------------------------------------------------
  13:src/main.c    **** // Static Variable Declaration
  14:src/main.c    **** 
  15:src/main.c    **** extern volatile uint32_t msTicks;
  16:src/main.c    **** static uint32_t lastPrint;
  17:src/main.c    **** 
  18:src/main.c    **** CCAN_MSG_OBJ_T rx_msg; 	
  19:src/main.c    **** static CCAN_MSG_OBJ_T msg_obj; 					// Message Object data structure for manipulating CAN messages
  20:src/main.c    **** static RINGBUFF_T can_rx_buffer;				// Ring Buffer for storing received CAN messages
  21:src/main.c    **** static CCAN_MSG_OBJ_T _rx_buffer[BUFFER_SIZE]; 	// Underlying array used in ring buffer
  22:src/main.c    **** 
  23:src/main.c    **** static char str[100];							// Used for composing UART messages
  24:src/main.c    **** static uint8_t uart_rx_buffer[BUFFER_SIZE]; 	// UART received message buffer
  25:src/main.c    **** static uint8_t uart_tx_buffer[BUFFER_SIZE];
  26:src/main.c    **** 
  27:src/main.c    **** static bool can_error_flag;
  28:src/main.c    **** static uint32_t can_error_info;
  29:src/main.c    **** 
  30:src/main.c    **** 
  31:src/main.c    **** 
  32:src/main.c    **** // -------------------------------------------------------------
  33:src/main.c    **** // Helper Functions
  34:src/main.c    **** 
  35:src/main.c    **** /**
  36:src/main.c    ****  * Delay the processor for a given number of milliseconds
  37:src/main.c    ****  * @param ms Number of milliseconds to delay
  38:src/main.c    ****  */
ARM GAS  /tmp/ccpSLu1L.s 			page 3


  39:src/main.c    **** void _delay(uint32_t ms) {
  77              		.loc 1 39 0
  78              		.cfi_startproc
  79              	.LVL0:
  40:src/main.c    **** 	uint32_t curTicks = msTicks;
  80              		.loc 1 40 0
  81 0000 034A     		ldr	r2, .L5	@ tmp117,
  82 0002 1168     		ldr	r1, [r2]	@ curTicks, msTicks
  83              	.LVL1:
  84              	.L2:
  41:src/main.c    **** 	while ((msTicks - curTicks) < ms);
  85              		.loc 1 41 0 discriminator 1
  86 0004 1368     		ldr	r3, [r2]	@ D.6541, msTicks
  87 0006 5B1A     		sub	r3, r3, r1	@ D.6541, D.6541, curTicks
  88 0008 8342     		cmp	r3, r0	@ D.6541, ms
  89 000a FBD3     		bcc	.L2	@,
  42:src/main.c    **** }
  90              		.loc 1 42 0
  91              		@ sp needed	@
  92 000c 7047     		bx	lr
  93              	.L6:
  94 000e C046     		.align	2
  95              	.L5:
  96 0010 00000000 		.word	msTicks
  97              		.cfi_endproc
  98              	.LFE198:
  99              		.size	_delay, .-_delay
 100              		.section	.text.startup.main,"ax",%progbits
 101              		.align	2
 102              		.global	main
 103              		.code	16
 104              		.thumb_func
 105              		.type	main, %function
 106              	main:
 107              	.LFB200:
  43:src/main.c    **** 
  44:src/main.c    **** static void Print_Buffer(uint8_t* buff, uint8_t buff_size) {
  45:src/main.c    ****     Chip_UART_SendBlocking(LPC_USART, "0x", 2);
  46:src/main.c    ****     uint8_t i;
  47:src/main.c    ****     for(i = 0; i < buff_size; i++) {
  48:src/main.c    ****         itoa(buff[i], str, 16);
  49:src/main.c    ****         if(buff[i] < 16) {
  50:src/main.c    ****             Chip_UART_SendBlocking(LPC_USART, "0", 1);
  51:src/main.c    ****         }
  52:src/main.c    ****         Chip_UART_SendBlocking(LPC_USART, str, 2);
  53:src/main.c    ****     }
  54:src/main.c    **** }
  55:src/main.c    **** // -------------------------------------------------------------
  56:src/main.c    **** 
  57:src/main.c    **** // Main Program Loop
  58:src/main.c    **** 
  59:src/main.c    **** int main(void)
  60:src/main.c    **** {
 108              		.loc 1 60 0
 109              		.cfi_startproc
 110 0000 F0B5     		push	{r4, r5, r6, r7, lr}	@
 111              		.cfi_def_cfa_offset 20
ARM GAS  /tmp/ccpSLu1L.s 			page 4


 112              		.cfi_offset 4, -20
 113              		.cfi_offset 5, -16
 114              		.cfi_offset 6, -12
 115              		.cfi_offset 7, -8
 116              		.cfi_offset 14, -4
 117 0002 4446     		mov	r4, r8	@,
 118 0004 5F46     		mov	r7, fp	@,
 119 0006 5646     		mov	r6, r10	@,
 120 0008 4D46     		mov	r5, r9	@,
  61:src/main.c    **** 
  62:src/main.c    **** 	//---------------
  63:src/main.c    **** 	// Initialize UART Communication
  64:src/main.c    **** 	Board_UART_Init(UART_BAUD_RATE);
 121              		.loc 1 64 0
 122 000a E120     		mov	r0, #225	@,
  60:src/main.c    **** 
 123              		.loc 1 60 0
 124 000c F0B4     		push	{r4, r5, r6, r7}	@
 125              		.cfi_def_cfa_offset 36
 126              		.cfi_offset 8, -36
 127              		.cfi_offset 9, -32
 128              		.cfi_offset 10, -28
 129              		.cfi_offset 11, -24
 130              		.loc 1 64 0
 131 000e 0002     		lsl	r0, r0, #8	@,,
  60:src/main.c    **** 
 132              		.loc 1 60 0
 133 0010 85B0     		sub	sp, sp, #20	@,,
 134              		.cfi_def_cfa_offset 56
 135              		.loc 1 64 0
 136 0012 FFF7FEFF 		bl	Board_UART_Init	@
 137              	.LVL2:
  65:src/main.c    **** 	Board_UART_Println("Started up");
 138              		.loc 1 65 0
 139 0016 6948     		ldr	r0, .L37	@,
 140 0018 FFF7FEFF 		bl	Board_UART_Println	@
 141              	.LVL3:
  66:src/main.c    **** 
  67:src/main.c    **** 	//---------------
  68:src/main.c    **** 	// Initialize SysTick Timer to generate millisecond count
  69:src/main.c    **** 	if (Board_SysTick_Init()) {
 142              		.loc 1 69 0
 143 001c FFF7FEFF 		bl	Board_SysTick_Init	@
 144              	.LVL4:
 145 0020 041E     		sub	r4, r0, #0	@ tmp178,,
 146 0022 03D0     		beq	.L8	@,
  70:src/main.c    **** 		Board_UART_Println("Failed to Initialize SysTick. ");
 147              		.loc 1 70 0
 148 0024 6648     		ldr	r0, .L37+4	@,
 149 0026 FFF7FEFF 		bl	Board_UART_Println	@
 150              	.LVL5:
 151              	.L9:
  71:src/main.c    **** 		// Unrecoverable Error. Hang.
  72:src/main.c    **** 		while(1);
 152              		.loc 1 72 0 discriminator 1
 153 002a FEE7     		b	.L9	@
 154              	.L8:
ARM GAS  /tmp/ccpSLu1L.s 			page 5


  73:src/main.c    **** 	}
  74:src/main.c    **** 
  75:src/main.c    **** 	//---------------
  76:src/main.c    **** 	// Initialize GPIO and LED as output
  77:src/main.c    **** 	Board_LEDs_Init();
 155              		.loc 1 77 0
 156 002c FFF7FEFF 		bl	Board_LEDs_Init	@
 157              	.LVL6:
  78:src/main.c    **** 
  79:src/main.c    **** 	//---------------
  80:src/main.c    **** 	// Initialize CAN  and CAN Ring Buffer
  81:src/main.c    **** 
  82:src/main.c    **** 	CAN_Init(CCAN_BAUD_RATE);
 158              		.loc 1 82 0
 159 0030 6448     		ldr	r0, .L37+8	@,
 160 0032 FFF7FEFF 		bl	CAN_Init	@
 161              	.LVL7:
  83:src/main.c    **** 
  84:src/main.c    **** 	// For your convenience.
  85:src/main.c    **** 	// typedef struct CCAN_MSG_OBJ {
  86:src/main.c    **** 	// 	uint32_t  mode_id;
  87:src/main.c    **** 	// 	uint32_t  mask;
  88:src/main.c    **** 	// 	uint8_t   data[8];
  89:src/main.c    **** 	// 	uint8_t   dlc;
  90:src/main.c    **** 	// 	uint8_t   msgobj;
  91:src/main.c    **** 	// } CCAN_MSG_OBJ_T;
  92:src/main.c    **** 
  93:src/main.c    **** 	/* [Tutorial] How do filters work?
  94:src/main.c    **** 
  95:src/main.c    **** 		Incoming ID & Mask == Mode_ID for msgobj to accept message
  96:src/main.c    **** 
  97:src/main.c    **** 		Incoming ID : 0xabc
  98:src/main.c    **** 		Mask: 		  0xF0F &
  99:src/main.c    **** 		            -----------
 100:src/main.c    **** 		              0xa0c
 101:src/main.c    **** 
 102:src/main.c    **** 		mode_id == 0xa0c for msgobj to accept message
 103:src/main.c    **** 
 104:src/main.c    **** 	*/
 105:src/main.c    **** 
 106:src/main.c    **** 	/* [Tutorial] How do I send a CAN Message?
 107:src/main.c    **** 
 108:src/main.c    **** 		There are 32 Message Objects in the CAN Peripherals Message RAM.
 109:src/main.c    **** 		We need to pick one that isn't setup for receiving messages and use it to send.
 110:src/main.c    **** 
 111:src/main.c    **** 		For this exmaple we'll pick 31
 112:src/main.c    **** 
 113:src/main.c    **** 		msg_obj.msgobj = 31;
 114:src/main.c    **** 		msg_obj.mode_id = 0x600; 		// CAN ID of Message to Send
 115:src/main.c    **** 		msg_obj.dlc = 8; 				// Byte length of CAN Message
 116:src/main.c    **** 		msg_obj.data[0] = 0xAA; 		// Fill your bytes here
 117:src/main.c    **** 		msg_obj.data[1] = ..;
 118:src/main.c    **** 		..
 119:src/main.c    **** 		msg_obj.data[7] = 0xBB:
 120:src/main.c    **** 
 121:src/main.c    **** 		Now its time to send
 122:src/main.c    **** 		LPC_CCAN_API->can_transmit(&msg_obj);
ARM GAS  /tmp/ccpSLu1L.s 			page 6


 123:src/main.c    **** 
 124:src/main.c    **** 	*/
 125:src/main.c    **** 	uint32_t ret;
 126:src/main.c    **** 	uint32_t reset_can_peripheral_time;
 127:src/main.c    **** 	const uint32_t can_error_delay = 5000;
 128:src/main.c    **** 	bool reset_can_peripheral = false;
 129:src/main.c    **** 	can_error_flag = false;
 162              		.loc 1 129 0
 163 0036 644B     		ldr	r3, .L37+12	@ tmp182,
 164 0038 644F     		ldr	r7, .L37+16	@ tmp248,
 165 003a 1C70     		strb	r4, [r3]	@ tmp178, can_error_flag
 130:src/main.c    **** 	can_error_info = 0;
 166              		.loc 1 130 0
 167 003c 644B     		ldr	r3, .L37+20	@ tmp185,
 168 003e 654D     		ldr	r5, .L37+24	@ tmp246,
 169 0040 1C60     		str	r4, [r3]	@ tmp178, can_error_info
 128:src/main.c    **** 	can_error_flag = false;
 170              		.loc 1 128 0
 171 0042 0023     		mov	r3, #0	@ reset_can_peripheral,
 172 0044 9946     		mov	r9, r3	@ reset_can_peripheral, reset_can_peripheral
 173 0046 644B     		ldr	r3, .L37+28	@ tmp251,
 174 0048 9846     		mov	r8, r3	@ tmp251, tmp251
 175 004a 644B     		ldr	r3, .L37+32	@ tmp252,
 176 004c 9B46     		mov	fp, r3	@ tmp252, tmp252
 177 004e 644B     		ldr	r3, .L37+36	@ tmp257,
 178 0050 9A46     		mov	r10, r3	@ tmp257, tmp257
 179              	.LVL8:
 180              	.L23:
 181              	.LBB7:
 131:src/main.c    **** 
 132:src/main.c    **** 	while (1) {
 133:src/main.c    **** 		uint8_t heartbeat[1];
 134:src/main.c    **** 		
 135:src/main.c    ****             // transmit a message!
 136:src/main.c    **** 		if (lastPrint < msTicks-200) {
 182              		.loc 1 136 0
 183 0052 4346     		mov	r3, r8	@ tmp251, tmp251
 184 0054 5A46     		mov	r2, fp	@ tmp252, tmp252
 185 0056 1B68     		ldr	r3, [r3]	@ D.6556, msTicks
 186 0058 1268     		ldr	r2, [r2]	@ tmp276, lastPrint
 187 005a C83B     		sub	r3, r3, #200	@ D.6556,
 188 005c 9342     		cmp	r3, r2	@ D.6556, tmp276
 189 005e 6FD8     		bhi	.L35	@,
 190              	.L10:
 137:src/main.c    **** 			heartbeat[0] = 1;
 138:src/main.c    **** 			CAN_Transmit(0x7F5, heartbeat, 1);
 139:src/main.c    **** 			lastPrint = msTicks;
 140:src/main.c    **** 		}
 141:src/main.c    **** 
 142:src/main.c    **** 		if(reset_can_peripheral && msTicks > reset_can_peripheral_time) {
 191              		.loc 1 142 0
 192 0060 4B46     		mov	r3, r9	@ reset_can_peripheral, reset_can_peripheral
 193 0062 002B     		cmp	r3, #0	@ reset_can_peripheral,
 194 0064 05D0     		beq	.L11	@,
 195              		.loc 1 142 0 is_stmt 0 discriminator 1
 196 0066 4346     		mov	r3, r8	@ tmp251, tmp251
 197 0068 019A     		ldr	r2, [sp, #4]	@ reset_can_peripheral_time, %sfp
ARM GAS  /tmp/ccpSLu1L.s 			page 7


 198 006a 1B68     		ldr	r3, [r3]	@ D.6556, msTicks
 199 006c 9A42     		cmp	r2, r3	@ reset_can_peripheral_time, D.6556
 200 006e 00D2     		bcs	.LCB128	@
 201 0070 95E0     		b	.L36	@long jump	@
 202              	.LCB128:
 203              	.LVL9:
 204              	.L11:
 143:src/main.c    **** 		    Board_UART_Println("Attempting to reset CAN peripheral...");
 144:src/main.c    **** 		    CAN_ResetPeripheral();
 145:src/main.c    **** 		    CAN_Init(CCAN_BAUD_RATE);
 146:src/main.c    **** 		    Board_UART_Println("Reset CAN peripheral. ");
 147:src/main.c    **** 		    reset_can_peripheral = false;
 148:src/main.c    **** 		}
 149:src/main.c    **** 
 150:src/main.c    **** 
 151:src/main.c    ****             // recieve message if there is a message
 152:src/main.c    **** 		    ret = CAN_Receive(&rx_msg);
 205              		.loc 1 152 0 is_stmt 1
 206 0072 381C     		mov	r0, r7	@, tmp248
 207 0074 FFF7FEFF 		bl	CAN_Receive	@
 208              	.LVL10:
 209 0078 041E     		sub	r4, r0, #0	@ tmp203,,
 210              	.LVL11:
 153:src/main.c    **** 		    if(ret == NO_RX_CAN_MESSAGE) {
 211              		.loc 1 153 0
 212 007a 012C     		cmp	r4, #1	@ tmp203,
 213 007c 37D0     		beq	.L12	@,
 154:src/main.c    **** //		        Board_UART_Println("No CAN message received...");
 155:src/main.c    **** 		    } else if(ret == NO_CAN_ERROR) {
 214              		.loc 1 155 0
 215 007e 0028     		cmp	r0, #0	@ tmp203,
 216 0080 6BD1     		bne	.L13	@,
 156:src/main.c    **** 		        Board_UART_Print("Recieved data ");
 217              		.loc 1 156 0
 218 0082 5848     		ldr	r0, .L37+40	@,
 219              	.LVL12:
 220 0084 FFF7FEFF 		bl	Board_UART_Print	@
 221              	.LVL13:
 157:src/main.c    **** 		        Print_Buffer(rx_msg.data, rx_msg.dlc);
 222              		.loc 1 157 0
 223 0088 3E7C     		ldrb	r6, [r7, #16]	@ D.6558,
 224              	.LVL14:
 225              	.LBB8:
 226              	.LBB9:
  45:src/main.c    ****     uint8_t i;
 227              		.loc 1 45 0
 228 008a 5748     		ldr	r0, .L37+44	@,
 229 008c 5749     		ldr	r1, .L37+48	@,
 230 008e 0222     		mov	r2, #2	@,
 231 0090 FFF7FEFF 		bl	Chip_UART_SendBlocking	@
 232              	.LVL15:
  47:src/main.c    ****         itoa(buff[i], str, 16);
 233              		.loc 1 47 0
 234 0094 002E     		cmp	r6, #0	@ D.6558,
 235 0096 22D0     		beq	.L17	@,
 236 0098 013E     		sub	r6, r6, #1	@ tmp212,
 237              	.LVL16:
ARM GAS  /tmp/ccpSLu1L.s 			page 8


 238 009a F6B2     		uxtb	r6, r6	@ D.6562, tmp212
 239              	.LVL17:
 240 009c 0136     		add	r6, r6, #1	@ D.6562,
 241 009e 3C1C     		mov	r4, r7	@ ivtmp.19, tmp248
 242              	.LVL18:
 243 00a0 BE19     		add	r6, r7, r6	@ D.6564, tmp248, D.6562
 244 00a2 07E0     		b	.L16	@
 245              	.LVL19:
 246              	.L15:
 247              	.LBB10:
  52:src/main.c    ****     }
 248              		.loc 1 52 0
 249 00a4 5048     		ldr	r0, .L37+44	@,
 250 00a6 291C     		mov	r1, r5	@, tmp246
 251 00a8 0222     		mov	r2, #2	@,
 252 00aa 0134     		add	r4, r4, #1	@ ivtmp.19,
 253              	.LVL20:
 254 00ac FFF7FEFF 		bl	Chip_UART_SendBlocking	@
 255              	.LVL21:
 256              	.LBE10:
  47:src/main.c    ****         itoa(buff[i], str, 16);
 257              		.loc 1 47 0
 258 00b0 B442     		cmp	r4, r6	@ ivtmp.19, D.6564
 259 00b2 14D0     		beq	.L17	@,
 260              	.L16:
 261              	.LVL22:
 262              	.LBB11:
  48:src/main.c    ****         if(buff[i] < 16) {
 263              		.loc 1 48 0
 264 00b4 207A     		ldrb	r0, [r4, #8]	@ D.6559, MEM[base: _87, offset: 8B]
 265 00b6 291C     		mov	r1, r5	@, tmp246
 266 00b8 1022     		mov	r2, #16	@,
 267 00ba FFF7FEFF 		bl	itoa	@
 268              	.LVL23:
  49:src/main.c    ****             Chip_UART_SendBlocking(LPC_USART, "0", 1);
 269              		.loc 1 49 0
 270 00be 237A     		ldrb	r3, [r4, #8]	@ MEM[base: _87, offset: 8B], MEM[base: _87, offset: 8B]
 271 00c0 0F2B     		cmp	r3, #15	@ MEM[base: _87, offset: 8B],
 272 00c2 EFD8     		bhi	.L15	@,
  50:src/main.c    ****         }
 273              		.loc 1 50 0
 274 00c4 4A49     		ldr	r1, .L37+52	@,
 275 00c6 0122     		mov	r2, #1	@,
 276 00c8 4748     		ldr	r0, .L37+44	@,
 277 00ca FFF7FEFF 		bl	Chip_UART_SendBlocking	@
 278              	.LVL24:
 279 00ce 0134     		add	r4, r4, #1	@ ivtmp.19,
 280              	.LVL25:
  52:src/main.c    ****     }
 281              		.loc 1 52 0
 282 00d0 4548     		ldr	r0, .L37+44	@,
 283 00d2 291C     		mov	r1, r5	@, tmp246
 284 00d4 0222     		mov	r2, #2	@,
 285 00d6 FFF7FEFF 		bl	Chip_UART_SendBlocking	@
 286              	.LVL26:
 287              	.LBE11:
  47:src/main.c    ****         itoa(buff[i], str, 16);
ARM GAS  /tmp/ccpSLu1L.s 			page 9


 288              		.loc 1 47 0
 289 00da B442     		cmp	r4, r6	@ ivtmp.19, D.6564
 290 00dc EAD1     		bne	.L16	@,
 291              	.L17:
 292              	.LBE9:
 293              	.LBE8:
 158:src/main.c    **** 		        Board_UART_Print(" from ");
 294              		.loc 1 158 0
 295 00de 4548     		ldr	r0, .L37+56	@,
 296 00e0 FFF7FEFF 		bl	Board_UART_Print	@
 297              	.LVL27:
 159:src/main.c    **** 		        Board_UART_PrintNum(rx_msg.mode_id,16,true);
 298              		.loc 1 159 0
 299 00e4 3868     		ldr	r0, [r7]	@, rx_msg.mode_id
 300 00e6 1021     		mov	r1, #16	@,
 301 00e8 0122     		mov	r2, #1	@,
 302 00ea FFF7FEFF 		bl	Board_UART_PrintNum	@
 303              	.LVL28:
 304              	.L12:
 160:src/main.c    **** 		    } else {
 161:src/main.c    **** 		        Board_UART_Print("CAN Error: ");
 162:src/main.c    **** 		        Board_UART_PrintNum(ret, 2,true);
 163:src/main.c    **** 
 164:src/main.c    **** 		        Board_UART_Print("Will attempt to reset peripheral in ");
 165:src/main.c    **** 		        Board_UART_PrintNum(can_error_delay/1000,10,false);
 166:src/main.c    **** 		        Board_UART_Println(" seconds.");
 167:src/main.c    **** 		        reset_can_peripheral = true;
 168:src/main.c    **** 		        reset_can_peripheral_time = msTicks + can_error_delay;
 169:src/main.c    **** 		    }
 170:src/main.c    **** 		uint8_t count;
 171:src/main.c    **** 		uint8_t data[1];
 172:src/main.c    ****         
 173:src/main.c    **** 		if ((count = Chip_UART_Read(LPC_USART, uart_rx_buffer, BUFFER_SIZE)) != 0) {
 305              		.loc 1 173 0
 306 00ee 3E48     		ldr	r0, .L37+44	@,
 307 00f0 5146     		mov	r1, r10	@, tmp257
 308 00f2 0822     		mov	r2, #8	@,
 309 00f4 FFF7FEFF 		bl	Chip_UART_Read	@
 310              	.LVL29:
 311 00f8 C0B2     		uxtb	r0, r0	@ D.6559, D.6559
 312 00fa 0028     		cmp	r0, #0	@ D.6559,
 313 00fc A9D0     		beq	.L23	@,
 174:src/main.c    **** 			switch (uart_rx_buffer[0]) {
 314              		.loc 1 174 0
 315 00fe 5346     		mov	r3, r10	@ tmp257, tmp257
 316 0100 1878     		ldrb	r0, [r3]	@ D.6558, uart_rx_buffer
 317              	.LVL30:
 318 0102 6128     		cmp	r0, #97	@ D.6558,
 319 0104 45D1     		bne	.L34	@,
 175:src/main.c    **** 				case 'a':
 176:src/main.c    **** 					Board_UART_Println("Sending CAN with ID: 0x600");
 320              		.loc 1 176 0
 321 0106 3C48     		ldr	r0, .L37+60	@,
 322 0108 FFF7FEFF 		bl	Board_UART_Println	@
 323              	.LVL31:
 177:src/main.c    **** 					data[0] = 0xAA;
 324              		.loc 1 177 0
ARM GAS  /tmp/ccpSLu1L.s 			page 10


 325 010c AA23     		mov	r3, #170	@ tmp234,
 178:src/main.c    **** 					ret = CAN_Transmit(0x600, data, 1);
 326              		.loc 1 178 0
 327 010e C020     		mov	r0, #192	@,
 177:src/main.c    **** 					data[0] = 0xAA;
 328              		.loc 1 177 0
 329 0110 02AA     		add	r2, sp, #8	@ tmp293,,
 330 0112 1371     		strb	r3, [r2, #4]	@ tmp234, data
 331              		.loc 1 178 0
 332 0114 C000     		lsl	r0, r0, #3	@,,
 333 0116 03A9     		add	r1, sp, #12	@ tmp294,,
 334 0118 0122     		mov	r2, #1	@,
 335 011a FFF7FEFF 		bl	CAN_Transmit	@
 336              	.LVL32:
 337 011e 041E     		sub	r4, r0, #0	@ tmp238,,
 338              	.LVL33:
 179:src/main.c    **** 					    if(ret != NO_CAN_ERROR) {
 339              		.loc 1 179 0
 340 0120 97D0     		beq	.L23	@,
 180:src/main.c    **** 						Board_UART_Print("CAN Error: ");
 341              		.loc 1 180 0
 342 0122 3648     		ldr	r0, .L37+64	@,
 343              	.LVL34:
 344 0124 FFF7FEFF 		bl	Board_UART_Print	@
 345              	.LVL35:
 181:src/main.c    **** 						Board_UART_PrintNum(ret, 2,true);
 346              		.loc 1 181 0
 347 0128 0122     		mov	r2, #1	@,
 348 012a 201C     		mov	r0, r4	@, tmp238
 349 012c 0221     		mov	r1, #2	@,
 350 012e FFF7FEFF 		bl	Board_UART_PrintNum	@
 351              	.LVL36:
 136:src/main.c    **** 			heartbeat[0] = 1;
 352              		.loc 1 136 0
 353 0132 4346     		mov	r3, r8	@ tmp251, tmp251
 354 0134 5A46     		mov	r2, fp	@ tmp252, tmp252
 355 0136 1B68     		ldr	r3, [r3]	@ D.6556, msTicks
 356 0138 1268     		ldr	r2, [r2]	@ tmp276, lastPrint
 357 013a C83B     		sub	r3, r3, #200	@ D.6556,
 358 013c 9342     		cmp	r3, r2	@ D.6556, tmp276
 359 013e 8FD9     		bls	.L10	@,
 360              	.L35:
 137:src/main.c    **** 			CAN_Transmit(0x7F5, heartbeat, 1);
 361              		.loc 1 137 0
 362 0140 0123     		mov	r3, #1	@ tmp192,
 363 0142 02AA     		add	r2, sp, #8	@ tmp278,,
 364 0144 1370     		strb	r3, [r2]	@ tmp192, heartbeat
 138:src/main.c    **** 			lastPrint = msTicks;
 365              		.loc 1 138 0
 366 0146 111C     		mov	r1, r2	@, tmp278
 367 0148 2D48     		ldr	r0, .L37+68	@,
 368 014a 0122     		mov	r2, #1	@,
 369 014c FFF7FEFF 		bl	CAN_Transmit	@
 370              	.LVL37:
 139:src/main.c    **** 		}
 371              		.loc 1 139 0
 372 0150 4346     		mov	r3, r8	@ tmp251, tmp251
ARM GAS  /tmp/ccpSLu1L.s 			page 11


 373 0152 5A46     		mov	r2, fp	@ tmp252, tmp252
 374 0154 1B68     		ldr	r3, [r3]	@ D.6556, msTicks
 375 0156 1360     		str	r3, [r2]	@ D.6556, lastPrint
 376 0158 82E7     		b	.L10	@
 377              	.LVL38:
 378              	.L13:
 161:src/main.c    **** 		        Board_UART_PrintNum(ret, 2,true);
 379              		.loc 1 161 0
 380 015a 2848     		ldr	r0, .L37+64	@,
 381              	.LVL39:
 382 015c FFF7FEFF 		bl	Board_UART_Print	@
 383              	.LVL40:
 162:src/main.c    **** 
 384              		.loc 1 162 0
 385 0160 0221     		mov	r1, #2	@,
 386 0162 0122     		mov	r2, #1	@,
 387 0164 201C     		mov	r0, r4	@, tmp203
 388 0166 FFF7FEFF 		bl	Board_UART_PrintNum	@
 389              	.LVL41:
 164:src/main.c    **** 		        Board_UART_PrintNum(can_error_delay/1000,10,false);
 390              		.loc 1 164 0
 391 016a 2648     		ldr	r0, .L37+72	@,
 392 016c FFF7FEFF 		bl	Board_UART_Print	@
 393              	.LVL42:
 165:src/main.c    **** 		        Board_UART_Println(" seconds.");
 394              		.loc 1 165 0
 395 0170 0022     		mov	r2, #0	@,
 396 0172 0520     		mov	r0, #5	@,
 397 0174 0A21     		mov	r1, #10	@,
 398 0176 FFF7FEFF 		bl	Board_UART_PrintNum	@
 399              	.LVL43:
 166:src/main.c    **** 		        reset_can_peripheral = true;
 400              		.loc 1 166 0
 401 017a 2348     		ldr	r0, .L37+76	@,
 402 017c FFF7FEFF 		bl	Board_UART_Println	@
 403              	.LVL44:
 168:src/main.c    **** 		    }
 404              		.loc 1 168 0
 405 0180 4346     		mov	r3, r8	@ tmp251, tmp251
 406 0182 224A     		ldr	r2, .L37+80	@ tmp288,
 407 0184 1B68     		ldr	r3, [r3]	@ D.6556, msTicks
 408 0186 9446     		mov	ip, r2	@ tmp288, tmp288
 409 0188 6344     		add	r3, r3, ip	@ reset_can_peripheral_time, tmp288
 410 018a 0193     		str	r3, [sp, #4]	@ reset_can_peripheral_time, %sfp
 411              	.LVL45:
 167:src/main.c    **** 		        reset_can_peripheral_time = msTicks + can_error_delay;
 412              		.loc 1 167 0
 413 018c 0123     		mov	r3, #1	@ reset_can_peripheral,
 414              	.LVL46:
 415 018e 9946     		mov	r9, r3	@ reset_can_peripheral, reset_can_peripheral
 416 0190 ADE7     		b	.L12	@
 417              	.LVL47:
 418              	.L34:
 182:src/main.c    **** 
 183:src/main.c    **** 					    }
 184:src/main.c    **** 					break;
 185:src/main.c    **** 				default:
ARM GAS  /tmp/ccpSLu1L.s 			page 12


 186:src/main.c    **** 					Board_UART_Print(uart_rx_buffer[0]);
 419              		.loc 1 186 0
 420 0192 FFF7FEFF 		bl	Board_UART_Print	@
 421              	.LVL48:
 187:src/main.c    **** 					Board_UART_Println("Invalid Command");
 422              		.loc 1 187 0
 423 0196 1E48     		ldr	r0, .L37+84	@,
 424 0198 FFF7FEFF 		bl	Board_UART_Println	@
 425              	.LVL49:
 426              	.LBE7:
 188:src/main.c    **** 					break;
 189:src/main.c    **** 			}
 190:src/main.c    **** 		}
 191:src/main.c    **** 	}
 427              		.loc 1 191 0
 428 019c 59E7     		b	.L23	@
 429              	.L36:
 430              	.LBB12:
 143:src/main.c    **** 		    CAN_ResetPeripheral();
 431              		.loc 1 143 0
 432 019e 1D48     		ldr	r0, .L37+88	@,
 433 01a0 FFF7FEFF 		bl	Board_UART_Println	@
 434              	.LVL50:
 144:src/main.c    **** 		    CAN_Init(CCAN_BAUD_RATE);
 435              		.loc 1 144 0
 436 01a4 FFF7FEFF 		bl	CAN_ResetPeripheral	@
 437              	.LVL51:
 145:src/main.c    **** 		    Board_UART_Println("Reset CAN peripheral. ");
 438              		.loc 1 145 0
 439 01a8 0648     		ldr	r0, .L37+8	@,
 440 01aa FFF7FEFF 		bl	CAN_Init	@
 441              	.LVL52:
 146:src/main.c    **** 		    reset_can_peripheral = false;
 442              		.loc 1 146 0
 443 01ae 1A48     		ldr	r0, .L37+92	@,
 444 01b0 FFF7FEFF 		bl	Board_UART_Println	@
 445              	.LVL53:
 147:src/main.c    **** 		}
 446              		.loc 1 147 0
 447 01b4 0023     		mov	r3, #0	@ reset_can_peripheral,
 448 01b6 9946     		mov	r9, r3	@ reset_can_peripheral, reset_can_peripheral
 449 01b8 5BE7     		b	.L11	@
 450              	.L38:
 451 01ba C046     		.align	2
 452              	.L37:
 453 01bc 00000000 		.word	.LC5
 454 01c0 0C000000 		.word	.LC7
 455 01c4 20A10700 		.word	500000
 456 01c8 00000000 		.word	.LANCHOR0
 457 01cc 00000000 		.word	rx_msg
 458 01d0 00000000 		.word	.LANCHOR1
 459 01d4 00000000 		.word	.LANCHOR3
 460 01d8 00000000 		.word	msTicks
 461 01dc 00000000 		.word	.LANCHOR2
 462 01e0 00000000 		.word	.LANCHOR4
 463 01e4 6C000000 		.word	.LC17
 464 01e8 00800040 		.word	1073774592
ARM GAS  /tmp/ccpSLu1L.s 			page 13


 465 01ec 7C000000 		.word	.LC19
 466 01f0 88000000 		.word	.LC24
 467 01f4 80000000 		.word	.LC21
 468 01f8 CC000000 		.word	.LC33
 469 01fc 8C000000 		.word	.LC26
 470 0200 F5070000 		.word	2037
 471 0204 98000000 		.word	.LC28
 472 0208 C0000000 		.word	.LC30
 473 020c 88130000 		.word	5000
 474 0210 E8000000 		.word	.LC35
 475 0214 2C000000 		.word	.LC13
 476 0218 54000000 		.word	.LC15
 477              	.LBE12:
 478              		.cfi_endproc
 479              	.LFE200:
 480              		.size	main, .-main
 481              		.comm	rx_msg,24,8
 482              		.comm	msTicks,4,4
 483              		.section	.bss.can_error_flag,"aw",%nobits
 484              		.set	.LANCHOR0,. + 0
 485              		.type	can_error_flag, %object
 486              		.size	can_error_flag, 1
 487              	can_error_flag:
 488 0000 00       		.space	1
 489              		.section	.bss.uart_rx_buffer,"aw",%nobits
 490              		.align	2
 491              		.set	.LANCHOR4,. + 0
 492              		.type	uart_rx_buffer, %object
 493              		.size	uart_rx_buffer, 8
 494              	uart_rx_buffer:
 495 0000 00000000 		.space	8
 495      00000000 
 496              		.section	.bss.lastPrint,"aw",%nobits
 497              		.align	2
 498              		.set	.LANCHOR2,. + 0
 499              		.type	lastPrint, %object
 500              		.size	lastPrint, 4
 501              	lastPrint:
 502 0000 00000000 		.space	4
 503              		.section	.bss.can_error_info,"aw",%nobits
 504              		.align	2
 505              		.set	.LANCHOR1,. + 0
 506              		.type	can_error_info, %object
 507              		.size	can_error_info, 4
 508              	can_error_info:
 509 0000 00000000 		.space	4
 510              		.section	.rodata.str1.4,"aMS",%progbits,1
 511              		.align	2
 512              	.LC5:
 513 0000 53746172 		.ascii	"Started up\000"
 513      74656420 
 513      757000
 514 000b 00       		.space	1
 515              	.LC7:
 516 000c 4661696C 		.ascii	"Failed to Initialize SysTick. \000"
 516      65642074 
 516      6F20496E 
ARM GAS  /tmp/ccpSLu1L.s 			page 14


 516      69746961 
 516      6C697A65 
 517 002b 00       		.space	1
 518              	.LC13:
 519 002c 41747465 		.ascii	"Attempting to reset CAN peripheral...\000"
 519      6D707469 
 519      6E672074 
 519      6F207265 
 519      73657420 
 520 0052 0000     		.space	2
 521              	.LC15:
 522 0054 52657365 		.ascii	"Reset CAN peripheral. \000"
 522      74204341 
 522      4E207065 
 522      72697068 
 522      6572616C 
 523 006b 00       		.space	1
 524              	.LC17:
 525 006c 52656369 		.ascii	"Recieved data \000"
 525      65766564 
 525      20646174 
 525      612000
 526 007b 00       		.space	1
 527              	.LC19:
 528 007c 307800   		.ascii	"0x\000"
 529 007f 00       		.space	1
 530              	.LC21:
 531 0080 2066726F 		.ascii	" from \000"
 531      6D2000
 532 0087 00       		.space	1
 533              	.LC24:
 534 0088 3000     		.ascii	"0\000"
 535 008a 0000     		.space	2
 536              	.LC26:
 537 008c 43414E20 		.ascii	"CAN Error: \000"
 537      4572726F 
 537      723A2000 
 538              	.LC28:
 539 0098 57696C6C 		.ascii	"Will attempt to reset peripheral in \000"
 539      20617474 
 539      656D7074 
 539      20746F20 
 539      72657365 
 540 00bd 000000   		.space	3
 541              	.LC30:
 542 00c0 20736563 		.ascii	" seconds.\000"
 542      6F6E6473 
 542      2E00
 543 00ca 0000     		.space	2
 544              	.LC33:
 545 00cc 53656E64 		.ascii	"Sending CAN with ID: 0x600\000"
 545      696E6720 
 545      43414E20 
 545      77697468 
 545      2049443A 
 546 00e7 00       		.space	1
 547              	.LC35:
ARM GAS  /tmp/ccpSLu1L.s 			page 15


 548 00e8 496E7661 		.ascii	"Invalid Command\000"
 548      6C696420 
 548      436F6D6D 
 548      616E6400 
 549              		.section	.bss.str,"aw",%nobits
 550              		.align	2
 551              		.set	.LANCHOR3,. + 0
 552              		.type	str, %object
 553              		.size	str, 100
 554              	str:
 555 0000 00000000 		.space	100
 555      00000000 
 555      00000000 
 555      00000000 
 555      00000000 
 556              		.text
 557              	.Letext0:
 558              		.file 2 "/usr/arm-none-eabi/include/machine/_default_types.h"
 559              		.file 3 "/usr/arm-none-eabi/include/sys/_stdint.h"
 560              		.file 4 "../../lpc11cx4-library/lpc_chip_11cxx_lib/inc/ring_buffer.h"
 561              		.file 5 "../../lpc11cx4-library/lpc_chip_11cxx_lib/inc/uart_11xx.h"
 562              		.file 6 "../../lpc11cx4-library/lpc_chip_11cxx_lib/inc/ccand_11xx.h"
 563              		.file 7 "../../lpc11cx4-library/evt_lib/inc/can.h"
 564              		.file 8 "inc/board.h"