ARM GAS  /tmp/ccRhXGbn.s 			page 1


   1              		.cpu cortex-m0
   2              		.fpu softvfp
   3              		.eabi_attribute 20, 1	@ Tag_ABI_FP_denormal
   4              		.eabi_attribute 21, 1	@ Tag_ABI_FP_exceptions
   5              		.eabi_attribute 23, 3	@ Tag_ABI_FP_number_model
   6              		.eabi_attribute 24, 1	@ Tag_ABI_align8_needed
   7              		.eabi_attribute 25, 1	@ Tag_ABI_align8_preserved
   8              		.eabi_attribute 26, 1	@ Tag_ABI_enum_size
   9              		.eabi_attribute 30, 4	@ Tag_ABI_optimization_goals
  10              		.eabi_attribute 34, 0	@ Tag_CPU_unaligned_access
  11              		.eabi_attribute 18, 4	@ Tag_ABI_PCS_wchar_t
  12              		.file	"mcp2515.c"
  13              	@ GNU C (GNU Tools for ARM Embedded Processors) version 4.9.3 20150529 (release) [ARM/embedded-4_9-
  14              	@	compiled by GNU C version 4.8.4, GMP version 5.1.3, MPFR version 3.1.2-p3, MPC version 1.0.1
  15              	@ GGC heuristics: --param ggc-min-expand=98 --param ggc-min-heapsize=128397
  16              	@ options passed:  -I . -I ../../lpc11cx4-library/lpc_chip_11cxx_lib/inc
  17              	@ -I ../../lpc11cx4-library/evt_lib/inc -I inc -imultilib armv6-m
  18              	@ -iprefix /usr/bin/../lib/gcc/arm-none-eabi/4.9.3/
  19              	@ -isysroot /usr/bin/../arm-none-eabi -MD bin/mcp2515.d -MF bin/mcp2515.d
  20              	@ -MP -MQ bin/mcp2515.o -D__USES_INITFINI__ -D CORE_M0
  21              	@ ../../lpc11cx4-library/evt_lib/src/mcp2515.c -mcpu=cortex-m0 -mthumb
  22              	@ -auxbase-strip bin/mcp2515.o -g -ggdb3 -Os -Wall -Wstrict-prototypes
  23              	@ -Wextra -std=gnu90 -ffunction-sections -fdata-sections -fverbose-asm
  24              	@ -fstack-usage
  25              	@ options enabled:  -faggressive-loop-optimizations -fauto-inc-dec
  26              	@ -fbranch-count-reg -fcaller-saves -fcombine-stack-adjustments -fcommon
  27              	@ -fcompare-elim -fcprop-registers -fcrossjumping -fcse-follow-jumps
  28              	@ -fdata-sections -fdefer-pop -fdelete-null-pointer-checks -fdevirtualize
  29              	@ -fdevirtualize-speculatively -fdwarf2-cfi-asm -fearly-inlining
  30              	@ -feliminate-unused-debug-types -fexpensive-optimizations
  31              	@ -fforward-propagate -ffunction-cse -ffunction-sections -fgcse -fgcse-lm
  32              	@ -fgnu-runtime -fgnu-unique -fguess-branch-probability
  33              	@ -fhoist-adjacent-loads -fident -fif-conversion -fif-conversion2
  34              	@ -findirect-inlining -finline -finline-atomics -finline-functions
  35              	@ -finline-functions-called-once -finline-small-functions -fipa-cp
  36              	@ -fipa-profile -fipa-pure-const -fipa-reference -fipa-sra
  37              	@ -fira-hoist-pressure -fira-share-save-slots -fira-share-spill-slots
  38              	@ -fisolate-erroneous-paths-dereference -fivopts -fkeep-static-consts
  39              	@ -fleading-underscore -flifetime-dse -fmath-errno -fmerge-constants
  40              	@ -fmerge-debug-strings -fomit-frame-pointer -foptimize-sibling-calls
  41              	@ -fpartial-inlining -fpeephole -fpeephole2 -fprefetch-loop-arrays
  42              	@ -freg-struct-return -freorder-blocks -freorder-functions
  43              	@ -frerun-cse-after-loop -fsched-critical-path-heuristic
  44              	@ -fsched-dep-count-heuristic -fsched-group-heuristic -fsched-interblock
  45              	@ -fsched-last-insn-heuristic -fsched-pressure -fsched-rank-heuristic
  46              	@ -fsched-spec -fsched-spec-insn-heuristic -fsched-stalled-insns-dep
  47              	@ -fschedule-insns2 -fsection-anchors -fshow-column -fshrink-wrap
  48              	@ -fsigned-zeros -fsplit-ivs-in-unroller -fsplit-wide-types
  49              	@ -fstrict-aliasing -fstrict-overflow -fstrict-volatile-bitfields
  50              	@ -fsync-libcalls -fthread-jumps -ftoplevel-reorder -ftrapping-math
  51              	@ -ftree-bit-ccp -ftree-builtin-call-dce -ftree-ccp -ftree-ch
  52              	@ -ftree-coalesce-vars -ftree-copy-prop -ftree-copyrename -ftree-cselim
  53              	@ -ftree-dce -ftree-dominator-opts -ftree-dse -ftree-forwprop -ftree-fre
  54              	@ -ftree-loop-if-convert -ftree-loop-im -ftree-loop-ivcanon
  55              	@ -ftree-loop-optimize -ftree-parallelize-loops= -ftree-phiprop -ftree-pre
  56              	@ -ftree-pta -ftree-reassoc -ftree-scev-cprop -ftree-sink -ftree-slsr
  57              	@ -ftree-sra -ftree-switch-conversion -ftree-tail-merge -ftree-ter
ARM GAS  /tmp/ccRhXGbn.s 			page 2


  58              	@ -ftree-vrp -funit-at-a-time -fvar-tracking -fvar-tracking-assignments
  59              	@ -fverbose-asm -fzero-initialized-in-bss -mlittle-endian -mlra
  60              	@ -mpic-data-is-text-relative -msched-prolog -mthumb
  61              	@ -mvectorize-with-neon-quad
  62              	
  63              		.text
  64              	.Ltext0:
  65              		.cfi_sections	.debug_frame
  66              		.section	.text.MCP2515_Init,"ax",%progbits
  67              		.align	1
  68              		.global	MCP2515_Init
  69              		.code	16
  70              		.thumb_func
  71              		.type	MCP2515_Init, %function
  72              	MCP2515_Init:
  73              	.LFB198:
  74              		.file 1 "../../lpc11cx4-library/evt_lib/src/mcp2515.c"
   1:../../lpc11cx4-library/evt_lib/src/mcp2515.c **** #include "chip.h"
   2:../../lpc11cx4-library/evt_lib/src/mcp2515.c **** #include "mcp2515.h"
   3:../../lpc11cx4-library/evt_lib/src/mcp2515.c **** #include "util.h"
   4:../../lpc11cx4-library/evt_lib/src/mcp2515.c **** 
   5:../../lpc11cx4-library/evt_lib/src/mcp2515.c **** #define BUFFER_SIZE                         (256)
   6:../../lpc11cx4-library/evt_lib/src/mcp2515.c **** 
   7:../../lpc11cx4-library/evt_lib/src/mcp2515.c **** #define set_gpio_pin_output(gpio, pin) (Chip_GPIO_WriteDirBit(LPC_GPIO, gpio, pin, true))
   8:../../lpc11cx4-library/evt_lib/src/mcp2515.c **** #define set_gpio_pin_input(gpio, pin) (Chip_GPIO_WriteDirBit(LPC_GPIO, gpio, pin, false))
   9:../../lpc11cx4-library/evt_lib/src/mcp2515.c **** #define set_gpio_pin_high(gpio, pin) (Chip_GPIO_SetPinState(LPC_GPIO, gpio, pin, true))
  10:../../lpc11cx4-library/evt_lib/src/mcp2515.c **** #define set_gpio_pin_low(gpio, pin) (Chip_GPIO_SetPinState(LPC_GPIO, gpio, pin, false))
  11:../../lpc11cx4-library/evt_lib/src/mcp2515.c **** 
  12:../../lpc11cx4-library/evt_lib/src/mcp2515.c **** 
  13:../../lpc11cx4-library/evt_lib/src/mcp2515.c **** /* Tx buffer */
  14:../../lpc11cx4-library/evt_lib/src/mcp2515.c **** static uint8_t Tx_Buf[BUFFER_SIZE];
  15:../../lpc11cx4-library/evt_lib/src/mcp2515.c **** 
  16:../../lpc11cx4-library/evt_lib/src/mcp2515.c **** /* Rx buffer */
  17:../../lpc11cx4-library/evt_lib/src/mcp2515.c **** static uint8_t Rx_Buf[BUFFER_SIZE];
  18:../../lpc11cx4-library/evt_lib/src/mcp2515.c **** 
  19:../../lpc11cx4-library/evt_lib/src/mcp2515.c **** static Chip_SSP_DATA_SETUP_T xf_setup;
  20:../../lpc11cx4-library/evt_lib/src/mcp2515.c **** 
  21:../../lpc11cx4-library/evt_lib/src/mcp2515.c **** uint8_t _cs_gpio;
  22:../../lpc11cx4-library/evt_lib/src/mcp2515.c **** uint8_t _cs_pin;
  23:../../lpc11cx4-library/evt_lib/src/mcp2515.c **** uint8_t _int_gpio;
  24:../../lpc11cx4-library/evt_lib/src/mcp2515.c **** uint8_t _int_pin;
  25:../../lpc11cx4-library/evt_lib/src/mcp2515.c **** 
  26:../../lpc11cx4-library/evt_lib/src/mcp2515.c **** void MCP2515_Init(uint8_t cs_gpio, uint8_t cs_pin, uint8_t int_gpio, uint8_t int_pin) {
  75              		.loc 1 26 0
  76              		.cfi_startproc
  77              	.LVL0:
  78 0000 F8B5     		push	{r3, r4, r5, r6, r7, lr}	@
  79              		.cfi_def_cfa_offset 24
  80              		.cfi_offset 3, -24
  81              		.cfi_offset 4, -20
  82              		.cfi_offset 5, -16
  83              		.cfi_offset 6, -12
  84              		.cfi_offset 7, -8
  85              		.cfi_offset 14, -4
  27:../../lpc11cx4-library/evt_lib/src/mcp2515.c **** 	_cs_gpio = cs_gpio;
  28:../../lpc11cx4-library/evt_lib/src/mcp2515.c **** 	_cs_pin = cs_pin;
  29:../../lpc11cx4-library/evt_lib/src/mcp2515.c **** 
ARM GAS  /tmp/ccRhXGbn.s 			page 3


  30:../../lpc11cx4-library/evt_lib/src/mcp2515.c **** 	_int_gpio = int_gpio;
  31:../../lpc11cx4-library/evt_lib/src/mcp2515.c **** 	_int_pin = int_pin;
  32:../../lpc11cx4-library/evt_lib/src/mcp2515.c **** 
  33:../../lpc11cx4-library/evt_lib/src/mcp2515.c **** 	set_gpio_pin_output(_cs_gpio, _cs_pin);
  86              		.loc 1 33 0
  87 0002 A024     		mov	r4, #160	@ tmp126,
  26:../../lpc11cx4-library/evt_lib/src/mcp2515.c **** 	_cs_gpio = cs_gpio;
  88              		.loc 1 26 0
  89 0004 8446     		mov	ip, r0	@ cs_gpio, cs_gpio
  90 0006 0F1C     		mov	r7, r1	@ cs_pin, cs_pin
  27:../../lpc11cx4-library/evt_lib/src/mcp2515.c **** 	_cs_gpio = cs_gpio;
  91              		.loc 1 27 0
  92 0008 0D49     		ldr	r1, .L2	@ tmp118,
  93              	.LVL1:
  30:../../lpc11cx4-library/evt_lib/src/mcp2515.c **** 	_int_pin = int_pin;
  94              		.loc 1 30 0
  95 000a 0E4E     		ldr	r6, .L2+4	@ tmp122,
  31:../../lpc11cx4-library/evt_lib/src/mcp2515.c **** 
  96              		.loc 1 31 0
  97 000c 0E4D     		ldr	r5, .L2+8	@ tmp124,
  27:../../lpc11cx4-library/evt_lib/src/mcp2515.c **** 	_cs_pin = cs_pin;
  98              		.loc 1 27 0
  99 000e 0870     		strb	r0, [r1]	@ tmp137, _cs_gpio
  28:../../lpc11cx4-library/evt_lib/src/mcp2515.c **** 
 100              		.loc 1 28 0
 101 0010 0E49     		ldr	r1, .L2+12	@ tmp120,
 102              		.loc 1 33 0
 103 0012 E405     		lsl	r4, r4, #23	@ tmp126, tmp126,
  28:../../lpc11cx4-library/evt_lib/src/mcp2515.c **** 
 104              		.loc 1 28 0
 105 0014 0F70     		strb	r7, [r1]	@ cs_pin, _cs_pin
  30:../../lpc11cx4-library/evt_lib/src/mcp2515.c **** 	_int_pin = int_pin;
 106              		.loc 1 30 0
 107 0016 3270     		strb	r2, [r6]	@ int_gpio, _int_gpio
  31:../../lpc11cx4-library/evt_lib/src/mcp2515.c **** 
 108              		.loc 1 31 0
 109 0018 2B70     		strb	r3, [r5]	@ int_pin, _int_pin
 110              		.loc 1 33 0
 111 001a 6146     		mov	r1, ip	@, cs_gpio
 112 001c 3A1C     		mov	r2, r7	@, cs_pin
 113              	.LVL2:
 114 001e 201C     		mov	r0, r4	@, tmp126
 115              	.LVL3:
 116 0020 0123     		mov	r3, #1	@,
 117              	.LVL4:
 118 0022 FFF7FEFF 		bl	Chip_GPIO_WriteDirBit	@
 119              	.LVL5:
  34:../../lpc11cx4-library/evt_lib/src/mcp2515.c **** 	set_gpio_pin_input(_int_gpio, _int_pin);
 120              		.loc 1 34 0
 121 0026 2A78     		ldrb	r2, [r5]	@ _int_pin, _int_pin
 122 0028 3178     		ldrb	r1, [r6]	@ D.6509, _int_gpio
 123 002a 201C     		mov	r0, r4	@, tmp126
 124 002c 0023     		mov	r3, #0	@,
 125 002e FFF7FEFF 		bl	Chip_GPIO_WriteDirBit	@
 126              	.LVL6:
  35:../../lpc11cx4-library/evt_lib/src/mcp2515.c **** 
  36:../../lpc11cx4-library/evt_lib/src/mcp2515.c **** 	xf_setup.tx_data = Tx_Buf;
ARM GAS  /tmp/ccRhXGbn.s 			page 4


 127              		.loc 1 36 0
 128 0032 074B     		ldr	r3, .L2+16	@ tmp132,
 129 0034 074A     		ldr	r2, .L2+20	@ tmp133,
  37:../../lpc11cx4-library/evt_lib/src/mcp2515.c **** 	xf_setup.rx_data = Rx_Buf;
  38:../../lpc11cx4-library/evt_lib/src/mcp2515.c **** }
 130              		.loc 1 38 0
 131              		@ sp needed	@
  36:../../lpc11cx4-library/evt_lib/src/mcp2515.c **** 	xf_setup.rx_data = Rx_Buf;
 132              		.loc 1 36 0
 133 0036 1A60     		str	r2, [r3]	@ tmp133, xf_setup.tx_data
  37:../../lpc11cx4-library/evt_lib/src/mcp2515.c **** 	xf_setup.rx_data = Rx_Buf;
 134              		.loc 1 37 0
 135 0038 074A     		ldr	r2, .L2+24	@ tmp135,
 136 003a 9A60     		str	r2, [r3, #8]	@ tmp135, xf_setup.rx_data
 137              		.loc 1 38 0
 138 003c F8BD     		pop	{r3, r4, r5, r6, r7, pc}
 139              	.L3:
 140 003e C046     		.align	2
 141              	.L2:
 142 0040 00000000 		.word	_cs_gpio
 143 0044 00000000 		.word	_int_gpio
 144 0048 00000000 		.word	_int_pin
 145 004c 00000000 		.word	_cs_pin
 146 0050 00000000 		.word	.LANCHOR0
 147 0054 00000000 		.word	.LANCHOR1
 148 0058 00000000 		.word	.LANCHOR2
 149              		.cfi_endproc
 150              	.LFE198:
 151              		.size	MCP2515_Init, .-MCP2515_Init
 152              		.section	.text.MCP2515_Read,"ax",%progbits
 153              		.align	1
 154              		.global	MCP2515_Read
 155              		.code	16
 156              		.thumb_func
 157              		.type	MCP2515_Read, %function
 158              	MCP2515_Read:
 159              	.LFB203:
  39:../../lpc11cx4-library/evt_lib/src/mcp2515.c **** 
  40:../../lpc11cx4-library/evt_lib/src/mcp2515.c **** 
  41:../../lpc11cx4-library/evt_lib/src/mcp2515.c **** // Baud in KHz, Freq in Mhz
  42:../../lpc11cx4-library/evt_lib/src/mcp2515.c **** uint8_t MCP2515_SetBitRate(uint32_t baud, uint32_t freq, uint8_t SJW) {
  43:../../lpc11cx4-library/evt_lib/src/mcp2515.c **** 	if (SJW < 1) SJW = 1;
  44:../../lpc11cx4-library/evt_lib/src/mcp2515.c **** 	if (SJW > 4) SJW = 4;
  45:../../lpc11cx4-library/evt_lib/src/mcp2515.c **** 	if (baud > 0) {
  46:../../lpc11cx4-library/evt_lib/src/mcp2515.c **** 		MCP2515_Reset();
  47:../../lpc11cx4-library/evt_lib/src/mcp2515.c **** 
  48:../../lpc11cx4-library/evt_lib/src/mcp2515.c **** 		uint8_t BRP;
  49:../../lpc11cx4-library/evt_lib/src/mcp2515.c **** 		uint64_t TQ;
  50:../../lpc11cx4-library/evt_lib/src/mcp2515.c **** 		uint8_t BT = 0;
  51:../../lpc11cx4-library/evt_lib/src/mcp2515.c **** 		uint64_t tempBT;
  52:../../lpc11cx4-library/evt_lib/src/mcp2515.c **** 
  53:../../lpc11cx4-library/evt_lib/src/mcp2515.c **** 		uint64_t NBT = 10000 * 1 / baud * 1000; 		// Since baud wil probably not go above 10 Mhz, 
  54:../../lpc11cx4-library/evt_lib/src/mcp2515.c **** 														// this will prevent rounding losses 
  55:../../lpc11cx4-library/evt_lib/src/mcp2515.c **** 		for (BRP = 0; BRP < 64; BRP++) {
  56:../../lpc11cx4-library/evt_lib/src/mcp2515.c **** 			TQ = 10000 * 2 * (BRP + 1) / freq;
  57:../../lpc11cx4-library/evt_lib/src/mcp2515.c **** 			tempBT = NBT / TQ; 							// The added 10K should cancel out here
  58:../../lpc11cx4-library/evt_lib/src/mcp2515.c **** 			if (tempBT <= 25) {
ARM GAS  /tmp/ccRhXGbn.s 			page 5


  59:../../lpc11cx4-library/evt_lib/src/mcp2515.c **** 				BT = (int) tempBT;
  60:../../lpc11cx4-library/evt_lib/src/mcp2515.c **** 				if (tempBT - BT == 0) break;
  61:../../lpc11cx4-library/evt_lib/src/mcp2515.c **** 			}
  62:../../lpc11cx4-library/evt_lib/src/mcp2515.c **** 		}
  63:../../lpc11cx4-library/evt_lib/src/mcp2515.c **** 
  64:../../lpc11cx4-library/evt_lib/src/mcp2515.c **** 		uint8_t SPT = (0.7 * BT);
  65:../../lpc11cx4-library/evt_lib/src/mcp2515.c **** 		uint8_t PRSEG = (SPT - 1) / 2;
  66:../../lpc11cx4-library/evt_lib/src/mcp2515.c **** 		uint8_t PHSEG1 = SPT - PRSEG - 1;
  67:../../lpc11cx4-library/evt_lib/src/mcp2515.c **** 		uint8_t PHSEG2 = BT - PHSEG1 - PRSEG - 1;
  68:../../lpc11cx4-library/evt_lib/src/mcp2515.c **** 
  69:../../lpc11cx4-library/evt_lib/src/mcp2515.c **** 
  70:../../lpc11cx4-library/evt_lib/src/mcp2515.c **** 		if (PRSEG + PHSEG1 < PHSEG2) {
  71:../../lpc11cx4-library/evt_lib/src/mcp2515.c **** 			return 1;
  72:../../lpc11cx4-library/evt_lib/src/mcp2515.c **** 		}
  73:../../lpc11cx4-library/evt_lib/src/mcp2515.c **** 
  74:../../lpc11cx4-library/evt_lib/src/mcp2515.c **** 		if (PHSEG2 <= SJW) {
  75:../../lpc11cx4-library/evt_lib/src/mcp2515.c **** 			return 2;
  76:../../lpc11cx4-library/evt_lib/src/mcp2515.c **** 		}
  77:../../lpc11cx4-library/evt_lib/src/mcp2515.c **** 
  78:../../lpc11cx4-library/evt_lib/src/mcp2515.c **** 
  79:../../lpc11cx4-library/evt_lib/src/mcp2515.c **** 		uint8_t BTLMODE = 1;
  80:../../lpc11cx4-library/evt_lib/src/mcp2515.c **** 		uint8_t SAM = 0;
  81:../../lpc11cx4-library/evt_lib/src/mcp2515.c **** 
  82:../../lpc11cx4-library/evt_lib/src/mcp2515.c **** 		uint8_t data = (((SJW - 1) << 6) | BRP);
  83:../../lpc11cx4-library/evt_lib/src/mcp2515.c **** 
  84:../../lpc11cx4-library/evt_lib/src/mcp2515.c **** 		MCP2515_Write(CNF1, data);
  85:../../lpc11cx4-library/evt_lib/src/mcp2515.c **** 		MCP2515_Write(CNF2, ((BTLMODE << 7) | (SAM << 6) | ((PHSEG1 - 1) << 3) | (PRSEG - 1)));
  86:../../lpc11cx4-library/evt_lib/src/mcp2515.c **** 		MCP2515_Write(CNF3, (0x00 | (PHSEG2 - 1)));
  87:../../lpc11cx4-library/evt_lib/src/mcp2515.c **** 		MCP2515_Write(TXRTSCTRL, 0);
  88:../../lpc11cx4-library/evt_lib/src/mcp2515.c **** 
  89:../../lpc11cx4-library/evt_lib/src/mcp2515.c **** 		// if (!MCP2515_Mode(MODE_NORMAL)) {
  90:../../lpc11cx4-library/evt_lib/src/mcp2515.c **** 		// 	return 3;
  91:../../lpc11cx4-library/evt_lib/src/mcp2515.c **** 		// } 
  92:../../lpc11cx4-library/evt_lib/src/mcp2515.c **** 
  93:../../lpc11cx4-library/evt_lib/src/mcp2515.c **** 		// Enable interrupts: Receive Buffers Full
  94:../../lpc11cx4-library/evt_lib/src/mcp2515.c **** 		MCP2515_Write(CANINTE, 0x03);
  95:../../lpc11cx4-library/evt_lib/src/mcp2515.c **** 		// MCP2515_Write(CANINTE, 0x00);
  96:../../lpc11cx4-library/evt_lib/src/mcp2515.c **** 
  97:../../lpc11cx4-library/evt_lib/src/mcp2515.c **** 		uint8_t rtn = 0;
  98:../../lpc11cx4-library/evt_lib/src/mcp2515.c **** 		MCP2515_Read(CNF1, &rtn, 1);
  99:../../lpc11cx4-library/evt_lib/src/mcp2515.c **** 		if (rtn == data) {
 100:../../lpc11cx4-library/evt_lib/src/mcp2515.c **** 			return 0;
 101:../../lpc11cx4-library/evt_lib/src/mcp2515.c **** 		} else {
 102:../../lpc11cx4-library/evt_lib/src/mcp2515.c **** 			return 4;
 103:../../lpc11cx4-library/evt_lib/src/mcp2515.c **** 		}
 104:../../lpc11cx4-library/evt_lib/src/mcp2515.c **** 	} else {
 105:../../lpc11cx4-library/evt_lib/src/mcp2515.c **** 		return 5;
 106:../../lpc11cx4-library/evt_lib/src/mcp2515.c **** 	}
 107:../../lpc11cx4-library/evt_lib/src/mcp2515.c **** 
 108:../../lpc11cx4-library/evt_lib/src/mcp2515.c **** 	return 0;
 109:../../lpc11cx4-library/evt_lib/src/mcp2515.c **** }
 110:../../lpc11cx4-library/evt_lib/src/mcp2515.c **** 
 111:../../lpc11cx4-library/evt_lib/src/mcp2515.c **** void MCP2515_Reset(void) {
 112:../../lpc11cx4-library/evt_lib/src/mcp2515.c **** 	set_gpio_pin_low(_cs_gpio, _cs_pin);
 113:../../lpc11cx4-library/evt_lib/src/mcp2515.c **** 	Tx_Buf[0] = MCP2515_RESET; // Reset Command
 114:../../lpc11cx4-library/evt_lib/src/mcp2515.c **** 	Chip_SSP_WriteFrames_Blocking(LPC_SSP, Tx_Buf, 1);
 115:../../lpc11cx4-library/evt_lib/src/mcp2515.c **** 	set_gpio_pin_high(_cs_gpio, _cs_pin);
ARM GAS  /tmp/ccRhXGbn.s 			page 6


 116:../../lpc11cx4-library/evt_lib/src/mcp2515.c **** 	MCP2515_Mode(MODE_CONFIG);
 117:../../lpc11cx4-library/evt_lib/src/mcp2515.c **** }
 118:../../lpc11cx4-library/evt_lib/src/mcp2515.c **** 
 119:../../lpc11cx4-library/evt_lib/src/mcp2515.c **** int8_t MCP2515_GetFullReceiveBuffer(void) {
 120:../../lpc11cx4-library/evt_lib/src/mcp2515.c **** 	if (Chip_GPIO_GetPinState(LPC_GPIO, _int_gpio, _int_pin))
 121:../../lpc11cx4-library/evt_lib/src/mcp2515.c **** 		return -1;
 122:../../lpc11cx4-library/evt_lib/src/mcp2515.c **** 	uint8_t tmp;
 123:../../lpc11cx4-library/evt_lib/src/mcp2515.c **** 	MCP2515_Read(CANINTF, &tmp, 1);
 124:../../lpc11cx4-library/evt_lib/src/mcp2515.c **** 	if (tmp & 0x3) {
 125:../../lpc11cx4-library/evt_lib/src/mcp2515.c **** 		MCP2515_BitModify(CANINTF, 0x03, 0x00);
 126:../../lpc11cx4-library/evt_lib/src/mcp2515.c **** 		return 2;
 127:../../lpc11cx4-library/evt_lib/src/mcp2515.c **** 	} else if (tmp & 0x1) {
 128:../../lpc11cx4-library/evt_lib/src/mcp2515.c **** 		MCP2515_BitModify(CANINTF, 0x01, 0x00);
 129:../../lpc11cx4-library/evt_lib/src/mcp2515.c **** 		return 0;
 130:../../lpc11cx4-library/evt_lib/src/mcp2515.c **** 	} else if (tmp & 0x2) {
 131:../../lpc11cx4-library/evt_lib/src/mcp2515.c **** 		MCP2515_BitModify(CANINTF, 0x02, 0x00);
 132:../../lpc11cx4-library/evt_lib/src/mcp2515.c **** 		return 1;
 133:../../lpc11cx4-library/evt_lib/src/mcp2515.c **** 	} else {
 134:../../lpc11cx4-library/evt_lib/src/mcp2515.c **** 		return -1;
 135:../../lpc11cx4-library/evt_lib/src/mcp2515.c **** 	}
 136:../../lpc11cx4-library/evt_lib/src/mcp2515.c **** }
 137:../../lpc11cx4-library/evt_lib/src/mcp2515.c **** 
 138:../../lpc11cx4-library/evt_lib/src/mcp2515.c **** int8_t MCP2515_GetEmptyTransmitBuffer(void) {
 139:../../lpc11cx4-library/evt_lib/src/mcp2515.c **** 	if (Chip_GPIO_GetPinState(LPC_GPIO, _int_gpio, _int_pin))
 140:../../lpc11cx4-library/evt_lib/src/mcp2515.c **** 		return -1;
 141:../../lpc11cx4-library/evt_lib/src/mcp2515.c **** 	uint8_t tmp;
 142:../../lpc11cx4-library/evt_lib/src/mcp2515.c **** 	MCP2515_Read(CANINTF, &tmp, 1);
 143:../../lpc11cx4-library/evt_lib/src/mcp2515.c **** 	if (tmp & 0x4) {
 144:../../lpc11cx4-library/evt_lib/src/mcp2515.c **** 		MCP2515_BitModify(CANINTF, 0x04, 0x00);
 145:../../lpc11cx4-library/evt_lib/src/mcp2515.c **** 		return 0;
 146:../../lpc11cx4-library/evt_lib/src/mcp2515.c **** 	} else if (tmp & 0x8) {
 147:../../lpc11cx4-library/evt_lib/src/mcp2515.c **** 		MCP2515_BitModify(CANINTF, 0x08, 0x00);
 148:../../lpc11cx4-library/evt_lib/src/mcp2515.c **** 		return 1;
 149:../../lpc11cx4-library/evt_lib/src/mcp2515.c **** 	} else if (tmp & 0x10) { 
 150:../../lpc11cx4-library/evt_lib/src/mcp2515.c **** 		MCP2515_BitModify(CANINTF, 0x10, 0x00);
 151:../../lpc11cx4-library/evt_lib/src/mcp2515.c **** 		return 2;
 152:../../lpc11cx4-library/evt_lib/src/mcp2515.c **** 	} else {
 153:../../lpc11cx4-library/evt_lib/src/mcp2515.c **** 		return -1;
 154:../../lpc11cx4-library/evt_lib/src/mcp2515.c **** 	}
 155:../../lpc11cx4-library/evt_lib/src/mcp2515.c **** }
 156:../../lpc11cx4-library/evt_lib/src/mcp2515.c **** 
 157:../../lpc11cx4-library/evt_lib/src/mcp2515.c **** void MCP2515_Read(uint8_t address, uint8_t *buf, uint8_t length) {
 160              		.loc 1 157 0
 161              		.cfi_startproc
 162              	.LVL7:
 163 0000 F7B5     		push	{r0, r1, r2, r4, r5, r6, r7, lr}	@
 164              		.cfi_def_cfa_offset 32
 165              		.cfi_offset 0, -32
 166              		.cfi_offset 1, -28
 167              		.cfi_offset 2, -24
 168              		.cfi_offset 4, -20
 169              		.cfi_offset 5, -16
 170              		.cfi_offset 6, -12
 171              		.cfi_offset 7, -8
 172              		.cfi_offset 14, -4
 173              		.loc 1 157 0
 174 0002 171C     		mov	r7, r2	@ length, length
ARM GAS  /tmp/ccRhXGbn.s 			page 7


 175              	.LBB38:
 176              	.LBB39:
 177              		.file 2 "../../lpc11cx4-library/lpc_chip_11cxx_lib/inc/gpio_11xx_2.h"
   1:../../lpc11cx4-library/lpc_chip_11cxx_lib/inc/gpio_11xx_2.h **** /*
   2:../../lpc11cx4-library/lpc_chip_11cxx_lib/inc/gpio_11xx_2.h ****  * @brief LPC11xx GPIO driver for CHIP_LPC11CXX, CHIP_LPC110X, CHIP_LPC11XXLV,
   3:../../lpc11cx4-library/lpc_chip_11cxx_lib/inc/gpio_11xx_2.h ****  * and CHIP_LPC1125 families only.
   4:../../lpc11cx4-library/lpc_chip_11cxx_lib/inc/gpio_11xx_2.h ****  *
   5:../../lpc11cx4-library/lpc_chip_11cxx_lib/inc/gpio_11xx_2.h ****  * @note
   6:../../lpc11cx4-library/lpc_chip_11cxx_lib/inc/gpio_11xx_2.h ****  * Copyright(C) NXP Semiconductors, 2013
   7:../../lpc11cx4-library/lpc_chip_11cxx_lib/inc/gpio_11xx_2.h ****  * All rights reserved.
   8:../../lpc11cx4-library/lpc_chip_11cxx_lib/inc/gpio_11xx_2.h ****  *
   9:../../lpc11cx4-library/lpc_chip_11cxx_lib/inc/gpio_11xx_2.h ****  * @par
  10:../../lpc11cx4-library/lpc_chip_11cxx_lib/inc/gpio_11xx_2.h ****  * Software that is described herein is for illustrative purposes only
  11:../../lpc11cx4-library/lpc_chip_11cxx_lib/inc/gpio_11xx_2.h ****  * which provides customers with programming information regarding the
  12:../../lpc11cx4-library/lpc_chip_11cxx_lib/inc/gpio_11xx_2.h ****  * LPC products.  This software is supplied "AS IS" without any warranties of
  13:../../lpc11cx4-library/lpc_chip_11cxx_lib/inc/gpio_11xx_2.h ****  * any kind, and NXP Semiconductors and its licensor disclaim any and
  14:../../lpc11cx4-library/lpc_chip_11cxx_lib/inc/gpio_11xx_2.h ****  * all warranties, express or implied, including all implied warranties of
  15:../../lpc11cx4-library/lpc_chip_11cxx_lib/inc/gpio_11xx_2.h ****  * merchantability, fitness for a particular purpose and non-infringement of
  16:../../lpc11cx4-library/lpc_chip_11cxx_lib/inc/gpio_11xx_2.h ****  * intellectual property rights.  NXP Semiconductors assumes no responsibility
  17:../../lpc11cx4-library/lpc_chip_11cxx_lib/inc/gpio_11xx_2.h ****  * or liability for the use of the software, conveys no license or rights under any
  18:../../lpc11cx4-library/lpc_chip_11cxx_lib/inc/gpio_11xx_2.h ****  * patent, copyright, mask work right, or any other intellectual property rights in
  19:../../lpc11cx4-library/lpc_chip_11cxx_lib/inc/gpio_11xx_2.h ****  * or to any products. NXP Semiconductors reserves the right to make changes
  20:../../lpc11cx4-library/lpc_chip_11cxx_lib/inc/gpio_11xx_2.h ****  * in the software without notification. NXP Semiconductors also makes no
  21:../../lpc11cx4-library/lpc_chip_11cxx_lib/inc/gpio_11xx_2.h ****  * representation or warranty that such application will be suitable for the
  22:../../lpc11cx4-library/lpc_chip_11cxx_lib/inc/gpio_11xx_2.h ****  * specified use without further testing or modification.
  23:../../lpc11cx4-library/lpc_chip_11cxx_lib/inc/gpio_11xx_2.h ****  *
  24:../../lpc11cx4-library/lpc_chip_11cxx_lib/inc/gpio_11xx_2.h ****  * @par
  25:../../lpc11cx4-library/lpc_chip_11cxx_lib/inc/gpio_11xx_2.h ****  * Permission to use, copy, modify, and distribute this software and its
  26:../../lpc11cx4-library/lpc_chip_11cxx_lib/inc/gpio_11xx_2.h ****  * documentation is hereby granted, under NXP Semiconductors' and its
  27:../../lpc11cx4-library/lpc_chip_11cxx_lib/inc/gpio_11xx_2.h ****  * licensor's relevant copyrights in the software, without fee, provided that it
  28:../../lpc11cx4-library/lpc_chip_11cxx_lib/inc/gpio_11xx_2.h ****  * is used in conjunction with NXP Semiconductors microcontrollers.  This
  29:../../lpc11cx4-library/lpc_chip_11cxx_lib/inc/gpio_11xx_2.h ****  * copyright, permission, and disclaimer notice must appear in all copies of
  30:../../lpc11cx4-library/lpc_chip_11cxx_lib/inc/gpio_11xx_2.h ****  * this code.
  31:../../lpc11cx4-library/lpc_chip_11cxx_lib/inc/gpio_11xx_2.h ****  */
  32:../../lpc11cx4-library/lpc_chip_11cxx_lib/inc/gpio_11xx_2.h **** 
  33:../../lpc11cx4-library/lpc_chip_11cxx_lib/inc/gpio_11xx_2.h **** #ifndef __GPIO_11XX_2_H_
  34:../../lpc11cx4-library/lpc_chip_11cxx_lib/inc/gpio_11xx_2.h **** #define __GPIO_11XX_2_H_
  35:../../lpc11cx4-library/lpc_chip_11cxx_lib/inc/gpio_11xx_2.h **** 
  36:../../lpc11cx4-library/lpc_chip_11cxx_lib/inc/gpio_11xx_2.h **** #ifdef __cplusplus
  37:../../lpc11cx4-library/lpc_chip_11cxx_lib/inc/gpio_11xx_2.h **** extern "C" {
  38:../../lpc11cx4-library/lpc_chip_11cxx_lib/inc/gpio_11xx_2.h **** #endif
  39:../../lpc11cx4-library/lpc_chip_11cxx_lib/inc/gpio_11xx_2.h **** 
  40:../../lpc11cx4-library/lpc_chip_11cxx_lib/inc/gpio_11xx_2.h **** /** @defgroup GPIO_11XX_2 CHIP: LPC11xx GPIO driver for CHIP_LPC11CXX, CHIP_LPC110X, and CHIP_LPC11
  41:../../lpc11cx4-library/lpc_chip_11cxx_lib/inc/gpio_11xx_2.h ****  * @ingroup CHIP_11XX_Drivers
  42:../../lpc11cx4-library/lpc_chip_11cxx_lib/inc/gpio_11xx_2.h ****  * For device familes identified with CHIP definitions CHIP_LPC11CXX,
  43:../../lpc11cx4-library/lpc_chip_11cxx_lib/inc/gpio_11xx_2.h ****  * CHIP_LPC110X, and CHIP_LPC11XXLV only.
  44:../../lpc11cx4-library/lpc_chip_11cxx_lib/inc/gpio_11xx_2.h ****  * @{
  45:../../lpc11cx4-library/lpc_chip_11cxx_lib/inc/gpio_11xx_2.h ****  */
  46:../../lpc11cx4-library/lpc_chip_11cxx_lib/inc/gpio_11xx_2.h **** 
  47:../../lpc11cx4-library/lpc_chip_11cxx_lib/inc/gpio_11xx_2.h **** #if defined(CHIP_LPC11CXX) || defined(CHIP_LPC110X) || defined(CHIP_LPC11XXLV) || defined(CHIP_LPC1
  48:../../lpc11cx4-library/lpc_chip_11cxx_lib/inc/gpio_11xx_2.h **** 
  49:../../lpc11cx4-library/lpc_chip_11cxx_lib/inc/gpio_11xx_2.h **** /**
  50:../../lpc11cx4-library/lpc_chip_11cxx_lib/inc/gpio_11xx_2.h ****  * @brief  GPIO port register block structure
  51:../../lpc11cx4-library/lpc_chip_11cxx_lib/inc/gpio_11xx_2.h ****  */
  52:../../lpc11cx4-library/lpc_chip_11cxx_lib/inc/gpio_11xx_2.h **** typedef struct {				/*!< GPIO_PORT Structure */
  53:../../lpc11cx4-library/lpc_chip_11cxx_lib/inc/gpio_11xx_2.h **** 	__IO uint32_t DATA[4096];			/*!< Offset: 0x0000 to 0x3FFC Data address masking register (R/W) */
  54:../../lpc11cx4-library/lpc_chip_11cxx_lib/inc/gpio_11xx_2.h **** 	uint32_t RESERVED1[4096];
ARM GAS  /tmp/ccRhXGbn.s 			page 8


  55:../../lpc11cx4-library/lpc_chip_11cxx_lib/inc/gpio_11xx_2.h **** 	__IO uint32_t DIR;					/*!< Offset: 0x8000 Data direction register (R/W) */
  56:../../lpc11cx4-library/lpc_chip_11cxx_lib/inc/gpio_11xx_2.h **** 	__IO uint32_t IS;					/*!< Offset: 0x8004 Interrupt sense register (R/W) */
  57:../../lpc11cx4-library/lpc_chip_11cxx_lib/inc/gpio_11xx_2.h **** 	__IO uint32_t IBE;					/*!< Offset: 0x8008 Interrupt both edges register (R/W) */
  58:../../lpc11cx4-library/lpc_chip_11cxx_lib/inc/gpio_11xx_2.h **** 	__IO uint32_t IEV;					/*!< Offset: 0x800C Interrupt event register  (R/W) */
  59:../../lpc11cx4-library/lpc_chip_11cxx_lib/inc/gpio_11xx_2.h **** 	__IO uint32_t IE;					/*!< Offset: 0x8010 Interrupt mask register (R/W) */
  60:../../lpc11cx4-library/lpc_chip_11cxx_lib/inc/gpio_11xx_2.h **** 	__I  uint32_t RIS;					/*!< Offset: 0x8014 Raw interrupt status register (R/ ) */
  61:../../lpc11cx4-library/lpc_chip_11cxx_lib/inc/gpio_11xx_2.h **** 	__I  uint32_t MIS;					/*!< Offset: 0x8018 Masked interrupt status register (R/ ) */
  62:../../lpc11cx4-library/lpc_chip_11cxx_lib/inc/gpio_11xx_2.h **** 	__O  uint32_t IC;					/*!< Offset: 0x801C Interrupt clear register (W) */
  63:../../lpc11cx4-library/lpc_chip_11cxx_lib/inc/gpio_11xx_2.h **** 	uint32_t RESERVED2[8184];			/* Padding added for aligning contiguous GPIO blocks */
  64:../../lpc11cx4-library/lpc_chip_11cxx_lib/inc/gpio_11xx_2.h **** } LPC_GPIO_T;
  65:../../lpc11cx4-library/lpc_chip_11cxx_lib/inc/gpio_11xx_2.h **** 
  66:../../lpc11cx4-library/lpc_chip_11cxx_lib/inc/gpio_11xx_2.h **** /**
  67:../../lpc11cx4-library/lpc_chip_11cxx_lib/inc/gpio_11xx_2.h ****  * @brief	Initialize GPIO block
  68:../../lpc11cx4-library/lpc_chip_11cxx_lib/inc/gpio_11xx_2.h ****  * @param	pGPIO	: The base of GPIO peripheral on the chip
  69:../../lpc11cx4-library/lpc_chip_11cxx_lib/inc/gpio_11xx_2.h ****  * @return	Nothing
  70:../../lpc11cx4-library/lpc_chip_11cxx_lib/inc/gpio_11xx_2.h ****  */
  71:../../lpc11cx4-library/lpc_chip_11cxx_lib/inc/gpio_11xx_2.h **** void Chip_GPIO_Init(LPC_GPIO_T *pGPIO);
  72:../../lpc11cx4-library/lpc_chip_11cxx_lib/inc/gpio_11xx_2.h **** 
  73:../../lpc11cx4-library/lpc_chip_11cxx_lib/inc/gpio_11xx_2.h **** /**
  74:../../lpc11cx4-library/lpc_chip_11cxx_lib/inc/gpio_11xx_2.h ****  * @brief	De-Initialize GPIO block
  75:../../lpc11cx4-library/lpc_chip_11cxx_lib/inc/gpio_11xx_2.h ****  * @param	pGPIO	: The base of GPIO peripheral on the chip
  76:../../lpc11cx4-library/lpc_chip_11cxx_lib/inc/gpio_11xx_2.h ****  * @return	Nothing
  77:../../lpc11cx4-library/lpc_chip_11cxx_lib/inc/gpio_11xx_2.h ****  */
  78:../../lpc11cx4-library/lpc_chip_11cxx_lib/inc/gpio_11xx_2.h **** void Chip_GPIO_DeInit(LPC_GPIO_T *pGPIO);
  79:../../lpc11cx4-library/lpc_chip_11cxx_lib/inc/gpio_11xx_2.h **** 
  80:../../lpc11cx4-library/lpc_chip_11cxx_lib/inc/gpio_11xx_2.h **** /**
  81:../../lpc11cx4-library/lpc_chip_11cxx_lib/inc/gpio_11xx_2.h ****  * @brief	Set a GPIO port/bit state
  82:../../lpc11cx4-library/lpc_chip_11cxx_lib/inc/gpio_11xx_2.h ****  * @param	pGPIO	: The base of GPIO peripheral on the chip
  83:../../lpc11cx4-library/lpc_chip_11cxx_lib/inc/gpio_11xx_2.h ****  * @param	port	: GPIO port to set
  84:../../lpc11cx4-library/lpc_chip_11cxx_lib/inc/gpio_11xx_2.h ****  * @param	bit		: GPIO bit to set
  85:../../lpc11cx4-library/lpc_chip_11cxx_lib/inc/gpio_11xx_2.h ****  * @param	setting	: true for high, false for low
  86:../../lpc11cx4-library/lpc_chip_11cxx_lib/inc/gpio_11xx_2.h ****  * @return	Nothing
  87:../../lpc11cx4-library/lpc_chip_11cxx_lib/inc/gpio_11xx_2.h ****  */
  88:../../lpc11cx4-library/lpc_chip_11cxx_lib/inc/gpio_11xx_2.h **** STATIC INLINE void Chip_GPIO_WritePortBit(LPC_GPIO_T *pGPIO, uint32_t port, uint8_t bit, bool setti
  89:../../lpc11cx4-library/lpc_chip_11cxx_lib/inc/gpio_11xx_2.h **** {
  90:../../lpc11cx4-library/lpc_chip_11cxx_lib/inc/gpio_11xx_2.h **** 	pGPIO[port].DATA[1 << bit] = setting << bit;
  91:../../lpc11cx4-library/lpc_chip_11cxx_lib/inc/gpio_11xx_2.h **** }
  92:../../lpc11cx4-library/lpc_chip_11cxx_lib/inc/gpio_11xx_2.h **** 
  93:../../lpc11cx4-library/lpc_chip_11cxx_lib/inc/gpio_11xx_2.h **** /**
  94:../../lpc11cx4-library/lpc_chip_11cxx_lib/inc/gpio_11xx_2.h ****  * @brief	Set a GPIO pin state via the GPIO byte register
  95:../../lpc11cx4-library/lpc_chip_11cxx_lib/inc/gpio_11xx_2.h ****  * @param	pGPIO	: The base of GPIO peripheral on the chip
  96:../../lpc11cx4-library/lpc_chip_11cxx_lib/inc/gpio_11xx_2.h ****  * @param	port	: Port number
  97:../../lpc11cx4-library/lpc_chip_11cxx_lib/inc/gpio_11xx_2.h ****  * @param	pin		: GPIO pin to set
  98:../../lpc11cx4-library/lpc_chip_11cxx_lib/inc/gpio_11xx_2.h ****  * @param	setting	: true for high, false for low
  99:../../lpc11cx4-library/lpc_chip_11cxx_lib/inc/gpio_11xx_2.h ****  * @return	Nothing
 100:../../lpc11cx4-library/lpc_chip_11cxx_lib/inc/gpio_11xx_2.h ****  * @note	This function replaces Chip_GPIO_WritePortBit()
 101:../../lpc11cx4-library/lpc_chip_11cxx_lib/inc/gpio_11xx_2.h ****  */
 102:../../lpc11cx4-library/lpc_chip_11cxx_lib/inc/gpio_11xx_2.h **** STATIC INLINE void Chip_GPIO_SetPinState(LPC_GPIO_T *pGPIO, uint8_t port, uint8_t pin, bool setting
 103:../../lpc11cx4-library/lpc_chip_11cxx_lib/inc/gpio_11xx_2.h **** {
 104:../../lpc11cx4-library/lpc_chip_11cxx_lib/inc/gpio_11xx_2.h **** 	pGPIO[port].DATA[1 << pin] = setting << pin;
 178              		.loc 2 104 0
 179 0004 A022     		mov	r2, #160	@ tmp225,
 180              	.LVL8:
 181              	.LBE39:
 182              	.LBE38:
 158:../../lpc11cx4-library/evt_lib/src/mcp2515.c **** 	uint8_t i;
 159:../../lpc11cx4-library/evt_lib/src/mcp2515.c **** 
ARM GAS  /tmp/ccRhXGbn.s 			page 9


 160:../../lpc11cx4-library/evt_lib/src/mcp2515.c **** 	set_gpio_pin_low(_cs_gpio, _cs_pin);
 183              		.loc 1 160 0
 184 0006 164E     		ldr	r6, .L9	@ tmp191,
 185              	.LBB43:
 186              	.LBB40:
 187              		.loc 2 104 0
 188 0008 D205     		lsl	r2, r2, #23	@ tmp225, tmp225,
 189 000a 3378     		ldrb	r3, [r6]	@ D.6533, _cs_gpio
 190              	.LBE40:
 191              	.LBE43:
 192              		.loc 1 160 0
 193 000c 154D     		ldr	r5, .L9+4	@ tmp194,
 194              	.LBB44:
 195              	.LBB41:
 196              		.loc 2 104 0
 197 000e 1B04     		lsl	r3, r3, #16	@ D.6533, D.6533,
 198 0010 9B18     		add	r3, r3, r2	@ D.6536, D.6533, tmp225
 199 0012 0422     		mov	r2, #4	@ D.6534,
 200              	.LBE41:
 201              	.LBE44:
 157:../../lpc11cx4-library/evt_lib/src/mcp2515.c **** 	uint8_t i;
 202              		.loc 1 157 0
 203 0014 0191     		str	r1, [sp, #4]	@ buf, %sfp
 204              	.LBB45:
 205              	.LBB42:
 206              		.loc 2 104 0
 207 0016 2978     		ldrb	r1, [r5]	@ D.6534, _cs_pin
 208              	.LVL9:
 209 0018 0024     		mov	r4, #0	@ tmp198,
 210 001a 8A40     		lsl	r2, r2, r1	@ tmp197, D.6534, D.6534
 211 001c D450     		str	r4, [r2, r3]	@ tmp198, _31->DATA
 212              	.LVL10:
 213              	.LBE42:
 214              	.LBE45:
 161:../../lpc11cx4-library/evt_lib/src/mcp2515.c **** 	Tx_Buf[0] = MCP2515_READ;
 215              		.loc 1 161 0
 216 001e 0322     		mov	r2, #3	@ tmp200,
 217 0020 114B     		ldr	r3, .L9+8	@ tmp199,
 162:../../lpc11cx4-library/evt_lib/src/mcp2515.c **** 	Tx_Buf[1] = address;
 163:../../lpc11cx4-library/evt_lib/src/mcp2515.c **** 	xf_setup.length = 2+length;
 218              		.loc 1 163 0
 219 0022 1249     		ldr	r1, .L9+12	@ tmp204,
 220              	.LVL11:
 162:../../lpc11cx4-library/evt_lib/src/mcp2515.c **** 	Tx_Buf[1] = address;
 221              		.loc 1 162 0
 222 0024 5870     		strb	r0, [r3, #1]	@ address, Tx_Buf
 161:../../lpc11cx4-library/evt_lib/src/mcp2515.c **** 	Tx_Buf[0] = MCP2515_READ;
 223              		.loc 1 161 0
 224 0026 1A70     		strb	r2, [r3]	@ tmp200, Tx_Buf
 164:../../lpc11cx4-library/evt_lib/src/mcp2515.c **** 	xf_setup.rx_cnt = 0;
 165:../../lpc11cx4-library/evt_lib/src/mcp2515.c **** 	xf_setup.tx_cnt = 0;
 166:../../lpc11cx4-library/evt_lib/src/mcp2515.c **** 	// DEBUG_Println("Reading SSP");
 167:../../lpc11cx4-library/evt_lib/src/mcp2515.c **** 	Chip_SSP_RWFrames_Blocking(LPC_SSP, &xf_setup);
 225              		.loc 1 167 0
 226 0028 1148     		ldr	r0, .L9+16	@,
 227              	.LVL12:
 163:../../lpc11cx4-library/evt_lib/src/mcp2515.c **** 	xf_setup.rx_cnt = 0;
ARM GAS  /tmp/ccRhXGbn.s 			page 10


 228              		.loc 1 163 0
 229 002a BB1C     		add	r3, r7, #2	@ D.6534, length,
 230 002c 0B61     		str	r3, [r1, #16]	@ D.6534, xf_setup.length
 164:../../lpc11cx4-library/evt_lib/src/mcp2515.c **** 	xf_setup.rx_cnt = 0;
 231              		.loc 1 164 0
 232 002e CC60     		str	r4, [r1, #12]	@ tmp198, xf_setup.rx_cnt
 165:../../lpc11cx4-library/evt_lib/src/mcp2515.c **** 	// DEBUG_Println("Reading SSP");
 233              		.loc 1 165 0
 234 0030 4C60     		str	r4, [r1, #4]	@ tmp198, xf_setup.tx_cnt
 235              		.loc 1 167 0
 236 0032 FFF7FEFF 		bl	Chip_SSP_RWFrames_Blocking	@
 237              	.LVL13:
 238              	.L5:
 168:../../lpc11cx4-library/evt_lib/src/mcp2515.c **** 	// itoa(xf_setup.rx_cnt, str, 10);
 169:../../lpc11cx4-library/evt_lib/src/mcp2515.c **** 	// DEBUG_Print("Received: ");
 170:../../lpc11cx4-library/evt_lib/src/mcp2515.c **** 	// DEBUG_Println(str);
 171:../../lpc11cx4-library/evt_lib/src/mcp2515.c **** 	for (i = 0; i < length; i++) {
 239              		.loc 1 171 0 discriminator 1
 240 0036 E3B2     		uxtb	r3, r4	@ ivtmp.54, ivtmp.54
 241 0038 BB42     		cmp	r3, r7	@ ivtmp.54, length
 242 003a 06D2     		bcs	.L8	@,
 243 003c 0D4B     		ldr	r3, .L9+20	@ tmp212,
 172:../../lpc11cx4-library/evt_lib/src/mcp2515.c **** 		buf[i] = Rx_Buf[i + 2];
 244              		.loc 1 172 0 discriminator 3
 245 003e 019A     		ldr	r2, [sp, #4]	@ buf, %sfp
 246 0040 1B19     		add	r3, r3, r4	@ D.6537, tmp212, ivtmp.54
 247 0042 9B78     		ldrb	r3, [r3, #2]	@ D.6532, MEM[base: _48, offset: 2B]
 248 0044 1355     		strb	r3, [r2, r4]	@ D.6532, MEM[base: buf_19(D), index: ivtmp.54_51, offset: 0B]
 249              	.LVL14:
 250 0046 0134     		add	r4, r4, #1	@ ivtmp.54,
 251              	.LVL15:
 252 0048 F5E7     		b	.L5	@
 253              	.LVL16:
 254              	.L8:
 255              	.LBB46:
 256              	.LBB47:
 257              		.loc 2 104 0
 258 004a A022     		mov	r2, #160	@ tmp227,
 259 004c 3378     		ldrb	r3, [r6]	@ D.6533, _cs_gpio
 260 004e D205     		lsl	r2, r2, #23	@ tmp227, tmp227,
 261 0050 1B04     		lsl	r3, r3, #16	@ D.6533, D.6533,
 262 0052 9B18     		add	r3, r3, r2	@ D.6536, D.6533, tmp227
 263 0054 0122     		mov	r2, #1	@ tmp221,
 264 0056 2978     		ldrb	r1, [r5]	@ D.6534, _cs_pin
 265              	.LBE47:
 266              	.LBE46:
 173:../../lpc11cx4-library/evt_lib/src/mcp2515.c **** 	}
 174:../../lpc11cx4-library/evt_lib/src/mcp2515.c **** 
 175:../../lpc11cx4-library/evt_lib/src/mcp2515.c **** 	set_gpio_pin_high(_cs_gpio, _cs_pin);
 176:../../lpc11cx4-library/evt_lib/src/mcp2515.c **** }
 267              		.loc 1 176 0
 268              		@ sp needed	@
 269              	.LBB49:
 270              	.LBB48:
 271              		.loc 2 104 0
 272 0058 8A40     		lsl	r2, r2, r1	@ D.6534, tmp221, D.6534
 273 005a 9100     		lsl	r1, r2, #2	@ tmp222, D.6534,
ARM GAS  /tmp/ccRhXGbn.s 			page 11


 274 005c CA50     		str	r2, [r1, r3]	@ D.6534, _35->DATA
 275              	.LVL17:
 276              	.LVL18:
 277              	.LBE48:
 278              	.LBE49:
 279              		.loc 1 176 0
 280 005e F7BD     		pop	{r0, r1, r2, r4, r5, r6, r7, pc}
 281              	.L10:
 282              		.align	2
 283              	.L9:
 284 0060 00000000 		.word	_cs_gpio
 285 0064 00000000 		.word	_cs_pin
 286 0068 00000000 		.word	.LANCHOR1
 287 006c 00000000 		.word	.LANCHOR0
 288 0070 00000440 		.word	1074003968
 289 0074 00000000 		.word	.LANCHOR2
 290              		.cfi_endproc
 291              	.LFE203:
 292              		.size	MCP2515_Read, .-MCP2515_Read
 293              		.section	.text.MCP2515_ReadBuffer,"ax",%progbits
 294              		.align	1
 295              		.global	MCP2515_ReadBuffer
 296              		.code	16
 297              		.thumb_func
 298              		.type	MCP2515_ReadBuffer, %function
 299              	MCP2515_ReadBuffer:
 300              	.LFB204:
 177:../../lpc11cx4-library/evt_lib/src/mcp2515.c **** 
 178:../../lpc11cx4-library/evt_lib/src/mcp2515.c **** void MCP2515_ReadBuffer(CCAN_MSG_OBJ_T *msgobj, uint8_t bufferNum) {
 301              		.loc 1 178 0
 302              		.cfi_startproc
 303              	.LVL19:
 304              	.LBB50:
 305              	.LBB51:
 306              		.loc 2 104 0
 307 0000 A022     		mov	r2, #160	@ tmp245,
 308              	.LBE51:
 309              	.LBE50:
 310              		.loc 1 178 0
 311 0002 F8B5     		push	{r3, r4, r5, r6, r7, lr}	@
 312              		.cfi_def_cfa_offset 24
 313              		.cfi_offset 3, -24
 314              		.cfi_offset 4, -20
 315              		.cfi_offset 5, -16
 316              		.cfi_offset 6, -12
 317              		.cfi_offset 7, -8
 318              		.cfi_offset 14, -4
 179:../../lpc11cx4-library/evt_lib/src/mcp2515.c **** 	set_gpio_pin_low(_cs_gpio, _cs_pin);
 319              		.loc 1 179 0
 320 0004 1F4E     		ldr	r6, .L18	@ tmp190,
 321              	.LBB56:
 322              	.LBB52:
 323              		.loc 2 104 0
 324 0006 D205     		lsl	r2, r2, #23	@ tmp245, tmp245,
 325 0008 3378     		ldrb	r3, [r6]	@ D.6559, _cs_gpio
 326              	.LBE52:
 327              	.LBE56:
ARM GAS  /tmp/ccRhXGbn.s 			page 12


 328              		.loc 1 179 0
 329 000a 1F4D     		ldr	r5, .L18+4	@ tmp193,
 330              	.LBB57:
 331              	.LBB53:
 332              		.loc 2 104 0
 333 000c 1B04     		lsl	r3, r3, #16	@ D.6559, D.6559,
 334 000e 9B18     		add	r3, r3, r2	@ D.6563, D.6559, tmp245
 335 0010 0422     		mov	r2, #4	@ D.6560,
 336              	.LBE53:
 337              	.LBE57:
 178:../../lpc11cx4-library/evt_lib/src/mcp2515.c **** 	set_gpio_pin_low(_cs_gpio, _cs_pin);
 338              		.loc 1 178 0
 339 0012 041C     		mov	r4, r0	@ msgobj, msgobj
 340              	.LBB58:
 341              	.LBB54:
 342              		.loc 2 104 0
 343 0014 2878     		ldrb	r0, [r5]	@ D.6560, _cs_pin
 344              	.LVL20:
 345              	.LBE54:
 346              	.LBE58:
 180:../../lpc11cx4-library/evt_lib/src/mcp2515.c **** 	Tx_Buf[0] = MCP2515_READ_RX_BUF(bufferNum);
 347              		.loc 1 180 0
 348 0016 8900     		lsl	r1, r1, #2	@ D.6560, bufferNum,
 349              	.LVL21:
 350              	.LBB59:
 351              	.LBB55:
 352              		.loc 2 104 0
 353 0018 8240     		lsl	r2, r2, r0	@ tmp196, tmp196, D.6560
 354 001a 101C     		mov	r0, r2	@ tmp196, tmp196
 355 001c 0022     		mov	r2, #0	@ tmp197,
 356 001e C250     		str	r2, [r0, r3]	@ tmp197, _44->DATA
 357              	.LVL22:
 358              	.LBE55:
 359              	.LBE59:
 360              		.loc 1 180 0
 361 0020 7023     		mov	r3, #112	@ tmp202,
 362 0022 5B42     		neg	r3, r3	@ tmp202, tmp202
 363 0024 1943     		orr	r1, r3	@ tmp201, tmp202
 364 0026 194B     		ldr	r3, .L18+8	@ tmp198,
 181:../../lpc11cx4-library/evt_lib/src/mcp2515.c **** 	xf_setup.length = 14;
 182:../../lpc11cx4-library/evt_lib/src/mcp2515.c **** 	xf_setup.rx_cnt = 0;
 183:../../lpc11cx4-library/evt_lib/src/mcp2515.c **** 	xf_setup.tx_cnt = 0;
 184:../../lpc11cx4-library/evt_lib/src/mcp2515.c **** 	Chip_SSP_RWFrames_Blocking(LPC_SSP, &xf_setup);
 365              		.loc 1 184 0
 366 0028 1948     		ldr	r0, .L18+12	@,
 180:../../lpc11cx4-library/evt_lib/src/mcp2515.c **** 	Tx_Buf[0] = MCP2515_READ_RX_BUF(bufferNum);
 367              		.loc 1 180 0
 368 002a 1970     		strb	r1, [r3]	@ tmp201, Tx_Buf
 181:../../lpc11cx4-library/evt_lib/src/mcp2515.c **** 	xf_setup.length = 14;
 369              		.loc 1 181 0
 370 002c 0E23     		mov	r3, #14	@ tmp205,
 371 002e 1949     		ldr	r1, .L18+16	@ tmp204,
 372 0030 0B61     		str	r3, [r1, #16]	@ tmp205, xf_setup.length
 182:../../lpc11cx4-library/evt_lib/src/mcp2515.c **** 	xf_setup.tx_cnt = 0;
 373              		.loc 1 182 0
 374 0032 CA60     		str	r2, [r1, #12]	@ tmp197, xf_setup.rx_cnt
 183:../../lpc11cx4-library/evt_lib/src/mcp2515.c **** 	Chip_SSP_RWFrames_Blocking(LPC_SSP, &xf_setup);
ARM GAS  /tmp/ccRhXGbn.s 			page 13


 375              		.loc 1 183 0
 376 0034 4A60     		str	r2, [r1, #4]	@ tmp197, xf_setup.tx_cnt
 377              		.loc 1 184 0
 378 0036 FFF7FEFF 		bl	Chip_SSP_RWFrames_Blocking	@
 379              	.LVL23:
 185:../../lpc11cx4-library/evt_lib/src/mcp2515.c **** 	msgobj->mode_id = (Rx_Buf[1]<<3) + ((Rx_Buf[2]>>5)&0x7);
 380              		.loc 1 185 0
 381 003a 174B     		ldr	r3, .L18+20	@ tmp212,
 382 003c 5A78     		ldrb	r2, [r3, #1]	@ D.6560,
 383 003e D100     		lsl	r1, r2, #3	@ D.6560, D.6560,
 384 0040 9A78     		ldrb	r2, [r3, #2]	@ tmp216,
 385 0042 5209     		lsr	r2, r2, #5	@ D.6560, tmp216,
 386 0044 8A18     		add	r2, r1, r2	@ D.6560, D.6560, D.6560
 387 0046 2260     		str	r2, [r4]	@ D.6560, msgobj_27(D)->mode_id
 186:../../lpc11cx4-library/evt_lib/src/mcp2515.c **** 
 187:../../lpc11cx4-library/evt_lib/src/mcp2515.c **** 	msgobj->dlc = Rx_Buf[5] & 0x0F;
 388              		.loc 1 187 0
 389 0048 0F22     		mov	r2, #15	@ tmp224,
 390 004a 5979     		ldrb	r1, [r3, #5]	@ tmp222,
 391 004c 0A40     		and	r2, r1	@ D.6558, tmp222
 188:../../lpc11cx4-library/evt_lib/src/mcp2515.c **** 	if (msgobj->dlc > 8)
 392              		.loc 1 188 0
 393 004e 082A     		cmp	r2, #8	@ D.6558,
 394 0050 00D9     		bls	.L16	@,
 189:../../lpc11cx4-library/evt_lib/src/mcp2515.c **** 		msgobj->dlc = 8;
 395              		.loc 1 189 0
 396 0052 0822     		mov	r2, #8	@ tmp226,
 397              	.L16:
 398 0054 2274     		strb	r2, [r4, #16]	@ tmp226, msgobj_27(D)->dlc
 190:../../lpc11cx4-library/evt_lib/src/mcp2515.c **** 
 191:../../lpc11cx4-library/evt_lib/src/mcp2515.c **** 	uint8_t i;
 192:../../lpc11cx4-library/evt_lib/src/mcp2515.c **** 	for (i = 0; i < msgobj->dlc; i++) {
 399              		.loc 1 192 0
 400 0056 0022     		mov	r2, #0	@ ivtmp.69,
 401 0058 217C     		ldrb	r1, [r4, #16]	@ D.6558,
 402              	.L14:
 403              	.LVL24:
 404              		.loc 1 192 0 is_stmt 0 discriminator 1
 405 005a D0B2     		uxtb	r0, r2	@ ivtmp.69, ivtmp.69
 406 005c 8842     		cmp	r0, r1	@ ivtmp.69, D.6558
 407 005e 05D2     		bcs	.L17	@,
 408 0060 9818     		add	r0, r3, r2	@ D.6564, tmp243, ivtmp.69
 193:../../lpc11cx4-library/evt_lib/src/mcp2515.c **** 		msgobj->data[i] = Rx_Buf[6+i];
 409              		.loc 1 193 0 is_stmt 1 discriminator 3
 410 0062 8779     		ldrb	r7, [r0, #6]	@ D.6558, MEM[base: _55, offset: 6B]
 411 0064 A018     		add	r0, r4, r2	@ D.6565, msgobj, ivtmp.69
 412 0066 0772     		strb	r7, [r0, #8]	@ D.6558, MEM[base: _57, offset: 8B]
 413              	.LVL25:
 414 0068 0132     		add	r2, r2, #1	@ ivtmp.69,
 415              	.LVL26:
 416 006a F6E7     		b	.L14	@
 417              	.LVL27:
 418              	.L17:
 419              	.LBB60:
 420              	.LBB61:
 421              		.loc 2 104 0
 422 006c A022     		mov	r2, #160	@ tmp247,
ARM GAS  /tmp/ccRhXGbn.s 			page 14


 423              	.LVL28:
 424 006e 3378     		ldrb	r3, [r6]	@ D.6559, _cs_gpio
 425 0070 D205     		lsl	r2, r2, #23	@ tmp247, tmp247,
 426 0072 1B04     		lsl	r3, r3, #16	@ D.6559, D.6559,
 427 0074 9B18     		add	r3, r3, r2	@ D.6563, D.6559, tmp247
 428 0076 0122     		mov	r2, #1	@ tmp238,
 429 0078 2978     		ldrb	r1, [r5]	@ D.6560, _cs_pin
 430              	.LBE61:
 431              	.LBE60:
 194:../../lpc11cx4-library/evt_lib/src/mcp2515.c **** 	}
 195:../../lpc11cx4-library/evt_lib/src/mcp2515.c **** 
 196:../../lpc11cx4-library/evt_lib/src/mcp2515.c **** 	set_gpio_pin_high(_cs_gpio, _cs_pin);
 197:../../lpc11cx4-library/evt_lib/src/mcp2515.c **** }
 432              		.loc 1 197 0
 433              		@ sp needed	@
 434              	.LBB63:
 435              	.LBB62:
 436              		.loc 2 104 0
 437 007a 8A40     		lsl	r2, r2, r1	@ D.6560, tmp238, D.6560
 438 007c 9100     		lsl	r1, r2, #2	@ tmp239, D.6560,
 439 007e CA50     		str	r2, [r1, r3]	@ D.6560, _48->DATA
 440              	.LVL29:
 441              	.LVL30:
 442              	.LBE62:
 443              	.LBE63:
 444              		.loc 1 197 0
 445 0080 F8BD     		pop	{r3, r4, r5, r6, r7, pc}
 446              	.L19:
 447 0082 C046     		.align	2
 448              	.L18:
 449 0084 00000000 		.word	_cs_gpio
 450 0088 00000000 		.word	_cs_pin
 451 008c 00000000 		.word	.LANCHOR1
 452 0090 00000440 		.word	1074003968
 453 0094 00000000 		.word	.LANCHOR0
 454 0098 00000000 		.word	.LANCHOR2
 455              		.cfi_endproc
 456              	.LFE204:
 457              		.size	MCP2515_ReadBuffer, .-MCP2515_ReadBuffer
 458              		.section	.text.MCP2515_Write,"ax",%progbits
 459              		.align	1
 460              		.global	MCP2515_Write
 461              		.code	16
 462              		.thumb_func
 463              		.type	MCP2515_Write, %function
 464              	MCP2515_Write:
 465              	.LFB205:
 198:../../lpc11cx4-library/evt_lib/src/mcp2515.c **** 
 199:../../lpc11cx4-library/evt_lib/src/mcp2515.c **** void MCP2515_Write(uint8_t address, uint8_t data) {
 466              		.loc 1 199 0
 467              		.cfi_startproc
 468              	.LVL31:
 469 0000 F8B5     		push	{r3, r4, r5, r6, r7, lr}	@
 470              		.cfi_def_cfa_offset 24
 471              		.cfi_offset 3, -24
 472              		.cfi_offset 4, -20
 473              		.cfi_offset 5, -16
ARM GAS  /tmp/ccRhXGbn.s 			page 15


 474              		.cfi_offset 6, -12
 475              		.cfi_offset 7, -8
 476              		.cfi_offset 14, -4
 477              	.LBB64:
 478              	.LBB65:
 479              		.loc 2 104 0
 480 0002 0124     		mov	r4, #1	@ tmp132,
 481 0004 A022     		mov	r2, #160	@ tmp151,
 482 0006 271C     		mov	r7, r4	@ D.6573, tmp132
 483              	.LBE65:
 484              	.LBE64:
 200:../../lpc11cx4-library/evt_lib/src/mcp2515.c **** 	set_gpio_pin_low(_cs_gpio, _cs_pin);
 485              		.loc 1 200 0
 486 0008 0F4E     		ldr	r6, .L21	@ tmp127,
 487 000a 104D     		ldr	r5, .L21+4	@ tmp130,
 488              	.LBB68:
 489              	.LBB66:
 490              		.loc 2 104 0
 491 000c 3378     		ldrb	r3, [r6]	@ D.6571, _cs_gpio
 492 000e D205     		lsl	r2, r2, #23	@ tmp151, tmp151,
 493 0010 1B04     		lsl	r3, r3, #16	@ D.6571, D.6571,
 494 0012 9B18     		add	r3, r3, r2	@ D.6572, D.6571, tmp151
 495 0014 2A78     		ldrb	r2, [r5]	@ D.6573, _cs_pin
 496              	.LBE66:
 497              	.LBE68:
 201:../../lpc11cx4-library/evt_lib/src/mcp2515.c **** 	Tx_Buf[0] = MCP2515_WRITE;
 202:../../lpc11cx4-library/evt_lib/src/mcp2515.c **** 	Tx_Buf[1] = address;
 203:../../lpc11cx4-library/evt_lib/src/mcp2515.c **** 	Tx_Buf[2] = data;
 204:../../lpc11cx4-library/evt_lib/src/mcp2515.c **** 	Chip_SSP_WriteFrames_Blocking(LPC_SSP, Tx_Buf, 3);
 205:../../lpc11cx4-library/evt_lib/src/mcp2515.c **** 	set_gpio_pin_high(_cs_gpio, _cs_pin);
 206:../../lpc11cx4-library/evt_lib/src/mcp2515.c **** }
 498              		.loc 1 206 0
 499              		@ sp needed	@
 500              	.LBB69:
 501              	.LBB67:
 502              		.loc 2 104 0
 503 0016 9740     		lsl	r7, r7, r2	@ D.6573, D.6573, D.6573
 504 0018 BA00     		lsl	r2, r7, #2	@ tmp133, D.6573,
 505 001a 0027     		mov	r7, #0	@ tmp134,
 506 001c D750     		str	r7, [r2, r3]	@ tmp134, _16->DATA
 507              	.LVL32:
 508              	.LBE67:
 509              	.LBE69:
 201:../../lpc11cx4-library/evt_lib/src/mcp2515.c **** 	Tx_Buf[0] = MCP2515_WRITE;
 510              		.loc 1 201 0
 511 001e 0222     		mov	r2, #2	@ tmp136,
 512 0020 0B4B     		ldr	r3, .L21+8	@ tmp135,
 513 0022 1A70     		strb	r2, [r3]	@ tmp136, Tx_Buf
 202:../../lpc11cx4-library/evt_lib/src/mcp2515.c **** 	Tx_Buf[2] = data;
 514              		.loc 1 202 0
 515 0024 5870     		strb	r0, [r3, #1]	@ address, Tx_Buf
 203:../../lpc11cx4-library/evt_lib/src/mcp2515.c **** 	Chip_SSP_WriteFrames_Blocking(LPC_SSP, Tx_Buf, 3);
 516              		.loc 1 203 0
 517 0026 9970     		strb	r1, [r3, #2]	@ data, Tx_Buf
 204:../../lpc11cx4-library/evt_lib/src/mcp2515.c **** 	set_gpio_pin_high(_cs_gpio, _cs_pin);
 518              		.loc 1 204 0
 519 0028 1219     		add	r2, r2, r4	@,,
ARM GAS  /tmp/ccRhXGbn.s 			page 16


 520 002a 191C     		mov	r1, r3	@, tmp135
 521              	.LVL33:
 522 002c 0948     		ldr	r0, .L21+12	@,
 523              	.LVL34:
 524 002e FFF7FEFF 		bl	Chip_SSP_WriteFrames_Blocking	@
 525              	.LVL35:
 526              	.LBB70:
 527              	.LBB71:
 528              		.loc 2 104 0
 529 0032 A022     		mov	r2, #160	@ tmp153,
 530 0034 3378     		ldrb	r3, [r6]	@ D.6571, _cs_gpio
 531 0036 D205     		lsl	r2, r2, #23	@ tmp153, tmp153,
 532 0038 1B04     		lsl	r3, r3, #16	@ D.6571, D.6571,
 533 003a 9B18     		add	r3, r3, r2	@ D.6572, D.6571, tmp153
 534 003c 2A78     		ldrb	r2, [r5]	@ D.6573, _cs_pin
 535 003e 9440     		lsl	r4, r4, r2	@ D.6573, tmp132, D.6573
 536 0040 A200     		lsl	r2, r4, #2	@ tmp150, D.6573,
 537 0042 D450     		str	r4, [r2, r3]	@ D.6573, _20->DATA
 538              	.LVL36:
 539              	.LBE71:
 540              	.LBE70:
 541              		.loc 1 206 0
 542 0044 F8BD     		pop	{r3, r4, r5, r6, r7, pc}
 543              	.L22:
 544 0046 C046     		.align	2
 545              	.L21:
 546 0048 00000000 		.word	_cs_gpio
 547 004c 00000000 		.word	_cs_pin
 548 0050 00000000 		.word	.LANCHOR1
 549 0054 00000440 		.word	1074003968
 550              		.cfi_endproc
 551              	.LFE205:
 552              		.size	MCP2515_Write, .-MCP2515_Write
 553              		.section	.text.MCP2515_LoadBuffer,"ax",%progbits
 554              		.align	1
 555              		.global	MCP2515_LoadBuffer
 556              		.code	16
 557              		.thumb_func
 558              		.type	MCP2515_LoadBuffer, %function
 559              	MCP2515_LoadBuffer:
 560              	.LFB206:
 207:../../lpc11cx4-library/evt_lib/src/mcp2515.c **** 
 208:../../lpc11cx4-library/evt_lib/src/mcp2515.c **** void MCP2515_LoadBuffer(uint8_t buffer, CCAN_MSG_OBJ_T *msgobj) {
 561              		.loc 1 208 0
 562              		.cfi_startproc
 563              	.LVL37:
 564 0000 F8B5     		push	{r3, r4, r5, r6, r7, lr}	@
 565              		.cfi_def_cfa_offset 24
 566              		.cfi_offset 3, -24
 567              		.cfi_offset 4, -20
 568              		.cfi_offset 5, -16
 569              		.cfi_offset 6, -12
 570              		.cfi_offset 7, -8
 571              		.cfi_offset 14, -4
 209:../../lpc11cx4-library/evt_lib/src/mcp2515.c **** 	Tx_Buf[0] = MCP2515_LOAD_TX_BUF(buffer);
 572              		.loc 1 209 0
 573 0002 4023     		mov	r3, #64	@ tmp152,
ARM GAS  /tmp/ccRhXGbn.s 			page 17


 574 0004 1B4A     		ldr	r2, .L27	@ tmp148,
 575 0006 4000     		lsl	r0, r0, #1	@ D.6584, buffer,
 576              	.LVL38:
 577 0008 1843     		orr	r0, r3	@ tmp151, tmp152
 578 000a 1070     		strb	r0, [r2]	@ tmp151, Tx_Buf
 210:../../lpc11cx4-library/evt_lib/src/mcp2515.c **** 	Tx_Buf[1] = (msgobj->mode_id >> 3) & 0xFF;
 579              		.loc 1 210 0
 580 000c 0B68     		ldr	r3, [r1]	@ tmp198, msgobj_11(D)->mode_id
 208:../../lpc11cx4-library/evt_lib/src/mcp2515.c **** 	Tx_Buf[0] = MCP2515_LOAD_TX_BUF(buffer);
 581              		.loc 1 208 0
 582 000e 0F1C     		mov	r7, r1	@ msgobj, msgobj
 583              		.loc 1 210 0
 584 0010 DB08     		lsr	r3, r3, #3	@ D.6587, tmp198,
 585 0012 5370     		strb	r3, [r2, #1]	@ D.6587, Tx_Buf
 211:../../lpc11cx4-library/evt_lib/src/mcp2515.c **** 	Tx_Buf[2] = (msgobj->mode_id & 0x7) << 5;
 586              		.loc 1 211 0
 587 0014 0B68     		ldr	r3, [r1]	@ tmp199, msgobj_11(D)->mode_id
 588 0016 5B01     		lsl	r3, r3, #5	@ tmp161, tmp199,
 589 0018 9370     		strb	r3, [r2, #2]	@ tmp161, Tx_Buf
 212:../../lpc11cx4-library/evt_lib/src/mcp2515.c **** 	Tx_Buf[3] = 0;
 590              		.loc 1 212 0
 591 001a 0023     		mov	r3, #0	@ tmp164,
 592 001c D370     		strb	r3, [r2, #3]	@ tmp164, Tx_Buf
 213:../../lpc11cx4-library/evt_lib/src/mcp2515.c **** 	Tx_Buf[4] = 0;
 593              		.loc 1 213 0
 594 001e 1371     		strb	r3, [r2, #4]	@ tmp164, Tx_Buf
 214:../../lpc11cx4-library/evt_lib/src/mcp2515.c **** 	Tx_Buf[5] = msgobj->dlc;
 595              		.loc 1 214 0
 596 0020 097C     		ldrb	r1, [r1, #16]	@ tmp170,
 597              	.LVL39:
 598 0022 5171     		strb	r1, [r2, #5]	@ tmp170, Tx_Buf
 599              	.LVL40:
 600 0024 111C     		mov	r1, r2	@ tmp197, tmp148
 601              	.LVL41:
 602              	.L24:
 215:../../lpc11cx4-library/evt_lib/src/mcp2515.c **** 
 216:../../lpc11cx4-library/evt_lib/src/mcp2515.c **** 	uint8_t i;
 217:../../lpc11cx4-library/evt_lib/src/mcp2515.c **** 	for (i = 0 ; i < msgobj->dlc; i++) {
 603              		.loc 1 217 0 discriminator 1
 604 0026 3A7C     		ldrb	r2, [r7, #16]	@ tmp177,
 605 0028 9A42     		cmp	r2, r3	@ tmp177, i
 606 002a 06D9     		bls	.L26	@,
 218:../../lpc11cx4-library/evt_lib/src/mcp2515.c **** 		Tx_Buf[6 + i] = msgobj->data[i];
 607              		.loc 1 218 0 discriminator 3
 608 002c FA18     		add	r2, r7, r3	@ tmp172, msgobj, i
 609 002e 107A     		ldrb	r0, [r2, #8]	@ D.6586, *msgobj_11(D)
 610 0030 CA18     		add	r2, r1, r3	@ tmp174, tmp197, i
 217:../../lpc11cx4-library/evt_lib/src/mcp2515.c **** 		Tx_Buf[6 + i] = msgobj->data[i];
 611              		.loc 1 217 0 discriminator 3
 612 0032 0133     		add	r3, r3, #1	@ tmp176,
 613              	.LVL42:
 614              		.loc 1 218 0 discriminator 3
 615 0034 9071     		strb	r0, [r2, #6]	@ D.6586, Tx_Buf
 217:../../lpc11cx4-library/evt_lib/src/mcp2515.c **** 		Tx_Buf[6 + i] = msgobj->data[i];
 616              		.loc 1 217 0 discriminator 3
 617 0036 DBB2     		uxtb	r3, r3	@ i, tmp176
 618              	.LVL43:
ARM GAS  /tmp/ccRhXGbn.s 			page 18


 619 0038 F5E7     		b	.L24	@
 620              	.L26:
 621              	.LVL44:
 622              	.LBB72:
 623              	.LBB73:
 624              		.loc 2 104 0
 625 003a 0124     		mov	r4, #1	@ tmp183,
 626 003c A022     		mov	r2, #160	@ tmp200,
 627 003e 201C     		mov	r0, r4	@ D.6584, tmp183
 628              	.LBE73:
 629              	.LBE72:
 219:../../lpc11cx4-library/evt_lib/src/mcp2515.c **** 	}
 220:../../lpc11cx4-library/evt_lib/src/mcp2515.c **** 
 221:../../lpc11cx4-library/evt_lib/src/mcp2515.c **** 	set_gpio_pin_low(_cs_gpio, _cs_pin);
 630              		.loc 1 221 0
 631 0040 0D4E     		ldr	r6, .L27+4	@ tmp178,
 632 0042 0E4D     		ldr	r5, .L27+8	@ tmp181,
 633              	.LBB76:
 634              	.LBB74:
 635              		.loc 2 104 0
 636 0044 3378     		ldrb	r3, [r6]	@ D.6588, _cs_gpio
 637              	.LVL45:
 638 0046 D205     		lsl	r2, r2, #23	@ tmp200, tmp200,
 639 0048 1B04     		lsl	r3, r3, #16	@ D.6588, D.6588,
 640 004a 9B18     		add	r3, r3, r2	@ D.6589, D.6588, tmp200
 641 004c 2A78     		ldrb	r2, [r5]	@ D.6584, _cs_pin
 642              	.LBE74:
 643              	.LBE76:
 222:../../lpc11cx4-library/evt_lib/src/mcp2515.c **** 	Chip_SSP_WriteFrames_Blocking(LPC_SSP, Tx_Buf, 6 + msgobj->dlc);
 223:../../lpc11cx4-library/evt_lib/src/mcp2515.c **** 	set_gpio_pin_high(_cs_gpio, _cs_pin);
 224:../../lpc11cx4-library/evt_lib/src/mcp2515.c **** }
 644              		.loc 1 224 0
 645              		@ sp needed	@
 646              	.LBB77:
 647              	.LBB75:
 648              		.loc 2 104 0
 649 004e 9040     		lsl	r0, r0, r2	@ D.6584, D.6584, D.6584
 650 0050 8200     		lsl	r2, r0, #2	@ tmp184, D.6584,
 651 0052 0020     		mov	r0, #0	@ tmp185,
 652 0054 D050     		str	r0, [r2, r3]	@ tmp185, _43->DATA
 653              	.LVL46:
 654              	.LBE75:
 655              	.LBE77:
 222:../../lpc11cx4-library/evt_lib/src/mcp2515.c **** 	Chip_SSP_WriteFrames_Blocking(LPC_SSP, Tx_Buf, 6 + msgobj->dlc);
 656              		.loc 1 222 0
 657 0056 3A7C     		ldrb	r2, [r7, #16]	@ D.6584,
 658 0058 0948     		ldr	r0, .L27+12	@,
 659 005a 0632     		add	r2, r2, #6	@ D.6584,
 660 005c FFF7FEFF 		bl	Chip_SSP_WriteFrames_Blocking	@
 661              	.LVL47:
 662              	.LBB78:
 663              	.LBB79:
 664              		.loc 2 104 0
 665 0060 A022     		mov	r2, #160	@ tmp202,
 666 0062 3378     		ldrb	r3, [r6]	@ D.6588, _cs_gpio
 667 0064 D205     		lsl	r2, r2, #23	@ tmp202, tmp202,
 668 0066 1B04     		lsl	r3, r3, #16	@ D.6588, D.6588,
ARM GAS  /tmp/ccRhXGbn.s 			page 19


 669 0068 9B18     		add	r3, r3, r2	@ D.6589, D.6588, tmp202
 670 006a 2A78     		ldrb	r2, [r5]	@ D.6584, _cs_pin
 671 006c 9440     		lsl	r4, r4, r2	@ D.6584, tmp183, D.6584
 672 006e A200     		lsl	r2, r4, #2	@ tmp196, D.6584,
 673 0070 D450     		str	r4, [r2, r3]	@ D.6584, _47->DATA
 674              	.LVL48:
 675              	.LVL49:
 676              	.LBE79:
 677              	.LBE78:
 678              		.loc 1 224 0
 679 0072 F8BD     		pop	{r3, r4, r5, r6, r7, pc}
 680              	.L28:
 681              		.align	2
 682              	.L27:
 683 0074 00000000 		.word	.LANCHOR1
 684 0078 00000000 		.word	_cs_gpio
 685 007c 00000000 		.word	_cs_pin
 686 0080 00000440 		.word	1074003968
 687              		.cfi_endproc
 688              	.LFE206:
 689              		.size	MCP2515_LoadBuffer, .-MCP2515_LoadBuffer
 690              		.section	.text.MCP2515_LoadBufferData,"ax",%progbits
 691              		.align	1
 692              		.global	MCP2515_LoadBufferData
 693              		.code	16
 694              		.thumb_func
 695              		.type	MCP2515_LoadBufferData, %function
 696              	MCP2515_LoadBufferData:
 697              	.LFB207:
 225:../../lpc11cx4-library/evt_lib/src/mcp2515.c **** 
 226:../../lpc11cx4-library/evt_lib/src/mcp2515.c **** void MCP2515_LoadBufferData(uint8_t buffer, CCAN_MSG_OBJ_T *msgobj) {
 698              		.loc 1 226 0
 699              		.cfi_startproc
 700              	.LVL50:
 701 0000 F8B5     		push	{r3, r4, r5, r6, r7, lr}	@
 702              		.cfi_def_cfa_offset 24
 703              		.cfi_offset 3, -24
 704              		.cfi_offset 4, -20
 705              		.cfi_offset 5, -16
 706              		.cfi_offset 6, -12
 707              		.cfi_offset 7, -8
 708              		.cfi_offset 14, -4
 227:../../lpc11cx4-library/evt_lib/src/mcp2515.c **** 	Tx_Buf[0] = MCP2515_LOAD_TX_BUF(buffer) & 0x1;
 709              		.loc 1 227 0
 710 0002 0023     		mov	r3, #0	@ tmp137,
 226:../../lpc11cx4-library/evt_lib/src/mcp2515.c **** 	Tx_Buf[0] = MCP2515_LOAD_TX_BUF(buffer) & 0x1;
 711              		.loc 1 226 0
 712 0004 0A1C     		mov	r2, r1	@ msgobj, msgobj
 713              		.loc 1 227 0
 714 0006 1449     		ldr	r1, .L33	@ tmp136,
 715              	.LVL51:
 716 0008 0B70     		strb	r3, [r1]	@ tmp137, Tx_Buf
 717              	.LVL52:
 718              	.L30:
 228:../../lpc11cx4-library/evt_lib/src/mcp2515.c **** 
 229:../../lpc11cx4-library/evt_lib/src/mcp2515.c **** 	uint8_t i;
 230:../../lpc11cx4-library/evt_lib/src/mcp2515.c **** 	for (i = 0 ; i < msgobj->dlc; i++) {
ARM GAS  /tmp/ccRhXGbn.s 			page 20


 719              		.loc 1 230 0 discriminator 1
 720 000a 107C     		ldrb	r0, [r2, #16]	@ tmp144,
 721 000c 9842     		cmp	r0, r3	@ tmp144, i
 722 000e 06D9     		bls	.L32	@,
 231:../../lpc11cx4-library/evt_lib/src/mcp2515.c **** 		Tx_Buf[1 + i] = msgobj->data[i];
 723              		.loc 1 231 0 discriminator 3
 724 0010 D018     		add	r0, r2, r3	@ tmp139, msgobj, i
 725 0012 047A     		ldrb	r4, [r0, #8]	@ D.6599, *msgobj_5(D)
 726 0014 C818     		add	r0, r1, r3	@ tmp141, tmp164, i
 230:../../lpc11cx4-library/evt_lib/src/mcp2515.c **** 		Tx_Buf[1 + i] = msgobj->data[i];
 727              		.loc 1 230 0 discriminator 3
 728 0016 0133     		add	r3, r3, #1	@ tmp143,
 729              	.LVL53:
 730              		.loc 1 231 0 discriminator 3
 731 0018 4470     		strb	r4, [r0, #1]	@ D.6599, Tx_Buf
 230:../../lpc11cx4-library/evt_lib/src/mcp2515.c **** 		Tx_Buf[1 + i] = msgobj->data[i];
 732              		.loc 1 230 0 discriminator 3
 733 001a DBB2     		uxtb	r3, r3	@ i, tmp143
 734              	.LVL54:
 735 001c F5E7     		b	.L30	@
 736              	.L32:
 737              	.LVL55:
 738              	.LBB80:
 739              	.LBB81:
 740              		.loc 2 104 0
 741 001e 0124     		mov	r4, #1	@ tmp150,
 742 0020 A020     		mov	r0, #160	@ tmp165,
 743 0022 271C     		mov	r7, r4	@ D.6600, tmp150
 744              	.LBE81:
 745              	.LBE80:
 232:../../lpc11cx4-library/evt_lib/src/mcp2515.c **** 	}
 233:../../lpc11cx4-library/evt_lib/src/mcp2515.c **** 
 234:../../lpc11cx4-library/evt_lib/src/mcp2515.c **** 	set_gpio_pin_low(_cs_gpio, _cs_pin);
 746              		.loc 1 234 0
 747 0024 0D4E     		ldr	r6, .L33+4	@ tmp145,
 748 0026 0E4D     		ldr	r5, .L33+8	@ tmp148,
 749              	.LBB84:
 750              	.LBB82:
 751              		.loc 2 104 0
 752 0028 3378     		ldrb	r3, [r6]	@ D.6601, _cs_gpio
 753              	.LVL56:
 754 002a C005     		lsl	r0, r0, #23	@ tmp165, tmp165,
 755 002c 1B04     		lsl	r3, r3, #16	@ D.6601, D.6601,
 756 002e 1B18     		add	r3, r3, r0	@ D.6603, D.6601, tmp165
 757 0030 2878     		ldrb	r0, [r5]	@ D.6600, _cs_pin
 758              	.LBE82:
 759              	.LBE84:
 235:../../lpc11cx4-library/evt_lib/src/mcp2515.c **** 	Chip_SSP_WriteFrames_Blocking(LPC_SSP, Tx_Buf, 1 + msgobj->dlc);
 236:../../lpc11cx4-library/evt_lib/src/mcp2515.c **** 	set_gpio_pin_high(_cs_gpio, _cs_pin);
 237:../../lpc11cx4-library/evt_lib/src/mcp2515.c **** }
 760              		.loc 1 237 0
 761              		@ sp needed	@
 762              	.LBB85:
 763              	.LBB83:
 764              		.loc 2 104 0
 765 0032 8740     		lsl	r7, r7, r0	@ D.6600, D.6600, D.6600
 766 0034 B800     		lsl	r0, r7, #2	@ tmp151, D.6600,
ARM GAS  /tmp/ccRhXGbn.s 			page 21


 767 0036 0027     		mov	r7, #0	@ tmp152,
 768 0038 C750     		str	r7, [r0, r3]	@ tmp152, _25->DATA
 769              	.LVL57:
 770              	.LBE83:
 771              	.LBE85:
 235:../../lpc11cx4-library/evt_lib/src/mcp2515.c **** 	Chip_SSP_WriteFrames_Blocking(LPC_SSP, Tx_Buf, 1 + msgobj->dlc);
 772              		.loc 1 235 0
 773 003a 127C     		ldrb	r2, [r2, #16]	@ D.6600,
 774              	.LVL58:
 775 003c 0948     		ldr	r0, .L33+12	@,
 776 003e 1219     		add	r2, r2, r4	@ D.6600, D.6600,
 777 0040 FFF7FEFF 		bl	Chip_SSP_WriteFrames_Blocking	@
 778              	.LVL59:
 779              	.LBB86:
 780              	.LBB87:
 781              		.loc 2 104 0
 782 0044 A022     		mov	r2, #160	@ tmp167,
 783 0046 3378     		ldrb	r3, [r6]	@ D.6601, _cs_gpio
 784 0048 D205     		lsl	r2, r2, #23	@ tmp167, tmp167,
 785 004a 1B04     		lsl	r3, r3, #16	@ D.6601, D.6601,
 786 004c 9B18     		add	r3, r3, r2	@ D.6603, D.6601, tmp167
 787 004e 2A78     		ldrb	r2, [r5]	@ D.6600, _cs_pin
 788 0050 9440     		lsl	r4, r4, r2	@ D.6600, tmp150, D.6600
 789 0052 A200     		lsl	r2, r4, #2	@ tmp163, D.6600,
 790 0054 D450     		str	r4, [r2, r3]	@ D.6600, _29->DATA
 791              	.LVL60:
 792              	.LBE87:
 793              	.LBE86:
 794              		.loc 1 237 0
 795 0056 F8BD     		pop	{r3, r4, r5, r6, r7, pc}
 796              	.L34:
 797              		.align	2
 798              	.L33:
 799 0058 00000000 		.word	.LANCHOR1
 800 005c 00000000 		.word	_cs_gpio
 801 0060 00000000 		.word	_cs_pin
 802 0064 00000440 		.word	1074003968
 803              		.cfi_endproc
 804              	.LFE207:
 805              		.size	MCP2515_LoadBufferData, .-MCP2515_LoadBufferData
 806              		.section	.text.MCP2515_SendBuffer,"ax",%progbits
 807              		.align	1
 808              		.global	MCP2515_SendBuffer
 809              		.code	16
 810              		.thumb_func
 811              		.type	MCP2515_SendBuffer, %function
 812              	MCP2515_SendBuffer:
 813              	.LFB208:
 238:../../lpc11cx4-library/evt_lib/src/mcp2515.c **** 
 239:../../lpc11cx4-library/evt_lib/src/mcp2515.c **** void MCP2515_SendBuffer(uint8_t buffer) {
 814              		.loc 1 239 0
 815              		.cfi_startproc
 816              	.LVL61:
 817              	.LBB88:
 818              	.LBB89:
 819              		.loc 2 104 0
 820 0000 A022     		mov	r2, #160	@ tmp155,
ARM GAS  /tmp/ccRhXGbn.s 			page 22


 821              	.LBE89:
 822              	.LBE88:
 823              		.loc 1 239 0
 824 0002 38B5     		push	{r3, r4, r5, lr}	@
 825              		.cfi_def_cfa_offset 16
 826              		.cfi_offset 3, -16
 827              		.cfi_offset 4, -12
 828              		.cfi_offset 5, -8
 829              		.cfi_offset 14, -4
 240:../../lpc11cx4-library/evt_lib/src/mcp2515.c **** 	set_gpio_pin_low(_cs_gpio, _cs_pin);
 830              		.loc 1 240 0
 831 0004 134D     		ldr	r5, .L41	@ tmp126,
 832              	.LBB92:
 833              	.LBB90:
 834              		.loc 2 104 0
 835 0006 D205     		lsl	r2, r2, #23	@ tmp155, tmp155,
 836 0008 2B78     		ldrb	r3, [r5]	@ D.6610, _cs_gpio
 837              	.LBE90:
 838              	.LBE92:
 839              		.loc 1 240 0
 840 000a 134C     		ldr	r4, .L41+4	@ tmp129,
 841              	.LBB93:
 842              	.LBB91:
 843              		.loc 2 104 0
 844 000c 1B04     		lsl	r3, r3, #16	@ D.6610, D.6610,
 845 000e 9B18     		add	r3, r3, r2	@ D.6611, D.6610, tmp155
 846 0010 0422     		mov	r2, #4	@ D.6612,
 847 0012 2178     		ldrb	r1, [r4]	@ D.6612, _cs_pin
 848 0014 8A40     		lsl	r2, r2, r1	@ tmp132, D.6612, D.6612
 849 0016 0021     		mov	r1, #0	@ tmp133,
 850 0018 D150     		str	r1, [r2, r3]	@ tmp133, _16->DATA
 851              	.LVL62:
 852 001a 1049     		ldr	r1, .L41+8	@ tmp154,
 853              	.LBE91:
 854              	.LBE93:
 241:../../lpc11cx4-library/evt_lib/src/mcp2515.c **** 	switch (buffer) {
 855              		.loc 1 241 0
 856 001c 0128     		cmp	r0, #1	@ buffer,
 857 001e 07D0     		beq	.L37	@,
 858 0020 0028     		cmp	r0, #0	@ buffer,
 859 0022 03D0     		beq	.L38	@,
 860 0024 0228     		cmp	r0, #2	@ buffer,
 861 0026 05D1     		bne	.L36	@,
 242:../../lpc11cx4-library/evt_lib/src/mcp2515.c **** 		case 0:
 243:../../lpc11cx4-library/evt_lib/src/mcp2515.c **** 			Tx_Buf[0] = MCP2515_RTS0;
 244:../../lpc11cx4-library/evt_lib/src/mcp2515.c **** 			break;
 245:../../lpc11cx4-library/evt_lib/src/mcp2515.c **** 		case 1:
 246:../../lpc11cx4-library/evt_lib/src/mcp2515.c **** 			Tx_Buf[0] = MCP2515_RTS1;
 247:../../lpc11cx4-library/evt_lib/src/mcp2515.c **** 			break;
 248:../../lpc11cx4-library/evt_lib/src/mcp2515.c **** 		case 2:
 249:../../lpc11cx4-library/evt_lib/src/mcp2515.c **** 			Tx_Buf[0] = MCP2515_RTS2;
 862              		.loc 1 249 0
 863 0028 8423     		mov	r3, #132	@ tmp141,
 864 002a 02E0     		b	.L40	@
 865              	.L38:
 243:../../lpc11cx4-library/evt_lib/src/mcp2515.c **** 			break;
 866              		.loc 1 243 0
ARM GAS  /tmp/ccRhXGbn.s 			page 23


 867 002c 8123     		mov	r3, #129	@ tmp135,
 868 002e 00E0     		b	.L40	@
 869              	.L37:
 246:../../lpc11cx4-library/evt_lib/src/mcp2515.c **** 			break;
 870              		.loc 1 246 0
 871 0030 8223     		mov	r3, #130	@ tmp138,
 872              	.L40:
 873              		.loc 1 249 0
 874 0032 0B70     		strb	r3, [r1]	@ tmp141, Tx_Buf
 875              	.L36:
 250:../../lpc11cx4-library/evt_lib/src/mcp2515.c **** 			break;
 251:../../lpc11cx4-library/evt_lib/src/mcp2515.c **** 	}
 252:../../lpc11cx4-library/evt_lib/src/mcp2515.c **** 	Chip_SSP_WriteFrames_Blocking(LPC_SSP, Tx_Buf, 1);
 876              		.loc 1 252 0
 877 0034 0122     		mov	r2, #1	@,
 878 0036 0A48     		ldr	r0, .L41+12	@,
 879              	.LVL63:
 880 0038 FFF7FEFF 		bl	Chip_SSP_WriteFrames_Blocking	@
 881              	.LVL64:
 882              	.LBB94:
 883              	.LBB95:
 884              		.loc 2 104 0
 885 003c A022     		mov	r2, #160	@ tmp156,
 886 003e 2B78     		ldrb	r3, [r5]	@ D.6610, _cs_gpio
 887 0040 D205     		lsl	r2, r2, #23	@ tmp156, tmp156,
 888 0042 1B04     		lsl	r3, r3, #16	@ D.6610, D.6610,
 889 0044 9B18     		add	r3, r3, r2	@ D.6611, D.6610, tmp156
 890 0046 0122     		mov	r2, #1	@ tmp150,
 891 0048 2178     		ldrb	r1, [r4]	@ D.6612, _cs_pin
 892              	.LBE95:
 893              	.LBE94:
 253:../../lpc11cx4-library/evt_lib/src/mcp2515.c **** 	set_gpio_pin_high(_cs_gpio, _cs_pin);
 254:../../lpc11cx4-library/evt_lib/src/mcp2515.c **** }
 894              		.loc 1 254 0
 895              		@ sp needed	@
 896              	.LBB97:
 897              	.LBB96:
 898              		.loc 2 104 0
 899 004a 8A40     		lsl	r2, r2, r1	@ D.6612, tmp150, D.6612
 900 004c 9100     		lsl	r1, r2, #2	@ tmp151, D.6612,
 901 004e CA50     		str	r2, [r1, r3]	@ D.6612, _20->DATA
 902              	.LVL65:
 903              	.LBE96:
 904              	.LBE97:
 905              		.loc 1 254 0
 906 0050 38BD     		pop	{r3, r4, r5, pc}
 907              	.L42:
 908 0052 C046     		.align	2
 909              	.L41:
 910 0054 00000000 		.word	_cs_gpio
 911 0058 00000000 		.word	_cs_pin
 912 005c 00000000 		.word	.LANCHOR1
 913 0060 00000440 		.word	1074003968
 914              		.cfi_endproc
 915              	.LFE208:
 916              		.size	MCP2515_SendBuffer, .-MCP2515_SendBuffer
 917              		.section	.text.MCP2515_BitModify,"ax",%progbits
ARM GAS  /tmp/ccRhXGbn.s 			page 24


 918              		.align	1
 919              		.global	MCP2515_BitModify
 920              		.code	16
 921              		.thumb_func
 922              		.type	MCP2515_BitModify, %function
 923              	MCP2515_BitModify:
 924              	.LFB209:
 255:../../lpc11cx4-library/evt_lib/src/mcp2515.c **** 
 256:../../lpc11cx4-library/evt_lib/src/mcp2515.c **** void MCP2515_BitModify(uint8_t address, uint8_t mask, uint8_t data) {
 925              		.loc 1 256 0
 926              		.cfi_startproc
 927              	.LVL66:
 928 0000 F7B5     		push	{r0, r1, r2, r4, r5, r6, r7, lr}	@
 929              		.cfi_def_cfa_offset 32
 930              		.cfi_offset 0, -32
 931              		.cfi_offset 1, -28
 932              		.cfi_offset 2, -24
 933              		.cfi_offset 4, -20
 934              		.cfi_offset 5, -16
 935              		.cfi_offset 6, -12
 936              		.cfi_offset 7, -8
 937              		.cfi_offset 14, -4
 938              	.LBB98:
 939              	.LBB99:
 940              		.loc 2 104 0
 941 0002 A024     		mov	r4, #160	@ tmp154,
 942              	.LBE99:
 943              	.LBE98:
 257:../../lpc11cx4-library/evt_lib/src/mcp2515.c **** 	set_gpio_pin_low(_cs_gpio, _cs_pin);
 944              		.loc 1 257 0
 945 0004 124E     		ldr	r6, .L44	@ tmp128,
 946              	.LBB103:
 947              	.LBB100:
 948              		.loc 2 104 0
 949 0006 E405     		lsl	r4, r4, #23	@ tmp154, tmp154,
 950 0008 3378     		ldrb	r3, [r6]	@ D.6618, _cs_gpio
 951              	.LBE100:
 952              	.LBE103:
 256:../../lpc11cx4-library/evt_lib/src/mcp2515.c **** 	set_gpio_pin_low(_cs_gpio, _cs_pin);
 953              		.loc 1 256 0
 954 000a 0192     		str	r2, [sp, #4]	@ data, %sfp
 955              	.LBB104:
 956              	.LBB101:
 957              		.loc 2 104 0
 958 000c 1B04     		lsl	r3, r3, #16	@ D.6618, D.6618,
 959 000e 1B19     		add	r3, r3, r4	@ D.6619, D.6618, tmp154
 960 0010 0124     		mov	r4, #1	@ tmp133,
 961 0012 1A1C     		mov	r2, r3	@ D.6619, D.6619
 962              	.LVL67:
 963 0014 231C     		mov	r3, r4	@ D.6620, tmp133
 964              	.LBE101:
 965              	.LBE104:
 966              		.loc 1 257 0
 967 0016 0F4D     		ldr	r5, .L44+4	@ tmp131,
 258:../../lpc11cx4-library/evt_lib/src/mcp2515.c **** 	Tx_Buf[0] = MCP2515_BIT_MODIFY;
 259:../../lpc11cx4-library/evt_lib/src/mcp2515.c **** 	Tx_Buf[1] = address;
 260:../../lpc11cx4-library/evt_lib/src/mcp2515.c **** 	Tx_Buf[2] = mask;
ARM GAS  /tmp/ccRhXGbn.s 			page 25


 261:../../lpc11cx4-library/evt_lib/src/mcp2515.c **** 	Tx_Buf[3] = data;
 262:../../lpc11cx4-library/evt_lib/src/mcp2515.c **** 	Chip_SSP_WriteFrames_Blocking(LPC_SSP, Tx_Buf, 4);
 263:../../lpc11cx4-library/evt_lib/src/mcp2515.c **** 	set_gpio_pin_high(_cs_gpio, _cs_pin);
 264:../../lpc11cx4-library/evt_lib/src/mcp2515.c **** }
 968              		.loc 1 264 0
 969              		@ sp needed	@
 970              	.LBB105:
 971              	.LBB102:
 972              		.loc 2 104 0
 973 0018 2F78     		ldrb	r7, [r5]	@ D.6620, _cs_pin
 974 001a BB40     		lsl	r3, r3, r7	@ D.6620, D.6620, D.6620
 975 001c 9F00     		lsl	r7, r3, #2	@ tmp134, D.6620,
 976 001e 0023     		mov	r3, #0	@ tmp135,
 977 0020 BB50     		str	r3, [r7, r2]	@ tmp135, _18->DATA
 978              	.LVL68:
 979              	.LBE102:
 980              	.LBE105:
 261:../../lpc11cx4-library/evt_lib/src/mcp2515.c **** 	Chip_SSP_WriteFrames_Blocking(LPC_SSP, Tx_Buf, 4);
 981              		.loc 1 261 0
 982 0022 6A46     		mov	r2, sp	@ tmp162,
 258:../../lpc11cx4-library/evt_lib/src/mcp2515.c **** 	Tx_Buf[0] = MCP2515_BIT_MODIFY;
 983              		.loc 1 258 0
 984 0024 0527     		mov	r7, #5	@ tmp137,
 985 0026 0C4B     		ldr	r3, .L44+8	@ tmp136,
 261:../../lpc11cx4-library/evt_lib/src/mcp2515.c **** 	Chip_SSP_WriteFrames_Blocking(LPC_SSP, Tx_Buf, 4);
 986              		.loc 1 261 0
 987 0028 1279     		ldrb	r2, [r2, #4]	@, %sfp
 259:../../lpc11cx4-library/evt_lib/src/mcp2515.c **** 	Tx_Buf[2] = mask;
 988              		.loc 1 259 0
 989 002a 5870     		strb	r0, [r3, #1]	@ address, Tx_Buf
 260:../../lpc11cx4-library/evt_lib/src/mcp2515.c **** 	Tx_Buf[3] = data;
 990              		.loc 1 260 0
 991 002c 9970     		strb	r1, [r3, #2]	@ mask, Tx_Buf
 261:../../lpc11cx4-library/evt_lib/src/mcp2515.c **** 	Chip_SSP_WriteFrames_Blocking(LPC_SSP, Tx_Buf, 4);
 992              		.loc 1 261 0
 993 002e DA70     		strb	r2, [r3, #3]	@ tmp161, Tx_Buf
 262:../../lpc11cx4-library/evt_lib/src/mcp2515.c **** 	set_gpio_pin_high(_cs_gpio, _cs_pin);
 994              		.loc 1 262 0
 995 0030 191C     		mov	r1, r3	@, tmp136
 996              	.LVL69:
 997 0032 0422     		mov	r2, #4	@,
 998 0034 0948     		ldr	r0, .L44+12	@,
 999              	.LVL70:
 258:../../lpc11cx4-library/evt_lib/src/mcp2515.c **** 	Tx_Buf[1] = address;
 1000              		.loc 1 258 0
 1001 0036 1F70     		strb	r7, [r3]	@ tmp137, Tx_Buf
 262:../../lpc11cx4-library/evt_lib/src/mcp2515.c **** 	set_gpio_pin_high(_cs_gpio, _cs_pin);
 1002              		.loc 1 262 0
 1003 0038 FFF7FEFF 		bl	Chip_SSP_WriteFrames_Blocking	@
 1004              	.LVL71:
 1005              	.LBB106:
 1006              	.LBB107:
 1007              		.loc 2 104 0
 1008 003c A022     		mov	r2, #160	@ tmp158,
 1009 003e 3378     		ldrb	r3, [r6]	@ D.6618, _cs_gpio
 1010 0040 D205     		lsl	r2, r2, #23	@ tmp158, tmp158,
 1011 0042 1B04     		lsl	r3, r3, #16	@ D.6618, D.6618,
ARM GAS  /tmp/ccRhXGbn.s 			page 26


 1012 0044 9B18     		add	r3, r3, r2	@ D.6619, D.6618, tmp158
 1013 0046 2A78     		ldrb	r2, [r5]	@ D.6620, _cs_pin
 1014 0048 9440     		lsl	r4, r4, r2	@ D.6620, tmp133, D.6620
 1015 004a A200     		lsl	r2, r4, #2	@ tmp153, D.6620,
 1016 004c D450     		str	r4, [r2, r3]	@ D.6620, _22->DATA
 1017              	.LVL72:
 1018              	.LBE107:
 1019              	.LBE106:
 1020              		.loc 1 264 0
 1021 004e F7BD     		pop	{r0, r1, r2, r4, r5, r6, r7, pc}
 1022              	.L45:
 1023              		.align	2
 1024              	.L44:
 1025 0050 00000000 		.word	_cs_gpio
 1026 0054 00000000 		.word	_cs_pin
 1027 0058 00000000 		.word	.LANCHOR1
 1028 005c 00000440 		.word	1074003968
 1029              		.cfi_endproc
 1030              	.LFE209:
 1031              		.size	MCP2515_BitModify, .-MCP2515_BitModify
 1032              		.section	.text.MCP2515_GetFullReceiveBuffer,"ax",%progbits
 1033              		.align	1
 1034              		.global	MCP2515_GetFullReceiveBuffer
 1035              		.code	16
 1036              		.thumb_func
 1037              		.type	MCP2515_GetFullReceiveBuffer, %function
 1038              	MCP2515_GetFullReceiveBuffer:
 1039              	.LFB201:
 119:../../lpc11cx4-library/evt_lib/src/mcp2515.c **** 	if (Chip_GPIO_GetPinState(LPC_GPIO, _int_gpio, _int_pin))
 1040              		.loc 1 119 0
 1041              		.cfi_startproc
 1042              	.LVL73:
 1043 0000 73B5     		push	{r0, r1, r4, r5, r6, lr}	@
 1044              		.cfi_def_cfa_offset 24
 1045              		.cfi_offset 0, -24
 1046              		.cfi_offset 1, -20
 1047              		.cfi_offset 4, -16
 1048              		.cfi_offset 5, -12
 1049              		.cfi_offset 6, -8
 1050              		.cfi_offset 14, -4
 1051              	.LBB108:
 1052              	.LBB109:
 105:../../lpc11cx4-library/lpc_chip_11cxx_lib/inc/gpio_11xx_2.h **** }
 106:../../lpc11cx4-library/lpc_chip_11cxx_lib/inc/gpio_11xx_2.h **** 
 107:../../lpc11cx4-library/lpc_chip_11cxx_lib/inc/gpio_11xx_2.h **** /**
 108:../../lpc11cx4-library/lpc_chip_11cxx_lib/inc/gpio_11xx_2.h ****  * @brief	Read a GPIO state
 109:../../lpc11cx4-library/lpc_chip_11cxx_lib/inc/gpio_11xx_2.h ****  * @param	pGPIO	: The base of GPIO peripheral on the chip
 110:../../lpc11cx4-library/lpc_chip_11cxx_lib/inc/gpio_11xx_2.h ****  * @param	port	: GPIO port to read
 111:../../lpc11cx4-library/lpc_chip_11cxx_lib/inc/gpio_11xx_2.h ****  * @param	bit		: GPIO bit to read
 112:../../lpc11cx4-library/lpc_chip_11cxx_lib/inc/gpio_11xx_2.h ****  * @return	true of the GPIO is high, false if low
 113:../../lpc11cx4-library/lpc_chip_11cxx_lib/inc/gpio_11xx_2.h ****  * @note	It is recommended to use the Chip_GPIO_GetPinState() function instead.
 114:../../lpc11cx4-library/lpc_chip_11cxx_lib/inc/gpio_11xx_2.h ****  */
 115:../../lpc11cx4-library/lpc_chip_11cxx_lib/inc/gpio_11xx_2.h **** STATIC INLINE bool Chip_GPIO_ReadPortBit(LPC_GPIO_T *pGPIO, uint32_t port, uint8_t bit)
 116:../../lpc11cx4-library/lpc_chip_11cxx_lib/inc/gpio_11xx_2.h **** {
 117:../../lpc11cx4-library/lpc_chip_11cxx_lib/inc/gpio_11xx_2.h **** 	return (bool) ((pGPIO[port].DATA[1 << bit] >> bit) & 1);
 118:../../lpc11cx4-library/lpc_chip_11cxx_lib/inc/gpio_11xx_2.h **** }
 119:../../lpc11cx4-library/lpc_chip_11cxx_lib/inc/gpio_11xx_2.h **** 
ARM GAS  /tmp/ccRhXGbn.s 			page 27


 120:../../lpc11cx4-library/lpc_chip_11cxx_lib/inc/gpio_11xx_2.h **** /**
 121:../../lpc11cx4-library/lpc_chip_11cxx_lib/inc/gpio_11xx_2.h ****  * @brief	Get a GPIO pin state via the GPIO byte register
 122:../../lpc11cx4-library/lpc_chip_11cxx_lib/inc/gpio_11xx_2.h ****  * @param	pGPIO	: The base of GPIO peripheral on the chip
 123:../../lpc11cx4-library/lpc_chip_11cxx_lib/inc/gpio_11xx_2.h ****  * @param	port	: Port number
 124:../../lpc11cx4-library/lpc_chip_11cxx_lib/inc/gpio_11xx_2.h ****  * @param	pin		: GPIO pin to get state for
 125:../../lpc11cx4-library/lpc_chip_11cxx_lib/inc/gpio_11xx_2.h ****  * @return	true if the GPIO is high, false if low
 126:../../lpc11cx4-library/lpc_chip_11cxx_lib/inc/gpio_11xx_2.h ****  * @note	This function replaces Chip_GPIO_ReadPortBit()
 127:../../lpc11cx4-library/lpc_chip_11cxx_lib/inc/gpio_11xx_2.h ****  */
 128:../../lpc11cx4-library/lpc_chip_11cxx_lib/inc/gpio_11xx_2.h **** STATIC INLINE bool Chip_GPIO_GetPinState(LPC_GPIO_T *pGPIO, uint8_t port, uint8_t pin)
 129:../../lpc11cx4-library/lpc_chip_11cxx_lib/inc/gpio_11xx_2.h **** {
 130:../../lpc11cx4-library/lpc_chip_11cxx_lib/inc/gpio_11xx_2.h **** 	return (pGPIO[port].DATA[1 << pin]) != 0;
 1053              		.loc 2 130 0
 1054 0002 0124     		mov	r4, #1	@ tmp129,
 1055 0004 A022     		mov	r2, #160	@ tmp147,
 1056 0006 211C     		mov	r1, r4	@ D.6629, tmp129
 1057              	.LBE109:
 1058              	.LBE108:
 120:../../lpc11cx4-library/evt_lib/src/mcp2515.c **** 		return -1;
 1059              		.loc 1 120 0
 1060 0008 184B     		ldr	r3, .L55	@ tmp124,
 1061              	.LBB112:
 1062              	.LBB110:
 1063              		.loc 2 130 0
 1064 000a D205     		lsl	r2, r2, #23	@ tmp147, tmp147,
 1065 000c 1B78     		ldrb	r3, [r3]	@ D.6627, _int_gpio
 1066 000e 1B04     		lsl	r3, r3, #16	@ D.6627, D.6627,
 1067 0010 9B18     		add	r3, r3, r2	@ D.6628, D.6627, tmp147
 1068              	.LBE110:
 1069              	.LBE112:
 120:../../lpc11cx4-library/evt_lib/src/mcp2515.c **** 		return -1;
 1070              		.loc 1 120 0
 1071 0012 174A     		ldr	r2, .L55+4	@ tmp127,
 1072              	.LBB113:
 1073              	.LBB111:
 1074              		.loc 2 130 0
 1075 0014 1278     		ldrb	r2, [r2]	@ D.6629, _int_pin
 1076 0016 9140     		lsl	r1, r1, r2	@ D.6629, D.6629, D.6629
 1077 0018 8A00     		lsl	r2, r1, #2	@ tmp130, D.6629,
 1078 001a D658     		ldr	r6, [r2, r3]	@ D.6630, _16->DATA
 1079              	.LBE111:
 1080              	.LBE113:
 120:../../lpc11cx4-library/evt_lib/src/mcp2515.c **** 		return -1;
 1081              		.loc 1 120 0
 1082 001c 002E     		cmp	r6, #0	@ D.6630,
 1083 001e 01D0     		beq	.L47	@,
 1084              	.LVL74:
 1085              	.L51:
 121:../../lpc11cx4-library/evt_lib/src/mcp2515.c **** 	uint8_t tmp;
 1086              		.loc 1 121 0
 1087 0020 FF24     		mov	r4, #255	@ D.6625,
 1088 0022 21E0     		b	.L48	@
 1089              	.LVL75:
 1090              	.L47:
 123:../../lpc11cx4-library/evt_lib/src/mcp2515.c **** 	if (tmp & 0x3) {
 1091              		.loc 1 123 0
 1092 0024 6B46     		mov	r3, sp	@ tmp149,
 1093 0026 DD1D     		add	r5, r3, #7	@ tmp131, tmp149,
ARM GAS  /tmp/ccRhXGbn.s 			page 28


 1094 0028 291C     		mov	r1, r5	@, tmp131
 1095 002a 2C20     		mov	r0, #44	@,
 1096 002c 221C     		mov	r2, r4	@, tmp129
 1097 002e FFF7FEFF 		bl	MCP2515_Read	@
 1098              	.LVL76:
 124:../../lpc11cx4-library/evt_lib/src/mcp2515.c **** 		MCP2515_BitModify(CANINTF, 0x03, 0x00);
 1099              		.loc 1 124 0
 1100 0032 2B78     		ldrb	r3, [r5]	@ D.6626, tmp
 1101 0034 0321     		mov	r1, #3	@ tmp134,
 1102 0036 1D1C     		mov	r5, r3	@ tmp136, D.6626
 1103 0038 0D40     		and	r5, r1	@ tmp136, tmp134
 1104 003a 05D0     		beq	.L49	@,
 125:../../lpc11cx4-library/evt_lib/src/mcp2515.c **** 		return 2;
 1105              		.loc 1 125 0
 1106 003c 2C20     		mov	r0, #44	@,
 1107 003e 321C     		mov	r2, r6	@, D.6630
 1108 0040 FFF7FEFF 		bl	MCP2515_BitModify	@
 1109              	.LVL77:
 126:../../lpc11cx4-library/evt_lib/src/mcp2515.c **** 	} else if (tmp & 0x1) {
 1110              		.loc 1 126 0
 1111 0044 0224     		mov	r4, #2	@ D.6625,
 1112 0046 0FE0     		b	.L48	@
 1113              	.L49:
 127:../../lpc11cx4-library/evt_lib/src/mcp2515.c **** 		MCP2515_BitModify(CANINTF, 0x01, 0x00);
 1114              		.loc 1 127 0
 1115 0048 1A1C     		mov	r2, r3	@ tmp140, D.6626
 1116 004a 2240     		and	r2, r4	@ tmp140, tmp129
 1117 004c 06D0     		beq	.L50	@,
 128:../../lpc11cx4-library/evt_lib/src/mcp2515.c **** 		return 0;
 1118              		.loc 1 128 0
 1119 004e 211C     		mov	r1, r4	@, tmp129
 1120 0050 2C20     		mov	r0, #44	@,
 1121 0052 2A1C     		mov	r2, r5	@, tmp136
 1122 0054 FFF7FEFF 		bl	MCP2515_BitModify	@
 1123              	.LVL78:
 129:../../lpc11cx4-library/evt_lib/src/mcp2515.c **** 	} else if (tmp & 0x2) {
 1124              		.loc 1 129 0
 1125 0058 2C1C     		mov	r4, r5	@ D.6625, tmp136
 1126 005a 05E0     		b	.L48	@
 1127              	.L50:
 130:../../lpc11cx4-library/evt_lib/src/mcp2515.c **** 		MCP2515_BitModify(CANINTF, 0x02, 0x00);
 1128              		.loc 1 130 0
 1129 005c 0221     		mov	r1, #2	@ tmp142,
 1130 005e 0B42     		tst	r3, r1	@ D.6626, tmp142
 1131 0060 DED0     		beq	.L51	@,
 131:../../lpc11cx4-library/evt_lib/src/mcp2515.c **** 		return 1;
 1132              		.loc 1 131 0
 1133 0062 2C20     		mov	r0, #44	@,
 1134 0064 FFF7FEFF 		bl	MCP2515_BitModify	@
 1135              	.LVL79:
 1136              	.L48:
 1137 0068 60B2     		sxtb	r0, r4	@ D.6625, D.6625
 136:../../lpc11cx4-library/evt_lib/src/mcp2515.c **** 
 1138              		.loc 1 136 0
 1139              		@ sp needed	@
 1140 006a 76BD     		pop	{r1, r2, r4, r5, r6, pc}
 1141              	.L56:
ARM GAS  /tmp/ccRhXGbn.s 			page 29


 1142              		.align	2
 1143              	.L55:
 1144 006c 00000000 		.word	_int_gpio
 1145 0070 00000000 		.word	_int_pin
 1146              		.cfi_endproc
 1147              	.LFE201:
 1148              		.size	MCP2515_GetFullReceiveBuffer, .-MCP2515_GetFullReceiveBuffer
 1149              		.section	.text.MCP2515_GetEmptyTransmitBuffer,"ax",%progbits
 1150              		.align	1
 1151              		.global	MCP2515_GetEmptyTransmitBuffer
 1152              		.code	16
 1153              		.thumb_func
 1154              		.type	MCP2515_GetEmptyTransmitBuffer, %function
 1155              	MCP2515_GetEmptyTransmitBuffer:
 1156              	.LFB202:
 138:../../lpc11cx4-library/evt_lib/src/mcp2515.c **** 	if (Chip_GPIO_GetPinState(LPC_GPIO, _int_gpio, _int_pin))
 1157              		.loc 1 138 0
 1158              		.cfi_startproc
 1159              	.LVL80:
 1160 0000 73B5     		push	{r0, r1, r4, r5, r6, lr}	@
 1161              		.cfi_def_cfa_offset 24
 1162              		.cfi_offset 0, -24
 1163              		.cfi_offset 1, -20
 1164              		.cfi_offset 4, -16
 1165              		.cfi_offset 5, -12
 1166              		.cfi_offset 6, -8
 1167              		.cfi_offset 14, -4
 1168              	.LBB114:
 1169              	.LBB115:
 1170              		.loc 2 130 0
 1171 0002 0124     		mov	r4, #1	@ tmp129,
 1172 0004 A022     		mov	r2, #160	@ tmp147,
 1173 0006 211C     		mov	r1, r4	@ D.6637, tmp129
 1174              	.LBE115:
 1175              	.LBE114:
 139:../../lpc11cx4-library/evt_lib/src/mcp2515.c **** 		return -1;
 1176              		.loc 1 139 0
 1177 0008 194B     		ldr	r3, .L66	@ tmp124,
 1178              	.LBB118:
 1179              	.LBB116:
 1180              		.loc 2 130 0
 1181 000a D205     		lsl	r2, r2, #23	@ tmp147, tmp147,
 1182 000c 1B78     		ldrb	r3, [r3]	@ D.6635, _int_gpio
 1183 000e 1B04     		lsl	r3, r3, #16	@ D.6635, D.6635,
 1184 0010 9B18     		add	r3, r3, r2	@ D.6636, D.6635, tmp147
 1185              	.LBE116:
 1186              	.LBE118:
 139:../../lpc11cx4-library/evt_lib/src/mcp2515.c **** 		return -1;
 1187              		.loc 1 139 0
 1188 0012 184A     		ldr	r2, .L66+4	@ tmp127,
 1189              	.LBB119:
 1190              	.LBB117:
 1191              		.loc 2 130 0
 1192 0014 1278     		ldrb	r2, [r2]	@ D.6637, _int_pin
 1193 0016 9140     		lsl	r1, r1, r2	@ D.6637, D.6637, D.6637
 1194 0018 8A00     		lsl	r2, r1, #2	@ tmp130, D.6637,
 1195 001a D558     		ldr	r5, [r2, r3]	@ D.6638, _16->DATA
ARM GAS  /tmp/ccRhXGbn.s 			page 30


 1196              	.LBE117:
 1197              	.LBE119:
 139:../../lpc11cx4-library/evt_lib/src/mcp2515.c **** 		return -1;
 1198              		.loc 1 139 0
 1199 001c 002D     		cmp	r5, #0	@ D.6638,
 1200 001e 01D0     		beq	.L58	@,
 1201              	.LVL81:
 1202              	.L62:
 140:../../lpc11cx4-library/evt_lib/src/mcp2515.c **** 	uint8_t tmp;
 1203              		.loc 1 140 0
 1204 0020 FF22     		mov	r2, #255	@ D.6633,
 1205 0022 22E0     		b	.L59	@
 1206              	.LVL82:
 1207              	.L58:
 142:../../lpc11cx4-library/evt_lib/src/mcp2515.c **** 	if (tmp & 0x4) {
 1208              		.loc 1 142 0
 1209 0024 6B46     		mov	r3, sp	@ tmp149,
 1210 0026 DE1D     		add	r6, r3, #7	@ tmp131, tmp149,
 1211 0028 311C     		mov	r1, r6	@, tmp131
 1212 002a 2C20     		mov	r0, #44	@,
 1213 002c 221C     		mov	r2, r4	@, tmp129
 1214 002e FFF7FEFF 		bl	MCP2515_Read	@
 1215              	.LVL83:
 143:../../lpc11cx4-library/evt_lib/src/mcp2515.c **** 		MCP2515_BitModify(CANINTF, 0x04, 0x00);
 1216              		.loc 1 143 0
 1217 0032 3378     		ldrb	r3, [r6]	@ D.6634, tmp
 1218 0034 0421     		mov	r1, #4	@ tmp134,
 1219 0036 1E1C     		mov	r6, r3	@ tmp136, D.6634
 1220 0038 0E40     		and	r6, r1	@ tmp136, tmp134
 1221 003a 05D0     		beq	.L60	@,
 144:../../lpc11cx4-library/evt_lib/src/mcp2515.c **** 		return 0;
 1222              		.loc 1 144 0
 1223 003c 2A1C     		mov	r2, r5	@, D.6638
 1224 003e 2C20     		mov	r0, #44	@,
 1225 0040 FFF7FEFF 		bl	MCP2515_BitModify	@
 1226              	.LVL84:
 145:../../lpc11cx4-library/evt_lib/src/mcp2515.c **** 	} else if (tmp & 0x8) {
 1227              		.loc 1 145 0
 1228 0044 2A1C     		mov	r2, r5	@ D.6633, D.6638
 1229 0046 10E0     		b	.L59	@
 1230              	.L60:
 146:../../lpc11cx4-library/evt_lib/src/mcp2515.c **** 		MCP2515_BitModify(CANINTF, 0x08, 0x00);
 1231              		.loc 1 146 0
 1232 0048 0821     		mov	r1, #8	@ tmp138,
 1233 004a 1A1C     		mov	r2, r3	@ tmp140, D.6634
 1234 004c 0A40     		and	r2, r1	@ tmp140, tmp138
 1235 004e 05D0     		beq	.L61	@,
 147:../../lpc11cx4-library/evt_lib/src/mcp2515.c **** 		return 1;
 1236              		.loc 1 147 0
 1237 0050 321C     		mov	r2, r6	@, tmp136
 1238 0052 2C20     		mov	r0, #44	@,
 1239 0054 FFF7FEFF 		bl	MCP2515_BitModify	@
 1240              	.LVL85:
 148:../../lpc11cx4-library/evt_lib/src/mcp2515.c **** 	} else if (tmp & 0x10) { 
 1241              		.loc 1 148 0
 1242 0058 221C     		mov	r2, r4	@ D.6633, tmp129
 1243 005a 06E0     		b	.L59	@
ARM GAS  /tmp/ccRhXGbn.s 			page 31


 1244              	.L61:
 149:../../lpc11cx4-library/evt_lib/src/mcp2515.c **** 		MCP2515_BitModify(CANINTF, 0x10, 0x00);
 1245              		.loc 1 149 0
 1246 005c 1021     		mov	r1, #16	@ tmp142,
 1247 005e 0B42     		tst	r3, r1	@ D.6634, tmp142
 1248 0060 DED0     		beq	.L62	@,
 150:../../lpc11cx4-library/evt_lib/src/mcp2515.c **** 		return 2;
 1249              		.loc 1 150 0
 1250 0062 2C20     		mov	r0, #44	@,
 1251 0064 FFF7FEFF 		bl	MCP2515_BitModify	@
 1252              	.LVL86:
 151:../../lpc11cx4-library/evt_lib/src/mcp2515.c **** 	} else {
 1253              		.loc 1 151 0
 1254 0068 0222     		mov	r2, #2	@ D.6633,
 1255              	.L59:
 1256 006a 50B2     		sxtb	r0, r2	@ D.6633, D.6633
 155:../../lpc11cx4-library/evt_lib/src/mcp2515.c **** 
 1257              		.loc 1 155 0
 1258              		@ sp needed	@
 1259 006c 76BD     		pop	{r1, r2, r4, r5, r6, pc}
 1260              	.L67:
 1261 006e C046     		.align	2
 1262              	.L66:
 1263 0070 00000000 		.word	_int_gpio
 1264 0074 00000000 		.word	_int_pin
 1265              		.cfi_endproc
 1266              	.LFE202:
 1267              		.size	MCP2515_GetEmptyTransmitBuffer, .-MCP2515_GetEmptyTransmitBuffer
 1268              		.section	.text.MCP2515_Mode,"ax",%progbits
 1269              		.align	1
 1270              		.global	MCP2515_Mode
 1271              		.code	16
 1272              		.thumb_func
 1273              		.type	MCP2515_Mode, %function
 1274              	MCP2515_Mode:
 1275              	.LFB210:
 265:../../lpc11cx4-library/evt_lib/src/mcp2515.c **** 
 266:../../lpc11cx4-library/evt_lib/src/mcp2515.c **** bool MCP2515_Mode(uint8_t mode) {
 1276              		.loc 1 266 0
 1277              		.cfi_startproc
 1278              	.LVL87:
 1279 0000 37B5     		push	{r0, r1, r2, r4, r5, lr}	@
 1280              		.cfi_def_cfa_offset 24
 1281              		.cfi_offset 0, -24
 1282              		.cfi_offset 1, -20
 1283              		.cfi_offset 2, -16
 1284              		.cfi_offset 4, -12
 1285              		.cfi_offset 5, -8
 1286              		.cfi_offset 14, -4
 1287              		.loc 1 266 0
 1288 0002 041C     		mov	r4, r0	@ mode, mode
 267:../../lpc11cx4-library/evt_lib/src/mcp2515.c **** 	MCP2515_BitModify(CANCTRL, MODE_MASK, mode);
 1289              		.loc 1 267 0
 1290 0004 E021     		mov	r1, #224	@,
 1291 0006 221C     		mov	r2, r4	@, mode
 1292 0008 0F20     		mov	r0, #15	@,
 1293              	.LVL88:
ARM GAS  /tmp/ccRhXGbn.s 			page 32


 1294 000a FFF7FEFF 		bl	MCP2515_BitModify	@
 1295              	.LVL89:
 268:../../lpc11cx4-library/evt_lib/src/mcp2515.c **** 	uint8_t data = 0;
 1296              		.loc 1 268 0
 1297 000e 6B46     		mov	r3, sp	@ tmp130,
 1298 0010 DD1D     		add	r5, r3, #7	@ tmp115, tmp130,
 1299 0012 0023     		mov	r3, #0	@ tmp116,
 269:../../lpc11cx4-library/evt_lib/src/mcp2515.c **** 	MCP2515_Read(CANSTAT, &data, 1);
 1300              		.loc 1 269 0
 1301 0014 291C     		mov	r1, r5	@, tmp115
 1302 0016 0E20     		mov	r0, #14	@,
 1303 0018 0122     		mov	r2, #1	@,
 268:../../lpc11cx4-library/evt_lib/src/mcp2515.c **** 	uint8_t data = 0;
 1304              		.loc 1 268 0
 1305 001a 2B70     		strb	r3, [r5]	@ tmp116, data
 1306              		.loc 1 269 0
 1307 001c FFF7FEFF 		bl	MCP2515_Read	@
 1308              	.LVL90:
 270:../../lpc11cx4-library/evt_lib/src/mcp2515.c **** 	return ((data & mode) == mode);
 1309              		.loc 1 270 0
 1310 0020 2878     		ldrb	r0, [r5]	@ data, data
 271:../../lpc11cx4-library/evt_lib/src/mcp2515.c **** }
 1311              		.loc 1 271 0
 1312              		@ sp needed	@
 270:../../lpc11cx4-library/evt_lib/src/mcp2515.c **** 	return ((data & mode) == mode);
 1313              		.loc 1 270 0
 1314 0022 2040     		and	r0, r4	@ tmp125, mode
 1315 0024 001B     		sub	r0, r0, r4	@ tmp127, tmp125, mode
 1316 0026 4342     		neg	r3, r0	@ tmp128, tmp127
 1317 0028 5841     		adc	r0, r0, r3	@ tmp126, tmp127, tmp128
 1318 002a C0B2     		uxtb	r0, r0	@ D.6642, tmp126
 1319              		.loc 1 271 0
 1320 002c 3EBD     		pop	{r1, r2, r3, r4, r5, pc}
 1321              		.cfi_endproc
 1322              	.LFE210:
 1323              		.size	MCP2515_Mode, .-MCP2515_Mode
 1324              		.section	.text.MCP2515_Reset,"ax",%progbits
 1325              		.align	1
 1326              		.global	MCP2515_Reset
 1327              		.code	16
 1328              		.thumb_func
 1329              		.type	MCP2515_Reset, %function
 1330              	MCP2515_Reset:
 1331              	.LFB200:
 111:../../lpc11cx4-library/evt_lib/src/mcp2515.c **** 	set_gpio_pin_low(_cs_gpio, _cs_pin);
 1332              		.loc 1 111 0
 1333              		.cfi_startproc
 1334              	.LVL91:
 1335 0000 70B5     		push	{r4, r5, r6, lr}	@
 1336              		.cfi_def_cfa_offset 16
 1337              		.cfi_offset 4, -16
 1338              		.cfi_offset 5, -12
 1339              		.cfi_offset 6, -8
 1340              		.cfi_offset 14, -4
 1341              	.LBB120:
 1342              	.LBB121:
 104:../../lpc11cx4-library/lpc_chip_11cxx_lib/inc/gpio_11xx_2.h **** }
ARM GAS  /tmp/ccRhXGbn.s 			page 33


 1343              		.loc 2 104 0
 1344 0002 0124     		mov	r4, #1	@ tmp130,
 1345 0004 A022     		mov	r2, #160	@ tmp145,
 1346 0006 211C     		mov	r1, r4	@ D.6648, tmp130
 1347              	.LBE121:
 1348              	.LBE120:
 112:../../lpc11cx4-library/evt_lib/src/mcp2515.c **** 	Tx_Buf[0] = MCP2515_RESET; // Reset Command
 1349              		.loc 1 112 0
 1350 0008 0F4E     		ldr	r6, .L70	@ tmp125,
 1351 000a 104D     		ldr	r5, .L70+4	@ tmp128,
 1352              	.LBB124:
 1353              	.LBB122:
 104:../../lpc11cx4-library/lpc_chip_11cxx_lib/inc/gpio_11xx_2.h **** }
 1354              		.loc 2 104 0
 1355 000c 3378     		ldrb	r3, [r6]	@ D.6646, _cs_gpio
 1356 000e D205     		lsl	r2, r2, #23	@ tmp145, tmp145,
 1357 0010 1B04     		lsl	r3, r3, #16	@ D.6646, D.6646,
 1358 0012 9B18     		add	r3, r3, r2	@ D.6647, D.6646, tmp145
 1359 0014 2A78     		ldrb	r2, [r5]	@ D.6648, _cs_pin
 1360              	.LBE122:
 1361              	.LBE124:
 114:../../lpc11cx4-library/evt_lib/src/mcp2515.c **** 	set_gpio_pin_high(_cs_gpio, _cs_pin);
 1362              		.loc 1 114 0
 1363 0016 0E48     		ldr	r0, .L70+8	@,
 1364              	.LBB125:
 1365              	.LBB123:
 104:../../lpc11cx4-library/lpc_chip_11cxx_lib/inc/gpio_11xx_2.h **** }
 1366              		.loc 2 104 0
 1367 0018 9140     		lsl	r1, r1, r2	@ D.6648, D.6648, D.6648
 1368 001a 8A00     		lsl	r2, r1, #2	@ tmp131, D.6648,
 1369 001c 0021     		mov	r1, #0	@ tmp132,
 1370 001e D150     		str	r1, [r2, r3]	@ tmp132, _13->DATA
 1371              	.LVL92:
 1372              	.LBE123:
 1373              	.LBE125:
 113:../../lpc11cx4-library/evt_lib/src/mcp2515.c **** 	Chip_SSP_WriteFrames_Blocking(LPC_SSP, Tx_Buf, 1);
 1374              		.loc 1 113 0
 1375 0020 C023     		mov	r3, #192	@ tmp134,
 1376 0022 0C49     		ldr	r1, .L70+12	@ tmp133,
 114:../../lpc11cx4-library/evt_lib/src/mcp2515.c **** 	set_gpio_pin_high(_cs_gpio, _cs_pin);
 1377              		.loc 1 114 0
 1378 0024 221C     		mov	r2, r4	@, tmp130
 113:../../lpc11cx4-library/evt_lib/src/mcp2515.c **** 	Chip_SSP_WriteFrames_Blocking(LPC_SSP, Tx_Buf, 1);
 1379              		.loc 1 113 0
 1380 0026 0B70     		strb	r3, [r1]	@ tmp134, Tx_Buf
 114:../../lpc11cx4-library/evt_lib/src/mcp2515.c **** 	set_gpio_pin_high(_cs_gpio, _cs_pin);
 1381              		.loc 1 114 0
 1382 0028 FFF7FEFF 		bl	Chip_SSP_WriteFrames_Blocking	@
 1383              	.LVL93:
 1384              	.LBB126:
 1385              	.LBB127:
 104:../../lpc11cx4-library/lpc_chip_11cxx_lib/inc/gpio_11xx_2.h **** }
 1386              		.loc 2 104 0
 1387 002c A022     		mov	r2, #160	@ tmp147,
 1388 002e 3378     		ldrb	r3, [r6]	@ D.6646, _cs_gpio
 1389 0030 D205     		lsl	r2, r2, #23	@ tmp147, tmp147,
 1390 0032 1B04     		lsl	r3, r3, #16	@ D.6646, D.6646,
ARM GAS  /tmp/ccRhXGbn.s 			page 34


 1391 0034 9B18     		add	r3, r3, r2	@ D.6647, D.6646, tmp147
 1392 0036 2A78     		ldrb	r2, [r5]	@ D.6648, _cs_pin
 1393              	.LBE127:
 1394              	.LBE126:
 116:../../lpc11cx4-library/evt_lib/src/mcp2515.c **** }
 1395              		.loc 1 116 0
 1396 0038 8020     		mov	r0, #128	@,
 1397              	.LBB129:
 1398              	.LBB128:
 104:../../lpc11cx4-library/lpc_chip_11cxx_lib/inc/gpio_11xx_2.h **** }
 1399              		.loc 2 104 0
 1400 003a 9440     		lsl	r4, r4, r2	@ D.6648, tmp130, D.6648
 1401 003c A200     		lsl	r2, r4, #2	@ tmp144, D.6648,
 1402 003e D450     		str	r4, [r2, r3]	@ D.6648, _17->DATA
 1403              	.LVL94:
 1404              	.LBE128:
 1405              	.LBE129:
 116:../../lpc11cx4-library/evt_lib/src/mcp2515.c **** }
 1406              		.loc 1 116 0
 1407 0040 FFF7FEFF 		bl	MCP2515_Mode	@
 1408              	.LVL95:
 117:../../lpc11cx4-library/evt_lib/src/mcp2515.c **** 
 1409              		.loc 1 117 0
 1410              		@ sp needed	@
 1411 0044 70BD     		pop	{r4, r5, r6, pc}
 1412              	.L71:
 1413 0046 C046     		.align	2
 1414              	.L70:
 1415 0048 00000000 		.word	_cs_gpio
 1416 004c 00000000 		.word	_cs_pin
 1417 0050 00000440 		.word	1074003968
 1418 0054 00000000 		.word	.LANCHOR1
 1419              		.cfi_endproc
 1420              	.LFE200:
 1421              		.size	MCP2515_Reset, .-MCP2515_Reset
 1422              		.global	__aeabi_uidiv
 1423              		.global	__aeabi_uldivmod
 1424              		.global	__aeabi_i2d
 1425              		.global	__aeabi_dmul
 1426              		.global	__aeabi_d2uiz
 1427              		.section	.text.MCP2515_SetBitRate,"ax",%progbits
 1428              		.align	1
 1429              		.global	MCP2515_SetBitRate
 1430              		.code	16
 1431              		.thumb_func
 1432              		.type	MCP2515_SetBitRate, %function
 1433              	MCP2515_SetBitRate:
 1434              	.LFB199:
  42:../../lpc11cx4-library/evt_lib/src/mcp2515.c **** 	if (SJW < 1) SJW = 1;
 1435              		.loc 1 42 0
 1436              		.cfi_startproc
 1437              	.LVL96:
 1438 0000 F0B5     		push	{r4, r5, r6, r7, lr}	@
 1439              		.cfi_def_cfa_offset 20
 1440              		.cfi_offset 4, -20
 1441              		.cfi_offset 5, -16
 1442              		.cfi_offset 6, -12
ARM GAS  /tmp/ccRhXGbn.s 			page 35


 1443              		.cfi_offset 7, -8
 1444              		.cfi_offset 14, -4
 1445 0002 041C     		mov	r4, r0	@ baud, baud
 1446 0004 85B0     		sub	sp, sp, #20	@,,
 1447              		.cfi_def_cfa_offset 40
  42:../../lpc11cx4-library/evt_lib/src/mcp2515.c **** 	if (SJW < 1) SJW = 1;
 1448              		.loc 1 42 0
 1449 0006 0F1C     		mov	r7, r1	@ freq, freq
 1450 0008 151E     		sub	r5, r2, #0	@ SJW, SJW,
  43:../../lpc11cx4-library/evt_lib/src/mcp2515.c **** 	if (SJW > 4) SJW = 4;
 1451              		.loc 1 43 0
 1452 000a 03D0     		beq	.L81	@,
  44:../../lpc11cx4-library/evt_lib/src/mcp2515.c **** 	if (baud > 0) {
 1453              		.loc 1 44 0
 1454 000c 042A     		cmp	r2, #4	@ SJW,
 1455 000e 02D9     		bls	.L74	@,
 1456 0010 0425     		mov	r5, #4	@ SJW,
 1457 0012 00E0     		b	.L74	@
 1458              	.L81:
  43:../../lpc11cx4-library/evt_lib/src/mcp2515.c **** 	if (SJW > 4) SJW = 4;
 1459              		.loc 1 43 0
 1460 0014 0125     		mov	r5, #1	@ SJW,
 1461              	.LVL97:
 1462              	.L74:
 105:../../lpc11cx4-library/evt_lib/src/mcp2515.c **** 	}
 1463              		.loc 1 105 0
 1464 0016 0520     		mov	r0, #5	@ D.6661,
 1465              	.LVL98:
  45:../../lpc11cx4-library/evt_lib/src/mcp2515.c **** 		MCP2515_Reset();
 1466              		.loc 1 45 0
 1467 0018 002C     		cmp	r4, #0	@ baud,
 1468 001a 6ED0     		beq	.L75	@,
 1469              	.LBB130:
  46:../../lpc11cx4-library/evt_lib/src/mcp2515.c **** 
 1470              		.loc 1 46 0
 1471 001c FFF7FEFF 		bl	MCP2515_Reset	@
 1472              	.LVL99:
  53:../../lpc11cx4-library/evt_lib/src/mcp2515.c **** 														// this will prevent rounding losses 
 1473              		.loc 1 53 0
 1474 0020 FA26     		mov	r6, #250	@ tmp168,
 1475 0022 3748     		ldr	r0, .L89	@,
 1476 0024 211C     		mov	r1, r4	@, baud
 1477 0026 FFF7FEFF 		bl	__aeabi_uidiv	@
 1478              	.LVL100:
 1479 002a 0023     		mov	r3, #0	@ ivtmp.114,
 1480 002c B600     		lsl	r6, r6, #2	@ tmp168, tmp168,
 1481 002e 4643     		mul	r6, r0	@ NBT, D.6662
 1482              	.LVL101:
 1483              	.L79:
 1484 0030 3448     		ldr	r0, .L89+4	@ tmp171,
 1485 0032 5C1C     		add	r4, r3, #1	@ D.6662, ivtmp.114,
 1486 0034 DAB2     		uxtb	r2, r3	@ BRP, ivtmp.114
  56:../../lpc11cx4-library/evt_lib/src/mcp2515.c **** 			tempBT = NBT / TQ; 							// The added 10K should cancel out here
 1487              		.loc 1 56 0
 1488 0036 391C     		mov	r1, r7	@, freq
 1489 0038 6043     		mul	r0, r4	@ D.6662, D.6662
 1490 003a 0192     		str	r2, [sp, #4]	@ BRP, %sfp
ARM GAS  /tmp/ccRhXGbn.s 			page 36


 1491              	.LVL102:
 1492 003c FFF7FEFF 		bl	__aeabi_uidiv	@
 1493              	.LVL103:
  57:../../lpc11cx4-library/evt_lib/src/mcp2515.c **** 			if (tempBT <= 25) {
 1494              		.loc 1 57 0
 1495 0040 0021     		mov	r1, #0	@,
  56:../../lpc11cx4-library/evt_lib/src/mcp2515.c **** 			tempBT = NBT / TQ; 							// The added 10K should cancel out here
 1496              		.loc 1 56 0
 1497 0042 021C     		mov	r2, r0	@ D.6662,
  57:../../lpc11cx4-library/evt_lib/src/mcp2515.c **** 			if (tempBT <= 25) {
 1498              		.loc 1 57 0
 1499 0044 0B1C     		mov	r3, r1	@,
 1500 0046 301C     		mov	r0, r6	@, NBT
 1501 0048 FFF7FEFF 		bl	__aeabi_uldivmod	@
 1502              	.LVL104:
  58:../../lpc11cx4-library/evt_lib/src/mcp2515.c **** 				BT = (int) tempBT;
 1503              		.loc 1 58 0
 1504 004c 0029     		cmp	r1, #0	@ tmp234,
 1505 004e 03D1     		bne	.L76	@,
 1506 0050 1928     		cmp	r0, #25	@ tempBT,
 1507 0052 01D8     		bhi	.L76	@,
  59:../../lpc11cx4-library/evt_lib/src/mcp2515.c **** 				if (tempBT - BT == 0) break;
 1508              		.loc 1 59 0
 1509 0054 C6B2     		uxtb	r6, r0	@ BT, tempBT
 1510              	.LVL105:
 1511 0056 04E0     		b	.L78	@
 1512              	.LVL106:
 1513              	.L76:
 1514 0058 231E     		sub	r3, r4, #0	@ ivtmp.114, D.6662,
  55:../../lpc11cx4-library/evt_lib/src/mcp2515.c **** 			TQ = 10000 * 2 * (BRP + 1) / freq;
 1515              		.loc 1 55 0 discriminator 2
 1516 005a 402B     		cmp	r3, #64	@ ivtmp.114,
 1517 005c E8D1     		bne	.L79	@,
 1518              	.LVL107:
 1519 005e 0026     		mov	r6, #0	@ BT,
 1520              	.LVL108:
 1521 0060 0194     		str	r4, [sp, #4]	@ D.6662, %sfp
 1522              	.LVL109:
 1523              	.L78:
  64:../../lpc11cx4-library/evt_lib/src/mcp2515.c **** 		uint8_t PRSEG = (SPT - 1) / 2;
 1524              		.loc 1 64 0
 1525 0062 301C     		mov	r0, r6	@, BT
 1526              	.LVL110:
 1527 0064 FFF7FEFF 		bl	__aeabi_i2d	@
 1528              	.LVL111:
 1529 0068 274A     		ldr	r2, .L89+8	@,
 1530 006a 284B     		ldr	r3, .L89+12	@,
 1531 006c FFF7FEFF 		bl	__aeabi_dmul	@
 1532              	.LVL112:
 1533 0070 FFF7FEFF 		bl	__aeabi_d2uiz	@
 1534              	.LVL113:
 1535 0074 C4B2     		uxtb	r4, r0	@ SPT, tmp184
 1536              	.LVL114:
  65:../../lpc11cx4-library/evt_lib/src/mcp2515.c **** 		uint8_t PHSEG1 = SPT - PRSEG - 1;
 1537              		.loc 1 65 0
 1538 0076 013C     		sub	r4, r4, #1	@ D.6663,
 1539              	.LVL115:
ARM GAS  /tmp/ccRhXGbn.s 			page 37


 1540 0078 E30F     		lsr	r3, r4, #31	@ tmp186, D.6663,
 1541 007a 1B19     		add	r3, r3, r4	@ tmp187, tmp186, D.6663
 1542 007c 5B10     		asr	r3, r3, #1	@ tmp188, tmp187,
 1543 007e DFB2     		uxtb	r7, r3	@ PRSEG, tmp188
 1544              	.LVL116:
  66:../../lpc11cx4-library/evt_lib/src/mcp2515.c **** 		uint8_t PHSEG2 = BT - PHSEG1 - PRSEG - 1;
 1545              		.loc 1 66 0
 1546 0080 E41B     		sub	r4, r4, r7	@ tmp191, D.6663, PRSEG
 1547              	.LVL117:
 1548 0082 E4B2     		uxtb	r4, r4	@ PHSEG1, tmp191
 1549              	.LVL118:
  67:../../lpc11cx4-library/evt_lib/src/mcp2515.c **** 
 1550              		.loc 1 67 0
 1551 0084 361B     		sub	r6, r6, r4	@ tmp192, BT, PHSEG1
 1552              	.LVL119:
 1553 0086 F61B     		sub	r6, r6, r7	@ tmp194, tmp192, PRSEG
 1554 0088 F6B2     		uxtb	r6, r6	@ D.6665, tmp194
 1555 008a 721E     		sub	r2, r6, #1	@ tmp195, D.6665,
 1556 008c D2B2     		uxtb	r2, r2	@ PHSEG2, tmp195
 1557              	.LVL120:
  70:../../lpc11cx4-library/evt_lib/src/mcp2515.c **** 			return 1;
 1558              		.loc 1 70 0
 1559 008e 1B19     		add	r3, r3, r4	@ D.6663, tmp188, PHSEG1
  71:../../lpc11cx4-library/evt_lib/src/mcp2515.c **** 		}
 1560              		.loc 1 71 0
 1561 0090 0120     		mov	r0, #1	@ D.6661,
 1562              	.LVL121:
  70:../../lpc11cx4-library/evt_lib/src/mcp2515.c **** 			return 1;
 1563              		.loc 1 70 0
 1564 0092 9342     		cmp	r3, r2	@ D.6663, PHSEG2
 1565 0094 31DB     		blt	.L75	@,
  75:../../lpc11cx4-library/evt_lib/src/mcp2515.c **** 		}
 1566              		.loc 1 75 0
 1567 0096 0018     		add	r0, r0, r0	@ D.6661, D.6661,
  74:../../lpc11cx4-library/evt_lib/src/mcp2515.c **** 			return 2;
 1568              		.loc 1 74 0
 1569 0098 AA42     		cmp	r2, r5	@ PHSEG2, SJW
 1570 009a 2ED9     		bls	.L75	@,
 1571              	.LVL122:
  82:../../lpc11cx4-library/evt_lib/src/mcp2515.c **** 
 1572              		.loc 1 82 0
 1573 009c 019B     		ldr	r3, [sp, #4]	@ tmp201, %sfp
 1574 009e 013D     		sub	r5, r5, #1	@ D.6663,
 1575              	.LVL123:
 1576 00a0 AD01     		lsl	r5, r5, #6	@ D.6663, D.6663,
 1577 00a2 2B43     		orr	r3, r5	@ tmp201, D.6663
 1578 00a4 DDB2     		uxtb	r5, r3	@ data, tmp201
 1579              	.LVL124:
  84:../../lpc11cx4-library/evt_lib/src/mcp2515.c **** 		MCP2515_Write(CNF2, ((BTLMODE << 7) | (SAM << 6) | ((PHSEG1 - 1) << 3) | (PRSEG - 1)));
 1580              		.loc 1 84 0
 1581 00a6 291C     		mov	r1, r5	@, data
 1582 00a8 2830     		add	r0, r0, #40	@,
 1583 00aa FFF7FEFF 		bl	MCP2515_Write	@
 1584              	.LVL125:
 1585 00ae 8021     		mov	r1, #128	@ tmp205,
  85:../../lpc11cx4-library/evt_lib/src/mcp2515.c **** 		MCP2515_Write(CNF3, (0x00 | (PHSEG2 - 1)));
 1586              		.loc 1 85 0
ARM GAS  /tmp/ccRhXGbn.s 			page 38


 1587 00b0 013F     		sub	r7, r7, #1	@ tmp202,
 1588              	.LVL126:
 1589 00b2 4942     		neg	r1, r1	@ tmp205, tmp205
 1590 00b4 013C     		sub	r4, r4, #1	@ D.6663,
 1591              	.LVL127:
 1592 00b6 E400     		lsl	r4, r4, #3	@ D.6663, D.6663,
 1593              	.LVL128:
 1594 00b8 3943     		orr	r1, r7	@ tmp204, tmp202
 1595 00ba 2143     		orr	r1, r4	@ tmp210, D.6663
 1596 00bc C9B2     		uxtb	r1, r1	@ tmp211, tmp210
 1597 00be 2920     		mov	r0, #41	@,
  86:../../lpc11cx4-library/evt_lib/src/mcp2515.c **** 		MCP2515_Write(TXRTSCTRL, 0);
 1598              		.loc 1 86 0
 1599 00c0 023E     		sub	r6, r6, #2	@ tmp212,
 1600              	.LVL129:
  85:../../lpc11cx4-library/evt_lib/src/mcp2515.c **** 		MCP2515_Write(CNF3, (0x00 | (PHSEG2 - 1)));
 1601              		.loc 1 85 0
 1602 00c2 FFF7FEFF 		bl	MCP2515_Write	@
 1603              	.LVL130:
  86:../../lpc11cx4-library/evt_lib/src/mcp2515.c **** 		MCP2515_Write(TXRTSCTRL, 0);
 1604              		.loc 1 86 0
 1605 00c6 F1B2     		uxtb	r1, r6	@ tmp213, tmp212
 1606 00c8 2820     		mov	r0, #40	@,
 1607 00ca FFF7FEFF 		bl	MCP2515_Write	@
 1608              	.LVL131:
  87:../../lpc11cx4-library/evt_lib/src/mcp2515.c **** 
 1609              		.loc 1 87 0
 1610 00ce 0D20     		mov	r0, #13	@,
 1611 00d0 0021     		mov	r1, #0	@,
 1612 00d2 FFF7FEFF 		bl	MCP2515_Write	@
 1613              	.LVL132:
  94:../../lpc11cx4-library/evt_lib/src/mcp2515.c **** 		// MCP2515_Write(CANINTE, 0x00);
 1614              		.loc 1 94 0
 1615 00d6 2B20     		mov	r0, #43	@,
 1616 00d8 0321     		mov	r1, #3	@,
 1617 00da FFF7FEFF 		bl	MCP2515_Write	@
 1618              	.LVL133:
  97:../../lpc11cx4-library/evt_lib/src/mcp2515.c **** 		MCP2515_Read(CNF1, &rtn, 1);
 1619              		.loc 1 97 0
 1620 00de 02AB     		add	r3, sp, #8	@ tmp237,,
 1621 00e0 DC1D     		add	r4, r3, #7	@ tmp214, tmp237,
 1622 00e2 0023     		mov	r3, #0	@ tmp215,
  98:../../lpc11cx4-library/evt_lib/src/mcp2515.c **** 		if (rtn == data) {
 1623              		.loc 1 98 0
 1624 00e4 2A20     		mov	r0, #42	@,
 1625 00e6 211C     		mov	r1, r4	@, tmp214
 1626 00e8 0122     		mov	r2, #1	@,
  97:../../lpc11cx4-library/evt_lib/src/mcp2515.c **** 		MCP2515_Read(CNF1, &rtn, 1);
 1627              		.loc 1 97 0
 1628 00ea 2370     		strb	r3, [r4]	@ tmp215, rtn
  98:../../lpc11cx4-library/evt_lib/src/mcp2515.c **** 		if (rtn == data) {
 1629              		.loc 1 98 0
 1630 00ec FFF7FEFF 		bl	MCP2515_Read	@
 1631              	.LVL134:
  99:../../lpc11cx4-library/evt_lib/src/mcp2515.c **** 			return 0;
 1632              		.loc 1 99 0
 1633 00f0 2078     		ldrb	r0, [r4]	@ rtn, rtn
ARM GAS  /tmp/ccRhXGbn.s 			page 39


 102:../../lpc11cx4-library/evt_lib/src/mcp2515.c **** 		}
 1634              		.loc 1 102 0
 1635 00f2 401B     		sub	r0, r0, r5	@ tmp229, rtn, data
 1636 00f4 451E     		sub	r5, r0, #1	@ tmp230, tmp229
 1637 00f6 A841     		sbc	r0, r0, r5	@ tmp228, tmp229, tmp230
 1638              	.LVL135:
 1639 00f8 8000     		lsl	r0, r0, #2	@ D.6661, tmp228,
 1640              	.LVL136:
 1641              	.L75:
 1642              	.LBE130:
 109:../../lpc11cx4-library/evt_lib/src/mcp2515.c **** 
 1643              		.loc 1 109 0 discriminator 1
 1644 00fa 05B0     		add	sp, sp, #20	@,,
 1645              		@ sp needed	@
 1646 00fc F0BD     		pop	{r4, r5, r6, r7, pc}
 1647              	.L90:
 1648 00fe C046     		.align	2
 1649              	.L89:
 1650 0100 10270000 		.word	10000
 1651 0104 204E0000 		.word	20000
 1652 0108 66666666 		.word	1717986918
 1653 010c 6666E63F 		.word	1072064102
 1654              		.cfi_endproc
 1655              	.LFE199:
 1656              		.size	MCP2515_SetBitRate, .-MCP2515_SetBitRate
 1657              		.comm	_int_pin,1,1
 1658              		.comm	_int_gpio,1,1
 1659              		.comm	_cs_pin,1,1
 1660              		.comm	_cs_gpio,1,1
 1661              		.section	.bss.Tx_Buf,"aw",%nobits
 1662              		.set	.LANCHOR1,. + 0
 1663              		.type	Tx_Buf, %object
 1664              		.size	Tx_Buf, 256
 1665              	Tx_Buf:
 1666 0000 00000000 		.space	256
 1666      00000000 
 1666      00000000 
 1666      00000000 
 1666      00000000 
 1667              		.section	.bss.Rx_Buf,"aw",%nobits
 1668              		.set	.LANCHOR2,. + 0
 1669              		.type	Rx_Buf, %object
 1670              		.size	Rx_Buf, 256
 1671              	Rx_Buf:
 1672 0000 00000000 		.space	256
 1672      00000000 
 1672      00000000 
 1672      00000000 
 1672      00000000 
 1673              		.section	.bss.xf_setup,"aw",%nobits
 1674              		.align	2
 1675              		.set	.LANCHOR0,. + 0
 1676              		.type	xf_setup, %object
 1677              		.size	xf_setup, 20
 1678              	xf_setup:
 1679 0000 00000000 		.space	20
 1679      00000000 
ARM GAS  /tmp/ccRhXGbn.s 			page 40


 1679      00000000 
 1679      00000000 
 1679      00000000 
 1680              		.text
 1681              	.Letext0:
 1682              		.file 3 "/usr/arm-none-eabi/include/machine/_default_types.h"
 1683              		.file 4 "/usr/arm-none-eabi/include/sys/_stdint.h"
 1684              		.file 5 "../../lpc11cx4-library/lpc_chip_11cxx_lib/inc/ssp_11xx.h"
 1685              		.file 6 "../../lpc11cx4-library/lpc_chip_11cxx_lib/inc/ccand_11xx.h"
 1686              		.file 7 "../../lpc11cx4-library/lpc_chip_11cxx_lib/inc/chip.h"