ARM GAS  /tmp/ccb1LXU9.s 			page 1


   1              		.cpu cortex-m0
   2              		.fpu softvfp
   3              		.eabi_attribute 20, 1	@ Tag_ABI_FP_denormal
   4              		.eabi_attribute 21, 1	@ Tag_ABI_FP_exceptions
   5              		.eabi_attribute 23, 3	@ Tag_ABI_FP_number_model
   6              		.eabi_attribute 24, 1	@ Tag_ABI_align8_needed
   7              		.eabi_attribute 25, 1	@ Tag_ABI_align8_preserved
   8              		.eabi_attribute 26, 1	@ Tag_ABI_enum_size
   9              		.eabi_attribute 30, 2	@ Tag_ABI_optimization_goals
  10              		.eabi_attribute 34, 0	@ Tag_CPU_unaligned_access
  11              		.eabi_attribute 18, 4	@ Tag_ABI_PCS_wchar_t
  12              		.file	"ring_buffer.c"
  13              	@ GNU C (GNU Tools for ARM Embedded Processors) version 4.9.3 20150529 (release) [ARM/embedded-4_9-
  14              	@	compiled by GNU C version 4.8.4, GMP version 5.1.3, MPFR version 3.1.2-p3, MPC version 1.0.1
  15              	@ GGC heuristics: --param ggc-min-expand=98 --param ggc-min-heapsize=128397
  16              	@ options passed:  -I . -I inc/
  17              	@ -I ../../lpc11cx4-library/lpc_chip_11cxx_lib/inc
  18              	@ -I ../../lpc11cx4-library/evt_lib/inc/ -imultilib armv6-m
  19              	@ -iprefix /usr/bin/../lib/gcc/arm-none-eabi/4.9.3/
  20              	@ -isysroot /usr/bin/../arm-none-eabi -MD bin/ring_buffer.d
  21              	@ -MF bin/ring_buffer.d -MP -MQ bin/ring_buffer.o -D__USES_INITFINI__
  22              	@ -D UART_BAUD=57600 -D CORE_M0 -D DEBUG_ENABLE
  23              	@ ../../lpc11cx4-library/lpc_chip_11cxx_lib/src/ring_buffer.c
  24              	@ -mcpu=cortex-m0 -mthumb -auxbase-strip bin/ring_buffer.o -g -ggdb3 -O2
  25              	@ -Wall -Wstrict-prototypes -Wextra -std=gnu90 -ffunction-sections
  26              	@ -fdata-sections -fdiagnostics-color=always -fverbose-asm
  27              	@ options enabled:  -faggressive-loop-optimizations -fauto-inc-dec
  28              	@ -fbranch-count-reg -fcaller-saves -fcombine-stack-adjustments -fcommon
  29              	@ -fcompare-elim -fcprop-registers -fcrossjumping -fcse-follow-jumps
  30              	@ -fdata-sections -fdefer-pop -fdelete-null-pointer-checks -fdevirtualize
  31              	@ -fdevirtualize-speculatively -fdwarf2-cfi-asm -fearly-inlining
  32              	@ -feliminate-unused-debug-types -fexpensive-optimizations
  33              	@ -fforward-propagate -ffunction-cse -ffunction-sections -fgcse -fgcse-lm
  34              	@ -fgnu-runtime -fgnu-unique -fguess-branch-probability
  35              	@ -fhoist-adjacent-loads -fident -fif-conversion -fif-conversion2
  36              	@ -findirect-inlining -finline -finline-atomics
  37              	@ -finline-functions-called-once -finline-small-functions -fipa-cp
  38              	@ -fipa-profile -fipa-pure-const -fipa-reference -fipa-sra
  39              	@ -fira-hoist-pressure -fira-share-save-slots -fira-share-spill-slots
  40              	@ -fisolate-erroneous-paths-dereference -fivopts -fkeep-static-consts
  41              	@ -fleading-underscore -flifetime-dse -fmath-errno -fmerge-constants
  42              	@ -fmerge-debug-strings -fmove-loop-invariants -fomit-frame-pointer
  43              	@ -foptimize-sibling-calls -foptimize-strlen -fpartial-inlining -fpeephole
  44              	@ -fpeephole2 -fprefetch-loop-arrays -freg-struct-return -freorder-blocks
  45              	@ -freorder-functions -frerun-cse-after-loop
  46              	@ -fsched-critical-path-heuristic -fsched-dep-count-heuristic
  47              	@ -fsched-group-heuristic -fsched-interblock -fsched-last-insn-heuristic
  48              	@ -fsched-pressure -fsched-rank-heuristic -fsched-spec
  49              	@ -fsched-spec-insn-heuristic -fsched-stalled-insns-dep -fschedule-insns2
  50              	@ -fsection-anchors -fshow-column -fshrink-wrap -fsigned-zeros
  51              	@ -fsplit-ivs-in-unroller -fsplit-wide-types -fstrict-aliasing
  52              	@ -fstrict-overflow -fstrict-volatile-bitfields -fsync-libcalls
  53              	@ -fthread-jumps -ftoplevel-reorder -ftrapping-math -ftree-bit-ccp
  54              	@ -ftree-builtin-call-dce -ftree-ccp -ftree-ch -ftree-coalesce-vars
  55              	@ -ftree-copy-prop -ftree-copyrename -ftree-cselim -ftree-dce
  56              	@ -ftree-dominator-opts -ftree-dse -ftree-forwprop -ftree-fre
  57              	@ -ftree-loop-if-convert -ftree-loop-im -ftree-loop-ivcanon
ARM GAS  /tmp/ccb1LXU9.s 			page 2


  58              	@ -ftree-loop-optimize -ftree-parallelize-loops= -ftree-phiprop -ftree-pre
  59              	@ -ftree-pta -ftree-reassoc -ftree-scev-cprop -ftree-sink -ftree-slsr
  60              	@ -ftree-sra -ftree-switch-conversion -ftree-tail-merge -ftree-ter
  61              	@ -ftree-vrp -funit-at-a-time -fvar-tracking -fvar-tracking-assignments
  62              	@ -fverbose-asm -fzero-initialized-in-bss -mlittle-endian -mlra
  63              	@ -mpic-data-is-text-relative -msched-prolog -mthumb
  64              	@ -mvectorize-with-neon-quad
  65              	
  66              		.text
  67              	.Ltext0:
  68              		.cfi_sections	.debug_frame
  69              		.section	.text.RingBuffer_Init,"ax",%progbits
  70              		.align	2
  71              		.global	RingBuffer_Init
  72              		.code	16
  73              		.thumb_func
  74              		.type	RingBuffer_Init, %function
  75              	RingBuffer_Init:
  76              	.LFB6:
  77              		.file 1 "../../lpc11cx4-library/lpc_chip_11cxx_lib/src/ring_buffer.c"
   1:../../lpc11cx4-library/lpc_chip_11cxx_lib/src/ring_buffer.c **** /*
   2:../../lpc11cx4-library/lpc_chip_11cxx_lib/src/ring_buffer.c ****  * @brief Common ring buffer support functions
   3:../../lpc11cx4-library/lpc_chip_11cxx_lib/src/ring_buffer.c ****  *
   4:../../lpc11cx4-library/lpc_chip_11cxx_lib/src/ring_buffer.c ****  * @note
   5:../../lpc11cx4-library/lpc_chip_11cxx_lib/src/ring_buffer.c ****  * Copyright(C) NXP Semiconductors, 2012
   6:../../lpc11cx4-library/lpc_chip_11cxx_lib/src/ring_buffer.c ****  * All rights reserved.
   7:../../lpc11cx4-library/lpc_chip_11cxx_lib/src/ring_buffer.c ****  *
   8:../../lpc11cx4-library/lpc_chip_11cxx_lib/src/ring_buffer.c ****  * @par
   9:../../lpc11cx4-library/lpc_chip_11cxx_lib/src/ring_buffer.c ****  * Software that is described herein is for illustrative purposes only
  10:../../lpc11cx4-library/lpc_chip_11cxx_lib/src/ring_buffer.c ****  * which provides customers with programming information regarding the
  11:../../lpc11cx4-library/lpc_chip_11cxx_lib/src/ring_buffer.c ****  * LPC products.  This software is supplied "AS IS" without any warranties of
  12:../../lpc11cx4-library/lpc_chip_11cxx_lib/src/ring_buffer.c ****  * any kind, and NXP Semiconductors and its licensor disclaim any and
  13:../../lpc11cx4-library/lpc_chip_11cxx_lib/src/ring_buffer.c ****  * all warranties, express or implied, including all implied warranties of
  14:../../lpc11cx4-library/lpc_chip_11cxx_lib/src/ring_buffer.c ****  * merchantability, fitness for a particular purpose and non-infringement of
  15:../../lpc11cx4-library/lpc_chip_11cxx_lib/src/ring_buffer.c ****  * intellectual property rights.  NXP Semiconductors assumes no responsibility
  16:../../lpc11cx4-library/lpc_chip_11cxx_lib/src/ring_buffer.c ****  * or liability for the use of the software, conveys no license or rights under any
  17:../../lpc11cx4-library/lpc_chip_11cxx_lib/src/ring_buffer.c ****  * patent, copyright, mask work right, or any other intellectual property rights in
  18:../../lpc11cx4-library/lpc_chip_11cxx_lib/src/ring_buffer.c ****  * or to any products. NXP Semiconductors reserves the right to make changes
  19:../../lpc11cx4-library/lpc_chip_11cxx_lib/src/ring_buffer.c ****  * in the software without notification. NXP Semiconductors also makes no
  20:../../lpc11cx4-library/lpc_chip_11cxx_lib/src/ring_buffer.c ****  * representation or warranty that such application will be suitable for the
  21:../../lpc11cx4-library/lpc_chip_11cxx_lib/src/ring_buffer.c ****  * specified use without further testing or modification.
  22:../../lpc11cx4-library/lpc_chip_11cxx_lib/src/ring_buffer.c ****  *
  23:../../lpc11cx4-library/lpc_chip_11cxx_lib/src/ring_buffer.c ****  * @par
  24:../../lpc11cx4-library/lpc_chip_11cxx_lib/src/ring_buffer.c ****  * Permission to use, copy, modify, and distribute this software and its
  25:../../lpc11cx4-library/lpc_chip_11cxx_lib/src/ring_buffer.c ****  * documentation is hereby granted, under NXP Semiconductors' and its
  26:../../lpc11cx4-library/lpc_chip_11cxx_lib/src/ring_buffer.c ****  * licensor's relevant copyrights in the software, without fee, provided that it
  27:../../lpc11cx4-library/lpc_chip_11cxx_lib/src/ring_buffer.c ****  * is used in conjunction with NXP Semiconductors microcontrollers.  This
  28:../../lpc11cx4-library/lpc_chip_11cxx_lib/src/ring_buffer.c ****  * copyright, permission, and disclaimer notice must appear in all copies of
  29:../../lpc11cx4-library/lpc_chip_11cxx_lib/src/ring_buffer.c ****  * this code.
  30:../../lpc11cx4-library/lpc_chip_11cxx_lib/src/ring_buffer.c ****  */
  31:../../lpc11cx4-library/lpc_chip_11cxx_lib/src/ring_buffer.c **** 
  32:../../lpc11cx4-library/lpc_chip_11cxx_lib/src/ring_buffer.c **** #include <string.h>
  33:../../lpc11cx4-library/lpc_chip_11cxx_lib/src/ring_buffer.c **** #include "ring_buffer.h"
  34:../../lpc11cx4-library/lpc_chip_11cxx_lib/src/ring_buffer.c **** 
  35:../../lpc11cx4-library/lpc_chip_11cxx_lib/src/ring_buffer.c **** /*****************************************************************************
  36:../../lpc11cx4-library/lpc_chip_11cxx_lib/src/ring_buffer.c ****  * Private types/enumerations/variables
  37:../../lpc11cx4-library/lpc_chip_11cxx_lib/src/ring_buffer.c ****  ****************************************************************************/
ARM GAS  /tmp/ccb1LXU9.s 			page 3


  38:../../lpc11cx4-library/lpc_chip_11cxx_lib/src/ring_buffer.c **** 
  39:../../lpc11cx4-library/lpc_chip_11cxx_lib/src/ring_buffer.c **** #define RB_INDH(rb)                ((rb)->head % (rb)->count)
  40:../../lpc11cx4-library/lpc_chip_11cxx_lib/src/ring_buffer.c **** #define RB_INDT(rb)                ((rb)->tail % (rb)->count)
  41:../../lpc11cx4-library/lpc_chip_11cxx_lib/src/ring_buffer.c **** 
  42:../../lpc11cx4-library/lpc_chip_11cxx_lib/src/ring_buffer.c **** /*****************************************************************************
  43:../../lpc11cx4-library/lpc_chip_11cxx_lib/src/ring_buffer.c ****  * Public types/enumerations/variables
  44:../../lpc11cx4-library/lpc_chip_11cxx_lib/src/ring_buffer.c ****  ****************************************************************************/
  45:../../lpc11cx4-library/lpc_chip_11cxx_lib/src/ring_buffer.c **** 
  46:../../lpc11cx4-library/lpc_chip_11cxx_lib/src/ring_buffer.c **** /*****************************************************************************
  47:../../lpc11cx4-library/lpc_chip_11cxx_lib/src/ring_buffer.c ****  * Private functions
  48:../../lpc11cx4-library/lpc_chip_11cxx_lib/src/ring_buffer.c ****  ****************************************************************************/
  49:../../lpc11cx4-library/lpc_chip_11cxx_lib/src/ring_buffer.c **** 
  50:../../lpc11cx4-library/lpc_chip_11cxx_lib/src/ring_buffer.c **** /*****************************************************************************
  51:../../lpc11cx4-library/lpc_chip_11cxx_lib/src/ring_buffer.c ****  * Public functions
  52:../../lpc11cx4-library/lpc_chip_11cxx_lib/src/ring_buffer.c ****  ****************************************************************************/
  53:../../lpc11cx4-library/lpc_chip_11cxx_lib/src/ring_buffer.c **** 
  54:../../lpc11cx4-library/lpc_chip_11cxx_lib/src/ring_buffer.c **** /* Initialize ring buffer */
  55:../../lpc11cx4-library/lpc_chip_11cxx_lib/src/ring_buffer.c **** int RingBuffer_Init(RINGBUFF_T *RingBuff, void *buffer, uint32_t itemSize, uint32_t count)
  56:../../lpc11cx4-library/lpc_chip_11cxx_lib/src/ring_buffer.c **** {
  78              		.loc 1 56 0
  79              		.cfi_startproc
  80              	.LVL0:
  57:../../lpc11cx4-library/lpc_chip_11cxx_lib/src/ring_buffer.c **** 	RingBuff->data = buffer;
  58:../../lpc11cx4-library/lpc_chip_11cxx_lib/src/ring_buffer.c **** 	RingBuff->count = count;
  81              		.loc 1 58 0
  82 0000 4360     		str	r3, [r0, #4]	@ count, RingBuff_2(D)->count
  59:../../lpc11cx4-library/lpc_chip_11cxx_lib/src/ring_buffer.c **** 	RingBuff->itemSz = itemSize;
  60:../../lpc11cx4-library/lpc_chip_11cxx_lib/src/ring_buffer.c **** 	RingBuff->head = RingBuff->tail = 0;
  83              		.loc 1 60 0
  84 0002 0023     		mov	r3, #0	@ tmp115,
  85              	.LVL1:
  57:../../lpc11cx4-library/lpc_chip_11cxx_lib/src/ring_buffer.c **** 	RingBuff->data = buffer;
  86              		.loc 1 57 0
  87 0004 0160     		str	r1, [r0]	@ buffer, RingBuff_2(D)->data
  59:../../lpc11cx4-library/lpc_chip_11cxx_lib/src/ring_buffer.c **** 	RingBuff->itemSz = itemSize;
  88              		.loc 1 59 0
  89 0006 8260     		str	r2, [r0, #8]	@ itemSize, RingBuff_2(D)->itemSz
  90              		.loc 1 60 0
  91 0008 0361     		str	r3, [r0, #16]	@ tmp115, RingBuff_2(D)->tail
  92 000a C360     		str	r3, [r0, #12]	@ tmp115, RingBuff_2(D)->head
  61:../../lpc11cx4-library/lpc_chip_11cxx_lib/src/ring_buffer.c **** 
  62:../../lpc11cx4-library/lpc_chip_11cxx_lib/src/ring_buffer.c **** 	return 1;
  63:../../lpc11cx4-library/lpc_chip_11cxx_lib/src/ring_buffer.c **** }
  93              		.loc 1 63 0
  94              		@ sp needed	@
  95 000c 0120     		mov	r0, #1	@,
  96              	.LVL2:
  97 000e 7047     		bx	lr
  98              		.cfi_endproc
  99              	.LFE6:
 100              		.size	RingBuffer_Init, .-RingBuffer_Init
 101              		.global	__aeabi_uidivmod
 102              		.section	.text.RingBuffer_Insert,"ax",%progbits
 103              		.align	2
 104              		.global	RingBuffer_Insert
 105              		.code	16
 106              		.thumb_func
ARM GAS  /tmp/ccb1LXU9.s 			page 4


 107              		.type	RingBuffer_Insert, %function
 108              	RingBuffer_Insert:
 109              	.LFB7:
  64:../../lpc11cx4-library/lpc_chip_11cxx_lib/src/ring_buffer.c **** 
  65:../../lpc11cx4-library/lpc_chip_11cxx_lib/src/ring_buffer.c **** /* Insert a single item into Ring Buffer */
  66:../../lpc11cx4-library/lpc_chip_11cxx_lib/src/ring_buffer.c **** int RingBuffer_Insert(RINGBUFF_T *RingBuff, const void *data)
  67:../../lpc11cx4-library/lpc_chip_11cxx_lib/src/ring_buffer.c **** {
 110              		.loc 1 67 0
 111              		.cfi_startproc
 112              	.LVL3:
 113 0000 F8B5     		push	{r3, r4, r5, r6, r7, lr}	@
 114              		.cfi_def_cfa_offset 24
 115              		.cfi_offset 3, -24
 116              		.cfi_offset 4, -20
 117              		.cfi_offset 5, -16
 118              		.cfi_offset 6, -12
 119              		.cfi_offset 7, -8
 120              		.cfi_offset 14, -4
 121 0002 4F46     		mov	r7, r9	@,
 122 0004 4646     		mov	r6, r8	@,
 123              	.LBB24:
 124              	.LBB25:
 125              	.LBB26:
 126              	.LBB27:
 127              		.file 2 "../../lpc11cx4-library/lpc_chip_11cxx_lib/inc/ring_buffer.h"
   1:../../lpc11cx4-library/lpc_chip_11cxx_lib/inc/ring_buffer.h **** /*
   2:../../lpc11cx4-library/lpc_chip_11cxx_lib/inc/ring_buffer.h ****  * @brief Common ring buffer support functions
   3:../../lpc11cx4-library/lpc_chip_11cxx_lib/inc/ring_buffer.h ****  *
   4:../../lpc11cx4-library/lpc_chip_11cxx_lib/inc/ring_buffer.h ****  * @note
   5:../../lpc11cx4-library/lpc_chip_11cxx_lib/inc/ring_buffer.h ****  * Copyright(C) NXP Semiconductors, 2012
   6:../../lpc11cx4-library/lpc_chip_11cxx_lib/inc/ring_buffer.h ****  * All rights reserved.
   7:../../lpc11cx4-library/lpc_chip_11cxx_lib/inc/ring_buffer.h ****  *
   8:../../lpc11cx4-library/lpc_chip_11cxx_lib/inc/ring_buffer.h ****  * @par
   9:../../lpc11cx4-library/lpc_chip_11cxx_lib/inc/ring_buffer.h ****  * Software that is described herein is for illustrative purposes only
  10:../../lpc11cx4-library/lpc_chip_11cxx_lib/inc/ring_buffer.h ****  * which provides customers with programming information regarding the
  11:../../lpc11cx4-library/lpc_chip_11cxx_lib/inc/ring_buffer.h ****  * LPC products.  This software is supplied "AS IS" without any warranties of
  12:../../lpc11cx4-library/lpc_chip_11cxx_lib/inc/ring_buffer.h ****  * any kind, and NXP Semiconductors and its licensor disclaim any and
  13:../../lpc11cx4-library/lpc_chip_11cxx_lib/inc/ring_buffer.h ****  * all warranties, express or implied, including all implied warranties of
  14:../../lpc11cx4-library/lpc_chip_11cxx_lib/inc/ring_buffer.h ****  * merchantability, fitness for a particular purpose and non-infringement of
  15:../../lpc11cx4-library/lpc_chip_11cxx_lib/inc/ring_buffer.h ****  * intellectual property rights.  NXP Semiconductors assumes no responsibility
  16:../../lpc11cx4-library/lpc_chip_11cxx_lib/inc/ring_buffer.h ****  * or liability for the use of the software, conveys no license or rights under any
  17:../../lpc11cx4-library/lpc_chip_11cxx_lib/inc/ring_buffer.h ****  * patent, copyright, mask work right, or any other intellectual property rights in
  18:../../lpc11cx4-library/lpc_chip_11cxx_lib/inc/ring_buffer.h ****  * or to any products. NXP Semiconductors reserves the right to make changes
  19:../../lpc11cx4-library/lpc_chip_11cxx_lib/inc/ring_buffer.h ****  * in the software without notification. NXP Semiconductors also makes no
  20:../../lpc11cx4-library/lpc_chip_11cxx_lib/inc/ring_buffer.h ****  * representation or warranty that such application will be suitable for the
  21:../../lpc11cx4-library/lpc_chip_11cxx_lib/inc/ring_buffer.h ****  * specified use without further testing or modification.
  22:../../lpc11cx4-library/lpc_chip_11cxx_lib/inc/ring_buffer.h ****  *
  23:../../lpc11cx4-library/lpc_chip_11cxx_lib/inc/ring_buffer.h ****  * @par
  24:../../lpc11cx4-library/lpc_chip_11cxx_lib/inc/ring_buffer.h ****  * Permission to use, copy, modify, and distribute this software and its
  25:../../lpc11cx4-library/lpc_chip_11cxx_lib/inc/ring_buffer.h ****  * documentation is hereby granted, under NXP Semiconductors' and its
  26:../../lpc11cx4-library/lpc_chip_11cxx_lib/inc/ring_buffer.h ****  * licensor's relevant copyrights in the software, without fee, provided that it
  27:../../lpc11cx4-library/lpc_chip_11cxx_lib/inc/ring_buffer.h ****  * is used in conjunction with NXP Semiconductors microcontrollers.  This
  28:../../lpc11cx4-library/lpc_chip_11cxx_lib/inc/ring_buffer.h ****  * copyright, permission, and disclaimer notice must appear in all copies of
  29:../../lpc11cx4-library/lpc_chip_11cxx_lib/inc/ring_buffer.h ****  * this code.
  30:../../lpc11cx4-library/lpc_chip_11cxx_lib/inc/ring_buffer.h ****  */
  31:../../lpc11cx4-library/lpc_chip_11cxx_lib/inc/ring_buffer.h **** 
  32:../../lpc11cx4-library/lpc_chip_11cxx_lib/inc/ring_buffer.h **** #ifndef __RING_BUFFER_H_
ARM GAS  /tmp/ccb1LXU9.s 			page 5


  33:../../lpc11cx4-library/lpc_chip_11cxx_lib/inc/ring_buffer.h **** #define __RING_BUFFER_H_
  34:../../lpc11cx4-library/lpc_chip_11cxx_lib/inc/ring_buffer.h **** 
  35:../../lpc11cx4-library/lpc_chip_11cxx_lib/inc/ring_buffer.h **** #include "lpc_types.h"
  36:../../lpc11cx4-library/lpc_chip_11cxx_lib/inc/ring_buffer.h **** 
  37:../../lpc11cx4-library/lpc_chip_11cxx_lib/inc/ring_buffer.h **** /** @defgroup Ring_Buffer CHIP: Simple ring buffer implementation
  38:../../lpc11cx4-library/lpc_chip_11cxx_lib/inc/ring_buffer.h ****  * @ingroup CHIP_Common
  39:../../lpc11cx4-library/lpc_chip_11cxx_lib/inc/ring_buffer.h ****  * @{
  40:../../lpc11cx4-library/lpc_chip_11cxx_lib/inc/ring_buffer.h ****  */
  41:../../lpc11cx4-library/lpc_chip_11cxx_lib/inc/ring_buffer.h **** 
  42:../../lpc11cx4-library/lpc_chip_11cxx_lib/inc/ring_buffer.h **** /**
  43:../../lpc11cx4-library/lpc_chip_11cxx_lib/inc/ring_buffer.h ****  * @brief Ring buffer structure
  44:../../lpc11cx4-library/lpc_chip_11cxx_lib/inc/ring_buffer.h ****  */
  45:../../lpc11cx4-library/lpc_chip_11cxx_lib/inc/ring_buffer.h **** typedef struct {
  46:../../lpc11cx4-library/lpc_chip_11cxx_lib/inc/ring_buffer.h **** 	void *data;
  47:../../lpc11cx4-library/lpc_chip_11cxx_lib/inc/ring_buffer.h **** 	uint32_t count;
  48:../../lpc11cx4-library/lpc_chip_11cxx_lib/inc/ring_buffer.h **** 	uint32_t itemSz;
  49:../../lpc11cx4-library/lpc_chip_11cxx_lib/inc/ring_buffer.h **** 	uint32_t head;
  50:../../lpc11cx4-library/lpc_chip_11cxx_lib/inc/ring_buffer.h **** 	uint32_t tail;
  51:../../lpc11cx4-library/lpc_chip_11cxx_lib/inc/ring_buffer.h **** } RINGBUFF_T;
  52:../../lpc11cx4-library/lpc_chip_11cxx_lib/inc/ring_buffer.h **** 
  53:../../lpc11cx4-library/lpc_chip_11cxx_lib/inc/ring_buffer.h **** /**
  54:../../lpc11cx4-library/lpc_chip_11cxx_lib/inc/ring_buffer.h ****  * @def		RB_VHEAD(rb)
  55:../../lpc11cx4-library/lpc_chip_11cxx_lib/inc/ring_buffer.h ****  * volatile typecasted head index
  56:../../lpc11cx4-library/lpc_chip_11cxx_lib/inc/ring_buffer.h ****  */
  57:../../lpc11cx4-library/lpc_chip_11cxx_lib/inc/ring_buffer.h **** // #define RB_VHEAD(rb)              (*(volatile uint32_t *) &(rb)->head)
  58:../../lpc11cx4-library/lpc_chip_11cxx_lib/inc/ring_buffer.h **** #define RB_VHEAD(rb)				((volatile uint32_t)(rb->head))
  59:../../lpc11cx4-library/lpc_chip_11cxx_lib/inc/ring_buffer.h **** 
  60:../../lpc11cx4-library/lpc_chip_11cxx_lib/inc/ring_buffer.h **** /**
  61:../../lpc11cx4-library/lpc_chip_11cxx_lib/inc/ring_buffer.h ****  * @def		RB_VTAIL(rb)
  62:../../lpc11cx4-library/lpc_chip_11cxx_lib/inc/ring_buffer.h ****  * volatile typecasted tail index
  63:../../lpc11cx4-library/lpc_chip_11cxx_lib/inc/ring_buffer.h ****  */
  64:../../lpc11cx4-library/lpc_chip_11cxx_lib/inc/ring_buffer.h **** // #define RB_VTAIL(rb)              (*(volatile uint32_t *) &(rb)->tail)
  65:../../lpc11cx4-library/lpc_chip_11cxx_lib/inc/ring_buffer.h **** #define RB_VTAIL(rb)				((volatile uint32_t)(rb->tail))
  66:../../lpc11cx4-library/lpc_chip_11cxx_lib/inc/ring_buffer.h **** 
  67:../../lpc11cx4-library/lpc_chip_11cxx_lib/inc/ring_buffer.h **** /**
  68:../../lpc11cx4-library/lpc_chip_11cxx_lib/inc/ring_buffer.h ****  * @brief	Initialize ring buffer
  69:../../lpc11cx4-library/lpc_chip_11cxx_lib/inc/ring_buffer.h ****  * @param	RingBuff	: Pointer to ring buffer to initialize
  70:../../lpc11cx4-library/lpc_chip_11cxx_lib/inc/ring_buffer.h ****  * @param	buffer		: Pointer to buffer to associate with RingBuff
  71:../../lpc11cx4-library/lpc_chip_11cxx_lib/inc/ring_buffer.h ****  * @param	itemSize	: Size of each buffer item size
  72:../../lpc11cx4-library/lpc_chip_11cxx_lib/inc/ring_buffer.h ****  * @param	count		: Size of ring buffer
  73:../../lpc11cx4-library/lpc_chip_11cxx_lib/inc/ring_buffer.h ****  * @note	Memory pointed by @a buffer must have correct alignment of
  74:../../lpc11cx4-library/lpc_chip_11cxx_lib/inc/ring_buffer.h ****  * 			@a itemSize, and @a count must be a power of 2 and must at
  75:../../lpc11cx4-library/lpc_chip_11cxx_lib/inc/ring_buffer.h ****  * 			least be 2 or greater.
  76:../../lpc11cx4-library/lpc_chip_11cxx_lib/inc/ring_buffer.h ****  * @return	Nothing
  77:../../lpc11cx4-library/lpc_chip_11cxx_lib/inc/ring_buffer.h ****  */
  78:../../lpc11cx4-library/lpc_chip_11cxx_lib/inc/ring_buffer.h **** int RingBuffer_Init(RINGBUFF_T *RingBuff, void *buffer, uint32_t itemSize, uint32_t count);
  79:../../lpc11cx4-library/lpc_chip_11cxx_lib/inc/ring_buffer.h **** 
  80:../../lpc11cx4-library/lpc_chip_11cxx_lib/inc/ring_buffer.h **** /**
  81:../../lpc11cx4-library/lpc_chip_11cxx_lib/inc/ring_buffer.h ****  * @brief	Resets the ring buffer to empty
  82:../../lpc11cx4-library/lpc_chip_11cxx_lib/inc/ring_buffer.h ****  * @param	RingBuff	: Pointer to ring buffer
  83:../../lpc11cx4-library/lpc_chip_11cxx_lib/inc/ring_buffer.h ****  * @return	Nothing
  84:../../lpc11cx4-library/lpc_chip_11cxx_lib/inc/ring_buffer.h ****  */
  85:../../lpc11cx4-library/lpc_chip_11cxx_lib/inc/ring_buffer.h **** STATIC INLINE void RingBuffer_Flush(RINGBUFF_T *RingBuff)
  86:../../lpc11cx4-library/lpc_chip_11cxx_lib/inc/ring_buffer.h **** {
  87:../../lpc11cx4-library/lpc_chip_11cxx_lib/inc/ring_buffer.h **** 	RingBuff->head = RingBuff->tail = 0;
  88:../../lpc11cx4-library/lpc_chip_11cxx_lib/inc/ring_buffer.h **** }
  89:../../lpc11cx4-library/lpc_chip_11cxx_lib/inc/ring_buffer.h **** 
ARM GAS  /tmp/ccb1LXU9.s 			page 6


  90:../../lpc11cx4-library/lpc_chip_11cxx_lib/inc/ring_buffer.h **** /**
  91:../../lpc11cx4-library/lpc_chip_11cxx_lib/inc/ring_buffer.h ****  * @brief	Return size the ring buffer
  92:../../lpc11cx4-library/lpc_chip_11cxx_lib/inc/ring_buffer.h ****  * @param	RingBuff	: Pointer to ring buffer
  93:../../lpc11cx4-library/lpc_chip_11cxx_lib/inc/ring_buffer.h ****  * @return	Size of the ring buffer in bytes
  94:../../lpc11cx4-library/lpc_chip_11cxx_lib/inc/ring_buffer.h ****  */
  95:../../lpc11cx4-library/lpc_chip_11cxx_lib/inc/ring_buffer.h **** STATIC INLINE uint32_t RingBuffer_GetSize(RINGBUFF_T *RingBuff)
  96:../../lpc11cx4-library/lpc_chip_11cxx_lib/inc/ring_buffer.h **** {
  97:../../lpc11cx4-library/lpc_chip_11cxx_lib/inc/ring_buffer.h **** 	return RingBuff->count;
  98:../../lpc11cx4-library/lpc_chip_11cxx_lib/inc/ring_buffer.h **** }
  99:../../lpc11cx4-library/lpc_chip_11cxx_lib/inc/ring_buffer.h **** 
 100:../../lpc11cx4-library/lpc_chip_11cxx_lib/inc/ring_buffer.h **** /**
 101:../../lpc11cx4-library/lpc_chip_11cxx_lib/inc/ring_buffer.h ****  * @brief	Return number of items in the ring buffer
 102:../../lpc11cx4-library/lpc_chip_11cxx_lib/inc/ring_buffer.h ****  * @param	RingBuff	: Pointer to ring buffer
 103:../../lpc11cx4-library/lpc_chip_11cxx_lib/inc/ring_buffer.h ****  * @return	Number of items in the ring buffer
 104:../../lpc11cx4-library/lpc_chip_11cxx_lib/inc/ring_buffer.h ****  */
 105:../../lpc11cx4-library/lpc_chip_11cxx_lib/inc/ring_buffer.h **** STATIC INLINE uint32_t RingBuffer_GetCount(RINGBUFF_T *RingBuff)
 106:../../lpc11cx4-library/lpc_chip_11cxx_lib/inc/ring_buffer.h **** {
 107:../../lpc11cx4-library/lpc_chip_11cxx_lib/inc/ring_buffer.h **** 	return RB_VHEAD(RingBuff) - RB_VTAIL(RingBuff);
 128              		.loc 2 107 0
 129 0006 0269     		ldr	r2, [r0, #16]	@ tmp145, MEM[(long unsigned int *)RingBuff_4(D) + 16B]
 130              	.LBE27:
 131              	.LBE26:
 132              	.LBE25:
 133              	.LBE24:
 134              		.loc 1 67 0
 135 0008 C0B4     		push	{r6, r7}	@
 136              		.cfi_def_cfa_offset 32
 137              		.cfi_offset 8, -32
 138              		.cfi_offset 9, -28
 139              	.LBB32:
 140              	.LBB30:
 108:../../lpc11cx4-library/lpc_chip_11cxx_lib/inc/ring_buffer.h **** }
 109:../../lpc11cx4-library/lpc_chip_11cxx_lib/inc/ring_buffer.h **** 
 110:../../lpc11cx4-library/lpc_chip_11cxx_lib/inc/ring_buffer.h **** /**
 111:../../lpc11cx4-library/lpc_chip_11cxx_lib/inc/ring_buffer.h ****  * @brief	Return number of free items in the ring buffer
 112:../../lpc11cx4-library/lpc_chip_11cxx_lib/inc/ring_buffer.h ****  * @param	RingBuff	: Pointer to ring buffer
 113:../../lpc11cx4-library/lpc_chip_11cxx_lib/inc/ring_buffer.h ****  * @return	Number of free items in the ring buffer
 114:../../lpc11cx4-library/lpc_chip_11cxx_lib/inc/ring_buffer.h ****  */
 115:../../lpc11cx4-library/lpc_chip_11cxx_lib/inc/ring_buffer.h **** STATIC INLINE uint32_t RingBuffer_GetFree(RINGBUFF_T *RingBuff)
 116:../../lpc11cx4-library/lpc_chip_11cxx_lib/inc/ring_buffer.h **** {
 117:../../lpc11cx4-library/lpc_chip_11cxx_lib/inc/ring_buffer.h **** 	return RingBuff->count - RingBuffer_GetCount(RingBuff);
 118:../../lpc11cx4-library/lpc_chip_11cxx_lib/inc/ring_buffer.h **** }
 119:../../lpc11cx4-library/lpc_chip_11cxx_lib/inc/ring_buffer.h **** 
 120:../../lpc11cx4-library/lpc_chip_11cxx_lib/inc/ring_buffer.h **** /**
 121:../../lpc11cx4-library/lpc_chip_11cxx_lib/inc/ring_buffer.h ****  * @brief	Return number of items in the ring buffer
 122:../../lpc11cx4-library/lpc_chip_11cxx_lib/inc/ring_buffer.h ****  * @param	RingBuff	: Pointer to ring buffer
 123:../../lpc11cx4-library/lpc_chip_11cxx_lib/inc/ring_buffer.h ****  * @return	1 if the ring buffer is full, otherwise 0
 124:../../lpc11cx4-library/lpc_chip_11cxx_lib/inc/ring_buffer.h ****  */
 125:../../lpc11cx4-library/lpc_chip_11cxx_lib/inc/ring_buffer.h **** STATIC INLINE int RingBuffer_IsFull(RINGBUFF_T *RingBuff)
 126:../../lpc11cx4-library/lpc_chip_11cxx_lib/inc/ring_buffer.h **** {
 127:../../lpc11cx4-library/lpc_chip_11cxx_lib/inc/ring_buffer.h **** 	return (RingBuffer_GetCount(RingBuff) >= RingBuff->count);
 141              		.loc 2 127 0
 142 000a 4568     		ldr	r5, [r0, #4]	@ D.4726, RingBuff_4(D)->count
 143 000c C668     		ldr	r6, [r0, #12]	@ D.4727, MEM[(long unsigned int *)RingBuff_4(D) + 12B]
 144              	.LBE30:
 145              	.LBE32:
 146              		.loc 1 67 0
ARM GAS  /tmp/ccb1LXU9.s 			page 7


 147 000e 031C     		mov	r3, r0	@ RingBuff, RingBuff
  68:../../lpc11cx4-library/lpc_chip_11cxx_lib/src/ring_buffer.c **** 	uint8_t *ptr = RingBuff->data;
 148              		.loc 1 68 0
 149 0010 0768     		ldr	r7, [r0]	@ ptr, RingBuff_4(D)->data
 150              	.LVL4:
 151              	.LBB33:
 152              	.LBB31:
 153              	.LBB29:
 154              	.LBB28:
 107:../../lpc11cx4-library/lpc_chip_11cxx_lib/inc/ring_buffer.h **** }
 155              		.loc 2 107 0
 156 0012 B21A     		sub	r2, r6, r2	@ D.4727, D.4727, tmp145
 157              	.LBE28:
 158              	.LBE29:
 159              	.LBE31:
 160              	.LBE33:
  69:../../lpc11cx4-library/lpc_chip_11cxx_lib/src/ring_buffer.c **** 
  70:../../lpc11cx4-library/lpc_chip_11cxx_lib/src/ring_buffer.c **** 	/* We cannot insert when queue is full */
  71:../../lpc11cx4-library/lpc_chip_11cxx_lib/src/ring_buffer.c **** 	if (RingBuffer_IsFull(RingBuff))
  72:../../lpc11cx4-library/lpc_chip_11cxx_lib/src/ring_buffer.c **** 		return 0;
 161              		.loc 1 72 0
 162 0014 0020     		mov	r0, #0	@ D.4725,
 163              	.LVL5:
  71:../../lpc11cx4-library/lpc_chip_11cxx_lib/src/ring_buffer.c **** 		return 0;
 164              		.loc 1 71 0
 165 0016 AA42     		cmp	r2, r5	@ D.4727, D.4726
 166 0018 12D2     		bcs	.L3	@,
 167 001a 1C1C     		mov	r4, r3	@ RingBuff, RingBuff
  73:../../lpc11cx4-library/lpc_chip_11cxx_lib/src/ring_buffer.c **** 
  74:../../lpc11cx4-library/lpc_chip_11cxx_lib/src/ring_buffer.c **** 	ptr += RB_INDH(RingBuff) * RingBuff->itemSz;
 168              		.loc 1 74 0
 169 001c 9B68     		ldr	r3, [r3, #8]	@ D.4726, RingBuff_4(D)->itemSz
 170              	.LVL6:
 171 001e 8846     		mov	r8, r1	@ data, data
 172 0020 9946     		mov	r9, r3	@ D.4726, D.4726
 173              	.LVL7:
 174 0022 301C     		mov	r0, r6	@, D.4727
 175 0024 291C     		mov	r1, r5	@, D.4726
 176              	.LVL8:
 177 0026 FFF7FEFF 		bl	__aeabi_uidivmod	@
 178              	.LVL9:
 179 002a 4846     		mov	r0, r9	@ D.4726, D.4726
 180 002c 4843     		mul	r0, r1	@ D.4726, D.4726
  75:../../lpc11cx4-library/lpc_chip_11cxx_lib/src/ring_buffer.c **** 	memcpy(ptr, data, RingBuff->itemSz);
 181              		.loc 1 75 0
 182 002e 4A46     		mov	r2, r9	@, D.4726
  74:../../lpc11cx4-library/lpc_chip_11cxx_lib/src/ring_buffer.c **** 	memcpy(ptr, data, RingBuff->itemSz);
 183              		.loc 1 74 0
 184 0030 3818     		add	r0, r7, r0	@ ptr, ptr, D.4726
 185              		.loc 1 75 0
 186 0032 4146     		mov	r1, r8	@, data
 187 0034 FFF7FEFF 		bl	memcpy	@
 188              	.LVL10:
  76:../../lpc11cx4-library/lpc_chip_11cxx_lib/src/ring_buffer.c **** 	RingBuff->head++;
  77:../../lpc11cx4-library/lpc_chip_11cxx_lib/src/ring_buffer.c **** 
  78:../../lpc11cx4-library/lpc_chip_11cxx_lib/src/ring_buffer.c **** 	return 1;
 189              		.loc 1 78 0
ARM GAS  /tmp/ccb1LXU9.s 			page 8


 190 0038 0120     		mov	r0, #1	@ D.4725,
  76:../../lpc11cx4-library/lpc_chip_11cxx_lib/src/ring_buffer.c **** 	RingBuff->head++;
 191              		.loc 1 76 0
 192 003a E368     		ldr	r3, [r4, #12]	@ tmp148, RingBuff_4(D)->head
 193 003c 0133     		add	r3, r3, #1	@ D.4726,
 194 003e E360     		str	r3, [r4, #12]	@ D.4726, RingBuff_4(D)->head
 195              	.LVL11:
 196              	.L3:
  79:../../lpc11cx4-library/lpc_chip_11cxx_lib/src/ring_buffer.c **** }
 197              		.loc 1 79 0
 198              		@ sp needed	@
 199 0040 0CBC     		pop	{r2, r3}
 200 0042 9046     		mov	r8, r2
 201 0044 9946     		mov	r9, r3
 202 0046 F8BD     		pop	{r3, r4, r5, r6, r7, pc}
 203              		.cfi_endproc
 204              	.LFE7:
 205              		.size	RingBuffer_Insert, .-RingBuffer_Insert
 206              		.section	.text.RingBuffer_InsertMult,"ax",%progbits
 207              		.align	2
 208              		.global	RingBuffer_InsertMult
 209              		.code	16
 210              		.thumb_func
 211              		.type	RingBuffer_InsertMult, %function
 212              	RingBuffer_InsertMult:
 213              	.LFB8:
  80:../../lpc11cx4-library/lpc_chip_11cxx_lib/src/ring_buffer.c **** 
  81:../../lpc11cx4-library/lpc_chip_11cxx_lib/src/ring_buffer.c **** /* Insert multiple items into Ring Buffer */
  82:../../lpc11cx4-library/lpc_chip_11cxx_lib/src/ring_buffer.c **** uint32_t RingBuffer_InsertMult(RINGBUFF_T *RingBuff, const void *data, int num)
  83:../../lpc11cx4-library/lpc_chip_11cxx_lib/src/ring_buffer.c **** {
 214              		.loc 1 83 0
 215              		.cfi_startproc
 216              	.LVL12:
 217 0000 F8B5     		push	{r3, r4, r5, r6, r7, lr}	@
 218              		.cfi_def_cfa_offset 24
 219              		.cfi_offset 3, -24
 220              		.cfi_offset 4, -20
 221              		.cfi_offset 5, -16
 222              		.cfi_offset 6, -12
 223              		.cfi_offset 7, -8
 224              		.cfi_offset 14, -4
 225 0002 4F46     		mov	r7, r9	@,
 226 0004 4646     		mov	r6, r8	@,
  84:../../lpc11cx4-library/lpc_chip_11cxx_lib/src/ring_buffer.c **** 
  85:../../lpc11cx4-library/lpc_chip_11cxx_lib/src/ring_buffer.c **** 	uint8_t *ptr = RingBuff->data;
 227              		.loc 1 85 0
 228 0006 0368     		ldr	r3, [r0]	@ ptr, RingBuff_5(D)->data
  83:../../lpc11cx4-library/lpc_chip_11cxx_lib/src/ring_buffer.c **** 
 229              		.loc 1 83 0
 230 0008 C0B4     		push	{r6, r7}	@
 231              		.cfi_def_cfa_offset 32
 232              		.cfi_offset 8, -32
 233              		.cfi_offset 9, -28
  83:../../lpc11cx4-library/lpc_chip_11cxx_lib/src/ring_buffer.c **** 
 234              		.loc 1 83 0
 235 000a 151C     		mov	r5, r2	@ num, num
 236              		.loc 1 85 0
ARM GAS  /tmp/ccb1LXU9.s 			page 9


 237 000c 9946     		mov	r9, r3	@ ptr, ptr
 238              	.LVL13:
 239 000e C268     		ldr	r2, [r0, #12]	@ D.4734, MEM[(long unsigned int *)RingBuff_5(D) + 12B]
 240              	.LVL14:
 241              	.LBB34:
 242              	.LBB35:
 243              	.LBB36:
 244              	.LBB37:
 107:../../lpc11cx4-library/lpc_chip_11cxx_lib/inc/ring_buffer.h **** }
 245              		.loc 2 107 0
 246 0010 0369     		ldr	r3, [r0, #16]	@ tmp191, MEM[(long unsigned int *)RingBuff_5(D) + 16B]
 247              	.LVL15:
 248              	.LBE37:
 249              	.LBE36:
 250              		.loc 2 127 0
 251 0012 4768     		ldr	r7, [r0, #4]	@ D.4735, RingBuff_5(D)->count
 252              	.LBB39:
 253              	.LBB38:
 107:../../lpc11cx4-library/lpc_chip_11cxx_lib/inc/ring_buffer.h **** }
 254              		.loc 2 107 0
 255 0014 D31A     		sub	r3, r2, r3	@ D.4734, D.4734, tmp191
 256              	.LBE38:
 257              	.LBE39:
 258              	.LBE35:
 259              	.LBE34:
  86:../../lpc11cx4-library/lpc_chip_11cxx_lib/src/ring_buffer.c **** 	int cnt1, cnt2;
  87:../../lpc11cx4-library/lpc_chip_11cxx_lib/src/ring_buffer.c **** 
  88:../../lpc11cx4-library/lpc_chip_11cxx_lib/src/ring_buffer.c **** 	/* We cannot insert when queue is full */
  89:../../lpc11cx4-library/lpc_chip_11cxx_lib/src/ring_buffer.c **** 	if (RingBuffer_IsFull(RingBuff))
  90:../../lpc11cx4-library/lpc_chip_11cxx_lib/src/ring_buffer.c **** 		return 0;
 260              		.loc 1 90 0
 261 0016 0024     		mov	r4, #0	@ D.4734,
  89:../../lpc11cx4-library/lpc_chip_11cxx_lib/src/ring_buffer.c **** 		return 0;
 262              		.loc 1 89 0
 263 0018 BB42     		cmp	r3, r7	@ D.4734, D.4735
 264 001a 32D2     		bcs	.L7	@,
 265 001c A846     		mov	r8, r5	@ num, num
 266 001e 0E1C     		mov	r6, r1	@ data, data
 267 0020 051C     		mov	r5, r0	@ RingBuff, RingBuff
 268              	.LVL16:
  91:../../lpc11cx4-library/lpc_chip_11cxx_lib/src/ring_buffer.c **** 
  92:../../lpc11cx4-library/lpc_chip_11cxx_lib/src/ring_buffer.c **** 	/* Calculate the segment lengths */
  93:../../lpc11cx4-library/lpc_chip_11cxx_lib/src/ring_buffer.c **** 	cnt1 = cnt2 = RingBuffer_GetFree(RingBuff);
  94:../../lpc11cx4-library/lpc_chip_11cxx_lib/src/ring_buffer.c **** 	if (RB_INDH(RingBuff) + cnt1 >= RingBuff->count)
 269              		.loc 1 94 0
 270 0022 391C     		mov	r1, r7	@, D.4735
 271              	.LVL17:
 272 0024 101C     		mov	r0, r2	@, D.4734
 273              	.LVL18:
 274              	.LBB40:
 275              	.LBB41:
 117:../../lpc11cx4-library/lpc_chip_11cxx_lib/inc/ring_buffer.h **** }
 276              		.loc 2 117 0
 277 0026 FC1A     		sub	r4, r7, r3	@ cnt1, D.4735, D.4734
 278              	.LVL19:
 279              	.LBE41:
 280              	.LBE40:
ARM GAS  /tmp/ccb1LXU9.s 			page 10


 281              		.loc 1 94 0
 282 0028 FFF7FEFF 		bl	__aeabi_uidivmod	@
 283              	.LVL20:
 284 002c 6318     		add	r3, r4, r1	@ D.4735, cnt1, D.4735
 285 002e 0022     		mov	r2, #0	@ D.4737,
 286 0030 BB42     		cmp	r3, r7	@ D.4735, D.4735
 287 0032 02D3     		bcc	.L8	@,
  95:../../lpc11cx4-library/lpc_chip_11cxx_lib/src/ring_buffer.c **** 		cnt1 = RingBuff->count - RB_INDH(RingBuff);
 288              		.loc 1 95 0
 289 0034 7B1A     		sub	r3, r7, r1	@ cnt1, D.4735, D.4735
 290              	.LVL21:
 291 0036 E21A     		sub	r2, r4, r3	@ D.4737, cnt1, cnt1
 292 0038 1C1C     		mov	r4, r3	@ cnt1, cnt1
 293              	.LVL22:
 294              	.L8:
  96:../../lpc11cx4-library/lpc_chip_11cxx_lib/src/ring_buffer.c **** 	cnt2 -= cnt1;
  97:../../lpc11cx4-library/lpc_chip_11cxx_lib/src/ring_buffer.c **** 
  98:../../lpc11cx4-library/lpc_chip_11cxx_lib/src/ring_buffer.c **** 	cnt1 = MIN(cnt1, num);
 295              		.loc 1 98 0
 296 003a 4445     		cmp	r4, r8	@ cnt1, num
 297 003c 28DC     		bgt	.L13	@,
 298              	.LVL23:
  99:../../lpc11cx4-library/lpc_chip_11cxx_lib/src/ring_buffer.c **** 	num -= cnt1;
 299              		.loc 1 99 0
 300 003e 4346     		mov	r3, r8	@ num, num
 301 0040 1B1B     		sub	r3, r3, r4	@ cnt2, num, cnt1
 302              	.LVL24:
 303 0042 9846     		mov	r8, r3	@ cnt2, cnt2
 100:../../lpc11cx4-library/lpc_chip_11cxx_lib/src/ring_buffer.c **** 
 101:../../lpc11cx4-library/lpc_chip_11cxx_lib/src/ring_buffer.c **** 	cnt2 = MIN(cnt2, num);
 304              		.loc 1 101 0
 305 0044 9342     		cmp	r3, r2	@ cnt2, D.4737
 306 0046 21DC     		bgt	.L14	@,
 307              	.L10:
 308              	.LVL25:
 102:../../lpc11cx4-library/lpc_chip_11cxx_lib/src/ring_buffer.c **** 	num -= cnt2;
 103:../../lpc11cx4-library/lpc_chip_11cxx_lib/src/ring_buffer.c **** 
 104:../../lpc11cx4-library/lpc_chip_11cxx_lib/src/ring_buffer.c **** 	/* Write segment 1 */
 105:../../lpc11cx4-library/lpc_chip_11cxx_lib/src/ring_buffer.c **** 	ptr += RB_INDH(RingBuff) * RingBuff->itemSz;
 309              		.loc 1 105 0
 310 0048 AA68     		ldr	r2, [r5, #8]	@ D.4735, RingBuff_5(D)->itemSz
 311              	.LVL26:
 312 004a 5143     		mul	r1, r2	@ D.4735, D.4735
 313              	.LVL27:
 314 004c 4944     		add	r1, r1, r9	@ ptr, ptr
 315              	.LVL28:
 106:../../lpc11cx4-library/lpc_chip_11cxx_lib/src/ring_buffer.c **** 	memcpy(ptr, data, cnt1 * RingBuff->itemSz);
 316              		.loc 1 106 0
 317 004e 6243     		mul	r2, r4	@ D.4735, cnt1
 105:../../lpc11cx4-library/lpc_chip_11cxx_lib/src/ring_buffer.c **** 	memcpy(ptr, data, cnt1 * RingBuff->itemSz);
 318              		.loc 1 105 0
 319 0050 081C     		mov	r0, r1	@ ptr, ptr
 320              		.loc 1 106 0
 321 0052 311C     		mov	r1, r6	@, data
 322              	.LVL29:
 323 0054 FFF7FEFF 		bl	memcpy	@
 324              	.LVL30:
ARM GAS  /tmp/ccb1LXU9.s 			page 11


 107:../../lpc11cx4-library/lpc_chip_11cxx_lib/src/ring_buffer.c **** 	RingBuff->head += cnt1;
 325              		.loc 1 107 0
 326 0058 EB68     		ldr	r3, [r5, #12]	@ tmp195, RingBuff_5(D)->head
 108:../../lpc11cx4-library/lpc_chip_11cxx_lib/src/ring_buffer.c **** 
 109:../../lpc11cx4-library/lpc_chip_11cxx_lib/src/ring_buffer.c **** 	/* Write segment 2 */
 110:../../lpc11cx4-library/lpc_chip_11cxx_lib/src/ring_buffer.c **** 	ptr = (uint8_t *) RingBuff->data + RB_INDH(RingBuff) * RingBuff->itemSz;
 327              		.loc 1 110 0
 328 005a 6968     		ldr	r1, [r5, #4]	@, RingBuff_5(D)->count
 107:../../lpc11cx4-library/lpc_chip_11cxx_lib/src/ring_buffer.c **** 	RingBuff->head += cnt1;
 329              		.loc 1 107 0
 330 005c E018     		add	r0, r4, r3	@ D.4735, cnt1, tmp195
 331 005e E860     		str	r0, [r5, #12]	@ D.4735, RingBuff_5(D)->head
 332              		.loc 1 110 0
 333 0060 FFF7FEFF 		bl	__aeabi_uidivmod	@
 334              	.LVL31:
 335 0064 AF68     		ldr	r7, [r5, #8]	@ D.4735, RingBuff_5(D)->itemSz
 336              	.LVL32:
 337 0066 2B68     		ldr	r3, [r5]	@ tmp196, RingBuff_5(D)->data
 338 0068 7943     		mul	r1, r7	@ D.4735, D.4735
 339 006a 5818     		add	r0, r3, r1	@ ptr, tmp196, D.4735
 111:../../lpc11cx4-library/lpc_chip_11cxx_lib/src/ring_buffer.c **** 	data = (const uint8_t *) data + cnt1 * RingBuff->itemSz;
 340              		.loc 1 111 0
 341 006c 3B1C     		mov	r3, r7	@ D.4735, D.4735
 112:../../lpc11cx4-library/lpc_chip_11cxx_lib/src/ring_buffer.c **** 	memcpy(ptr, data, cnt2 * RingBuff->itemSz);
 342              		.loc 1 112 0
 343 006e 4246     		mov	r2, r8	@ D.4735, cnt2
 111:../../lpc11cx4-library/lpc_chip_11cxx_lib/src/ring_buffer.c **** 	data = (const uint8_t *) data + cnt1 * RingBuff->itemSz;
 344              		.loc 1 111 0
 345 0070 6343     		mul	r3, r4	@ D.4735, cnt1
 346              		.loc 1 112 0
 347 0072 7A43     		mul	r2, r7	@ D.4735, D.4735
 111:../../lpc11cx4-library/lpc_chip_11cxx_lib/src/ring_buffer.c **** 	data = (const uint8_t *) data + cnt1 * RingBuff->itemSz;
 348              		.loc 1 111 0
 349 0074 F118     		add	r1, r6, r3	@ data, data, D.4735
 350              	.LVL33:
 351              		.loc 1 112 0
 352 0076 FFF7FEFF 		bl	memcpy	@
 353              	.LVL34:
 113:../../lpc11cx4-library/lpc_chip_11cxx_lib/src/ring_buffer.c **** 	RingBuff->head += cnt2;
 354              		.loc 1 113 0
 355 007a EB68     		ldr	r3, [r5, #12]	@ D.4735, RingBuff_5(D)->head
 114:../../lpc11cx4-library/lpc_chip_11cxx_lib/src/ring_buffer.c **** 
 115:../../lpc11cx4-library/lpc_chip_11cxx_lib/src/ring_buffer.c **** 	return cnt1 + cnt2;
 356              		.loc 1 115 0
 357 007c 4444     		add	r4, r4, r8	@ D.4734, cnt2
 358              	.LVL35:
 113:../../lpc11cx4-library/lpc_chip_11cxx_lib/src/ring_buffer.c **** 	RingBuff->head += cnt2;
 359              		.loc 1 113 0
 360 007e 4344     		add	r3, r3, r8	@ D.4735, cnt2
 361 0080 EB60     		str	r3, [r5, #12]	@ D.4735, RingBuff_5(D)->head
 362              	.LVL36:
 363              	.L7:
 116:../../lpc11cx4-library/lpc_chip_11cxx_lib/src/ring_buffer.c **** }
 364              		.loc 1 116 0
 365 0082 201C     		mov	r0, r4	@, D.4734
 366              		@ sp needed	@
 367 0084 0CBC     		pop	{r2, r3}
ARM GAS  /tmp/ccb1LXU9.s 			page 12


 368 0086 9046     		mov	r8, r2
 369 0088 9946     		mov	r9, r3
 370 008a F8BD     		pop	{r3, r4, r5, r6, r7, pc}
 371              	.LVL37:
 372              	.L14:
 101:../../lpc11cx4-library/lpc_chip_11cxx_lib/src/ring_buffer.c **** 	num -= cnt2;
 373              		.loc 1 101 0
 374 008c 9046     		mov	r8, r2	@ cnt2, D.4737
 375 008e DBE7     		b	.L10	@
 376              	.LVL38:
 377              	.L13:
  98:../../lpc11cx4-library/lpc_chip_11cxx_lib/src/ring_buffer.c **** 	num -= cnt1;
 378              		.loc 1 98 0
 379 0090 4446     		mov	r4, r8	@ cnt1, num
 380              	.LVL39:
  99:../../lpc11cx4-library/lpc_chip_11cxx_lib/src/ring_buffer.c **** 
 381              		.loc 1 99 0
 382 0092 4346     		mov	r3, r8	@ num, num
 383 0094 1B1B     		sub	r3, r3, r4	@ cnt2, num, cnt1
 384              	.LVL40:
 385 0096 9846     		mov	r8, r3	@ cnt2, cnt2
 101:../../lpc11cx4-library/lpc_chip_11cxx_lib/src/ring_buffer.c **** 	num -= cnt2;
 386              		.loc 1 101 0
 387 0098 9342     		cmp	r3, r2	@ cnt2, D.4737
 388 009a D5DD     		ble	.L10	@,
 389 009c F6E7     		b	.L14	@
 390              		.cfi_endproc
 391              	.LFE8:
 392              		.size	RingBuffer_InsertMult, .-RingBuffer_InsertMult
 393 009e C046     		.section	.text.RingBuffer_Pop,"ax",%progbits
 394              		.align	2
 395              		.global	RingBuffer_Pop
 396              		.code	16
 397              		.thumb_func
 398              		.type	RingBuffer_Pop, %function
 399              	RingBuffer_Pop:
 400              	.LFB9:
 117:../../lpc11cx4-library/lpc_chip_11cxx_lib/src/ring_buffer.c **** 
 118:../../lpc11cx4-library/lpc_chip_11cxx_lib/src/ring_buffer.c **** /* Pop single item from Ring Buffer */
 119:../../lpc11cx4-library/lpc_chip_11cxx_lib/src/ring_buffer.c **** int RingBuffer_Pop(RINGBUFF_T *RingBuff, void *data)
 120:../../lpc11cx4-library/lpc_chip_11cxx_lib/src/ring_buffer.c **** {
 401              		.loc 1 120 0
 402              		.cfi_startproc
 403              	.LVL41:
 404 0000 F8B5     		push	{r3, r4, r5, r6, r7, lr}	@
 405              		.cfi_def_cfa_offset 24
 406              		.cfi_offset 3, -24
 407              		.cfi_offset 4, -20
 408              		.cfi_offset 5, -16
 409              		.cfi_offset 6, -12
 410              		.cfi_offset 7, -8
 411              		.cfi_offset 14, -4
 412              		.loc 1 120 0
 413 0002 031C     		mov	r3, r0	@ RingBuff, RingBuff
 414 0004 0269     		ldr	r2, [r0, #16]	@ D.4748, MEM[(long unsigned int *)RingBuff_4(D) + 16B]
 121:../../lpc11cx4-library/lpc_chip_11cxx_lib/src/ring_buffer.c **** 	uint8_t *ptr = RingBuff->data;
 122:../../lpc11cx4-library/lpc_chip_11cxx_lib/src/ring_buffer.c **** 
ARM GAS  /tmp/ccb1LXU9.s 			page 13


 123:../../lpc11cx4-library/lpc_chip_11cxx_lib/src/ring_buffer.c **** 	/* We cannot pop when queue is empty */
 124:../../lpc11cx4-library/lpc_chip_11cxx_lib/src/ring_buffer.c **** 	if (RingBuffer_IsEmpty(RingBuff))
 415              		.loc 1 124 0
 416 0006 DC68     		ldr	r4, [r3, #12]	@ tmp143, MEM[(long unsigned int *)RingBuff_4(D) + 12B]
 121:../../lpc11cx4-library/lpc_chip_11cxx_lib/src/ring_buffer.c **** 	uint8_t *ptr = RingBuff->data;
 417              		.loc 1 121 0
 418 0008 0668     		ldr	r6, [r0]	@ ptr, RingBuff_4(D)->data
 419              	.LVL42:
 125:../../lpc11cx4-library/lpc_chip_11cxx_lib/src/ring_buffer.c **** 		return 0;
 420              		.loc 1 125 0
 421 000a 0020     		mov	r0, #0	@ D.4747,
 422              	.LVL43:
 124:../../lpc11cx4-library/lpc_chip_11cxx_lib/src/ring_buffer.c **** 		return 0;
 423              		.loc 1 124 0
 424 000c 9442     		cmp	r4, r2	@ tmp143, D.4748
 425 000e 10D0     		beq	.L16	@,
 426 0010 0D1C     		mov	r5, r1	@ data, data
 126:../../lpc11cx4-library/lpc_chip_11cxx_lib/src/ring_buffer.c **** 
 127:../../lpc11cx4-library/lpc_chip_11cxx_lib/src/ring_buffer.c **** 	ptr += RB_INDT(RingBuff) * RingBuff->itemSz;
 427              		.loc 1 127 0
 428 0012 101C     		mov	r0, r2	@, D.4748
 429 0014 5968     		ldr	r1, [r3, #4]	@, RingBuff_4(D)->count
 430              	.LVL44:
 431 0016 9F68     		ldr	r7, [r3, #8]	@ D.4749, RingBuff_4(D)->itemSz
 432              	.LVL45:
 433 0018 1C1C     		mov	r4, r3	@ RingBuff, RingBuff
 434 001a FFF7FEFF 		bl	__aeabi_uidivmod	@
 435              	.LVL46:
 436 001e 7943     		mul	r1, r7	@ D.4749, D.4749
 128:../../lpc11cx4-library/lpc_chip_11cxx_lib/src/ring_buffer.c **** 	memcpy(data, ptr, RingBuff->itemSz);
 437              		.loc 1 128 0
 438 0020 281C     		mov	r0, r5	@, data
 127:../../lpc11cx4-library/lpc_chip_11cxx_lib/src/ring_buffer.c **** 	memcpy(data, ptr, RingBuff->itemSz);
 439              		.loc 1 127 0
 440 0022 7118     		add	r1, r6, r1	@ ptr, ptr, D.4749
 441              		.loc 1 128 0
 442 0024 3A1C     		mov	r2, r7	@, D.4749
 443 0026 FFF7FEFF 		bl	memcpy	@
 444              	.LVL47:
 129:../../lpc11cx4-library/lpc_chip_11cxx_lib/src/ring_buffer.c **** 	RingBuff->tail++;
 130:../../lpc11cx4-library/lpc_chip_11cxx_lib/src/ring_buffer.c ****  
 131:../../lpc11cx4-library/lpc_chip_11cxx_lib/src/ring_buffer.c **** 	return 1;
 445              		.loc 1 131 0
 446 002a 0120     		mov	r0, #1	@ D.4747,
 129:../../lpc11cx4-library/lpc_chip_11cxx_lib/src/ring_buffer.c **** 	RingBuff->tail++;
 447              		.loc 1 129 0
 448 002c 2369     		ldr	r3, [r4, #16]	@ tmp145, RingBuff_4(D)->tail
 449 002e 0133     		add	r3, r3, #1	@ D.4749,
 450 0030 2361     		str	r3, [r4, #16]	@ D.4749, RingBuff_4(D)->tail
 451              	.LVL48:
 452              	.L16:
 132:../../lpc11cx4-library/lpc_chip_11cxx_lib/src/ring_buffer.c **** }
 453              		.loc 1 132 0
 454              		@ sp needed	@
 455 0032 F8BD     		pop	{r3, r4, r5, r6, r7, pc}
 456              		.cfi_endproc
 457              	.LFE9:
ARM GAS  /tmp/ccb1LXU9.s 			page 14


 458              		.size	RingBuffer_Pop, .-RingBuffer_Pop
 459              		.section	.text.RingBuffer_PopMult,"ax",%progbits
 460              		.align	2
 461              		.global	RingBuffer_PopMult
 462              		.code	16
 463              		.thumb_func
 464              		.type	RingBuffer_PopMult, %function
 465              	RingBuffer_PopMult:
 466              	.LFB10:
 133:../../lpc11cx4-library/lpc_chip_11cxx_lib/src/ring_buffer.c **** 
 134:../../lpc11cx4-library/lpc_chip_11cxx_lib/src/ring_buffer.c **** /* Pop multiple items from Ring buffer */
 135:../../lpc11cx4-library/lpc_chip_11cxx_lib/src/ring_buffer.c **** uint32_t RingBuffer_PopMult(RINGBUFF_T *RingBuff, void *data, int num)
 136:../../lpc11cx4-library/lpc_chip_11cxx_lib/src/ring_buffer.c **** {
 467              		.loc 1 136 0
 468              		.cfi_startproc
 469              	.LVL49:
 470 0000 F8B5     		push	{r3, r4, r5, r6, r7, lr}	@
 471              		.cfi_def_cfa_offset 24
 472              		.cfi_offset 3, -24
 473              		.cfi_offset 4, -20
 474              		.cfi_offset 5, -16
 475              		.cfi_offset 6, -12
 476              		.cfi_offset 7, -8
 477              		.cfi_offset 14, -4
 478 0002 4F46     		mov	r7, r9	@,
 479 0004 4646     		mov	r6, r8	@,
 480 0006 041C     		mov	r4, r0	@ RingBuff, RingBuff
 481 0008 C0B4     		push	{r6, r7}	@
 482              		.cfi_def_cfa_offset 32
 483              		.cfi_offset 8, -32
 484              		.cfi_offset 9, -28
 485 000a C568     		ldr	r5, [r0, #12]	@ D.4755, MEM[(long unsigned int *)RingBuff_5(D) + 12B]
 137:../../lpc11cx4-library/lpc_chip_11cxx_lib/src/ring_buffer.c **** 	uint8_t *ptr = RingBuff->data;
 486              		.loc 1 137 0
 487 000c 0768     		ldr	r7, [r0]	@ ptr, RingBuff_5(D)->data
 488              	.LVL50:
 489 000e 0069     		ldr	r0, [r0, #16]	@ D.4755, MEM[(long unsigned int *)RingBuff_5(D) + 16B]
 490              	.LVL51:
 138:../../lpc11cx4-library/lpc_chip_11cxx_lib/src/ring_buffer.c **** 	int cnt1, cnt2;
 139:../../lpc11cx4-library/lpc_chip_11cxx_lib/src/ring_buffer.c **** 
 140:../../lpc11cx4-library/lpc_chip_11cxx_lib/src/ring_buffer.c **** 	/* We cannot insert when queue is empty */
 141:../../lpc11cx4-library/lpc_chip_11cxx_lib/src/ring_buffer.c **** 	if (RingBuffer_IsEmpty(RingBuff))
 491              		.loc 1 141 0
 492 0010 8542     		cmp	r5, r0	@ D.4755, D.4755
 493 0012 3FD0     		beq	.L23	@,
 142:../../lpc11cx4-library/lpc_chip_11cxx_lib/src/ring_buffer.c **** 		return 0;
 143:../../lpc11cx4-library/lpc_chip_11cxx_lib/src/ring_buffer.c **** 
 144:../../lpc11cx4-library/lpc_chip_11cxx_lib/src/ring_buffer.c **** 	/* Calculate the segment lengths */
 145:../../lpc11cx4-library/lpc_chip_11cxx_lib/src/ring_buffer.c **** 	cnt1 = cnt2 = RingBuffer_GetCount(RingBuff);
 146:../../lpc11cx4-library/lpc_chip_11cxx_lib/src/ring_buffer.c **** 	if (RB_INDT(RingBuff) + cnt1 >= RingBuff->count)
 494              		.loc 1 146 0
 495 0014 6368     		ldr	r3, [r4, #4]	@ D.4756, RingBuff_5(D)->count
 496 0016 8846     		mov	r8, r1	@ data, data
 497              	.LVL52:
 498 0018 191C     		mov	r1, r3	@, D.4756
 499              	.LVL53:
 500 001a 161C     		mov	r6, r2	@ num, num
ARM GAS  /tmp/ccb1LXU9.s 			page 15


 501              	.LBB42:
 502              	.LBB43:
 107:../../lpc11cx4-library/lpc_chip_11cxx_lib/inc/ring_buffer.h **** }
 503              		.loc 2 107 0
 504 001c 2D1A     		sub	r5, r5, r0	@ cnt1, D.4755, D.4755
 505              	.LVL54:
 506              	.LBE43:
 507              	.LBE42:
 508              		.loc 1 146 0
 509 001e 9946     		mov	r9, r3	@ D.4756, D.4756
 510 0020 FFF7FEFF 		bl	__aeabi_uidivmod	@
 511              	.LVL55:
 512 0024 4A19     		add	r2, r1, r5	@ D.4756, D.4756, cnt1
 513 0026 0023     		mov	r3, #0	@ D.4758,
 514 0028 9145     		cmp	r9, r2	@ D.4756, D.4756
 515 002a 03D8     		bhi	.L20	@,
 147:../../lpc11cx4-library/lpc_chip_11cxx_lib/src/ring_buffer.c **** 		cnt1 = RingBuff->count - RB_INDT(RingBuff);
 516              		.loc 1 147 0
 517 002c 4B46     		mov	r3, r9	@ D.4756, D.4756
 518 002e 5A1A     		sub	r2, r3, r1	@ cnt1, D.4756, D.4756
 519              	.LVL56:
 520 0030 AB1A     		sub	r3, r5, r2	@ D.4758, cnt1, cnt1
 521 0032 151C     		mov	r5, r2	@ cnt1, cnt1
 522              	.LVL57:
 523              	.L20:
 148:../../lpc11cx4-library/lpc_chip_11cxx_lib/src/ring_buffer.c **** 	cnt2 -= cnt1;
 149:../../lpc11cx4-library/lpc_chip_11cxx_lib/src/ring_buffer.c **** 
 150:../../lpc11cx4-library/lpc_chip_11cxx_lib/src/ring_buffer.c **** 	cnt1 = MIN(cnt1, num);
 524              		.loc 1 150 0
 525 0034 B542     		cmp	r5, r6	@ cnt1, num
 526 0036 28DC     		bgt	.L25	@,
 527              	.LVL58:
 151:../../lpc11cx4-library/lpc_chip_11cxx_lib/src/ring_buffer.c **** 	num -= cnt1;
 528              		.loc 1 151 0
 529 0038 761B     		sub	r6, r6, r5	@ cnt2, num, cnt1
 530              	.LVL59:
 152:../../lpc11cx4-library/lpc_chip_11cxx_lib/src/ring_buffer.c **** 
 153:../../lpc11cx4-library/lpc_chip_11cxx_lib/src/ring_buffer.c **** 	cnt2 = MIN(cnt2, num);
 531              		.loc 1 153 0
 532 003a 9E42     		cmp	r6, r3	@ cnt2, D.4758
 533 003c 23DC     		bgt	.L26	@,
 534              	.LVL60:
 535              	.L22:
 154:../../lpc11cx4-library/lpc_chip_11cxx_lib/src/ring_buffer.c **** 	num -= cnt2;
 155:../../lpc11cx4-library/lpc_chip_11cxx_lib/src/ring_buffer.c **** 
 156:../../lpc11cx4-library/lpc_chip_11cxx_lib/src/ring_buffer.c **** 	/* Write segment 1 */
 157:../../lpc11cx4-library/lpc_chip_11cxx_lib/src/ring_buffer.c **** 	ptr += RB_INDT(RingBuff) * RingBuff->itemSz;
 536              		.loc 1 157 0
 537 003e A368     		ldr	r3, [r4, #8]	@ D.4756, RingBuff_5(D)->itemSz
 538              	.LVL61:
 158:../../lpc11cx4-library/lpc_chip_11cxx_lib/src/ring_buffer.c **** 	memcpy(data, ptr, cnt1 * RingBuff->itemSz);
 539              		.loc 1 158 0
 540 0040 4046     		mov	r0, r8	@, data
 541 0042 1A1C     		mov	r2, r3	@ D.4756, D.4756
 157:../../lpc11cx4-library/lpc_chip_11cxx_lib/src/ring_buffer.c **** 	memcpy(data, ptr, cnt1 * RingBuff->itemSz);
 542              		.loc 1 157 0
 543 0044 4B43     		mul	r3, r1	@ D.4756, D.4756
ARM GAS  /tmp/ccb1LXU9.s 			page 16


 544              	.LVL62:
 545              		.loc 1 158 0
 546 0046 6A43     		mul	r2, r5	@ D.4756, cnt1
 547              	.LVL63:
 157:../../lpc11cx4-library/lpc_chip_11cxx_lib/src/ring_buffer.c **** 	memcpy(data, ptr, cnt1 * RingBuff->itemSz);
 548              		.loc 1 157 0
 549 0048 F918     		add	r1, r7, r3	@ ptr, ptr, D.4756
 550              	.LVL64:
 551              		.loc 1 158 0
 552 004a FFF7FEFF 		bl	memcpy	@
 553              	.LVL65:
 159:../../lpc11cx4-library/lpc_chip_11cxx_lib/src/ring_buffer.c **** 	RingBuff->tail += cnt1;
 160:../../lpc11cx4-library/lpc_chip_11cxx_lib/src/ring_buffer.c **** 
 161:../../lpc11cx4-library/lpc_chip_11cxx_lib/src/ring_buffer.c **** 	/* Write segment 2 */
 162:../../lpc11cx4-library/lpc_chip_11cxx_lib/src/ring_buffer.c **** 	ptr = (uint8_t *) RingBuff->data + RB_INDT(RingBuff) * RingBuff->itemSz;
 554              		.loc 1 162 0
 555 004e A768     		ldr	r7, [r4, #8]	@ D.4756, RingBuff_5(D)->itemSz
 159:../../lpc11cx4-library/lpc_chip_11cxx_lib/src/ring_buffer.c **** 	RingBuff->tail += cnt1;
 556              		.loc 1 159 0
 557 0050 2369     		ldr	r3, [r4, #16]	@ tmp191, RingBuff_5(D)->tail
 163:../../lpc11cx4-library/lpc_chip_11cxx_lib/src/ring_buffer.c **** 	data = (uint8_t *) data + cnt1 * RingBuff->itemSz;
 558              		.loc 1 163 0
 559 0052 391C     		mov	r1, r7	@ D.4756, D.4756
 159:../../lpc11cx4-library/lpc_chip_11cxx_lib/src/ring_buffer.c **** 	RingBuff->tail += cnt1;
 560              		.loc 1 159 0
 561 0054 E818     		add	r0, r5, r3	@ D.4756, cnt1, tmp191
 562              	.LVL66:
 164:../../lpc11cx4-library/lpc_chip_11cxx_lib/src/ring_buffer.c **** 	memcpy(data, ptr, cnt2 * RingBuff->itemSz);
 563              		.loc 1 164 0
 564 0056 3B1C     		mov	r3, r7	@ D.4756, D.4756
 163:../../lpc11cx4-library/lpc_chip_11cxx_lib/src/ring_buffer.c **** 	data = (uint8_t *) data + cnt1 * RingBuff->itemSz;
 565              		.loc 1 163 0
 566 0058 6943     		mul	r1, r5	@ D.4756, cnt1
 567              	.LVL67:
 568              		.loc 1 164 0
 569 005a 7343     		mul	r3, r6	@ D.4756, cnt2
 570              	.LVL68:
 163:../../lpc11cx4-library/lpc_chip_11cxx_lib/src/ring_buffer.c **** 	data = (uint8_t *) data + cnt1 * RingBuff->itemSz;
 571              		.loc 1 163 0
 572 005c 8844     		add	r8, r8, r1	@ data, D.4756
 573              	.LVL69:
 159:../../lpc11cx4-library/lpc_chip_11cxx_lib/src/ring_buffer.c **** 	RingBuff->tail += cnt1;
 574              		.loc 1 159 0
 575 005e 2061     		str	r0, [r4, #16]	@ D.4756, RingBuff_5(D)->tail
 162:../../lpc11cx4-library/lpc_chip_11cxx_lib/src/ring_buffer.c **** 	data = (uint8_t *) data + cnt1 * RingBuff->itemSz;
 576              		.loc 1 162 0
 577 0060 6168     		ldr	r1, [r4, #4]	@, RingBuff_5(D)->count
 578              		.loc 1 164 0
 579 0062 9946     		mov	r9, r3	@ D.4756, D.4756
 162:../../lpc11cx4-library/lpc_chip_11cxx_lib/src/ring_buffer.c **** 	data = (uint8_t *) data + cnt1 * RingBuff->itemSz;
 580              		.loc 1 162 0
 581 0064 FFF7FEFF 		bl	__aeabi_uidivmod	@
 582              	.LVL70:
 583 0068 4F43     		mul	r7, r1	@ D.4756, D.4756
 584 006a 2368     		ldr	r3, [r4]	@ tmp194, RingBuff_5(D)->data
 585              		.loc 1 164 0
 586 006c 4046     		mov	r0, r8	@, data
ARM GAS  /tmp/ccb1LXU9.s 			page 17


 162:../../lpc11cx4-library/lpc_chip_11cxx_lib/src/ring_buffer.c **** 	data = (uint8_t *) data + cnt1 * RingBuff->itemSz;
 587              		.loc 1 162 0
 588 006e D919     		add	r1, r3, r7	@ ptr, tmp194, D.4756
 589              		.loc 1 164 0
 590 0070 4A46     		mov	r2, r9	@, D.4756
 591 0072 FFF7FEFF 		bl	memcpy	@
 592              	.LVL71:
 165:../../lpc11cx4-library/lpc_chip_11cxx_lib/src/ring_buffer.c **** 	RingBuff->tail += cnt2;
 593              		.loc 1 165 0
 594 0076 2369     		ldr	r3, [r4, #16]	@ tmp195, RingBuff_5(D)->tail
 166:../../lpc11cx4-library/lpc_chip_11cxx_lib/src/ring_buffer.c **** 
 167:../../lpc11cx4-library/lpc_chip_11cxx_lib/src/ring_buffer.c **** 	return cnt1 + cnt2;
 595              		.loc 1 167 0
 596 0078 A819     		add	r0, r5, r6	@ D.4755, cnt1, cnt2
 165:../../lpc11cx4-library/lpc_chip_11cxx_lib/src/ring_buffer.c **** 	RingBuff->tail += cnt2;
 597              		.loc 1 165 0
 598 007a 9B19     		add	r3, r3, r6	@ D.4756, tmp195, cnt2
 599 007c 2361     		str	r3, [r4, #16]	@ D.4756, RingBuff_5(D)->tail
 600              	.LVL72:
 601              	.L19:
 168:../../lpc11cx4-library/lpc_chip_11cxx_lib/src/ring_buffer.c **** }
 602              		.loc 1 168 0
 603              		@ sp needed	@
 604              	.LVL73:
 605 007e 0CBC     		pop	{r2, r3}
 606 0080 9046     		mov	r8, r2
 607 0082 9946     		mov	r9, r3
 608 0084 F8BD     		pop	{r3, r4, r5, r6, r7, pc}
 609              	.LVL74:
 610              	.L26:
 153:../../lpc11cx4-library/lpc_chip_11cxx_lib/src/ring_buffer.c **** 	num -= cnt2;
 611              		.loc 1 153 0
 612 0086 1E1C     		mov	r6, r3	@ cnt2, D.4758
 613              	.LVL75:
 614 0088 D9E7     		b	.L22	@
 615              	.LVL76:
 616              	.L25:
 150:../../lpc11cx4-library/lpc_chip_11cxx_lib/src/ring_buffer.c **** 	num -= cnt1;
 617              		.loc 1 150 0
 618 008a 351C     		mov	r5, r6	@ cnt1, num
 619              	.LVL77:
 151:../../lpc11cx4-library/lpc_chip_11cxx_lib/src/ring_buffer.c **** 
 620              		.loc 1 151 0
 621 008c 761B     		sub	r6, r6, r5	@ cnt2, num, cnt1
 622              	.LVL78:
 153:../../lpc11cx4-library/lpc_chip_11cxx_lib/src/ring_buffer.c **** 	num -= cnt2;
 623              		.loc 1 153 0
 624 008e 9E42     		cmp	r6, r3	@ cnt2, D.4758
 625 0090 D5DD     		ble	.L22	@,
 626 0092 F8E7     		b	.L26	@
 627              	.LVL79:
 628              	.L23:
 142:../../lpc11cx4-library/lpc_chip_11cxx_lib/src/ring_buffer.c **** 
 629              		.loc 1 142 0
 630 0094 0020     		mov	r0, #0	@ D.4755,
 631 0096 F2E7     		b	.L19	@
 632              		.cfi_endproc
ARM GAS  /tmp/ccb1LXU9.s 			page 18


 633              	.LFE10:
 634              		.size	RingBuffer_PopMult, .-RingBuffer_PopMult
 635              		.text
 636              	.Letext0:
 637              		.file 3 "/usr/arm-none-eabi/include/machine/_default_types.h"
 638              		.file 4 "/usr/arm-none-eabi/include/sys/_stdint.h"