ARM GAS  /tmp/ccAWI8TV.s 			page 1


   1              		.cpu cortex-m0
   2              		.fpu softvfp
   3              		.eabi_attribute 20, 1	@ Tag_ABI_FP_denormal
   4              		.eabi_attribute 21, 1	@ Tag_ABI_FP_exceptions
   5              		.eabi_attribute 23, 3	@ Tag_ABI_FP_number_model
   6              		.eabi_attribute 24, 1	@ Tag_ABI_align8_needed
   7              		.eabi_attribute 25, 1	@ Tag_ABI_align8_preserved
   8              		.eabi_attribute 26, 1	@ Tag_ABI_enum_size
   9              		.eabi_attribute 30, 4	@ Tag_ABI_optimization_goals
  10              		.eabi_attribute 34, 0	@ Tag_CPU_unaligned_access
  11              		.eabi_attribute 18, 4	@ Tag_ABI_PCS_wchar_t
  12              		.file	"stepperMotor.c"
  13              	@ GNU C (GNU Tools for ARM Embedded Processors) version 4.9.3 20150529 (release) [ARM/embedded-4_9-
  14              	@	compiled by GNU C version 4.8.4, GMP version 5.1.3, MPFR version 3.1.2-p3, MPC version 1.0.1
  15              	@ GGC heuristics: --param ggc-min-expand=98 --param ggc-min-heapsize=128397
  16              	@ options passed:  -I . -I ../../lpc11cx4-library/lpc_chip_11cxx_lib/inc
  17              	@ -I ../../lpc11cx4-library/evt_lib/inc -I inc -imultilib armv6-m
  18              	@ -iprefix /usr/bin/../lib/gcc/arm-none-eabi/4.9.3/
  19              	@ -isysroot /usr/bin/../arm-none-eabi -MD bin/stepperMotor.d
  20              	@ -MF bin/stepperMotor.d -MP -MQ bin/stepperMotor.o -D__USES_INITFINI__
  21              	@ -D CORE_M0 src/stepperMotor.c -mcpu=cortex-m0 -mthumb
  22              	@ -auxbase-strip bin/stepperMotor.o -g -ggdb3 -Os -Wall -Wstrict-prototypes
  23              	@ -Wextra -std=gnu90 -ffunction-sections -fdata-sections -fverbose-asm
  24              	@ -fstack-usage
  25              	@ options enabled:  -faggressive-loop-optimizations -fauto-inc-dec
  26              	@ -fbranch-count-reg -fcaller-saves -fcombine-stack-adjustments -fcommon
  27              	@ -fcompare-elim -fcprop-registers -fcrossjumping -fcse-follow-jumps
  28              	@ -fdata-sections -fdefer-pop -fdelete-null-pointer-checks -fdevirtualize
  29              	@ -fdevirtualize-speculatively -fdwarf2-cfi-asm -fearly-inlining
  30              	@ -feliminate-unused-debug-types -fexpensive-optimizations
  31              	@ -fforward-propagate -ffunction-cse -ffunction-sections -fgcse -fgcse-lm
  32              	@ -fgnu-runtime -fgnu-unique -fguess-branch-probability
  33              	@ -fhoist-adjacent-loads -fident -fif-conversion -fif-conversion2
  34              	@ -findirect-inlining -finline -finline-atomics -finline-functions
  35              	@ -finline-functions-called-once -finline-small-functions -fipa-cp
  36              	@ -fipa-profile -fipa-pure-const -fipa-reference -fipa-sra
  37              	@ -fira-hoist-pressure -fira-share-save-slots -fira-share-spill-slots
  38              	@ -fisolate-erroneous-paths-dereference -fivopts -fkeep-static-consts
  39              	@ -fleading-underscore -flifetime-dse -fmath-errno -fmerge-constants
  40              	@ -fmerge-debug-strings -fomit-frame-pointer -foptimize-sibling-calls
  41              	@ -fpartial-inlining -fpeephole -fpeephole2 -fprefetch-loop-arrays
  42              	@ -freg-struct-return -freorder-blocks -freorder-functions
  43              	@ -frerun-cse-after-loop -fsched-critical-path-heuristic
  44              	@ -fsched-dep-count-heuristic -fsched-group-heuristic -fsched-interblock
  45              	@ -fsched-last-insn-heuristic -fsched-pressure -fsched-rank-heuristic
  46              	@ -fsched-spec -fsched-spec-insn-heuristic -fsched-stalled-insns-dep
  47              	@ -fschedule-insns2 -fsection-anchors -fshow-column -fshrink-wrap
  48              	@ -fsigned-zeros -fsplit-ivs-in-unroller -fsplit-wide-types
  49              	@ -fstrict-aliasing -fstrict-overflow -fstrict-volatile-bitfields
  50              	@ -fsync-libcalls -fthread-jumps -ftoplevel-reorder -ftrapping-math
  51              	@ -ftree-bit-ccp -ftree-builtin-call-dce -ftree-ccp -ftree-ch
  52              	@ -ftree-coalesce-vars -ftree-copy-prop -ftree-copyrename -ftree-cselim
  53              	@ -ftree-dce -ftree-dominator-opts -ftree-dse -ftree-forwprop -ftree-fre
  54              	@ -ftree-loop-if-convert -ftree-loop-im -ftree-loop-ivcanon
  55              	@ -ftree-loop-optimize -ftree-parallelize-loops= -ftree-phiprop -ftree-pre
  56              	@ -ftree-pta -ftree-reassoc -ftree-scev-cprop -ftree-sink -ftree-slsr
  57              	@ -ftree-sra -ftree-switch-conversion -ftree-tail-merge -ftree-ter
ARM GAS  /tmp/ccAWI8TV.s 			page 2


  58              	@ -ftree-vrp -funit-at-a-time -fvar-tracking -fvar-tracking-assignments
  59              	@ -fverbose-asm -fzero-initialized-in-bss -mlittle-endian -mlra
  60              	@ -mpic-data-is-text-relative -msched-prolog -mthumb
  61              	@ -mvectorize-with-neon-quad
  62              	
  63              		.text
  64              	.Ltext0:
  65              		.cfi_sections	.debug_frame
  66              		.section	.text.Stepper_StepCases,"ax",%progbits
  67              		.align	1
  68              		.global	Stepper_StepCases
  69              		.code	16
  70              		.thumb_func
  71              		.type	Stepper_StepCases, %function
  72              	Stepper_StepCases:
  73              	.LFB198:
  74              		.file 1 "src/stepperMotor.c"
   1:src/stepperMotor.c **** #include "chip.h"
   2:src/stepperMotor.c **** #include "stepperMotor.h"
   3:src/stepperMotor.c **** 
   4:src/stepperMotor.c **** void Stepper_StepCases(STEPPER_MOTOR_T *mot, int32_t step){
  75              		.loc 1 4 0
  76              		.cfi_startproc
  77              	.LVL0:
  78 0000 30B5     		push	{r4, r5, lr}	@
  79              		.cfi_def_cfa_offset 12
  80              		.cfi_offset 4, -12
  81              		.cfi_offset 5, -8
  82              		.cfi_offset 14, -4
  83              		.loc 1 4 0
  84 0002 031C     		mov	r3, r0	@ mot, mot
   5:src/stepperMotor.c **** 	switch (step){
  85              		.loc 1 5 0
  86 0004 0329     		cmp	r1, #3	@ step,
  87 0006 00D9     		bls	.LCB13	@
  88 0008 95E0     		b	.L1	@long jump	@
  89              	.LCB13:
  90 000a 081C     		mov	r0, r1	@, step
  91              	.LVL1:
  92 000c 1A78     		ldrb	r2, [r3]	@ D.6300, *mot_4(D)
  93 000e 1979     		ldrb	r1, [r3, #4]	@ D.6302,
  94              	.LVL2:
  95              	.LBB34:
  96              	.LBB35:
  97              		.file 2 "../../lpc11cx4-library/lpc_chip_11cxx_lib/inc/gpio_11xx_2.h"
   1:../../lpc11cx4-library/lpc_chip_11cxx_lib/inc/gpio_11xx_2.h **** /*
   2:../../lpc11cx4-library/lpc_chip_11cxx_lib/inc/gpio_11xx_2.h ****  * @brief LPC11xx GPIO driver for CHIP_LPC11CXX, CHIP_LPC110X, CHIP_LPC11XXLV,
   3:../../lpc11cx4-library/lpc_chip_11cxx_lib/inc/gpio_11xx_2.h ****  * and CHIP_LPC1125 families only.
   4:../../lpc11cx4-library/lpc_chip_11cxx_lib/inc/gpio_11xx_2.h ****  *
   5:../../lpc11cx4-library/lpc_chip_11cxx_lib/inc/gpio_11xx_2.h ****  * @note
   6:../../lpc11cx4-library/lpc_chip_11cxx_lib/inc/gpio_11xx_2.h ****  * Copyright(C) NXP Semiconductors, 2013
   7:../../lpc11cx4-library/lpc_chip_11cxx_lib/inc/gpio_11xx_2.h ****  * All rights reserved.
   8:../../lpc11cx4-library/lpc_chip_11cxx_lib/inc/gpio_11xx_2.h ****  *
   9:../../lpc11cx4-library/lpc_chip_11cxx_lib/inc/gpio_11xx_2.h ****  * @par
  10:../../lpc11cx4-library/lpc_chip_11cxx_lib/inc/gpio_11xx_2.h ****  * Software that is described herein is for illustrative purposes only
  11:../../lpc11cx4-library/lpc_chip_11cxx_lib/inc/gpio_11xx_2.h ****  * which provides customers with programming information regarding the
  12:../../lpc11cx4-library/lpc_chip_11cxx_lib/inc/gpio_11xx_2.h ****  * LPC products.  This software is supplied "AS IS" without any warranties of
ARM GAS  /tmp/ccAWI8TV.s 			page 3


  13:../../lpc11cx4-library/lpc_chip_11cxx_lib/inc/gpio_11xx_2.h ****  * any kind, and NXP Semiconductors and its licensor disclaim any and
  14:../../lpc11cx4-library/lpc_chip_11cxx_lib/inc/gpio_11xx_2.h ****  * all warranties, express or implied, including all implied warranties of
  15:../../lpc11cx4-library/lpc_chip_11cxx_lib/inc/gpio_11xx_2.h ****  * merchantability, fitness for a particular purpose and non-infringement of
  16:../../lpc11cx4-library/lpc_chip_11cxx_lib/inc/gpio_11xx_2.h ****  * intellectual property rights.  NXP Semiconductors assumes no responsibility
  17:../../lpc11cx4-library/lpc_chip_11cxx_lib/inc/gpio_11xx_2.h ****  * or liability for the use of the software, conveys no license or rights under any
  18:../../lpc11cx4-library/lpc_chip_11cxx_lib/inc/gpio_11xx_2.h ****  * patent, copyright, mask work right, or any other intellectual property rights in
  19:../../lpc11cx4-library/lpc_chip_11cxx_lib/inc/gpio_11xx_2.h ****  * or to any products. NXP Semiconductors reserves the right to make changes
  20:../../lpc11cx4-library/lpc_chip_11cxx_lib/inc/gpio_11xx_2.h ****  * in the software without notification. NXP Semiconductors also makes no
  21:../../lpc11cx4-library/lpc_chip_11cxx_lib/inc/gpio_11xx_2.h ****  * representation or warranty that such application will be suitable for the
  22:../../lpc11cx4-library/lpc_chip_11cxx_lib/inc/gpio_11xx_2.h ****  * specified use without further testing or modification.
  23:../../lpc11cx4-library/lpc_chip_11cxx_lib/inc/gpio_11xx_2.h ****  *
  24:../../lpc11cx4-library/lpc_chip_11cxx_lib/inc/gpio_11xx_2.h ****  * @par
  25:../../lpc11cx4-library/lpc_chip_11cxx_lib/inc/gpio_11xx_2.h ****  * Permission to use, copy, modify, and distribute this software and its
  26:../../lpc11cx4-library/lpc_chip_11cxx_lib/inc/gpio_11xx_2.h ****  * documentation is hereby granted, under NXP Semiconductors' and its
  27:../../lpc11cx4-library/lpc_chip_11cxx_lib/inc/gpio_11xx_2.h ****  * licensor's relevant copyrights in the software, without fee, provided that it
  28:../../lpc11cx4-library/lpc_chip_11cxx_lib/inc/gpio_11xx_2.h ****  * is used in conjunction with NXP Semiconductors microcontrollers.  This
  29:../../lpc11cx4-library/lpc_chip_11cxx_lib/inc/gpio_11xx_2.h ****  * copyright, permission, and disclaimer notice must appear in all copies of
  30:../../lpc11cx4-library/lpc_chip_11cxx_lib/inc/gpio_11xx_2.h ****  * this code.
  31:../../lpc11cx4-library/lpc_chip_11cxx_lib/inc/gpio_11xx_2.h ****  */
  32:../../lpc11cx4-library/lpc_chip_11cxx_lib/inc/gpio_11xx_2.h **** 
  33:../../lpc11cx4-library/lpc_chip_11cxx_lib/inc/gpio_11xx_2.h **** #ifndef __GPIO_11XX_2_H_
  34:../../lpc11cx4-library/lpc_chip_11cxx_lib/inc/gpio_11xx_2.h **** #define __GPIO_11XX_2_H_
  35:../../lpc11cx4-library/lpc_chip_11cxx_lib/inc/gpio_11xx_2.h **** 
  36:../../lpc11cx4-library/lpc_chip_11cxx_lib/inc/gpio_11xx_2.h **** #ifdef __cplusplus
  37:../../lpc11cx4-library/lpc_chip_11cxx_lib/inc/gpio_11xx_2.h **** extern "C" {
  38:../../lpc11cx4-library/lpc_chip_11cxx_lib/inc/gpio_11xx_2.h **** #endif
  39:../../lpc11cx4-library/lpc_chip_11cxx_lib/inc/gpio_11xx_2.h **** 
  40:../../lpc11cx4-library/lpc_chip_11cxx_lib/inc/gpio_11xx_2.h **** /** @defgroup GPIO_11XX_2 CHIP: LPC11xx GPIO driver for CHIP_LPC11CXX, CHIP_LPC110X, and CHIP_LPC11
  41:../../lpc11cx4-library/lpc_chip_11cxx_lib/inc/gpio_11xx_2.h ****  * @ingroup CHIP_11XX_Drivers
  42:../../lpc11cx4-library/lpc_chip_11cxx_lib/inc/gpio_11xx_2.h ****  * For device familes identified with CHIP definitions CHIP_LPC11CXX,
  43:../../lpc11cx4-library/lpc_chip_11cxx_lib/inc/gpio_11xx_2.h ****  * CHIP_LPC110X, and CHIP_LPC11XXLV only.
  44:../../lpc11cx4-library/lpc_chip_11cxx_lib/inc/gpio_11xx_2.h ****  * @{
  45:../../lpc11cx4-library/lpc_chip_11cxx_lib/inc/gpio_11xx_2.h ****  */
  46:../../lpc11cx4-library/lpc_chip_11cxx_lib/inc/gpio_11xx_2.h **** 
  47:../../lpc11cx4-library/lpc_chip_11cxx_lib/inc/gpio_11xx_2.h **** #if defined(CHIP_LPC11CXX) || defined(CHIP_LPC110X) || defined(CHIP_LPC11XXLV) || defined(CHIP_LPC1
  48:../../lpc11cx4-library/lpc_chip_11cxx_lib/inc/gpio_11xx_2.h **** 
  49:../../lpc11cx4-library/lpc_chip_11cxx_lib/inc/gpio_11xx_2.h **** /**
  50:../../lpc11cx4-library/lpc_chip_11cxx_lib/inc/gpio_11xx_2.h ****  * @brief  GPIO port register block structure
  51:../../lpc11cx4-library/lpc_chip_11cxx_lib/inc/gpio_11xx_2.h ****  */
  52:../../lpc11cx4-library/lpc_chip_11cxx_lib/inc/gpio_11xx_2.h **** typedef struct {				/*!< GPIO_PORT Structure */
  53:../../lpc11cx4-library/lpc_chip_11cxx_lib/inc/gpio_11xx_2.h **** 	__IO uint32_t DATA[4096];			/*!< Offset: 0x0000 to 0x3FFC Data address masking register (R/W) */
  54:../../lpc11cx4-library/lpc_chip_11cxx_lib/inc/gpio_11xx_2.h **** 	uint32_t RESERVED1[4096];
  55:../../lpc11cx4-library/lpc_chip_11cxx_lib/inc/gpio_11xx_2.h **** 	__IO uint32_t DIR;					/*!< Offset: 0x8000 Data direction register (R/W) */
  56:../../lpc11cx4-library/lpc_chip_11cxx_lib/inc/gpio_11xx_2.h **** 	__IO uint32_t IS;					/*!< Offset: 0x8004 Interrupt sense register (R/W) */
  57:../../lpc11cx4-library/lpc_chip_11cxx_lib/inc/gpio_11xx_2.h **** 	__IO uint32_t IBE;					/*!< Offset: 0x8008 Interrupt both edges register (R/W) */
  58:../../lpc11cx4-library/lpc_chip_11cxx_lib/inc/gpio_11xx_2.h **** 	__IO uint32_t IEV;					/*!< Offset: 0x800C Interrupt event register  (R/W) */
  59:../../lpc11cx4-library/lpc_chip_11cxx_lib/inc/gpio_11xx_2.h **** 	__IO uint32_t IE;					/*!< Offset: 0x8010 Interrupt mask register (R/W) */
  60:../../lpc11cx4-library/lpc_chip_11cxx_lib/inc/gpio_11xx_2.h **** 	__I  uint32_t RIS;					/*!< Offset: 0x8014 Raw interrupt status register (R/ ) */
  61:../../lpc11cx4-library/lpc_chip_11cxx_lib/inc/gpio_11xx_2.h **** 	__I  uint32_t MIS;					/*!< Offset: 0x8018 Masked interrupt status register (R/ ) */
  62:../../lpc11cx4-library/lpc_chip_11cxx_lib/inc/gpio_11xx_2.h **** 	__O  uint32_t IC;					/*!< Offset: 0x801C Interrupt clear register (W) */
  63:../../lpc11cx4-library/lpc_chip_11cxx_lib/inc/gpio_11xx_2.h **** 	uint32_t RESERVED2[8184];			/* Padding added for aligning contiguous GPIO blocks */
  64:../../lpc11cx4-library/lpc_chip_11cxx_lib/inc/gpio_11xx_2.h **** } LPC_GPIO_T;
  65:../../lpc11cx4-library/lpc_chip_11cxx_lib/inc/gpio_11xx_2.h **** 
  66:../../lpc11cx4-library/lpc_chip_11cxx_lib/inc/gpio_11xx_2.h **** /**
  67:../../lpc11cx4-library/lpc_chip_11cxx_lib/inc/gpio_11xx_2.h ****  * @brief	Initialize GPIO block
  68:../../lpc11cx4-library/lpc_chip_11cxx_lib/inc/gpio_11xx_2.h ****  * @param	pGPIO	: The base of GPIO peripheral on the chip
  69:../../lpc11cx4-library/lpc_chip_11cxx_lib/inc/gpio_11xx_2.h ****  * @return	Nothing
ARM GAS  /tmp/ccAWI8TV.s 			page 4


  70:../../lpc11cx4-library/lpc_chip_11cxx_lib/inc/gpio_11xx_2.h ****  */
  71:../../lpc11cx4-library/lpc_chip_11cxx_lib/inc/gpio_11xx_2.h **** void Chip_GPIO_Init(LPC_GPIO_T *pGPIO);
  72:../../lpc11cx4-library/lpc_chip_11cxx_lib/inc/gpio_11xx_2.h **** 
  73:../../lpc11cx4-library/lpc_chip_11cxx_lib/inc/gpio_11xx_2.h **** /**
  74:../../lpc11cx4-library/lpc_chip_11cxx_lib/inc/gpio_11xx_2.h ****  * @brief	De-Initialize GPIO block
  75:../../lpc11cx4-library/lpc_chip_11cxx_lib/inc/gpio_11xx_2.h ****  * @param	pGPIO	: The base of GPIO peripheral on the chip
  76:../../lpc11cx4-library/lpc_chip_11cxx_lib/inc/gpio_11xx_2.h ****  * @return	Nothing
  77:../../lpc11cx4-library/lpc_chip_11cxx_lib/inc/gpio_11xx_2.h ****  */
  78:../../lpc11cx4-library/lpc_chip_11cxx_lib/inc/gpio_11xx_2.h **** void Chip_GPIO_DeInit(LPC_GPIO_T *pGPIO);
  79:../../lpc11cx4-library/lpc_chip_11cxx_lib/inc/gpio_11xx_2.h **** 
  80:../../lpc11cx4-library/lpc_chip_11cxx_lib/inc/gpio_11xx_2.h **** /**
  81:../../lpc11cx4-library/lpc_chip_11cxx_lib/inc/gpio_11xx_2.h ****  * @brief	Set a GPIO port/bit state
  82:../../lpc11cx4-library/lpc_chip_11cxx_lib/inc/gpio_11xx_2.h ****  * @param	pGPIO	: The base of GPIO peripheral on the chip
  83:../../lpc11cx4-library/lpc_chip_11cxx_lib/inc/gpio_11xx_2.h ****  * @param	port	: GPIO port to set
  84:../../lpc11cx4-library/lpc_chip_11cxx_lib/inc/gpio_11xx_2.h ****  * @param	bit		: GPIO bit to set
  85:../../lpc11cx4-library/lpc_chip_11cxx_lib/inc/gpio_11xx_2.h ****  * @param	setting	: true for high, false for low
  86:../../lpc11cx4-library/lpc_chip_11cxx_lib/inc/gpio_11xx_2.h ****  * @return	Nothing
  87:../../lpc11cx4-library/lpc_chip_11cxx_lib/inc/gpio_11xx_2.h ****  */
  88:../../lpc11cx4-library/lpc_chip_11cxx_lib/inc/gpio_11xx_2.h **** STATIC INLINE void Chip_GPIO_WritePortBit(LPC_GPIO_T *pGPIO, uint32_t port, uint8_t bit, bool setti
  89:../../lpc11cx4-library/lpc_chip_11cxx_lib/inc/gpio_11xx_2.h **** {
  90:../../lpc11cx4-library/lpc_chip_11cxx_lib/inc/gpio_11xx_2.h **** 	pGPIO[port].DATA[1 << bit] = setting << bit;
  91:../../lpc11cx4-library/lpc_chip_11cxx_lib/inc/gpio_11xx_2.h **** }
  92:../../lpc11cx4-library/lpc_chip_11cxx_lib/inc/gpio_11xx_2.h **** 
  93:../../lpc11cx4-library/lpc_chip_11cxx_lib/inc/gpio_11xx_2.h **** /**
  94:../../lpc11cx4-library/lpc_chip_11cxx_lib/inc/gpio_11xx_2.h ****  * @brief	Set a GPIO pin state via the GPIO byte register
  95:../../lpc11cx4-library/lpc_chip_11cxx_lib/inc/gpio_11xx_2.h ****  * @param	pGPIO	: The base of GPIO peripheral on the chip
  96:../../lpc11cx4-library/lpc_chip_11cxx_lib/inc/gpio_11xx_2.h ****  * @param	port	: Port number
  97:../../lpc11cx4-library/lpc_chip_11cxx_lib/inc/gpio_11xx_2.h ****  * @param	pin		: GPIO pin to set
  98:../../lpc11cx4-library/lpc_chip_11cxx_lib/inc/gpio_11xx_2.h ****  * @param	setting	: true for high, false for low
  99:../../lpc11cx4-library/lpc_chip_11cxx_lib/inc/gpio_11xx_2.h ****  * @return	Nothing
 100:../../lpc11cx4-library/lpc_chip_11cxx_lib/inc/gpio_11xx_2.h ****  * @note	This function replaces Chip_GPIO_WritePortBit()
 101:../../lpc11cx4-library/lpc_chip_11cxx_lib/inc/gpio_11xx_2.h ****  */
 102:../../lpc11cx4-library/lpc_chip_11cxx_lib/inc/gpio_11xx_2.h **** STATIC INLINE void Chip_GPIO_SetPinState(LPC_GPIO_T *pGPIO, uint8_t port, uint8_t pin, bool setting
 103:../../lpc11cx4-library/lpc_chip_11cxx_lib/inc/gpio_11xx_2.h **** {
 104:../../lpc11cx4-library/lpc_chip_11cxx_lib/inc/gpio_11xx_2.h **** 	pGPIO[port].DATA[1 << pin] = setting << pin;
  98              		.loc 2 104 0
  99 0010 1204     		lsl	r2, r2, #16	@ D.6300, D.6300,
 100              	.LBE35:
 101              	.LBE34:
 102              		.loc 1 5 0
 103 0012 FFF7FEFF 		bl	__gnu_thumb1_case_uqi
 104              	.L4:
 105 0016 69       		.byte	(.L3-.L4)/2
 106 0017 54       		.byte	(.L5-.L4)/2
 107 0018 2B       		.byte	(.L6-.L4)/2
 108 0019 02       		.byte	(.L7-.L4)/2
 109              		.p2align 1
 110              	.L7:
 111              	.LVL3:
 112              	.LBB37:
 113              	.LBB36:
 114              		.loc 2 104 0
 115 001a A020     		mov	r0, #160	@ tmp322,
 116              	.LVL4:
 117 001c C005     		lsl	r0, r0, #23	@ tmp322, tmp322,
 118 001e 1218     		add	r2, r2, r0	@ D.6301, D.6300, tmp322
 119 0020 0120     		mov	r0, #1	@ tmp235,
ARM GAS  /tmp/ccAWI8TV.s 			page 5


 120 0022 041C     		mov	r4, r0	@ D.6302, tmp235
 121 0024 8C40     		lsl	r4, r4, r1	@ D.6302, D.6302, D.6302
 122 0026 211C     		mov	r1, r4	@ D.6302, D.6302
 123 0028 A400     		lsl	r4, r4, #2	@ tmp236, D.6302,
 124 002a A150     		str	r1, [r4, r2]	@ D.6302,* D.6301
 125              	.LVL5:
 126              	.LBE36:
 127              	.LBE37:
 128              	.LBB38:
 129              	.LBB39:
 130 002c A021     		mov	r1, #160	@ tmp324,
 131 002e 5A78     		ldrb	r2, [r3, #1]	@ D.6300,
 132 0030 C905     		lsl	r1, r1, #23	@ tmp324, tmp324,
 133 0032 1204     		lsl	r2, r2, #16	@ D.6300, D.6300,
 134 0034 5218     		add	r2, r2, r1	@ D.6301, D.6300, tmp324
 135 0036 011C     		mov	r1, r0	@ D.6302, tmp235
 136 0038 5C79     		ldrb	r4, [r3, #5]	@ D.6302,
 137              	.LBE39:
 138              	.LBE38:
 139              	.LBB41:
 140              	.LBB42:
 141 003a 051C     		mov	r5, r0	@ D.6302, tmp235
 142              	.LBE42:
 143              	.LBE41:
 144              	.LBB44:
 145              	.LBB40:
 146 003c A140     		lsl	r1, r1, r4	@ D.6302, D.6302, D.6302
 147 003e 8C00     		lsl	r4, r1, #2	@ tmp241, D.6302,
 148 0040 0021     		mov	r1, #0	@ tmp242,
 149 0042 A150     		str	r1, [r4, r2]	@ tmp242, _60->DATA
 150              	.LVL6:
 151              	.LBE40:
 152              	.LBE44:
 153              	.LBB45:
 154              	.LBB43:
 155 0044 A024     		mov	r4, #160	@ tmp326,
 156 0046 9A78     		ldrb	r2, [r3, #2]	@ D.6300,
 157 0048 E405     		lsl	r4, r4, #23	@ tmp326, tmp326,
 158 004a 1204     		lsl	r2, r2, #16	@ D.6300, D.6300,
 159 004c 1219     		add	r2, r2, r4	@ D.6301, D.6300, tmp326
 160 004e 9C79     		ldrb	r4, [r3, #6]	@ D.6302,
 161 0050 A540     		lsl	r5, r5, r4	@ D.6302, D.6302, D.6302
 162 0052 2C1C     		mov	r4, r5	@ D.6302, D.6302
 163 0054 AD00     		lsl	r5, r5, #2	@ tmp247, D.6302,
 164 0056 AC50     		str	r4, [r5, r2]	@ D.6302, _64->DATA
 165              	.LVL7:
 166              	.LBE43:
 167              	.LBE45:
 168              	.LBB46:
 169              	.LBB47:
 170 0058 DA78     		ldrb	r2, [r3, #3]	@ D.6300,
 171 005a DB79     		ldrb	r3, [r3, #7]	@ D.6302,
 172              	.LVL8:
 173 005c A024     		mov	r4, #160	@ tmp328,
 174 005e 9840     		lsl	r0, r0, r3	@ D.6302, tmp235, D.6302
 175 0060 1204     		lsl	r2, r2, #16	@ D.6300, D.6300,
 176              	.LVL9:
ARM GAS  /tmp/ccAWI8TV.s 			page 6


 177 0062 E405     		lsl	r4, r4, #23	@ tmp328, tmp328,
 178 0064 1219     		add	r2, r2, r4	@ D.6301, D.6300, tmp328
 179 0066 8000     		lsl	r0, r0, #2	@ tmp252, D.6302,
 180 0068 8150     		str	r1, [r0, r2]	@ tmp242, _69->DATA
 181              	.LVL10:
 182 006a 64E0     		b	.L1	@
 183              	.LVL11:
 184              	.L6:
 185              	.LBE47:
 186              	.LBE46:
 187              	.LBB48:
 188              	.LBB49:
 189 006c A020     		mov	r0, #160	@ tmp329,
 190              	.LVL12:
 191 006e C005     		lsl	r0, r0, #23	@ tmp329, tmp329,
 192 0070 1218     		add	r2, r2, r0	@ D.6301, D.6300, tmp329
 193 0072 0120     		mov	r0, #1	@ tmp257,
 194 0074 041C     		mov	r4, r0	@ D.6302, tmp257
 195 0076 8C40     		lsl	r4, r4, r1	@ D.6302, D.6302, D.6302
 196 0078 A100     		lsl	r1, r4, #2	@ tmp258, D.6302,
 197 007a 0024     		mov	r4, #0	@ tmp259,
 198 007c 8C50     		str	r4, [r1, r2]	@ tmp259, _73->DATA
 199              	.LVL13:
 200              	.LBE49:
 201              	.LBE48:
 202              	.LBB50:
 203              	.LBB51:
 204 007e A021     		mov	r1, #160	@ tmp331,
 205 0080 051C     		mov	r5, r0	@ D.6302, tmp257
 206 0082 5A78     		ldrb	r2, [r3, #1]	@ D.6300,
 207 0084 C905     		lsl	r1, r1, #23	@ tmp331, tmp331,
 208 0086 1204     		lsl	r2, r2, #16	@ D.6300, D.6300,
 209 0088 5218     		add	r2, r2, r1	@ D.6301, D.6300, tmp331
 210 008a 5979     		ldrb	r1, [r3, #5]	@ D.6302,
 211 008c 8D40     		lsl	r5, r5, r1	@ D.6302, D.6302, D.6302
 212 008e 291C     		mov	r1, r5	@ D.6302, D.6302
 213 0090 AD00     		lsl	r5, r5, #2	@ tmp264, D.6302,
 214 0092 A950     		str	r1, [r5, r2]	@ D.6302, _77->DATA
 215              	.LVL14:
 216              	.LBE51:
 217              	.LBE50:
 218              	.LBB52:
 219              	.LBB53:
 220 0094 A021     		mov	r1, #160	@ tmp333,
 221 0096 051C     		mov	r5, r0	@ D.6302, tmp257
 222 0098 9A78     		ldrb	r2, [r3, #2]	@ D.6300,
 223 009a C905     		lsl	r1, r1, #23	@ tmp333, tmp333,
 224 009c 1204     		lsl	r2, r2, #16	@ D.6300, D.6300,
 225 009e 5218     		add	r2, r2, r1	@ D.6301, D.6300, tmp333
 226 00a0 9979     		ldrb	r1, [r3, #6]	@ D.6302,
 227 00a2 8D40     		lsl	r5, r5, r1	@ D.6302, D.6302, D.6302
 228 00a4 291C     		mov	r1, r5	@ D.6302, D.6302
 229 00a6 AD00     		lsl	r5, r5, #2	@ tmp269, D.6302,
 230 00a8 A950     		str	r1, [r5, r2]	@ D.6302, _82->DATA
 231              	.LVL15:
 232              	.LBE53:
 233              	.LBE52:
ARM GAS  /tmp/ccAWI8TV.s 			page 7


 234              	.LBB54:
 235              	.LBB55:
 236 00aa DA78     		ldrb	r2, [r3, #3]	@ D.6300,
 237 00ac DB79     		ldrb	r3, [r3, #7]	@ D.6302,
 238              	.LVL16:
 239 00ae A021     		mov	r1, #160	@ tmp335,
 240 00b0 9840     		lsl	r0, r0, r3	@ D.6302, tmp257, D.6302
 241 00b2 1204     		lsl	r2, r2, #16	@ D.6300, D.6300,
 242              	.LVL17:
 243 00b4 C905     		lsl	r1, r1, #23	@ tmp335, tmp335,
 244 00b6 5218     		add	r2, r2, r1	@ D.6301, D.6300, tmp335
 245 00b8 8000     		lsl	r0, r0, #2	@ tmp274, D.6302,
 246 00ba 8450     		str	r4, [r0, r2]	@ tmp259, _87->DATA
 247              	.LVL18:
 248 00bc 3BE0     		b	.L1	@
 249              	.LVL19:
 250              	.L5:
 251              	.LBE55:
 252              	.LBE54:
 253              	.LBB56:
 254              	.LBB57:
 255 00be A020     		mov	r0, #160	@ tmp336,
 256              	.LVL20:
 257 00c0 C005     		lsl	r0, r0, #23	@ tmp336, tmp336,
 258 00c2 1218     		add	r2, r2, r0	@ D.6301, D.6300, tmp336
 259 00c4 0120     		mov	r0, #1	@ tmp279,
 260 00c6 041C     		mov	r4, r0	@ D.6302, tmp279
 261 00c8 8C40     		lsl	r4, r4, r1	@ D.6302, D.6302, D.6302
 262 00ca A100     		lsl	r1, r4, #2	@ tmp280, D.6302,
 263 00cc 0024     		mov	r4, #0	@ tmp281,
 264 00ce 8C50     		str	r4, [r1, r2]	@ tmp281, _91->DATA
 265              	.LVL21:
 266              	.LBE57:
 267              	.LBE56:
 268              	.LBB58:
 269              	.LBB59:
 270 00d0 A021     		mov	r1, #160	@ tmp338,
 271 00d2 051C     		mov	r5, r0	@ D.6302, tmp279
 272 00d4 5A78     		ldrb	r2, [r3, #1]	@ D.6300,
 273 00d6 C905     		lsl	r1, r1, #23	@ tmp338, tmp338,
 274 00d8 1204     		lsl	r2, r2, #16	@ D.6300, D.6300,
 275 00da 5218     		add	r2, r2, r1	@ D.6301, D.6300, tmp338
 276 00dc 5979     		ldrb	r1, [r3, #5]	@ D.6302,
 277 00de 8D40     		lsl	r5, r5, r1	@ D.6302, D.6302, D.6302
 278 00e0 291C     		mov	r1, r5	@ D.6302, D.6302
 279 00e2 AD00     		lsl	r5, r5, #2	@ tmp286, D.6302,
 280 00e4 A950     		str	r1, [r5, r2]	@ D.6302, _95->DATA
 281              	.LVL22:
 282 00e6 13E0     		b	.L8	@
 283              	.LVL23:
 284              	.L3:
 285              	.LBE59:
 286              	.LBE58:
 287              	.LBB60:
 288              	.LBB61:
 289 00e8 A020     		mov	r0, #160	@ tmp343,
 290              	.LVL24:
ARM GAS  /tmp/ccAWI8TV.s 			page 8


 291 00ea C005     		lsl	r0, r0, #23	@ tmp343, tmp343,
 292 00ec 1218     		add	r2, r2, r0	@ D.6301, D.6300, tmp343
 293 00ee 0120     		mov	r0, #1	@ tmp301,
 294 00f0 041C     		mov	r4, r0	@ D.6302, tmp301
 295 00f2 8C40     		lsl	r4, r4, r1	@ D.6302, D.6302, D.6302
 296 00f4 211C     		mov	r1, r4	@ D.6302, D.6302
 297 00f6 A400     		lsl	r4, r4, #2	@ tmp302, D.6302,
 298 00f8 A150     		str	r1, [r4, r2]	@ D.6302,* D.6301
 299              	.LVL25:
 300              	.LBE61:
 301              	.LBE60:
 302              	.LBB62:
 303              	.LBB63:
 304 00fa A021     		mov	r1, #160	@ tmp345,
 305 00fc 041C     		mov	r4, r0	@ D.6302, tmp301
 306 00fe 5A78     		ldrb	r2, [r3, #1]	@ D.6300,
 307 0100 C905     		lsl	r1, r1, #23	@ tmp345, tmp345,
 308 0102 1204     		lsl	r2, r2, #16	@ D.6300, D.6300,
 309 0104 5218     		add	r2, r2, r1	@ D.6301, D.6300, tmp345
 310 0106 5979     		ldrb	r1, [r3, #5]	@ D.6302,
 311 0108 8C40     		lsl	r4, r4, r1	@ D.6302, D.6302, D.6302
 312 010a A100     		lsl	r1, r4, #2	@ tmp307, D.6302,
 313 010c 0024     		mov	r4, #0	@ tmp308,
 314 010e 8C50     		str	r4, [r1, r2]	@ tmp308, _114->DATA
 315              	.LVL26:
 316              	.L8:
 317              	.LBE63:
 318              	.LBE62:
 319              	.LBB64:
 320              	.LBB65:
 321 0110 A021     		mov	r1, #160	@ tmp347,
 322 0112 051C     		mov	r5, r0	@ D.6302, tmp301
 323 0114 9A78     		ldrb	r2, [r3, #2]	@ D.6300,
 324 0116 C905     		lsl	r1, r1, #23	@ tmp347, tmp347,
 325 0118 1204     		lsl	r2, r2, #16	@ D.6300, D.6300,
 326 011a 5218     		add	r2, r2, r1	@ D.6301, D.6300, tmp347
 327 011c 9979     		ldrb	r1, [r3, #6]	@ D.6302,
 328 011e 8D40     		lsl	r5, r5, r1	@ D.6302, D.6302, D.6302
 329 0120 A900     		lsl	r1, r5, #2	@ tmp313, D.6302,
 330 0122 8C50     		str	r4, [r1, r2]	@ tmp308,* D.6301
 331              	.LVL27:
 332              	.LBE65:
 333              	.LBE64:
 334              	.LBB66:
 335              	.LBB67:
 336 0124 DA78     		ldrb	r2, [r3, #3]	@ D.6300,
 337 0126 DB79     		ldrb	r3, [r3, #7]	@ D.6302,
 338              	.LVL28:
 339 0128 A021     		mov	r1, #160	@ tmp349,
 340 012a 9840     		lsl	r0, r0, r3	@ D.6302, tmp301, D.6302
 341 012c 1204     		lsl	r2, r2, #16	@ D.6300, D.6300,
 342              	.LVL29:
 343 012e C905     		lsl	r1, r1, #23	@ tmp349, tmp349,
 344 0130 5218     		add	r2, r2, r1	@ D.6301, D.6300, tmp349
 345 0132 8300     		lsl	r3, r0, #2	@ tmp319, D.6302,
 346              	.LVL30:
 347 0134 9850     		str	r0, [r3, r2]	@ D.6302,* D.6301
ARM GAS  /tmp/ccAWI8TV.s 			page 9


 348              	.LVL31:
 349              	.L1:
 350              	.LBE67:
 351              	.LBE66:
   6:src/stepperMotor.c **** 		case 3:
   7:src/stepperMotor.c **** 			Chip_GPIO_SetPinState(LPC_GPIO, mot->ports[0], mot->pins[0], true);
   8:src/stepperMotor.c **** 			Chip_GPIO_SetPinState(LPC_GPIO, mot->ports[1], mot->pins[1], false);
   9:src/stepperMotor.c **** 			Chip_GPIO_SetPinState(LPC_GPIO, mot->ports[2], mot->pins[2], true);
  10:src/stepperMotor.c **** 			Chip_GPIO_SetPinState(LPC_GPIO, mot->ports[3], mot->pins[3], false);
  11:src/stepperMotor.c **** 			break;
  12:src/stepperMotor.c **** 		case 2:
  13:src/stepperMotor.c **** 			Chip_GPIO_SetPinState(LPC_GPIO, mot->ports[0], mot->pins[0], false);
  14:src/stepperMotor.c **** 			Chip_GPIO_SetPinState(LPC_GPIO, mot->ports[1], mot->pins[1], true);
  15:src/stepperMotor.c **** 			Chip_GPIO_SetPinState(LPC_GPIO, mot->ports[2], mot->pins[2], true);
  16:src/stepperMotor.c **** 			Chip_GPIO_SetPinState(LPC_GPIO, mot->ports[3], mot->pins[3], false);
  17:src/stepperMotor.c **** 			break;
  18:src/stepperMotor.c **** 		case 1:
  19:src/stepperMotor.c **** 			Chip_GPIO_SetPinState(LPC_GPIO, mot->ports[0], mot->pins[0], false);
  20:src/stepperMotor.c **** 			Chip_GPIO_SetPinState(LPC_GPIO, mot->ports[1], mot->pins[1], true);
  21:src/stepperMotor.c **** 			Chip_GPIO_SetPinState(LPC_GPIO, mot->ports[2], mot->pins[2], false);
  22:src/stepperMotor.c **** 			Chip_GPIO_SetPinState(LPC_GPIO, mot->ports[3], mot->pins[3], true);
  23:src/stepperMotor.c **** 			break;
  24:src/stepperMotor.c **** 		case 0:
  25:src/stepperMotor.c **** 			Chip_GPIO_SetPinState(LPC_GPIO, mot->ports[0], mot->pins[0], true);
  26:src/stepperMotor.c **** 			Chip_GPIO_SetPinState(LPC_GPIO, mot->ports[1], mot->pins[1], false);
  27:src/stepperMotor.c **** 			Chip_GPIO_SetPinState(LPC_GPIO, mot->ports[2], mot->pins[2], false);
  28:src/stepperMotor.c **** 			Chip_GPIO_SetPinState(LPC_GPIO, mot->ports[3], mot->pins[3], true);
  29:src/stepperMotor.c **** 			break;
  30:src/stepperMotor.c **** 	}
  31:src/stepperMotor.c **** }
 352              		.loc 1 31 0
 353              		@ sp needed	@
 354 0136 30BD     		pop	{r4, r5, pc}
 355              		.cfi_endproc
 356              	.LFE198:
 357              		.size	Stepper_StepCases, .-Stepper_StepCases
 358              		.section	.text.Stepper_Init,"ax",%progbits
 359              		.align	1
 360              		.global	Stepper_Init
 361              		.code	16
 362              		.thumb_func
 363              		.type	Stepper_Init, %function
 364              	Stepper_Init:
 365              	.LFB199:
  32:src/stepperMotor.c **** 
  33:src/stepperMotor.c **** void Stepper_Init(STEPPER_MOTOR_T *mot){
 366              		.loc 1 33 0
 367              		.cfi_startproc
 368              	.LVL32:
 369 0000 38B5     		push	{r3, r4, r5, lr}	@
 370              		.cfi_def_cfa_offset 16
 371              		.cfi_offset 3, -16
 372              		.cfi_offset 4, -12
 373              		.cfi_offset 5, -8
 374              		.cfi_offset 14, -4
  34:src/stepperMotor.c **** 
  35:src/stepperMotor.c **** 	//Initializes pins
ARM GAS  /tmp/ccAWI8TV.s 			page 10


  36:src/stepperMotor.c **** 	// Chip_GPIO_Init(LPC_GPIO);
  37:src/stepperMotor.c **** 	Chip_GPIO_WriteDirBit(LPC_GPIO, mot->ports[0], mot->pins[0], true);
 375              		.loc 1 37 0
 376 0002 A025     		mov	r5, #160	@ tmp123,
  33:src/stepperMotor.c **** 
 377              		.loc 1 33 0
 378 0004 041C     		mov	r4, r0	@ mot, mot
 379              		.loc 1 37 0
 380 0006 ED05     		lsl	r5, r5, #23	@ tmp123, tmp123,
 381 0008 0178     		ldrb	r1, [r0]	@ D.6307, *mot_2(D)
 382 000a 0279     		ldrb	r2, [r0, #4]	@ tmp125,
 383 000c 0123     		mov	r3, #1	@,
 384 000e 281C     		mov	r0, r5	@, tmp123
 385              	.LVL33:
 386 0010 FFF7FEFF 		bl	Chip_GPIO_WriteDirBit	@
 387              	.LVL34:
  38:src/stepperMotor.c **** 	Chip_GPIO_WriteDirBit(LPC_GPIO, mot->ports[1], mot->pins[1], true);
 388              		.loc 1 38 0
 389 0014 281C     		mov	r0, r5	@, tmp123
 390 0016 6178     		ldrb	r1, [r4, #1]	@ D.6307,
 391 0018 6279     		ldrb	r2, [r4, #5]	@ tmp128,
 392 001a 0123     		mov	r3, #1	@,
 393 001c FFF7FEFF 		bl	Chip_GPIO_WriteDirBit	@
 394              	.LVL35:
  39:src/stepperMotor.c **** 	Chip_GPIO_WriteDirBit(LPC_GPIO, mot->ports[2], mot->pins[2], true);
 395              		.loc 1 39 0
 396 0020 281C     		mov	r0, r5	@, tmp123
 397 0022 A178     		ldrb	r1, [r4, #2]	@ D.6307,
 398 0024 A279     		ldrb	r2, [r4, #6]	@ tmp131,
 399 0026 0123     		mov	r3, #1	@,
 400 0028 FFF7FEFF 		bl	Chip_GPIO_WriteDirBit	@
 401              	.LVL36:
  40:src/stepperMotor.c **** 	Chip_GPIO_WriteDirBit(LPC_GPIO, mot->ports[3], mot->pins[3], true);
 402              		.loc 1 40 0
 403 002c 281C     		mov	r0, r5	@, tmp123
 404 002e E178     		ldrb	r1, [r4, #3]	@ D.6307,
 405 0030 E279     		ldrb	r2, [r4, #7]	@ tmp134,
 406 0032 0123     		mov	r3, #1	@,
 407 0034 FFF7FEFF 		bl	Chip_GPIO_WriteDirBit	@
 408              	.LVL37:
  41:src/stepperMotor.c **** 	
  42:src/stepperMotor.c **** 	mot->zeroing = false;
 409              		.loc 1 42 0
 410 0038 0023     		mov	r3, #0	@ tmp135,
  43:src/stepperMotor.c **** 	mot->pos = 0;
  44:src/stepperMotor.c **** 	mot->ticks = 0;
  45:src/stepperMotor.c **** 	mot->step_num = 0;
  46:src/stepperMotor.c **** 
  47:src/stepperMotor.c **** }
 411              		.loc 1 47 0
 412              		@ sp needed	@
  42:src/stepperMotor.c **** 	mot->pos = 0;
 413              		.loc 1 42 0
 414 003a 2374     		strb	r3, [r4, #16]	@ tmp135, mot_2(D)->zeroing
  43:src/stepperMotor.c **** 	mot->pos = 0;
 415              		.loc 1 43 0
 416 003c A360     		str	r3, [r4, #8]	@ tmp135, mot_2(D)->pos
ARM GAS  /tmp/ccAWI8TV.s 			page 11


  44:src/stepperMotor.c **** 	mot->step_num = 0;
 417              		.loc 1 44 0
 418 003e 6361     		str	r3, [r4, #20]	@ tmp135, mot_2(D)->ticks
  45:src/stepperMotor.c **** 
 419              		.loc 1 45 0
 420 0040 A361     		str	r3, [r4, #24]	@ tmp135, mot_2(D)->step_num
 421              	.LVL38:
 422              		.loc 1 47 0
 423 0042 38BD     		pop	{r3, r4, r5, pc}
 424              		.cfi_endproc
 425              	.LFE199:
 426              		.size	Stepper_Init, .-Stepper_Init
 427              		.section	.text.Stepper_ZeroPosition,"ax",%progbits
 428              		.align	1
 429              		.global	Stepper_ZeroPosition
 430              		.code	16
 431              		.thumb_func
 432              		.type	Stepper_ZeroPosition, %function
 433              	Stepper_ZeroPosition:
 434              	.LFB201:
  48:src/stepperMotor.c **** 
  49:src/stepperMotor.c **** void Stepper_SetPosition(STEPPER_MOTOR_T *mot, uint8_t percent, volatile uint32_t msTicks){
  50:src/stepperMotor.c **** 	int32_t turn = (percent * mot->step_per_rotation) / 100;
  51:src/stepperMotor.c **** 	Stepper_Spin(mot, turn - mot->pos, msTicks);
  52:src/stepperMotor.c **** }
  53:src/stepperMotor.c **** 
  54:src/stepperMotor.c **** void Stepper_ZeroPosition(STEPPER_MOTOR_T *mot, volatile uint32_t msTicks){
 435              		.loc 1 54 0
 436              		.cfi_startproc
 437              	.LVL39:
  55:src/stepperMotor.c **** 	mot->new_pos = mot->pos - mot->step_per_rotation;
 438              		.loc 1 55 0
 439 0000 8368     		ldr	r3, [r0, #8]	@ tmp120, mot_2(D)->pos
 440 0002 C269     		ldr	r2, [r0, #28]	@ tmp121, mot_2(D)->step_per_rotation
  54:src/stepperMotor.c **** 	mot->new_pos = mot->pos - mot->step_per_rotation;
 441              		.loc 1 54 0
 442 0004 82B0     		sub	sp, sp, #8	@,,
 443              		.cfi_def_cfa_offset 8
 444              		.loc 1 55 0
 445 0006 9B1A     		sub	r3, r3, r2	@ D.6310, tmp120, tmp121
 446 0008 C360     		str	r3, [r0, #12]	@ D.6310, mot_2(D)->new_pos
  56:src/stepperMotor.c **** 	mot->zeroing = true;
 447              		.loc 1 56 0
 448 000a 0123     		mov	r3, #1	@ tmp118,
  54:src/stepperMotor.c **** 	mot->new_pos = mot->pos - mot->step_per_rotation;
 449              		.loc 1 54 0
 450 000c 0191     		str	r1, [sp, #4]	@ msTicks, msTicks
 451              		.loc 1 56 0
 452 000e 0374     		strb	r3, [r0, #16]	@ tmp118, mot_2(D)->zeroing
  57:src/stepperMotor.c **** 	mot->ticks = msTicks;
 453              		.loc 1 57 0
 454 0010 019B     		ldr	r3, [sp, #4]	@ D.6311, msTicks
 455 0012 4361     		str	r3, [r0, #20]	@ D.6311, mot_2(D)->ticks
  58:src/stepperMotor.c **** }
 456              		.loc 1 58 0
 457 0014 02B0     		add	sp, sp, #8	@,,
 458              		@ sp needed	@
ARM GAS  /tmp/ccAWI8TV.s 			page 12


 459 0016 7047     		bx	lr
 460              		.cfi_endproc
 461              	.LFE201:
 462              		.size	Stepper_ZeroPosition, .-Stepper_ZeroPosition
 463              		.section	.text.Stepper_Spin,"ax",%progbits
 464              		.align	1
 465              		.global	Stepper_Spin
 466              		.code	16
 467              		.thumb_func
 468              		.type	Stepper_Spin, %function
 469              	Stepper_Spin:
 470              	.LFB203:
  59:src/stepperMotor.c **** 
  60:src/stepperMotor.c **** void Stepper_HomePosition(STEPPER_MOTOR_T *mot, volatile uint32_t msTicks){
  61:src/stepperMotor.c **** 	Stepper_SetPosition(mot, 0, msTicks);
  62:src/stepperMotor.c **** }
  63:src/stepperMotor.c **** 
  64:src/stepperMotor.c **** STEPPER_STATE_T Stepper_Spin(STEPPER_MOTOR_T *mot, int32_t steps, volatile uint32_t msTicks) {
 471              		.loc 1 64 0
 472              		.cfi_startproc
 473              	.LVL40:
 474 0000 82B0     		sub	sp, sp, #8	@,,
 475              		.cfi_def_cfa_offset 8
 476              		.loc 1 64 0
 477 0002 0192     		str	r2, [sp, #4]	@ msTicks, msTicks
  65:src/stepperMotor.c **** 	if (mot->zeroing) {
 478              		.loc 1 65 0
 479 0004 027C     		ldrb	r2, [r0, #16]	@ tmp120,
 480              	.LVL41:
  64:src/stepperMotor.c **** 	if (mot->zeroing) {
 481              		.loc 1 64 0
 482 0006 031C     		mov	r3, r0	@ mot, mot
  66:src/stepperMotor.c **** 		return ZEROING;
 483              		.loc 1 66 0
 484 0008 0220     		mov	r0, #2	@ D.6314,
 485              	.LVL42:
  65:src/stepperMotor.c **** 	if (mot->zeroing) {
 486              		.loc 1 65 0
 487 000a 002A     		cmp	r2, #0	@ tmp120,
 488 000c 0ED1     		bne	.L13	@,
  67:src/stepperMotor.c **** 	}
  68:src/stepperMotor.c **** 	mot->new_pos = steps + mot->pos;
 489              		.loc 1 68 0
 490 000e 9A68     		ldr	r2, [r3, #8]	@ tmp127, mot_6(D)->pos
 491 0010 8918     		add	r1, r1, r2	@ D.6316, steps, tmp127
 492              	.LVL43:
  69:src/stepperMotor.c **** 	if (mot->new_pos > mot->step_per_rotation) mot->new_pos = mot->step_per_rotation;
 493              		.loc 1 69 0
 494 0012 DA69     		ldr	r2, [r3, #28]	@ D.6316, mot_6(D)->step_per_rotation
  68:src/stepperMotor.c **** 	if (mot->new_pos > mot->step_per_rotation) mot->new_pos = mot->step_per_rotation;
 495              		.loc 1 68 0
 496 0014 D960     		str	r1, [r3, #12]	@ D.6316, mot_6(D)->new_pos
 497              		.loc 1 69 0
 498 0016 9142     		cmp	r1, r2	@ D.6316, D.6316
 499 0018 00DD     		ble	.L14	@,
 500              		.loc 1 69 0 is_stmt 0 discriminator 1
 501 001a DA60     		str	r2, [r3, #12]	@ D.6316, mot_6(D)->new_pos
ARM GAS  /tmp/ccAWI8TV.s 			page 13


 502              	.L14:
  70:src/stepperMotor.c **** 	if (mot->new_pos < 0) mot->new_pos = 0;
 503              		.loc 1 70 0 is_stmt 1
 504 001c DA68     		ldr	r2, [r3, #12]	@ tmp128, mot_6(D)->new_pos
 505 001e 002A     		cmp	r2, #0	@ tmp128,
 506 0020 01DA     		bge	.L15	@,
 507              		.loc 1 70 0 is_stmt 0 discriminator 1
 508 0022 0022     		mov	r2, #0	@ tmp123,
 509 0024 DA60     		str	r2, [r3, #12]	@ tmp123, mot_6(D)->new_pos
 510              	.L15:
  71:src/stepperMotor.c **** 	mot->ticks =  msTicks; 
  72:src/stepperMotor.c **** 	return MOVING;
 511              		.loc 1 72 0 is_stmt 1
 512 0026 0120     		mov	r0, #1	@ D.6314,
  71:src/stepperMotor.c **** 	mot->ticks =  msTicks; 
 513              		.loc 1 71 0
 514 0028 019A     		ldr	r2, [sp, #4]	@ D.6317, msTicks
 515 002a 5A61     		str	r2, [r3, #20]	@ D.6317, mot_6(D)->ticks
 516              	.L13:
  73:src/stepperMotor.c **** }
 517              		.loc 1 73 0
 518 002c 02B0     		add	sp, sp, #8	@,,
 519              	.LVL44:
 520              		@ sp needed	@
 521 002e 7047     		bx	lr
 522              		.cfi_endproc
 523              	.LFE203:
 524              		.size	Stepper_Spin, .-Stepper_Spin
 525              		.global	__aeabi_idiv
 526              		.section	.text.Stepper_SetPosition,"ax",%progbits
 527              		.align	1
 528              		.global	Stepper_SetPosition
 529              		.code	16
 530              		.thumb_func
 531              		.type	Stepper_SetPosition, %function
 532              	Stepper_SetPosition:
 533              	.LFB200:
  49:src/stepperMotor.c **** 	int32_t turn = (percent * mot->step_per_rotation) / 100;
 534              		.loc 1 49 0
 535              		.cfi_startproc
 536              	.LVL45:
 537 0000 37B5     		push	{r0, r1, r2, r4, r5, lr}	@
 538              		.cfi_def_cfa_offset 24
 539              		.cfi_offset 0, -24
 540              		.cfi_offset 1, -20
 541              		.cfi_offset 2, -16
 542              		.cfi_offset 4, -12
 543              		.cfi_offset 5, -8
 544              		.cfi_offset 14, -4
  49:src/stepperMotor.c **** 	int32_t turn = (percent * mot->step_per_rotation) / 100;
 545              		.loc 1 49 0
 546 0002 041C     		mov	r4, r0	@ mot, mot
  50:src/stepperMotor.c **** 	Stepper_Spin(mot, turn - mot->pos, msTicks);
 547              		.loc 1 50 0
 548 0004 C069     		ldr	r0, [r0, #28]	@ D.6320, mot_4(D)->step_per_rotation
 549              	.LVL46:
  49:src/stepperMotor.c **** 	int32_t turn = (percent * mot->step_per_rotation) / 100;
ARM GAS  /tmp/ccAWI8TV.s 			page 14


 550              		.loc 1 49 0
 551 0006 0192     		str	r2, [sp, #4]	@ msTicks, msTicks
  50:src/stepperMotor.c **** 	Stepper_Spin(mot, turn - mot->pos, msTicks);
 552              		.loc 1 50 0
 553 0008 4843     		mul	r0, r1	@ D.6320, percent
 554 000a 6421     		mov	r1, #100	@,
 555              	.LVL47:
 556 000c FFF7FEFF 		bl	__aeabi_idiv	@
 557              	.LVL48:
  51:src/stepperMotor.c **** }
 558              		.loc 1 51 0
 559 0010 019D     		ldr	r5, [sp, #4]	@ D.6321, msTicks
 560 0012 A368     		ldr	r3, [r4, #8]	@ tmp128, mot_4(D)->pos
 561 0014 2A1C     		mov	r2, r5	@, D.6321
 562 0016 C11A     		sub	r1, r0, r3	@ D.6320, turn, tmp128
 563 0018 201C     		mov	r0, r4	@, mot
 564 001a FFF7FEFF 		bl	Stepper_Spin	@
 565              	.LVL49:
  52:src/stepperMotor.c **** 
 566              		.loc 1 52 0
 567              		@ sp needed	@
 568              	.LVL50:
 569 001e 37BD     		pop	{r0, r1, r2, r4, r5, pc}
 570              		.cfi_endproc
 571              	.LFE200:
 572              		.size	Stepper_SetPosition, .-Stepper_SetPosition
 573              		.section	.text.Stepper_HomePosition,"ax",%progbits
 574              		.align	1
 575              		.global	Stepper_HomePosition
 576              		.code	16
 577              		.thumb_func
 578              		.type	Stepper_HomePosition, %function
 579              	Stepper_HomePosition:
 580              	.LFB202:
  60:src/stepperMotor.c **** 	Stepper_SetPosition(mot, 0, msTicks);
 581              		.loc 1 60 0
 582              		.cfi_startproc
 583              	.LVL51:
 584 0000 07B5     		push	{r0, r1, r2, lr}	@
 585              		.cfi_def_cfa_offset 16
 586              		.cfi_offset 0, -16
 587              		.cfi_offset 1, -12
 588              		.cfi_offset 2, -8
 589              		.cfi_offset 14, -4
  60:src/stepperMotor.c **** 	Stepper_SetPosition(mot, 0, msTicks);
 590              		.loc 1 60 0
 591 0002 0191     		str	r1, [sp, #4]	@ msTicks, msTicks
  61:src/stepperMotor.c **** }
 592              		.loc 1 61 0
 593 0004 019A     		ldr	r2, [sp, #4]	@ D.6324, msTicks
 594 0006 0021     		mov	r1, #0	@,
 595              	.LVL52:
 596 0008 FFF7FEFF 		bl	Stepper_SetPosition	@
 597              	.LVL53:
  62:src/stepperMotor.c **** 
 598              		.loc 1 62 0
 599              		@ sp needed	@
ARM GAS  /tmp/ccAWI8TV.s 			page 15


 600 000c 07BD     		pop	{r0, r1, r2, pc}
 601              		.cfi_endproc
 602              	.LFE202:
 603              		.size	Stepper_HomePosition, .-Stepper_HomePosition
 604              		.section	.text.Stepper_Step,"ax",%progbits
 605              		.align	1
 606              		.global	Stepper_Step
 607              		.code	16
 608              		.thumb_func
 609              		.type	Stepper_Step, %function
 610              	Stepper_Step:
 611              	.LFB204:
  74:src/stepperMotor.c **** 
  75:src/stepperMotor.c **** STEPPER_STATE_T Stepper_Step(STEPPER_MOTOR_T *mot, volatile uint32_t msTicks){
 612              		.loc 1 75 0
 613              		.cfi_startproc
 614              	.LVL54:
 615 0000 37B5     		push	{r0, r1, r2, r4, r5, lr}	@
 616              		.cfi_def_cfa_offset 24
 617              		.cfi_offset 0, -24
 618              		.cfi_offset 1, -20
 619              		.cfi_offset 2, -16
 620              		.cfi_offset 4, -12
 621              		.cfi_offset 5, -8
 622              		.cfi_offset 14, -4
  76:src/stepperMotor.c **** 	if (mot->new_pos != mot->pos){
 623              		.loc 1 76 0
 624 0002 8368     		ldr	r3, [r0, #8]	@ D.6328, mot_5(D)->pos
 625 0004 C568     		ldr	r5, [r0, #12]	@ D.6328, mot_5(D)->new_pos
  75:src/stepperMotor.c **** 	if (mot->new_pos != mot->pos){
 626              		.loc 1 75 0
 627 0006 041C     		mov	r4, r0	@ mot, mot
 628 0008 0191     		str	r1, [sp, #4]	@ msTicks, msTicks
  77:src/stepperMotor.c **** 		if (msTicks - mot->ticks >= mot->step_delay){
  78:src/stepperMotor.c **** 			mot->ticks = msTicks;
  79:src/stepperMotor.c **** 			if (mot->new_pos > mot->pos){
  80:src/stepperMotor.c **** 				mot->step_num++;
  81:src/stepperMotor.c **** 				mot->pos++;
  82:src/stepperMotor.c **** 				Stepper_StepCases(mot, ((mot->step_num < 0) ? mot->step_num * -1 : mot->step_num) % 4);	
  83:src/stepperMotor.c **** 			} else {
  84:src/stepperMotor.c **** 				mot->step_num--;
  85:src/stepperMotor.c **** 				mot->pos--;
  86:src/stepperMotor.c **** 				Stepper_StepCases(mot, ((mot->step_num < 0) ? mot->step_num * -1 : mot->step_num) % 4);	
  87:src/stepperMotor.c **** 			}
  88:src/stepperMotor.c **** 			if (mot->zeroing) {
  89:src/stepperMotor.c **** 				if (mot->pos <= mot->new_pos){
  90:src/stepperMotor.c **** 					mot->zeroing = false;
  91:src/stepperMotor.c **** 					mot->pos = 0;
  92:src/stepperMotor.c **** 					mot->new_pos = 0;
  93:src/stepperMotor.c **** 				}
  94:src/stepperMotor.c **** 				return ZEROING;
  95:src/stepperMotor.c **** 			} else {
  96:src/stepperMotor.c **** 				return MOVING;
  97:src/stepperMotor.c **** 			}
  98:src/stepperMotor.c **** 		} 
  99:src/stepperMotor.c **** 	} 
 100:src/stepperMotor.c **** 
ARM GAS  /tmp/ccAWI8TV.s 			page 16


 101:src/stepperMotor.c **** 	return STOPPED;
 629              		.loc 1 101 0
 630 000a 0020     		mov	r0, #0	@ D.6327,
 631              	.LVL55:
  76:src/stepperMotor.c **** 		if (msTicks - mot->ticks >= mot->step_delay){
 632              		.loc 1 76 0
 633 000c 9D42     		cmp	r5, r3	@ D.6328, D.6328
 634 000e 27D0     		beq	.L20	@,
  77:src/stepperMotor.c **** 		if (msTicks - mot->ticks >= mot->step_delay){
 635              		.loc 1 77 0
 636 0010 6169     		ldr	r1, [r4, #20]	@ tmp158, mot_5(D)->ticks
 637              	.LVL56:
 638 0012 019A     		ldr	r2, [sp, #4]	@ D.6329, msTicks
 639 0014 521A     		sub	r2, r2, r1	@ D.6329, D.6329, tmp158
 640 0016 216A     		ldr	r1, [r4, #32]	@ tmp159, mot_5(D)->step_delay
 641 0018 8A42     		cmp	r2, r1	@ D.6329, tmp159
 642 001a 21D3     		bcc	.L20	@,
  78:src/stepperMotor.c **** 			if (mot->new_pos > mot->pos){
 643              		.loc 1 78 0
 644 001c 019A     		ldr	r2, [sp, #4]	@ D.6329, msTicks
 645 001e A169     		ldr	r1, [r4, #24]	@ mot_5(D)->step_num, mot_5(D)->step_num
 646 0020 6261     		str	r2, [r4, #20]	@ D.6329, mot_5(D)->ticks
  79:src/stepperMotor.c **** 				mot->step_num++;
 647              		.loc 1 79 0
 648 0022 9D42     		cmp	r5, r3	@ D.6328, D.6328
 649 0024 03DD     		ble	.L21	@,
  80:src/stepperMotor.c **** 				mot->pos++;
 650              		.loc 1 80 0
 651 0026 0131     		add	r1, r1, #1	@ D.6328,
 652 0028 A161     		str	r1, [r4, #24]	@ D.6328, mot_5(D)->step_num
  81:src/stepperMotor.c **** 				Stepper_StepCases(mot, ((mot->step_num < 0) ? mot->step_num * -1 : mot->step_num) % 4);	
 653              		.loc 1 81 0
 654 002a 0133     		add	r3, r3, #1	@ D.6328,
 655 002c 02E0     		b	.L28	@
 656              	.L21:
  84:src/stepperMotor.c **** 				mot->pos--;
 657              		.loc 1 84 0
 658 002e 0139     		sub	r1, r1, #1	@ D.6328,
 659 0030 A161     		str	r1, [r4, #24]	@ D.6328, mot_5(D)->step_num
  85:src/stepperMotor.c **** 				Stepper_StepCases(mot, ((mot->step_num < 0) ? mot->step_num * -1 : mot->step_num) % 4);	
 660              		.loc 1 85 0
 661 0032 013B     		sub	r3, r3, #1	@ D.6328,
 662              	.L28:
 663 0034 A360     		str	r3, [r4, #8]	@ D.6328, mot_5(D)->pos
  86:src/stepperMotor.c **** 			}
 664              		.loc 1 86 0
 665 0036 CB17     		asr	r3, r1, #31	@ tmp157, D.6328,
 666 0038 C918     		add	r1, r1, r3	@ D.6328, D.6328, tmp157
 667 003a 5940     		eor	r1, r3	@ D.6328, tmp157
 668 003c 0323     		mov	r3, #3	@ tmp145,
 669 003e 201C     		mov	r0, r4	@, mot
 670 0040 1940     		and	r1, r3	@ D.6328, tmp145
 671 0042 FFF7FEFF 		bl	Stepper_StepCases	@
 672              	.LVL57:
  88:src/stepperMotor.c **** 				if (mot->pos <= mot->new_pos){
 673              		.loc 1 88 0
 674 0046 237C     		ldrb	r3, [r4, #16]	@ tmp146,
ARM GAS  /tmp/ccAWI8TV.s 			page 17


  96:src/stepperMotor.c **** 			}
 675              		.loc 1 96 0
 676 0048 0120     		mov	r0, #1	@ D.6327,
  88:src/stepperMotor.c **** 				if (mot->pos <= mot->new_pos){
 677              		.loc 1 88 0
 678 004a 002B     		cmp	r3, #0	@ tmp146,
 679 004c 08D0     		beq	.L20	@,
  89:src/stepperMotor.c **** 					mot->zeroing = false;
 680              		.loc 1 89 0
 681 004e A368     		ldr	r3, [r4, #8]	@ tmp161, mot_5(D)->pos
 682 0050 E268     		ldr	r2, [r4, #12]	@ tmp162, mot_5(D)->new_pos
  94:src/stepperMotor.c **** 			} else {
 683              		.loc 1 94 0
 684 0052 0018     		add	r0, r0, r0	@ D.6327, D.6327,
  89:src/stepperMotor.c **** 					mot->zeroing = false;
 685              		.loc 1 89 0
 686 0054 9342     		cmp	r3, r2	@ tmp161, tmp162
 687 0056 03DC     		bgt	.L20	@,
  90:src/stepperMotor.c **** 					mot->pos = 0;
 688              		.loc 1 90 0
 689 0058 0023     		mov	r3, #0	@ tmp149,
 690 005a 2374     		strb	r3, [r4, #16]	@ tmp149, mot_5(D)->zeroing
  91:src/stepperMotor.c **** 					mot->new_pos = 0;
 691              		.loc 1 91 0
 692 005c A360     		str	r3, [r4, #8]	@ tmp149, mot_5(D)->pos
  92:src/stepperMotor.c **** 				}
 693              		.loc 1 92 0
 694 005e E360     		str	r3, [r4, #12]	@ tmp149, mot_5(D)->new_pos
 695              	.L20:
 102:src/stepperMotor.c **** 	
 103:src/stepperMotor.c **** }
 696              		.loc 1 103 0
 697              		@ sp needed	@
 698              	.LVL58:
 699 0060 3EBD     		pop	{r1, r2, r3, r4, r5, pc}
 700              		.cfi_endproc
 701              	.LFE204:
 702              		.size	Stepper_Step, .-Stepper_Step
 703              		.text
 704              	.Letext0:
 705              		.file 3 "/usr/arm-none-eabi/include/machine/_default_types.h"
 706              		.file 4 "/usr/arm-none-eabi/include/sys/_stdint.h"
 707              		.file 5 "inc/stepperMotor.h"
 708              		.file 6 "../../lpc11cx4-library/lpc_chip_11cxx_lib/inc/chip.h"